LX51 LINKER/LOCATER V4.64.0.0                                                           01/10/2017  17:59:18  PAGE 1


LX51 LINKER/LOCATER V4.64.0.0, INVOKED BY:
C:\PROGRAM FILES (X86)\CYPRESS\PSOC CREATOR\3.3\PSOC CREATOR\IMPORT\KEIL\PK51\9.51\C51\BIN\LX51.EXE .\DP8051_Keil_951\Re
>> lease\command_processing.obj, .\DP8051_Keil_951\Release\globals.obj, .\DP8051_Keil_951\Release\interruptions.obj, .\D
>> P8051_Keil_951\Release\main.obj, .\DP8051_Keil_951\Release\utils.obj, .\DP8051_Keil_951\Release\hand_firmware_micro.l
>> ib, C:\Program Files (x86)\Cypress\PSoC Creator\3.3\PSoC Creator\psoc\content\cycomponentlibrary\CyComponentLibrary.c
>> ylib\DP8051\DP8051_Keil_951\Release\CyComponentLibrary.lib TO .\DP8051_Keil_951\Release\hand_firmware_micro.omf CODE 
>> RU RC (10) DW (16) WL (2) PR (.\DP8051_Keil_951\Release/hand_firmware_micro.map) IX CL (XDATA (X:0X0000-X:0X1FFF)) CL
>>  (CODE (C:0X2600-C:0XFFBF)) CL (CONST (C:0X2600-C:0XFFBF))


CPU MODE:     8051 MODE
MEMORY MODEL: LARGE WITH FLOATING POINT ARITHMETIC


INPUT MODULES INCLUDED:
  .\DP8051_Keil_951\Release\command_processing.obj (COMMAND_PROCESSING)
         COMMENT TYPE 0: C51 V9.51
  .\DP8051_Keil_951\Release\globals.obj (GLOBALS)
         COMMENT TYPE 0: C51 V9.51
  .\DP8051_Keil_951\Release\interruptions.obj (INTERRUPTIONS)
         COMMENT TYPE 0: C51 V9.51
  .\DP8051_Keil_951\Release\main.obj (MAIN)
         COMMENT TYPE 0: C51 V9.51
  .\DP8051_Keil_951\Release\utils.obj (UTILS)
         COMMENT TYPE 0: C51 V9.51
  .\DP8051_Keil_951\Release\hand_firmware_micro.lib (CLOCK_UART)
         COMMENT TYPE 0: C51 V9.51
  .\DP8051_Keil_951\Release\hand_firmware_micro.lib (ISR_RS485_RX)
         COMMENT TYPE 0: C51 V9.51
  .\DP8051_Keil_951\Release\hand_firmware_micro.lib (PWM_MOTORS)
         COMMENT TYPE 0: C51 V9.51
  .\DP8051_Keil_951\Release\hand_firmware_micro.lib (PACER_TIMER)
         COMMENT TYPE 0: C51 V9.51
  .\DP8051_Keil_951\Release\hand_firmware_micro.lib (UART_RS485)
         COMMENT TYPE 0: C51 V9.51
  .\DP8051_Keil_951\Release\hand_firmware_micro.lib (MOTOR_DIR)
         COMMENT TYPE 0: C51 V9.51
  .\DP8051_Keil_951\Release\hand_firmware_micro.lib (COUNTER_ENC)
         COMMENT TYPE 0: C51 V9.51
  .\DP8051_Keil_951\Release\hand_firmware_micro.lib (SHIFTREG_ENC_3)
         COMMENT TYPE 0: C51 V9.51
  .\DP8051_Keil_951\Release\hand_firmware_micro.lib (SHIFTREG_ENC_2)
         COMMENT TYPE 0: C51 V9.51
  .\DP8051_Keil_951\Release\hand_firmware_micro.lib (EEPROM)
         COMMENT TYPE 0: C51 V9.51
  .\DP8051_Keil_951\Release\hand_firmware_micro.lib (ADC)
         COMMENT TYPE 0: C51 V9.51
  .\DP8051_Keil_951\Release\hand_firmware_micro.lib (RS485_CTS)
         COMMENT TYPE 0: C51 V9.51
  .\DP8051_Keil_951\Release\hand_firmware_micro.lib (BOOTLOADABLE)
         COMMENT TYPE 0: C51 V9.51
  .\DP8051_Keil_951\Release\hand_firmware_micro.lib (MOTOR_ON_OFF)
         COMMENT TYPE 0: C51 V9.51
  .\DP8051_Keil_951\Release\hand_firmware_micro.lib (FTDI_ENABLE_REG)
         COMMENT TYPE 0: C51 V9.51
  .\DP8051_Keil_951\Release\hand_firmware_micro.lib (RESET_FF)
         COMMENT TYPE 0: C51 V9.51
  .\DP8051_Keil_951\Release\hand_firmware_micro.lib (FF_STATUS)
         COMMENT TYPE 0: C51 V9.51
  .\DP8051_Keil_951\Release\hand_firmware_micro.lib (MY_TIMER)
         COMMENT TYPE 0: C51 V9.51
  .\DP8051_Keil_951\Release\hand_firmware_micro.lib (SHIFTREG_ENC_1)
         COMMENT TYPE 0: C51 V9.51
  .\DP8051_Keil_951\Release\hand_firmware_micro.lib (RESET_COUNTERS)
         COMMENT TYPE 0: C51 V9.51
  .\DP8051_Keil_951\Release\hand_firmware_micro.lib (ADC_STATUS)
LX51 LINKER/LOCATER V4.64.0.0                                                         01/10/2017  17:59:18  PAGE 2


         COMMENT TYPE 0: C51 V9.51
  .\DP8051_Keil_951\Release\hand_firmware_micro.lib (DMA_DMA)
         COMMENT TYPE 0: C51 V9.51
  .\DP8051_Keil_951\Release\hand_firmware_micro.lib (ADC_SOC)
         COMMENT TYPE 0: C51 V9.51
  .\DP8051_Keil_951\Release\hand_firmware_micro.lib (ISR_WATCHDOG)
         COMMENT TYPE 0: C51 V9.51
  .\DP8051_Keil_951\Release\hand_firmware_micro.lib (WATCHDOG_COUNTER)
         COMMENT TYPE 0: C51 V9.51
  .\DP8051_Keil_951\Release\hand_firmware_micro.lib (WATCHDOG_ENABLER)
         COMMENT TYPE 0: C51 V9.51
  .\DP8051_Keil_951\Release\hand_firmware_micro.lib (WATCHDOG_REFRESH)
         COMMENT TYPE 0: C51 V9.51
  .\DP8051_Keil_951\Release\hand_firmware_micro.lib (CYDMAC)
         COMMENT TYPE 0: C51 V9.51
  .\DP8051_Keil_951\Release\hand_firmware_micro.lib (CYFLASH)
         COMMENT TYPE 0: C51 V9.51
  .\DP8051_Keil_951\Release\hand_firmware_micro.lib (CYLIB)
         COMMENT TYPE 0: C51 V9.51
  .\DP8051_Keil_951\Release\hand_firmware_micro.lib (?C_STARTUP)
         COMMENT TYPE 0: AX51 V3.07d
  .\DP8051_Keil_951\Release\hand_firmware_micro.lib (LED_BLINK)
         COMMENT TYPE 0: C51 V9.51
  .\DP8051_Keil_951\Release\hand_firmware_micro.lib (LED_CTRL)
         COMMENT TYPE 0: C51 V9.51
  .\DP8051_Keil_951\Release\hand_firmware_micro.lib (LED_BLINK_EN)
         COMMENT TYPE 0: C51 V9.51
  .\DP8051_Keil_951\Release\hand_firmware_micro.lib (CYFITTER_CFG)
         COMMENT TYPE 0: C51 V9.51
  .\DP8051_Keil_951\Release\hand_firmware_micro.lib (UART_RS485_INT)
         COMMENT TYPE 0: C51 V9.51
  .\DP8051_Keil_951\Release\hand_firmware_micro.lib (ADC_INT)
         COMMENT TYPE 0: C51 V9.51
  .\DP8051_Keil_951\Release\hand_firmware_micro.lib (ADC_AMUX)
         COMMENT TYPE 0: C51 V9.51
  .\DP8051_Keil_951\Release\hand_firmware_micro.lib (ADC_EXT_CP_CLK)
         COMMENT TYPE 0: C51 V9.51
  .\DP8051_Keil_951\Release\hand_firmware_micro.lib (ADC_THEACLK)
         COMMENT TYPE 0: C51 V9.51
  .\DP8051_Keil_951\Release\hand_firmware_micro.lib (CYBOOTASMKEIL)
         COMMENT TYPE 0: AX51 V3.07d
  .\DP8051_Keil_951\Release\hand_firmware_micro.lib (CYMEM)
         COMMENT TYPE 0: AX51 V3.07d
  .\DP8051_Keil_951\Release\hand_firmware_micro.lib (CYPM)
         COMMENT TYPE 0: C51 V9.51
  .\DP8051_Keil_951\Release\hand_firmware_micro.lib (CYSPC)
         COMMENT TYPE 0: C51 V9.51
  C:\PROGRAM FILES (X86)\CYPRESS\PSOC CREATOR\3.3\PSOC CREATOR\IMPORT\KEIL\PK51\9.51\C51\LIB\C51FPL.LIB (?C?FPADD)
         COMMENT TYPE 1: A51 / ASM51 Assembler
  C:\PROGRAM FILES (X86)\CYPRESS\PSOC CREATOR\3.3\PSOC CREATOR\IMPORT\KEIL\PK51\9.51\C51\LIB\C51FPL.LIB (?C?FPMUL)
         COMMENT TYPE 1: A51 / ASM51 Assembler
  C:\PROGRAM FILES (X86)\CYPRESS\PSOC CREATOR\3.3\PSOC CREATOR\IMPORT\KEIL\PK51\9.51\C51\LIB\C51FPL.LIB (?C?FPDIV)
         COMMENT TYPE 1: A51 / ASM51 Assembler
  C:\PROGRAM FILES (X86)\CYPRESS\PSOC CREATOR\3.3\PSOC CREATOR\IMPORT\KEIL\PK51\9.51\C51\LIB\C51FPL.LIB (?C?FPCMP)
         COMMENT TYPE 1: A51 / ASM51 Assembler
  C:\PROGRAM FILES (X86)\CYPRESS\PSOC CREATOR\3.3\PSOC CREATOR\IMPORT\KEIL\PK51\9.51\C51\LIB\C51FPL.LIB (?C?FCAST)
         COMMENT TYPE 1: A51 / ASM51 Assembler
  C:\PROGRAM FILES (X86)\CYPRESS\PSOC CREATOR\3.3\PSOC CREATOR\IMPORT\KEIL\PK51\9.51\C51\LIB\C51FPL.LIB (?C?CASTF)
         COMMENT TYPE 1: A51 / ASM51 Assembler
  C:\PROGRAM FILES (X86)\CYPRESS\PSOC CREATOR\3.3\PSOC CREATOR\IMPORT\KEIL\PK51\9.51\C51\LIB\C51FPL.LIB (PRINTF)
         COMMENT TYPE 1: A51 / ASM51 Assembler
  C:\PROGRAM FILES (X86)\CYPRESS\PSOC CREATOR\3.3\PSOC CREATOR\IMPORT\KEIL\PK51\9.51\C51\LIB\C51FPL.LIB (POW)
         COMMENT TYPE 1: C51 Compiler
  C:\PROGRAM FILES (X86)\CYPRESS\PSOC CREATOR\3.3\PSOC CREATOR\IMPORT\KEIL\PK51\9.51\C51\LIB\C51FPL.LIB (?C?FPGETOPN)
         COMMENT TYPE 1: A51 / ASM51 Assembler
LX51 LINKER/LOCATER V4.64.0.0                                                         01/10/2017  17:59:18  PAGE 3


  C:\PROGRAM FILES (X86)\CYPRESS\PSOC CREATOR\3.3\PSOC CREATOR\IMPORT\KEIL\PK51\9.51\C51\LIB\C51FPL.LIB (?C?CHKFLOAT)
         COMMENT TYPE 1: A51 / ASM51 Assembler
  C:\PROGRAM FILES (X86)\CYPRESS\PSOC CREATOR\3.3\PSOC CREATOR\IMPORT\KEIL\PK51\9.51\C51\LIB\C51FPL.LIB (?C?FPNEG)
         COMMENT TYPE 1: A51 / ASM51 Assembler
  C:\PROGRAM FILES (X86)\CYPRESS\PSOC CREATOR\3.3\PSOC CREATOR\IMPORT\KEIL\PK51\9.51\C51\LIB\C51FPL.LIB (?C?FPROUND)
         COMMENT TYPE 1: A51 / ASM51 Assembler
  C:\PROGRAM FILES (X86)\CYPRESS\PSOC CREATOR\3.3\PSOC CREATOR\IMPORT\KEIL\PK51\9.51\C51\LIB\C51FPL.LIB (?C?FPCONVERT)
         COMMENT TYPE 1: A51 / ASM51 Assembler
  C:\PROGRAM FILES (X86)\CYPRESS\PSOC CREATOR\3.3\PSOC CREATOR\IMPORT\KEIL\PK51\9.51\C51\LIB\C51FPL.LIB (EXP)
         COMMENT TYPE 1: A51 / ASM51 Assembler
  C:\PROGRAM FILES (X86)\CYPRESS\PSOC CREATOR\3.3\PSOC CREATOR\IMPORT\KEIL\PK51\9.51\C51\LIB\C51FPL.LIB (LOG)
         COMMENT TYPE 1: A51 / ASM51 Assembler
  C:\PROGRAM FILES (X86)\CYPRESS\PSOC CREATOR\3.3\PSOC CREATOR\IMPORT\KEIL\PK51\9.51\C51\LIB\C51FPL.LIB (?C?FTNPWR)
         COMMENT TYPE 1: A51 / ASM51 Assembler
  C:\PROGRAM FILES (X86)\CYPRESS\PSOC CREATOR\3.3\PSOC CREATOR\IMPORT\KEIL\PK51\9.51\C51\LIB\C51FPL.LIB (?C?FPSERIES)
         COMMENT TYPE 1: A51 / ASM51 Assembler
  C:\PROGRAM FILES (X86)\CYPRESS\PSOC CREATOR\3.3\PSOC CREATOR\IMPORT\KEIL\PK51\9.51\C51\LIB\C51L.LIB (?C_INIT)
         COMMENT TYPE 1: A51 / ASM51 Assembler
  C:\PROGRAM FILES (X86)\CYPRESS\PSOC CREATOR\3.3\PSOC CREATOR\IMPORT\KEIL\PK51\9.51\C51\LIB\C51L.LIB (?C?CLDPTR)
         COMMENT TYPE 1: A51 / ASM51 Assembler
  C:\PROGRAM FILES (X86)\CYPRESS\PSOC CREATOR\3.3\PSOC CREATOR\IMPORT\KEIL\PK51\9.51\C51\LIB\C51L.LIB (?C?CLDOPTR)
         COMMENT TYPE 1: A51 / ASM51 Assembler
  C:\PROGRAM FILES (X86)\CYPRESS\PSOC CREATOR\3.3\PSOC CREATOR\IMPORT\KEIL\PK51\9.51\C51\LIB\C51L.LIB (?C?CSTPTR)
         COMMENT TYPE 1: A51 / ASM51 Assembler
  C:\PROGRAM FILES (X86)\CYPRESS\PSOC CREATOR\3.3\PSOC CREATOR\IMPORT\KEIL\PK51\9.51\C51\LIB\C51L.LIB (?C?IMUL)
         COMMENT TYPE 1: A51 / ASM51 Assembler
  C:\PROGRAM FILES (X86)\CYPRESS\PSOC CREATOR\3.3\PSOC CREATOR\IMPORT\KEIL\PK51\9.51\C51\LIB\C51L.LIB (?C?ISTPTR)
         COMMENT TYPE 1: A51 / ASM51 Assembler
  C:\PROGRAM FILES (X86)\CYPRESS\PSOC CREATOR\3.3\PSOC CREATOR\IMPORT\KEIL\PK51\9.51\C51\LIB\C51L.LIB (?C?LMUL)
         COMMENT TYPE 1: A51 / ASM51 Assembler
  C:\PROGRAM FILES (X86)\CYPRESS\PSOC CREATOR\3.3\PSOC CREATOR\IMPORT\KEIL\PK51\9.51\C51\LIB\C51L.LIB (?C?ULDIV)
         COMMENT TYPE 1: A51 / ASM51 Assembler
  C:\PROGRAM FILES (X86)\CYPRESS\PSOC CREATOR\3.3\PSOC CREATOR\IMPORT\KEIL\PK51\9.51\C51\LIB\C51L.LIB (?C?SLDIV)
         COMMENT TYPE 1: A51 / ASM51 Assembler
  C:\PROGRAM FILES (X86)\CYPRESS\PSOC CREATOR\3.3\PSOC CREATOR\IMPORT\KEIL\PK51\9.51\C51\LIB\C51L.LIB (?C?LNOT)
         COMMENT TYPE 1: A51 / ASM51 Assembler
  C:\PROGRAM FILES (X86)\CYPRESS\PSOC CREATOR\3.3\PSOC CREATOR\IMPORT\KEIL\PK51\9.51\C51\LIB\C51L.LIB (?C?LNEG)
         COMMENT TYPE 1: A51 / ASM51 Assembler
  C:\PROGRAM FILES (X86)\CYPRESS\PSOC CREATOR\3.3\PSOC CREATOR\IMPORT\KEIL\PK51\9.51\C51\LIB\C51L.LIB (?C?SLCMP)
         COMMENT TYPE 1: A51 / ASM51 Assembler
  C:\PROGRAM FILES (X86)\CYPRESS\PSOC CREATOR\3.3\PSOC CREATOR\IMPORT\KEIL\PK51\9.51\C51\LIB\C51L.LIB (?C?ULCMP)
         COMMENT TYPE 1: A51 / ASM51 Assembler
  C:\PROGRAM FILES (X86)\CYPRESS\PSOC CREATOR\3.3\PSOC CREATOR\IMPORT\KEIL\PK51\9.51\C51\LIB\C51L.LIB (?C?ULSHR)
         COMMENT TYPE 1: A51 / ASM51 Assembler
  C:\PROGRAM FILES (X86)\CYPRESS\PSOC CREATOR\3.3\PSOC CREATOR\IMPORT\KEIL\PK51\9.51\C51\LIB\C51L.LIB (?C?SLSHR)
         COMMENT TYPE 1: A51 / ASM51 Assembler
  C:\PROGRAM FILES (X86)\CYPRESS\PSOC CREATOR\3.3\PSOC CREATOR\IMPORT\KEIL\PK51\9.51\C51\LIB\C51L.LIB (?C?LSHL)
         COMMENT TYPE 1: A51 / ASM51 Assembler
  C:\PROGRAM FILES (X86)\CYPRESS\PSOC CREATOR\3.3\PSOC CREATOR\IMPORT\KEIL\PK51\9.51\C51\LIB\C51L.LIB (?C?LLDPTR)
         COMMENT TYPE 1: A51 / ASM51 Assembler
  C:\PROGRAM FILES (X86)\CYPRESS\PSOC CREATOR\3.3\PSOC CREATOR\IMPORT\KEIL\PK51\9.51\C51\LIB\C51L.LIB (?C?LSTPTR)
         COMMENT TYPE 1: A51 / ASM51 Assembler
  C:\PROGRAM FILES (X86)\CYPRESS\PSOC CREATOR\3.3\PSOC CREATOR\IMPORT\KEIL\PK51\9.51\C51\LIB\C51L.LIB (?C?LLDCODE)
         COMMENT TYPE 1: A51 / ASM51 Assembler
  C:\PROGRAM FILES (X86)\CYPRESS\PSOC CREATOR\3.3\PSOC CREATOR\IMPORT\KEIL\PK51\9.51\C51\LIB\C51L.LIB (?C?LLDXDATA0)
         COMMENT TYPE 1: A51 / ASM51 Assembler
  C:\PROGRAM FILES (X86)\CYPRESS\PSOC CREATOR\3.3\PSOC CREATOR\IMPORT\KEIL\PK51\9.51\C51\LIB\C51L.LIB (?C?LLDCODE0)
         COMMENT TYPE 1: A51 / ASM51 Assembler
  C:\PROGRAM FILES (X86)\CYPRESS\PSOC CREATOR\3.3\PSOC CREATOR\IMPORT\KEIL\PK51\9.51\C51\LIB\C51L.LIB (?C?LSTXDATA)
         COMMENT TYPE 1: A51 / ASM51 Assembler
  C:\PROGRAM FILES (X86)\CYPRESS\PSOC CREATOR\3.3\PSOC CREATOR\IMPORT\KEIL\PK51\9.51\C51\LIB\C51L.LIB (?C?LSTKXDATA)
         COMMENT TYPE 1: A51 / ASM51 Assembler
  C:\PROGRAM FILES (X86)\CYPRESS\PSOC CREATOR\3.3\PSOC CREATOR\IMPORT\KEIL\PK51\9.51\C51\LIB\C51L.LIB (?C?PLDIXDATA)
         COMMENT TYPE 1: A51 / ASM51 Assembler
  C:\PROGRAM FILES (X86)\CYPRESS\PSOC CREATOR\3.3\PSOC CREATOR\IMPORT\KEIL\PK51\9.51\C51\LIB\C51L.LIB (?C?PSTXDATA)
LX51 LINKER/LOCATER V4.64.0.0                                                         01/10/2017  17:59:18  PAGE 4


         COMMENT TYPE 1: A51 / ASM51 Assembler
  C:\PROGRAM FILES (X86)\CYPRESS\PSOC CREATOR\3.3\PSOC CREATOR\IMPORT\KEIL\PK51\9.51\C51\LIB\C51L.LIB (?C?CCASE)
         COMMENT TYPE 1: A51 / ASM51 Assembler
  C:\PROGRAM FILES (X86)\CYPRESS\PSOC CREATOR\3.3\PSOC CREATOR\IMPORT\KEIL\PK51\9.51\C51\LIB\C51L.LIB (?C_XBP)
         COMMENT TYPE 1: A51 / ASM51 Assembler
  C:\PROGRAM FILES (X86)\CYPRESS\PSOC CREATOR\3.3\PSOC CREATOR\IMPORT\KEIL\PK51\9.51\C51\LIB\C51L.LIB (?C?ADDXBP)
         COMMENT TYPE 1: A51 / ASM51 Assembler
  C:\PROGRAM FILES (X86)\CYPRESS\PSOC CREATOR\3.3\PSOC CREATOR\IMPORT\KEIL\PK51\9.51\C51\LIB\C51L.LIB (?C?LIMUL)
         COMMENT TYPE 1: A51 / ASM51 Assembler
  C:\PROGRAM FILES (X86)\CYPRESS\PSOC CREATOR\3.3\PSOC CREATOR\IMPORT\KEIL\PK51\9.51\C51\LIB\C51L.LIB (PUTCHAR)
         COMMENT TYPE 1: A51 / ASM51 Assembler
  C:\PROGRAM FILES (X86)\CYPRESS\PSOC CREATOR\3.3\PSOC CREATOR\IMPORT\KEIL\PK51\9.51\C51\LIB\C51L.LIB (ABS)
         COMMENT TYPE 1: A51 / ASM51 Assembler
  C:\PROGRAM FILES (X86)\CYPRESS\PSOC CREATOR\3.3\PSOC CREATOR\IMPORT\KEIL\PK51\9.51\C51\LIB\C51L.LIB (STRCAT)
         COMMENT TYPE 1: C51 Compiler
  C:\PROGRAM FILES (X86)\CYPRESS\PSOC CREATOR\3.3\PSOC CREATOR\IMPORT\KEIL\PK51\9.51\C51\LIB\C51L.LIB (STRLEN)
         COMMENT TYPE 1: A51 / ASM51 Assembler
  C:\PROGRAM FILES (X86)\CYPRESS\PSOC CREATOR\3.3\PSOC CREATOR\IMPORT\KEIL\PK51\9.51\C51\LIB\C51L.LIB (?C?COPYAMD)
         COMMENT TYPE 1: A51 / ASM51 Assembler
  C:\PROGRAM FILES (X86)\CYPRESS\PSOC CREATOR\3.3\PSOC CREATOR\IMPORT\KEIL\PK51\9.51\C51\LIB\C51L.LIB (?C?STRCPYAMD)
         COMMENT TYPE 1: A51 / ASM51 Assembler
  C:\PROGRAM FILES (X86)\CYPRESS\PSOC CREATOR\3.3\PSOC CREATOR\IMPORT\KEIL\PK51\9.51\C51\LIB\C51L.LIB (?C?IILDX)
         COMMENT TYPE 1: A51 / ASM51 Assembler
  C:\PROGRAM FILES (X86)\CYPRESS\PSOC CREATOR\3.3\PSOC CREATOR\IMPORT\KEIL\PK51\9.51\C51\LIB\C51L.LIB (?C?ILDIX)
         COMMENT TYPE 1: A51 / ASM51 Assembler
  C:\PROGRAM FILES (X86)\CYPRESS\PSOC CREATOR\3.3\PSOC CREATOR\IMPORT\KEIL\PK51\9.51\C51\LIB\C51L.LIB (?C?LLDIDATA)
         COMMENT TYPE 1: A51 / ASM51 Assembler
  C:\PROGRAM FILES (X86)\CYPRESS\PSOC CREATOR\3.3\PSOC CREATOR\IMPORT\KEIL\PK51\9.51\C51\LIB\C51L.LIB (?C?LLDXDATA)
         COMMENT TYPE 1: A51 / ASM51 Assembler
  C:\PROGRAM FILES (X86)\CYPRESS\PSOC CREATOR\3.3\PSOC CREATOR\IMPORT\KEIL\PK51\9.51\C51\LIB\C51L.LIB (?C?LLDPDATA)
         COMMENT TYPE 1: A51 / ASM51 Assembler
  C:\PROGRAM FILES (X86)\CYPRESS\PSOC CREATOR\3.3\PSOC CREATOR\IMPORT\KEIL\PK51\9.51\C51\LIB\C51L.LIB (?C?LSTIDATA)
         COMMENT TYPE 1: A51 / ASM51 Assembler
  C:\PROGRAM FILES (X86)\CYPRESS\PSOC CREATOR\3.3\PSOC CREATOR\IMPORT\KEIL\PK51\9.51\C51\LIB\C51L.LIB (?C?LSTPDATA)
         COMMENT TYPE 1: A51 / ASM51 Assembler


ACTIVE MEMORY CLASSES OF MODULE:  .\DP8051_Keil_951\Release\hand_firmware_micro.omf (COMMAND_PROCESSING)

BASE        START       END         USED      MEMORY CLASS
==========================================================
X:000000H   X:000000H   X:001FFFH   000DAAH   XDATA
C:000000H   C:002600H   C:00FFBFH   00AB4AH   CODE
C:000000H   C:002600H   C:00FFBFH   000BD3H   CONST
I:000000H   I:000000H   I:00007FH   000060H   DATA
I:000020H.0 I:000020H.0 I:00002FH.7 000002H.1 BIT
I:000000H   I:000000H   I:0000FFH   000004H   IDATA


MEMORY MAP OF MODULE:  .\DP8051_Keil_951\Release\hand_firmware_micro.omf (COMMAND_PROCESSING)


START     STOP      LENGTH    ALIGN  RELOC    MEMORY CLASS   SEGMENT NAME
=========================================================================

* * * * * * * * * * *   D A T A   M E M O R Y   * * * * * * * * * * * * *
000000H   000007H   000008H   ---    AT..     DATA           "REG BANK 0"
000008H   00000FH   000008H   BYTE   UNIT     DATA           ?DT?INTERRUPTIONS
000010H   000011H   000002H   BYTE   UNIT     DATA           ?DT?COMMAND_PROCESSING
000012H   000013H   000002H   BYTE   UNIT     DATA           ?C?LIB_DATA
000014H   000016H   000003H   BYTE   UNIT     IDATA          _IDATA_GROUP_
000017H.0 00001FH.7 000009H.0 ---    ---      **GAP**
000020H.0 000021H.1 000001H.2 BIT    UNIT     BIT            _BIT_GROUP_
000021H.2 000021H.5 000000H.4 BIT    UNIT     BIT            ?BI?GLOBALS
000021H.6 000022H.0 000000H.3 BIT    UNIT     BIT            ?BI?INTERRUPTIONS
LX51 LINKER/LOCATER V4.64.0.0                                                         01/10/2017  17:59:18  PAGE 5


000022H.1 000022H   000000H.7 ---    ---      **GAP**
000023H   00006EH   00004CH   BYTE   UNIT     DATA           _DATA_GROUP_
00006FH   00006FH   000001H   BYTE   UNIT     IDATA          ?STACK

* * * * * * * * * * *   C O D E   M E M O R Y   * * * * * * * * * * * * *
002600H   002619H   00001AH   ---    OFFS..   CODE           ?CO?KEILSTART?3
00261AH   003B0AH   0014F1H   BYTE   UNIT     CODE           ?PR?_GET_PARAM_LIST?COMMAND_PROCESSING
003B0BH   004FB1H   0014A7H   BYTE   UNIT     CODE           ?PR?_INFOPREPARE?COMMAND_PROCESSING
004FB2H   006252H   0012A1H   BYTE   UNIT     CODE           ?CO?COMMAND_PROCESSING
006253H   00728CH   00103AH   BYTE   UNIT     CODE           ?PR?MOTOR_CONTROL?INTERRUPTIONS
00728DH   007E07H   000B7BH   BYTE   UNIT     CODE           ?C?LIB_CODE
007E08H   008679H   000872H   BYTE   UNIT     CODE           ?PR?_ENCODER_READING?INTERRUPTIONS
00867AH   008C36H   0005BDH   BYTE   UNIT     CODE           ?PR?ANALOG_READ_END?INTERRUPTIONS
008C37H   0090B9H   000483H   BYTE   UNIT     CODE           ?PR?PRINTF?PRINTF
0090BAH   0093C1H   000308H   BYTE   UNIT     CODE           ?PR?CMD_STORE_PARAMS?COMMAND_PROCESSING
0093C2H   0095C6H   000205H   BYTE   UNIT     CODE           ?PR?MAIN?MAIN
0095C7H   00977AH   0001B4H   BYTE   UNIT     CODE           ?PR?CMD_SET_INPUTS?COMMAND_PROCESSING
00977BH   009929H   0001AFH   BYTE   UNIT     CODE           ?PR?MEMINIT?COMMAND_PROCESSING
00992AH   009AD1H   0001A8H   BYTE   UNIT     CODE           ?PR?COMMPROCESS?COMMAND_PROCESSING
009AD2H   009C73H   0001A2H   BYTE   UNIT     CODE           ?PR?_CURR_ESTIM?UTILS
009C74H   009E14H   0001A1H   BYTE   UNIT     CODE           ?PR?_ADC_GAINCOMPENSATION?ADC
009E15H   009FADH   000199H   BYTE   UNIT     CODE           ?PR?CLOCKSETUP?CYFITTER_CFG
009FAEH   00A113H   000166H   BYTE   UNIT     CODE           ?PR?_POW?POW
00A114H   00A244H   000131H   BYTE   UNIT     CODE           ?PR?_ADC_EXT_CP_CLK_SETDIVIDERREGISTER?ADC_EXT_CP_CLK
00A245H   00A374H   000130H   BYTE   UNIT     CODE           ?PR?CALIBRATION?UTILS
00A375H   00A4A4H   000130H   BYTE   UNIT     CODE           ?PR?_CLOCK_UART_SETDIVIDERREGISTER?CLOCK_UART
00A4A5H   00A5D3H   00012FH   BYTE   UNIT     CODE           ?PR?_ADC_THEACLK_SETDIVIDERREGISTER?ADC_THEACLK
00A5D4H   00A6FCH   000129H   BYTE   UNIT     CODE           ?PR?LOG?LOG
00A6FDH   00A823H   000127H   BYTE   UNIT     CODE           ?PR?INTERRUPT_MANAGER?INTERRUPTIONS
00A824H   00A940H   00011DH   BYTE   UNIT     CODE           ?C_C51STARTUP
00A941H   00AA59H   000119H   BYTE   UNIT     CODE           ?PR?CYFITTER_CFG?CYFITTER_CFG
00AA5AH   00AB51H   0000F8H   BYTE   UNIT     CODE           ?PR?FUNCTION_SCHEDULER?INTERRUPTIONS
00AB52H   00AC3AH   0000E9H   BYTE   UNIT     CODE           ?PR?CFG_DMA_INIT?CYFITTER_CFG
00AC3BH   00AD1BH   0000E1H   BYTE   UNIT     CODE           ?C_INITSEG
00AD1CH   00ADFAH   0000DFH   BYTE   UNIT     CODE           ?PR?_EEPROM_WRITE?EEPROM
00ADFBH   00AED5H   0000DBH   BYTE   UNIT     CODE           ?PR?_CALC_TURNS_FCN?UTILS
00AED6H   00AF8DH   0000B8H   BYTE   UNIT     CODE           ?PR?_MEMSTORE?COMMAND_PROCESSING
00AF8EH   00B040H   0000B3H   BYTE   UNIT     CODE           ?PR?_FILTER_CURR_DIFF?UTILS
00B041H   00B0F1H   0000B1H   BYTE   UNIT     CODE           ?PR?ADC_INIT?ADC
00B0F2H   00B1A2H   0000B1H   BYTE   UNIT     CODE           ?PR?UART_RS485_RXISR?UART_RS485_INT
00B1A3H   00B250H   0000AEH   BYTE   UNIT     CODE           ?PR?_ADC_INITCONFIG?ADC
00B251H   00B2EBH   00009BH   BYTE   UNIT     CODE           ?PR?CMD_GET_CURRENTS?COMMAND_PROCESSING
00B2ECH   00B385H   00009AH   BYTE   UNIT     CODE           ?PR?EXP?EXP
00B386H   00B412H   00008DH   BYTE   UNIT     CODE           ?PR?_COMMWRITE_OLD_ID?COMMAND_PROCESSING
00B413H   00B49FH   00008DH   BYTE   UNIT     CODE           ?PR?_COMMWRITE?COMMAND_PROCESSING
00B4A0H   00B527H   000088H   BYTE   UNIT     CODE           ?PR?ADC_ENABLE?ADC
00B528H   00B5AFH   000088H   BYTE   UNIT     CODE           ?PR?_?CYDELAY?CYLIB
00B5B0H   00B636H   000087H   BYTE   UNIT     CODE           ?PR?_CYDMATDSETCONFIGURATION?CYDMAC
00B637H   00B6BAH   000084H   BYTE   UNIT     CODE           ?PR?_COMMWRITEANOTHER?COMMAND_PROCESSING
00B6BBH   00B73DH   000083H   BYTE   UNIT     CODE           ?PR?SETZEROS?COMMAND_PROCESSING
00B73EH   00B7C0H   000083H   BYTE   UNIT     CODE           ?PR?_FILTER_CH1?UTILS
00B7C1H   00B843H   000083H   BYTE   UNIT     CODE           ?PR?_FILTER_VEL_1?UTILS
00B844H   00B8C6H   000083H   BYTE   UNIT     CODE           ?PR?_FILTER_VEL_2?UTILS
00B8C7H   00B949H   000083H   BYTE   UNIT     CODE           ?PR?_FILTER_VEL_3?UTILS
00B94AH   00B9CCH   000083H   BYTE   UNIT     CODE           ?PR?_FILTER_CH2?UTILS
00B9CDH   00BA4FH   000083H   BYTE   UNIT     CODE           ?PR?_FILTER_ACC_1?UTILS
00BA50H   00BAD2H   000083H   BYTE   UNIT     CODE           ?PR?_FILTER_ACC_2?UTILS
00BAD3H   00BB55H   000083H   BYTE   UNIT     CODE           ?PR?_FILTER_ACC_3?UTILS
00BB56H   00BBD6H   000081H   BYTE   UNIT     CODE           ?PR?_MY_MOD?UTILS
00BBD7H   00BC4FH   000079H   BYTE   UNIT     CODE           ?PR?COMMAND_SLAVE?INTERRUPTIONS
00BC50H   00BCC8H   000079H   BYTE   UNIT     CODE           ?PR?_CYDMACHSETCONFIGURATION?CYDMAC
00BCC9H   00BD40H   000078H   BYTE   UNIT     CODE           ?PR?_CYDMACHSETEXTENDEDADDRESS?CYDMAC
00BD41H   00BDB8H   000078H   BYTE   UNIT     CODE           ?PR?_CYDMATDSETADDRESS?CYDMAC
00BDB9H   00BE2EH   000076H   BYTE   UNIT     CODE           ?PR?PWM_LIMIT_SEARCH?INTERRUPTIONS
00BE2FH   00BEA3H   000075H   BYTE   UNIT     CODE           ?PR?_FILTER_I1?UTILS
LX51 LINKER/LOCATER V4.64.0.0                                                         01/10/2017  17:59:18  PAGE 6


00BEA4H   00BF17H   000074H   BYTE   UNIT     CODE           ?PR?OVERCURRENT_CONTROL?INTERRUPTIONS
00BF18H   00BF8AH   000073H   BYTE   UNIT     CODE           ?PR?_CYSPCLOADROW?CYSPC
00BF8BH   00BFF6H   00006CH   BYTE   UNIT     CODE           ?PR?CMD_GET_MEASUREMENTS?COMMAND_PROCESSING
00BFF7H   00C061H   00006BH   BYTE   UNIT     CODE           ?PR?_CHECK_ENC_DATA?UTILS
00C062H   00C0CCH   00006BH   BYTE   UNIT     CODE           ?PR?_STRCAT?STRCAT
00C0CDH   00C12DH   000061H   BYTE   UNIT     CODE           ?PR?CMD_GET_INPUTS?COMMAND_PROCESSING
00C12EH   00C18DH   000060H   BYTE   UNIT     CODE           ?PR?_CYSPCREADDATA?CYSPC
00C18EH   00C1E8H   00005BH   BYTE   UNIT     CODE           ?PR?UART_RS485_GETCHAR?UART_RS485
00C1E9H   00C23EH   000056H   BYTE   UNIT     CODE           ?PR?CYSETTEMPINT?CYFLASH
00C23FH   00C292H   000054H   BYTE   UNIT     CODE           ?PR?_CYINTSETVECTOR?CYLIB
00C293H   00C2E6H   000054H   BYTE   UNIT     CODE           ?PR?_CYSPCWRITEROW?CYSPC
00C2E7H   00C336H   000050H   BYTE   UNIT     CODE           ?PR?CYFLASHGETSPCALGORITHM?CYFLASH
00C337H   00C385H   00004FH   BYTE   UNIT     CODE           ?PR?UART_RS485_GETRXBUFFERSIZE?UART_RS485
00C386H   00C3D2H   00004DH   BYTE   UNIT     CODE           ?PR?MEMRECALL?COMMAND_PROCESSING
00C3D3H   00C41DH   00004BH   BYTE   UNIT     CODE           ?PR?_CYDMACHENABLE?CYDMAC
00C41EH   00C467H   00004AH   BYTE   UNIT     CODE           ?PR?_DMA_DMAINITIALIZE?DMA_DMA
00C468H   00C4B0H   000049H   BYTE   UNIT     CODE           ?PR?CMD_GET_EMG?COMMAND_PROCESSING
00C4B1H   00C4F7H   000047H   BYTE   UNIT     CODE           ?PR?MEMRESTORE?COMMAND_PROCESSING
00C4F8H   00C53BH   000044H   BYTE   UNIT     CODE           ?C?LDIV
00C53CH   00C57EH   000043H   BYTE   UNIT     CODE           ?PR?CMD_ACTIVATE?COMMAND_PROCESSING
00C57FH   00C5BFH   000041H   BYTE   UNIT     CODE           ?PR?CMD_SET_WATCHDOG?COMMAND_PROCESSING
00C5C0H   00C5FFH   000040H   BYTE   UNIT     CODE           ?PR?_CYDMACHPRIORITY?CYDMAC
00C600H   00C63DH   00003EH   BYTE   UNIT     CODE           ?PR?CYDMATDALLOCATE?CYDMAC
00C63EH   00C67AH   00003DH   BYTE   UNIT     CODE           ?PR?_ADC_SETDSMREF0REG?ADC
00C67BH   00C6B6H   00003CH   BYTE   UNIT     CODE           ?PR?PACER_TIMER_INIT?PACER_TIMER
00C6B7H   00C6F1H   00003BH   BYTE   UNIT     CODE           ?PR?_INFOGET?COMMAND_PROCESSING
00C6F2H   00C72CH   00003BH   BYTE   UNIT     CODE           ?PR?ANALOGSETDEFAULT?CYFITTER_CFG
00C72DH   00C764H   000038H   BYTE   UNIT     CODE           ?PR?WATCHDOG_COUNTER_INIT?WATCHDOG_COUNTER
00C765H   00C79AH   000036H   BYTE   UNIT     CODE           ?PR?CYDMACCONFIGURE?CYDMAC
00C79BH   00C7CFH   000035H   BYTE   UNIT     CODE           ?PR?COUNTER_ENC_INIT?COUNTER_ENC
00C7D0H   00C7FFH   000030H   BYTE   UNIT     CODE           ?PR?_ADC_AMUX_SET?CYFITTER_CFG
00C800H   00C83AH   00003BH   PAGE   UNIT     CODE           ?PR?CYDELAYCYCLES?CYBOOTASMKEIL
00C83BH   00C86EH   000034H   BYTE   UNIT     CODE           ?PR?_UART_RS485_PUTSTRING?UART_RS485
00C86FH   00C8A2H   000034H   BYTE   UNIT     CODE           ?PR?_CYCONFIGCPY?CYMEM
00C8A3H   00C8D5H   000033H   BYTE   UNIT     CODE           ?PR?UART_RS485_INIT?UART_RS485
00C8D6H   00C907H   000032H   BYTE   UNIT     CODE           ?PR?_LCRCHECKSUM?COMMAND_PROCESSING
00C908H   00C938H   000031H   BYTE   UNIT     CODE           ?PR?CYEEPROM_START?CYFLASH
00C939H   00C969H   000031H   BYTE   UNIT     CODE           ?PR?_ADC_AMUX_UNSET?CYFITTER_CFG
00C96AH   00C998H   00002FH   BYTE   UNIT     CODE           ?PR?UART_RS485_CLEARRXBUFFER?UART_RS485
00C999H   00C9C6H   00002EH   BYTE   UNIT     CODE           ?PR?_CYSPCGETTEMP?CYSPC
00C9C7H   00C9C7H   000001H   BYTE   UNIT     CODE           ?PR?ISR_RS485_RX_INTERRUPT?ISR_RS485_RX
00C9C8H   00C9F4H   00002DH   DWORD  UNIT     CODE           ?PR?CYDELAYUS?CYBOOTASMKEIL
00C9F5H   00CA20H   00002CH   BYTE   UNIT     CODE           ?PR?MY_TIMER_INIT?MY_TIMER
00CA21H   00CA4BH   00002BH   BYTE   UNIT     CODE           ?PR?CMD_GET_ACTIVATE?COMMAND_PROCESSING
00CA4CH   00CA72H   000027H   BYTE   UNIT     CODE           ?PR?PUTCHAR?PUTCHAR
00CA73H   00CA98H   000026H   BYTE   UNIT     CODE           ?PR?PWM_MOTORS_INIT?PWM_MOTORS
00CA99H   00CABEH   000026H   BYTE   UNIT     CODE           ?PR?CYCONFIGCPYCODE?CYMEM
00CABFH   00CAE0H   000022H   BYTE   UNIT     CODE           ?PR?UART_RS485_ENABLE?UART_RS485
00CAE1H   00CB02H   000022H   BYTE   UNIT     CODE           ?PR?UART_RS485_STOP?UART_RS485
00CB03H   00CB23H   000021H   BYTE   UNIT     CODE           ?PR?LED_BLINK_INIT?LED_BLINK
00CB24H   00CB44H   000021H   BYTE   UNIT     CODE           ?PR?ADC_AMUX_START?ADC_AMUX
00CB45H   00CB64H   000020H   BYTE   UNIT     CODE           ?PR?CMD_SET_BAUDRATE?COMMAND_PROCESSING
00CB65H   00CB83H   00001FH   BYTE   UNIT     CODE           ?PR?_ISR_RS485_RX_STARTEX?ISR_RS485_RX
00CB84H   00CBA2H   00001FH   BYTE   UNIT     CODE           ?PR?_ISR_WATCHDOG_STARTEX?ISR_WATCHDOG
00CBA3H   00CBC1H   00001FH   BYTE   UNIT     CODE           ?PR?CYSPCLOCK?CYSPC
00CBC2H   00CBDFH   00001EH   BYTE   UNIT     CODE           ?PR?_CYDMACHSETINITIALTD?CYDMAC
00CBE0H   00CBFBH   00001CH   BYTE   UNIT     CODE           ?PR?_WATCHDOG_COUNTER_WRITECOUNTER?WATCHDOG_COUNTER
00CBFCH   00CC16H   00001BH   BYTE   UNIT     CODE           ?PR?CYSPCGETALGORITHM?CYSPC
00CC17H   00CC2FH   000019H   BYTE   UNIT     CODE           ?PR?ADC_START?ADC
00CC30H   00CC48H   000019H   BYTE   UNIT     CODE           ?PR?_CYINTSETPRIORITY?CYLIB
00CC49H   00CC61H   000019H   BYTE   UNIT     CODE           ?PR?_ADC_AMUX_SELECT?ADC_AMUX
00CC62H   00CC79H   000018H   BYTE   UNIT     CODE           ?PR?CYSETTEMP?CYFLASH
00CC7AH   00CC91H   000018H   BYTE   UNIT     CODE           ?PR?CYEXITCRITICALSECTION?CYBOOTASMKEIL
00CC92H   00CCA7H   000016H   BYTE   UNIT     CODE           ?PR?PACER_TIMER_ENABLE?PACER_TIMER
00CCA8H   00CCBDH   000016H   BYTE   UNIT     CODE           ?PR?WATCHDOG_COUNTER_ENABLE?WATCHDOG_COUNTER
LX51 LINKER/LOCATER V4.64.0.0                                                         01/10/2017  17:59:18  PAGE 7


00CCBEH   00CCD2H   000015H   BYTE   UNIT     CODE           ?PR?_SENDACKNOWLEDGMENT?COMMAND_PROCESSING
00CCD3H   00CCE7H   000015H   BYTE   UNIT     CODE           ?PR?CYENTERCRITICALSECTION?CYBOOTASMKEIL
00CCE8H   00CCFCH   000015H   BYTE   UNIT     CODE           ?PR?CYSPCSTART?CYSPC
00CCFDH   00CD11H   000015H   BYTE   UNIT     CODE           ?PR?_STRLEN?STRLEN
00CD12H   00CD25H   000014H   BYTE   UNIT     CODE           ?PR?CMD_PING?COMMAND_PROCESSING
00CD26H   00CD39H   000014H   BYTE   UNIT     CODE           ?PR?UART_RS485_READRXSTATUS?UART_RS485
00CD3AH   00CD4CH   000013H   BYTE   UNIT     CODE           ?PR?PWM_MOTORS_START?PWM_MOTORS
00CD4DH   00CD5FH   000013H   BYTE   UNIT     CODE           ?PR?PACER_TIMER_START?PACER_TIMER
00CD60H   00CD72H   000013H   BYTE   UNIT     CODE           ?PR?UART_RS485_START?UART_RS485
00CD73H   00CD85H   000013H   BYTE   UNIT     CODE           ?PR?COUNTER_ENC_START?COUNTER_ENC
00CD86H   00CD98H   000013H   BYTE   UNIT     CODE           ?PR?SHIFTREG_ENC_3_START?SHIFTREG_ENC_3
00CD99H   00CDABH   000013H   BYTE   UNIT     CODE           ?PR?SHIFTREG_ENC_2_START?SHIFTREG_ENC_2
00CDACH   00CDBEH   000013H   BYTE   UNIT     CODE           ?PR?MY_TIMER_START?MY_TIMER
00CDBFH   00CDD1H   000013H   BYTE   UNIT     CODE           ?PR?SHIFTREG_ENC_1_START?SHIFTREG_ENC_1
00CDD2H   00CDE4H   000013H   BYTE   UNIT     CODE           ?PR?WATCHDOG_COUNTER_START?WATCHDOG_COUNTER
00CDE5H   00CDF7H   000013H   BYTE   UNIT     CODE           ?PR?LED_BLINK_START?LED_BLINK
00CDF8H   00CE0AH   000013H   BYTE   UNIT     CODE           ?PR?CYREAD24?CYMEM
00CE0BH   00CE1CH   000012H   BYTE   UNIT     CODE           ?PR?UART_RS485_CLEARTXBUFFER?UART_RS485
00CE1DH   00CE2EH   000012H   BYTE   UNIT     CODE           ?PR?CYWRITE24?CYMEM
00CE2FH   00CE3FH   000011H   BYTE   UNIT     CODE           ?PR?_SHIFTREG_ENC_3_SETINTMODE?SHIFTREG_ENC_3
00CE40H   00CE50H   000011H   BYTE   UNIT     CODE           ?PR?_SHIFTREG_ENC_2_SETINTMODE?SHIFTREG_ENC_2
00CE51H   00CE61H   000011H   BYTE   UNIT     CODE           ?PR?_SHIFTREG_ENC_1_SETINTMODE?SHIFTREG_ENC_1
00CE62H   00CE70H   00000FH   BYTE   UNIT     CODE           ?PR?MY_TIMER_READCOUNTER?MY_TIMER
00CE71H   00CE7FH   00000FH   BYTE   UNIT     CODE           ?PR?CYREAD16?CYMEM
00CE80H   00CE8EH   00000FH   BYTE   UNIT     CODE           ?PR?CYWRITE16?CYMEM
00CE8FH   00CE9CH   00000EH   BYTE   UNIT     CODE           ?PR?_ISR_RS485_RX_SETVECTOR?ISR_RS485_RX
00CE9DH   00CEAAH   00000EH   BYTE   UNIT     CODE           ?PR?_PACER_TIMER_WRITEPERIOD?PACER_TIMER
00CEABH   00CEB8H   00000EH   BYTE   UNIT     CODE           ?PR?_PACER_TIMER_WRITECOUNTER?PACER_TIMER
00CEB9H   00CEC6H   00000EH   BYTE   UNIT     CODE           ?PR?SHIFTREG_ENC_3_ENABLEINT?SHIFTREG_ENC_3
00CEC7H   00CED4H   00000EH   BYTE   UNIT     CODE           ?PR?SHIFTREG_ENC_2_ENABLEINT?SHIFTREG_ENC_2
00CED5H   00CEE2H   00000EH   BYTE   UNIT     CODE           ?PR?SHIFTREG_ENC_1_ENABLEINT?SHIFTREG_ENC_1
00CEE3H   00CEF0H   00000EH   BYTE   UNIT     CODE           ?PR?_ISR_WATCHDOG_SETVECTOR?ISR_WATCHDOG
00CEF1H   00CEFEH   00000EH   BYTE   UNIT     CODE           ?PR?_WATCHDOG_COUNTER_WRITEPERIOD?WATCHDOG_COUNTER
00CEFFH   00CF0BH   00000DH   BYTE   UNIT     CODE           ?PR?_UART_RS485_PUTCHAR?UART_RS485
00CF0CH   00CF18H   00000DH   BYTE   UNIT     CODE           ?PR?COUNTER_ENC_CLEARFIFO?COUNTER_ENC
00CF19H   00CF25H   00000DH   BYTE   UNIT     CODE           ?PR?MY_TIMER_CLEARFIFO?MY_TIMER
00CF26H   00CF32H   00000DH   BYTE   UNIT     CODE           ?PR?_ADC_EXT_CP_CLK_SETMODEREGISTER?ADC_EXT_CP_CLK
00CF33H   00CF3FH   00000DH   BYTE   UNIT     CODE           ?PR?_ADC_THEACLK_SETMODEREGISTER?ADC_THEACLK
00CF40H   00CF4BH   00000CH   BYTE   UNIT     CODE           ?PR?CYREAD8?CYMEM
00CF4CH   00CF57H   00000CH   BYTE   UNIT     CODE           ?PR?CYWRITE8?CYMEM
00CF58H   00CF63H   00000CH   BYTE   UNIT     CODE           ?PR?CYSPCUNLOCK?CYSPC
00CF64H   00CF6FH   00000CH   BYTE   UNIT     CODE           ?PR?_ABS?ABS
00CF70H   00CF7AH   00000BH   BYTE   UNIT     CODE           ?PR?SHIFTREG_ENC_3_ENABLE?SHIFTREG_ENC_3
00CF7BH   00CF85H   00000BH   BYTE   UNIT     CODE           ?PR?SHIFTREG_ENC_2_ENABLE?SHIFTREG_ENC_2
00CF86H   00CF90H   00000BH   BYTE   UNIT     CODE           ?PR?SHIFTREG_ENC_1_ENABLE?SHIFTREG_ENC_1
00CF91H   00CF9AH   00000AH   BYTE   UNIT     CODE           ?PR?CLOCK_UART_GETDIVIDERREGISTER?CLOCK_UART
00CF9BH   00CFA4H   00000AH   BYTE   UNIT     CODE           ?PR?_ISR_RS485_RX_SETPRIORITY?ISR_RS485_RX
00CFA5H   00CFAEH   00000AH   BYTE   UNIT     CODE           ?PR?SHIFTREG_ENC_3_READDATA?SHIFTREG_ENC_3
00CFAFH   00CFB8H   00000AH   BYTE   UNIT     CODE           ?PR?SHIFTREG_ENC_2_READDATA?SHIFTREG_ENC_2
00CFB9H   00CFC2H   00000AH   BYTE   UNIT     CODE           ?PR?BOOTLOADABLE_LOAD?BOOTLOADABLE
00CFC3H   00CFCCH   00000AH   BYTE   UNIT     CODE           ?PR?_MY_TIMER_WRITEPERIOD?MY_TIMER
00CFCDH   00CFD6H   00000AH   BYTE   UNIT     CODE           ?PR?MY_TIMER_READCAPTURE?MY_TIMER
00CFD7H   00CFE0H   00000AH   BYTE   UNIT     CODE           ?PR?_MY_TIMER_WRITECOUNTER?MY_TIMER
00CFE1H   00CFEAH   00000AH   BYTE   UNIT     CODE           ?PR?SHIFTREG_ENC_1_READDATA?SHIFTREG_ENC_1
00CFEBH   00CFF4H   00000AH   BYTE   UNIT     CODE           ?PR?_ISR_WATCHDOG_SETPRIORITY?ISR_WATCHDOG
00CFF5H   00CFFEH   00000AH   BYTE   UNIT     CODE           ?PR?ADC_EXT_CP_CLK_GETDIVIDERREGISTER?ADC_EXT_CP_CLK
00CFFFH   00D008H   00000AH   BYTE   UNIT     CODE           ?PR?ADC_THEACLK_GETDIVIDERREGISTER?ADC_THEACLK
00D009H   00D010H   000008H   BYTE   UNIT     CODE           ?PR?CLOCK_UART_GETSOURCEREGISTER?CLOCK_UART
00D011H   00D018H   000008H   BYTE   UNIT     CODE           ?PR?PWM_MOTORS_ENABLE?PWM_MOTORS
00D019H   00D020H   000008H   BYTE   UNIT     CODE           ?PR?COUNTER_ENC_ENABLE?COUNTER_ENC
00D021H   00D028H   000008H   BYTE   UNIT     CODE           ?PR?MY_TIMER_ENABLE?MY_TIMER
00D029H   00D030H   000008H   BYTE   UNIT     CODE           ?PR?CYSOFTWARERESET?CYLIB
00D031H   00D038H   000008H   BYTE   UNIT     CODE           ?PR?LED_BLINK_ENABLE?LED_BLINK
00D039H   00D040H   000008H   BYTE   UNIT     CODE           ?PR?ADC_EXT_CP_CLK_GETSOURCEREGISTER?ADC_EXT_CP_CLK
00D041H   00D048H   000008H   BYTE   UNIT     CODE           ?PR?ADC_THEACLK_GETSOURCEREGISTER?ADC_THEACLK
LX51 LINKER/LOCATER V4.64.0.0                                                         01/10/2017  17:59:18  PAGE 8


00D049H   00D04FH   000007H   BYTE   UNIT     CODE           ?PR?ISR_RS485_RX_ENABLE?ISR_RS485_RX
00D050H   00D056H   000007H   BYTE   UNIT     CODE           ?PR?ISR_RS485_RX_DISABLE?ISR_RS485_RX
00D057H   00D05DH   000007H   BYTE   UNIT     CODE           ?PR?EEPROM_ENABLE?EEPROM
00D05EH   00D064H   000007H   BYTE   UNIT     CODE           ?PR?ISR_WATCHDOG_ENABLE?ISR_WATCHDOG
00D065H   00D06BH   000007H   BYTE   UNIT     CODE           ?PR?ISR_WATCHDOG_DISABLE?ISR_WATCHDOG
00D06CH   00D071H   000006H   BYTE   UNIT     CODE           ?PR?_PWM_MOTORS_WRITECOUNTER?PWM_MOTORS
00D072H   00D077H   000006H   BYTE   UNIT     CODE           ?PR?_PWM_MOTORS_WRITEPERIOD?PWM_MOTORS
00D078H   00D07DH   000006H   BYTE   UNIT     CODE           ?PR?_PWM_MOTORS_WRITECOMPARE1?PWM_MOTORS
00D07EH   00D083H   000006H   BYTE   UNIT     CODE           ?PR?_PWM_MOTORS_WRITECOMPARE2?PWM_MOTORS
00D084H   00D089H   000006H   BYTE   UNIT     CODE           ?PR?_PACER_TIMER_SETINTERRUPTMODE?PACER_TIMER
00D08AH   00D08FH   000006H   BYTE   UNIT     CODE           ?PR?UART_RS485_READTXSTATUS?UART_RS485
00D090H   00D095H   000006H   BYTE   UNIT     CODE           ?PR?_MOTOR_DIR_WRITE?MOTOR_DIR
00D096H   00D09BH   000006H   BYTE   UNIT     CODE           ?PR?_COUNTER_ENC_SETINTERRUPTMODE?COUNTER_ENC
00D09CH   00D0A1H   000006H   BYTE   UNIT     CODE           ?PR?COUNTER_ENC_READSTATUSREGISTER?COUNTER_ENC
00D0A2H   00D0A7H   000006H   BYTE   UNIT     CODE           ?PR?_COUNTER_ENC_WRITECOUNTER?COUNTER_ENC
00D0A8H   00D0ADH   000006H   BYTE   UNIT     CODE           ?PR?COUNTER_ENC_READCAPTURE?COUNTER_ENC
00D0AEH   00D0B3H   000006H   BYTE   UNIT     CODE           ?PR?_COUNTER_ENC_WRITEPERIOD?COUNTER_ENC
00D0B4H   00D0B9H   000006H   BYTE   UNIT     CODE           ?PR?_COUNTER_ENC_WRITECOMPARE?COUNTER_ENC
00D0BAH   00D0BFH   000006H   BYTE   UNIT     CODE           ?PR?SHIFTREG_ENC_3_INIT?SHIFTREG_ENC_3
00D0C0H   00D0C5H   000006H   BYTE   UNIT     CODE           ?PR?SHIFTREG_ENC_2_INIT?SHIFTREG_ENC_2
00D0C6H   00D0CBH   000006H   BYTE   UNIT     CODE           ?PR?_RS485_CTS_WRITE?RS485_CTS
00D0CCH   00D0D1H   000006H   BYTE   UNIT     CODE           ?PR?_MOTOR_ON_OFF_WRITE?MOTOR_ON_OFF
00D0D2H   00D0D7H   000006H   BYTE   UNIT     CODE           ?PR?_FTDI_ENABLE_REG_WRITE?FTDI_ENABLE_REG
00D0D8H   00D0DDH   000006H   BYTE   UNIT     CODE           ?PR?_RESET_FF_WRITE?RESET_FF
00D0DEH   00D0E3H   000006H   BYTE   UNIT     CODE           ?PR?FF_STATUS_READ?FF_STATUS
00D0E4H   00D0E9H   000006H   BYTE   UNIT     CODE           ?PR?_MY_TIMER_SETINTERRUPTMODE?MY_TIMER
00D0EAH   00D0EFH   000006H   BYTE   UNIT     CODE           ?PR?MY_TIMER_READSTATUSREGISTER?MY_TIMER
00D0F0H   00D0F5H   000006H   BYTE   UNIT     CODE           ?PR?SHIFTREG_ENC_1_INIT?SHIFTREG_ENC_1
00D0F6H   00D0FBH   000006H   BYTE   UNIT     CODE           ?PR?_RESET_COUNTERS_WRITE?RESET_COUNTERS
00D0FCH   00D101H   000006H   BYTE   UNIT     CODE           ?PR?ADC_STATUS_READ?ADC_STATUS
00D102H   00D107H   000006H   BYTE   UNIT     CODE           ?PR?_ADC_SOC_WRITE?ADC_SOC
00D108H   00D10DH   000006H   BYTE   UNIT     CODE           ?PR?_WATCHDOG_COUNTER_SETINTERRUPTMODE?WATCHDOG_COUNTER
00D10EH   00D113H   000006H   BYTE   UNIT     CODE           ?PR?_WATCHDOG_ENABLER_WRITE?WATCHDOG_ENABLER
00D114H   00D119H   000006H   BYTE   UNIT     CODE           ?PR?_WATCHDOG_REFRESH_WRITE?WATCHDOG_REFRESH
00D11AH   00D11FH   000006H   BYTE   UNIT     CODE           ?PR?_LED_BLINK_WRITECOUNTER?LED_BLINK
00D120H   00D125H   000006H   BYTE   UNIT     CODE           ?PR?_LED_BLINK_WRITEPERIOD?LED_BLINK
00D126H   00D12BH   000006H   BYTE   UNIT     CODE           ?PR?_LED_BLINK_WRITECOMPARE?LED_BLINK
00D12CH   00D131H   000006H   BYTE   UNIT     CODE           ?PR?_LED_CTRL_WRITE?LED_CTRL
00D132H   00D137H   000006H   BYTE   UNIT     CODE           ?PR?_LED_BLINK_EN_WRITE?LED_BLINK_EN
00D138H   00D13BH   000004H   BYTE   UNIT     CODE           ?PR?EEPROM_START?EEPROM
00D13CH   00D13EH   000003H   BYTE   UNIT     CODE           ?PR?ISR_WATCHDOG_HANDLER?INTERRUPTIONS
00D13FH   00D141H   000003H   BYTE   UNIT     CODE           ?PR?ISR_RS485_RX_EXINTERRUPT?INTERRUPTIONS
00D142H   00D144H   000003H   BYTE   UNIT     CODE           ?PR?_CYCLOCKSTARTUPERROR?CYFITTER_CFG
00D145H   00D145H   000001H   BYTE   UNIT     CODE           ?PR?ISR_WATCHDOG_INTERRUPT?ISR_WATCHDOG
00D146H   00D146H   000001H   BYTE   UNIT     CODE           ?PR?ADC_ISR1?ADC_INT
00D147H   00D147H   000001H   BYTE   UNIT     CODE           ?PR?ADC_ISR2?ADC_INT
00D148H   00D148H   000001H   BYTE   UNIT     CODE           ?PR?ADC_ISR3?ADC_INT
00D149H   00D149H   000001H   BYTE   UNIT     CODE           ?PR?ADC_ISR4?ADC_INT
00D14AH   00DD1CH   000BD3H   BYTE   UNIT     CONST          ?CO?CYFITTER_CFG

* * * * * * * * * * *  X D A T A   M E M O R Y  * * * * * * * * * * * * *
000000H   000908H   000909H   BYTE   UNIT     XDATA          _XDATA_GROUP_
000909H   000B93H   00028BH   BYTE   UNIT     XDATA          ?XD?GLOBALS
000B94H   000CA4H   000111H   BYTE   UNIT     XDATA          ?XD?INTERRUPTIONS
000CA5H   000D03H   00005FH   BYTE   UNIT     XDATA          ?XD?UTILS
000D04H   000D46H   000043H   BYTE   UNIT     XDATA          ?XD?CYPM
000D47H   000D6DH   000027H   BYTE   UNIT     XDATA          ?XD?UART_RS485
000D6EH   000D7DH   000010H   BYTE   UNIT     XDATA          ?XD?ADC
000D7EH   000D8CH   00000FH   BYTE   UNIT     XDATA          ?XD?CYLIB
000D8DH   000D92H   000006H   BYTE   UNIT     XDATA          ?XD?CYDMAC
000D93H   000D97H   000005H   BYTE   UNIT     XDATA          ?XD?CYFLASH
000D98H   000D9BH   000004H   BYTE   UNIT     XDATA          ?XD?CYFITTER_CFG
000D9CH   000D9DH   000002H   BYTE   UNIT     XDATA          ?XD?COMMAND_PROCESSING
000D9EH   000D9EH   000001H   BYTE   UNIT     XDATA          ?XD?PWM_MOTORS
000D9FH   000D9FH   000001H   BYTE   UNIT     XDATA          ?XD?PACER_TIMER
LX51 LINKER/LOCATER V4.64.0.0                                                         01/10/2017  17:59:18  PAGE 9


000DA0H   000DA0H   000001H   BYTE   UNIT     XDATA          ?XD?COUNTER_ENC
000DA1H   000DA1H   000001H   BYTE   UNIT     XDATA          ?XD?SHIFTREG_ENC_3
000DA2H   000DA2H   000001H   BYTE   UNIT     XDATA          ?XD?SHIFTREG_ENC_2
000DA3H   000DA3H   000001H   BYTE   UNIT     XDATA          ?XD?MY_TIMER
000DA4H   000DA4H   000001H   BYTE   UNIT     XDATA          ?XD?SHIFTREG_ENC_1
000DA5H   000DA5H   000001H   BYTE   UNIT     XDATA          ?XD?DMA_DMA
000DA6H   000DA6H   000001H   BYTE   UNIT     XDATA          ?XD?WATCHDOG_COUNTER
000DA7H   000DA7H   000001H   BYTE   UNIT     XDATA          ?XD?LED_BLINK
000DA8H   000DA8H   000001H   BYTE   UNIT     XDATA          ?XD?ADC_AMUX
000DA9H   000DA9H   000001H   BYTE   UNIT     XDATA          ?XD?CYSPC

* * * * * * * * *   R E M O V E D     S E G M E N T S   * * * * * * * *
   *DEL*:           000013H   BYTE   UNIT     CODE           ?PR?INFOSEND?COMMAND_PROCESSING
   *DEL*:           00044CH   BYTE   UNIT     XDATA          ?XD?INFOSEND?COMMAND_PROCESSING
   *DEL*:           0000E6H   BYTE   UNIT     CODE           ?PR?CMD_GET_CURR_AND_MEAS?COMMAND_PROCESSING
   *DEL*:           00000CH   BYTE   UNIT     XDATA          ?XD?CMD_GET_CURR_AND_MEAS?COMMAND_PROCESSING
   *DEL*:           000001H   BYTE   UNIT     DATA           ?DT?CMD_GET_CURR_AND_MEAS?COMMAND_PROCESSING
   *DEL*:           000075H   BYTE   UNIT     CODE           ?PR?_FILTER_V?UTILS
   *DEL*:           000054H   BYTE   UNIT     CODE           ?PR?_MY_ROUND?UTILS
   *DEL*:           000004H   BYTE   UNIT     XDATA          ?XD?_MY_ROUND?UTILS
   *DEL*:           00000FH   BYTE   UNIT     CODE           ?PR?CLOCK_UART_START?CLOCK_UART
   *DEL*:           00000FH   BYTE   UNIT     CODE           ?PR?CLOCK_UART_STOP?CLOCK_UART
   *DEL*:           00006DH   BYTE   UNIT     CODE           ?PR?CLOCK_UART_STOPBLOCK?CLOCK_UART
   *DEL*:           000002H   BYTE   UNIT     XDATA          ?XD?CLOCK_UART_STOPBLOCK?CLOCK_UART
   *DEL*:           000013H   BYTE   UNIT     CODE           ?PR?_CLOCK_UART_STANDBYPOWER?CLOCK_UART
   *DEL*:           00000DH   BYTE   UNIT     CODE           ?PR?_CLOCK_UART_SETMODEREGISTER?CLOCK_UART
   *DEL*:           00000EH   BYTE   UNIT     CODE           ?PR?_CLOCK_UART_CLEARMODEREGISTER?CLOCK_UART
   *DEL*:           000008H   BYTE   UNIT     CODE           ?PR?CLOCK_UART_GETMODEREGISTER?CLOCK_UART
   *DEL*:           000062H   BYTE   UNIT     CODE           ?PR?_CLOCK_UART_SETSOURCEREGISTER?CLOCK_UART
   *DEL*:           000003H   BYTE   UNIT     XDATA          ?XD?_CLOCK_UART_SETSOURCEREGISTER?CLOCK_UART
   *DEL*:           000013H   BYTE   UNIT     CODE           ?PR?ISR_RS485_RX_START?ISR_RS485_RX
   *DEL*:           000004H   BYTE   UNIT     CODE           ?PR?ISR_RS485_RX_STOP?ISR_RS485_RX
   *DEL*:           00000AH   BYTE   UNIT     CODE           ?PR?ISR_RS485_RX_GETVECTOR?ISR_RS485_RX
   *DEL*:           00000BH   BYTE   UNIT     CODE           ?PR?ISR_RS485_RX_GETPRIORITY?ISR_RS485_RX
   *DEL*:           00000EH   BYTE   UNIT     CODE           ?PR?ISR_RS485_RX_GETSTATE?ISR_RS485_RX
   *DEL*:           000007H   BYTE   UNIT     CODE           ?PR?ISR_RS485_RX_SETPENDING?ISR_RS485_RX
   *DEL*:           000007H   BYTE   UNIT     CODE           ?PR?ISR_RS485_RX_CLEARPENDING?ISR_RS485_RX
   *DEL*:           000008H   BYTE   UNIT     CODE           ?PR?PWM_MOTORS_STOP?PWM_MOTORS
   *DEL*:           00000BH   BYTE   UNIT     CODE           ?PR?PWM_MOTORS_READCOUNTER?PWM_MOTORS
   *DEL*:           000006H   BYTE   UNIT     CODE           ?PR?PWM_MOTORS_READCONTROLREGISTER?PWM_MOTORS
   *DEL*:           000006H   BYTE   UNIT     CODE           ?PR?_PWM_MOTORS_WRITECONTROLREGISTER?PWM_MOTORS
   *DEL*:           000006H   BYTE   UNIT     CODE           ?PR?PWM_MOTORS_READCAPTURE?PWM_MOTORS
   *DEL*:           000006H   BYTE   UNIT     CODE           ?PR?PWM_MOTORS_READCOMPARE1?PWM_MOTORS
   *DEL*:           000006H   BYTE   UNIT     CODE           ?PR?PWM_MOTORS_READCOMPARE2?PWM_MOTORS
   *DEL*:           000006H   BYTE   UNIT     CODE           ?PR?PWM_MOTORS_READPERIOD?PWM_MOTORS
   *DEL*:           000016H   BYTE   UNIT     CODE           ?PR?PACER_TIMER_STOP?PACER_TIMER
   *DEL*:           00000AH   BYTE   UNIT     CODE           ?PR?PACER_TIMER_SOFTWARECAPTURE?PACER_TIMER
   *DEL*:           000006H   BYTE   UNIT     CODE           ?PR?PACER_TIMER_READSTATUSREGISTER?PACER_TIMER
   *DEL*:           000006H   BYTE   UNIT     CODE           ?PR?PACER_TIMER_READCONTROLREGISTER?PACER_TIMER
   *DEL*:           000006H   BYTE   UNIT     CODE           ?PR?_PACER_TIMER_WRITECONTROLREGISTER?PACER_TIMER
   *DEL*:           00000AH   BYTE   UNIT     CODE           ?PR?PACER_TIMER_READPERIOD?PACER_TIMER
   *DEL*:           00000AH   BYTE   UNIT     CODE           ?PR?PACER_TIMER_READCAPTURE?PACER_TIMER
   *DEL*:           000013H   BYTE   UNIT     CODE           ?PR?PACER_TIMER_READCOUNTER?PACER_TIMER
   *DEL*:           000003H   BYTE   UNIT     CODE           ?PR?UART_RS485_READCONTROLREGISTER?UART_RS485
   *DEL*:           000006H   BYTE   UNIT     CODE           ?PR?_UART_RS485_WRITECONTROLREGISTER?UART_RS485
   *DEL*:           000001H   BYTE   UNIT     XDATA          ?XD?_UART_RS485_WRITECONTROLREGISTER?UART_RS485
   *DEL*:           000006H   BYTE   UNIT     CODE           ?PR?_UART_RS485_SETRXINTERRUPTMODE?UART_RS485
   *DEL*:           00004AH   BYTE   UNIT     CODE           ?PR?UART_RS485_READRXDATA?UART_RS485
   *DEL*:           00001FH   BYTE   UNIT     CODE           ?PR?UART_RS485_GETBYTE?UART_RS485
   *DEL*:           000006H   BYTE   UNIT     CODE           ?PR?_UART_RS485_SETRXADDRESSMODE?UART_RS485
   *DEL*:           000001H   BYTE   UNIT     XDATA          ?XD?_UART_RS485_SETRXADDRESSMODE?UART_RS485
   *DEL*:           000006H   BYTE   UNIT     CODE           ?PR?_UART_RS485_SETRXADDRESS1?UART_RS485
   *DEL*:           000006H   BYTE   UNIT     CODE           ?PR?_UART_RS485_SETRXADDRESS2?UART_RS485
   *DEL*:           000006H   BYTE   UNIT     CODE           ?PR?_UART_RS485_SETTXINTERRUPTMODE?UART_RS485
   *DEL*:           00000CH   BYTE   UNIT     CODE           ?PR?_UART_RS485_WRITETXDATA?UART_RS485
LX51 LINKER/LOCATER V4.64.0.0                                                         01/10/2017  17:59:18  PAGE 10


   *DEL*:           000032H   BYTE   UNIT     CODE           ?PR?_UART_RS485_PUTARRAY?UART_RS485
   *DEL*:           000003H   BYTE   UNIT     XDATA          ?XD?_UART_RS485_PUTARRAY?UART_RS485
   *DEL*:           000014H   BYTE   UNIT     CODE           ?PR?_UART_RS485_PUTCRLF?UART_RS485
   *DEL*:           000017H   BYTE   UNIT     CODE           ?PR?UART_RS485_GETTXBUFFERSIZE?UART_RS485
   *DEL*:           000059H   BYTE   UNIT     CODE           ?PR?_UART_RS485_SENDBREAK?UART_RS485
   *DEL*:           000001H   BYTE   UNIT     XDATA          ?XD?_UART_RS485_SENDBREAK?UART_RS485
   *DEL*:           000006H   BYTE   UNIT     CODE           ?PR?_UART_RS485_SETTXADDRESSMODE?UART_RS485
   *DEL*:           000001H   BYTE   UNIT     XDATA          ?XD?_UART_RS485_SETTXADDRESSMODE?UART_RS485
   *DEL*:           000006H   BYTE   UNIT     CODE           ?PR?MOTOR_DIR_READ?MOTOR_DIR
   *DEL*:           000008H   BYTE   UNIT     CODE           ?PR?COUNTER_ENC_STOP?COUNTER_ENC
   *DEL*:           000006H   BYTE   UNIT     CODE           ?PR?COUNTER_ENC_READCONTROLREGISTER?COUNTER_ENC
   *DEL*:           000006H   BYTE   UNIT     CODE           ?PR?_COUNTER_ENC_WRITECONTROLREGISTER?COUNTER_ENC
   *DEL*:           00000BH   BYTE   UNIT     CODE           ?PR?COUNTER_ENC_READCOUNTER?COUNTER_ENC
   *DEL*:           000006H   BYTE   UNIT     CODE           ?PR?COUNTER_ENC_READPERIOD?COUNTER_ENC
   *DEL*:           000006H   BYTE   UNIT     CODE           ?PR?COUNTER_ENC_READCOMPARE?COUNTER_ENC
   *DEL*:           00000BH   BYTE   UNIT     CODE           ?PR?SHIFTREG_ENC_3_STOP?SHIFTREG_ENC_3
   *DEL*:           00000EH   BYTE   UNIT     CODE           ?PR?SHIFTREG_ENC_3_DISABLEINT?SHIFTREG_ENC_3
   *DEL*:           000036H   BYTE   UNIT     CODE           ?PR?_SHIFTREG_ENC_3_GETFIFOSTATUS?SHIFTREG_ENC_3
   *DEL*:           000008H   BYTE   UNIT     CODE           ?PR?SHIFTREG_ENC_3_GETINTSTATUS?SHIFTREG_ENC_3
   *DEL*:           00000AH   BYTE   UNIT     CODE           ?PR?_SHIFTREG_ENC_3_WRITEREGVALUE?SHIFTREG_ENC_3
   *DEL*:           000053H   BYTE   UNIT     CODE           ?PR?SHIFTREG_ENC_3_READREGVALUE?SHIFTREG_ENC_3
   *DEL*:           000004H   BYTE   UNIT     XDATA          ?XD?SHIFTREG_ENC_3_READREGVALUE?SHIFTREG_ENC_3
   *DEL*:           00000BH   BYTE   UNIT     CODE           ?PR?SHIFTREG_ENC_2_STOP?SHIFTREG_ENC_2
   *DEL*:           00000EH   BYTE   UNIT     CODE           ?PR?SHIFTREG_ENC_2_DISABLEINT?SHIFTREG_ENC_2
   *DEL*:           000036H   BYTE   UNIT     CODE           ?PR?_SHIFTREG_ENC_2_GETFIFOSTATUS?SHIFTREG_ENC_2
   *DEL*:           000008H   BYTE   UNIT     CODE           ?PR?SHIFTREG_ENC_2_GETINTSTATUS?SHIFTREG_ENC_2
   *DEL*:           00000AH   BYTE   UNIT     CODE           ?PR?_SHIFTREG_ENC_2_WRITEREGVALUE?SHIFTREG_ENC_2
   *DEL*:           000053H   BYTE   UNIT     CODE           ?PR?SHIFTREG_ENC_2_READREGVALUE?SHIFTREG_ENC_2
   *DEL*:           000004H   BYTE   UNIT     XDATA          ?XD?SHIFTREG_ENC_2_READREGVALUE?SHIFTREG_ENC_2
   *DEL*:           000004H   BYTE   UNIT     CODE           ?PR?EEPROM_STOP?EEPROM
   *DEL*:           000124H   BYTE   UNIT     CODE           ?PR?_EEPROM_WRITEBYTE?EEPROM
   *DEL*:           000008H   BYTE   UNIT     XDATA          ?XD?_EEPROM_WRITEBYTE?EEPROM
   *DEL*:           00003AH   BYTE   UNIT     CODE           ?PR?_EEPROM_READBYTE?EEPROM
   *DEL*:           000004H   BYTE   UNIT     XDATA          ?XD?_EEPROM_READBYTE?EEPROM
   *DEL*:           000004H   BYTE   UNIT     CODE           ?PR?EEPROM_UPDATETEMPERATURE?EEPROM
   *DEL*:           00006FH   BYTE   UNIT     CODE           ?PR?_EEPROM_ERASESECTOR?EEPROM
   *DEL*:           000002H   BYTE   UNIT     XDATA          ?XD?_EEPROM_ERASESECTOR?EEPROM
   *DEL*:           0000B9H   BYTE   UNIT     CODE           ?PR?_EEPROM_STARTWRITE?EEPROM
   *DEL*:           000005H   BYTE   UNIT     XDATA          ?XD?_EEPROM_STARTWRITE?EEPROM
   *DEL*:           000046H   BYTE   UNIT     CODE           ?PR?_EEPROM_STARTERASE?EEPROM
   *DEL*:           000002H   BYTE   UNIT     XDATA          ?XD?_EEPROM_STARTERASE?EEPROM
   *DEL*:           00003BH   BYTE   UNIT     CODE           ?PR?EEPROM_QUERY?EEPROM
   *DEL*:           000001H   BYTE   UNIT     XDATA          ?XD?EEPROM_QUERY?EEPROM
   *DEL*:           0000E5H   BYTE   UNIT     CODE           ?PR?_EEPROM_BYTEWRITEPOS?EEPROM
   *DEL*:           000004H   BYTE   UNIT     XDATA          ?XD?_EEPROM_BYTEWRITEPOS?EEPROM
   *DEL*:           000088H   BYTE   UNIT     CODE           ?PR?ADC_STOP?ADC
   *DEL*:           000001H   BYTE   UNIT     XDATA          ?XD?ADC_STOP?ADC
   *DEL*:           000012H   BYTE   UNIT     CODE           ?PR?_ADC_SETBUFFERGAIN?ADC
   *DEL*:           00000EH   BYTE   UNIT     CODE           ?PR?_ADC_SETCOHERENCY?ADC
   *DEL*:           0000F2H   BYTE   UNIT     CODE           ?PR?_ADC_SETGCOR?ADC
   *DEL*:           00000BH   BYTE   UNIT     XDATA          ?XD?_ADC_SETGCOR?ADC
   *DEL*:           000039H   BYTE   UNIT     CODE           ?PR?ADC_READGCOR?ADC
   *DEL*:           000001H   BYTE   UNIT     XDATA          ?XD?ADC_READGCOR?ADC
   *DEL*:           000008H   BYTE   UNIT     CODE           ?PR?ADC_STARTCONVERT?ADC
   *DEL*:           000008H   BYTE   UNIT     CODE           ?PR?ADC_STOPCONVERT?ADC
   *DEL*:           00001FH   BYTE   UNIT     CODE           ?PR?_ADC_ISENDCONVERSION?ADC
   *DEL*:           00002CH   BYTE   UNIT     CODE           ?PR?ADC_GETRESULT8?ADC
   *DEL*:           000060H   BYTE   UNIT     CODE           ?PR?ADC_GETRESULT16?ADC
   *DEL*:           000003H   BYTE   UNIT     XDATA          ?XD?ADC_GETRESULT16?ADC
   *DEL*:           0001B4H   BYTE   UNIT     CODE           ?PR?ADC_GETRESULT32?ADC
   *DEL*:           000007H   BYTE   UNIT     XDATA          ?XD?ADC_GETRESULT32?ADC
   *DEL*:           000007H   BYTE   UNIT     CODE           ?PR?_ADC_SETOFFSET?ADC
   *DEL*:           000007H   BYTE   UNIT     CODE           ?PR?_ADC_SETGAIN?ADC
   *DEL*:           00005FH   BYTE   UNIT     CODE           ?PR?_ADC_COUNTSTO_MVOLTS?ADC
   *DEL*:           000004H   BYTE   UNIT     XDATA          ?XD?_ADC_COUNTSTO_MVOLTS?ADC
LX51 LINKER/LOCATER V4.64.0.0                                                         01/10/2017  17:59:18  PAGE 11


   *DEL*:           00006DH   BYTE   UNIT     CODE           ?PR?_ADC_COUNTSTO_VOLTS?ADC
   *DEL*:           000004H   BYTE   UNIT     XDATA          ?XD?_ADC_COUNTSTO_VOLTS?ADC
   *DEL*:           000137H   BYTE   UNIT     CODE           ?PR?_ADC_COUNTSTO_UVOLTS?ADC
   *DEL*:           00000DH   BYTE   UNIT     XDATA          ?XD?_ADC_COUNTSTO_UVOLTS?ADC
   *DEL*:           000072H   BYTE   UNIT     CODE           ?PR?_ADC_SELECTCONFIGURATION?ADC
   *DEL*:           000002H   BYTE   UNIT     XDATA          ?XD?_ADC_SELECTCONFIGURATION?ADC
   *DEL*:           000016H   BYTE   UNIT     CODE           ?PR?ADC_READ8?ADC
   *DEL*:           000016H   BYTE   UNIT     CODE           ?PR?ADC_READ16?ADC
   *DEL*:           000016H   BYTE   UNIT     CODE           ?PR?ADC_READ32?ADC
   *DEL*:           000006H   BYTE   UNIT     CODE           ?PR?RS485_CTS_READ?RS485_CTS
   *DEL*:           0000FBH   BYTE   UNIT     CODE           ?PR?_BOOTLOADABLE_SETFLASHBYTE?BOOTLOADABLE
   *DEL*:           000110H   BYTE   UNIT     XDATA          ?XD?_BOOTLOADABLE_SETFLASHBYTE?BOOTLOADABLE
   *DEL*:           000006H   BYTE   UNIT     CODE           ?PR?MOTOR_ON_OFF_READ?MOTOR_ON_OFF
   *DEL*:           000006H   BYTE   UNIT     CODE           ?PR?FTDI_ENABLE_REG_READ?FTDI_ENABLE_REG
   *DEL*:           000006H   BYTE   UNIT     CODE           ?PR?RESET_FF_READ?RESET_FF
   *DEL*:           00000EH   BYTE   UNIT     CODE           ?PR?FF_STATUS_INTERRUPTENABLE?FF_STATUS
   *DEL*:           00000EH   BYTE   UNIT     CODE           ?PR?FF_STATUS_INTERRUPTDISABLE?FF_STATUS
   *DEL*:           000009H   BYTE   UNIT     CODE           ?PR?_FF_STATUS_WRITEMASK?FF_STATUS
   *DEL*:           000006H   BYTE   UNIT     CODE           ?PR?FF_STATUS_READMASK?FF_STATUS
   *DEL*:           000008H   BYTE   UNIT     CODE           ?PR?MY_TIMER_STOP?MY_TIMER
   *DEL*:           000006H   BYTE   UNIT     CODE           ?PR?MY_TIMER_SOFTWARECAPTURE?MY_TIMER
   *DEL*:           000006H   BYTE   UNIT     CODE           ?PR?MY_TIMER_READCONTROLREGISTER?MY_TIMER
   *DEL*:           000006H   BYTE   UNIT     CODE           ?PR?_MY_TIMER_WRITECONTROLREGISTER?MY_TIMER
   *DEL*:           00000AH   BYTE   UNIT     CODE           ?PR?MY_TIMER_READPERIOD?MY_TIMER
   *DEL*:           00000BH   BYTE   UNIT     CODE           ?PR?SHIFTREG_ENC_1_STOP?SHIFTREG_ENC_1
   *DEL*:           00000EH   BYTE   UNIT     CODE           ?PR?SHIFTREG_ENC_1_DISABLEINT?SHIFTREG_ENC_1
   *DEL*:           000036H   BYTE   UNIT     CODE           ?PR?_SHIFTREG_ENC_1_GETFIFOSTATUS?SHIFTREG_ENC_1
   *DEL*:           000008H   BYTE   UNIT     CODE           ?PR?SHIFTREG_ENC_1_GETINTSTATUS?SHIFTREG_ENC_1
   *DEL*:           00000AH   BYTE   UNIT     CODE           ?PR?_SHIFTREG_ENC_1_WRITEREGVALUE?SHIFTREG_ENC_1
   *DEL*:           000053H   BYTE   UNIT     CODE           ?PR?SHIFTREG_ENC_1_READREGVALUE?SHIFTREG_ENC_1
   *DEL*:           000004H   BYTE   UNIT     XDATA          ?XD?SHIFTREG_ENC_1_READREGVALUE?SHIFTREG_ENC_1
   *DEL*:           000006H   BYTE   UNIT     CODE           ?PR?RESET_COUNTERS_READ?RESET_COUNTERS
   *DEL*:           00000EH   BYTE   UNIT     CODE           ?PR?ADC_STATUS_INTERRUPTENABLE?ADC_STATUS
   *DEL*:           00000EH   BYTE   UNIT     CODE           ?PR?ADC_STATUS_INTERRUPTDISABLE?ADC_STATUS
   *DEL*:           000009H   BYTE   UNIT     CODE           ?PR?_ADC_STATUS_WRITEMASK?ADC_STATUS
   *DEL*:           000006H   BYTE   UNIT     CODE           ?PR?ADC_STATUS_READMASK?ADC_STATUS
   *DEL*:           000009H   BYTE   UNIT     CODE           ?PR?DMA_DMARELEASE?DMA_DMA
   *DEL*:           000006H   BYTE   UNIT     CODE           ?PR?ADC_SOC_READ?ADC_SOC
   *DEL*:           000013H   BYTE   UNIT     CODE           ?PR?ISR_WATCHDOG_START?ISR_WATCHDOG
   *DEL*:           000004H   BYTE   UNIT     CODE           ?PR?ISR_WATCHDOG_STOP?ISR_WATCHDOG
   *DEL*:           00000AH   BYTE   UNIT     CODE           ?PR?ISR_WATCHDOG_GETVECTOR?ISR_WATCHDOG
   *DEL*:           00000BH   BYTE   UNIT     CODE           ?PR?ISR_WATCHDOG_GETPRIORITY?ISR_WATCHDOG
   *DEL*:           00000EH   BYTE   UNIT     CODE           ?PR?ISR_WATCHDOG_GETSTATE?ISR_WATCHDOG
   *DEL*:           000007H   BYTE   UNIT     CODE           ?PR?ISR_WATCHDOG_SETPENDING?ISR_WATCHDOG
   *DEL*:           000007H   BYTE   UNIT     CODE           ?PR?ISR_WATCHDOG_CLEARPENDING?ISR_WATCHDOG
   *DEL*:           000016H   BYTE   UNIT     CODE           ?PR?WATCHDOG_COUNTER_STOP?WATCHDOG_COUNTER
   *DEL*:           000006H   BYTE   UNIT     CODE           ?PR?WATCHDOG_COUNTER_READSTATUSREGISTER?WATCHDOG_COUNTER
   *DEL*:           000006H   BYTE   UNIT     CODE           ?PR?WATCHDOG_COUNTER_READCONTROLREGISTER?WATCHDOG_COUNTER
   *DEL*:           000006H   BYTE   UNIT     CODE           ?PR?_WATCHDOG_COUNTER_WRITECONTROLREGISTER?WATCHDOG_COUNTE
                                                             -R
   *DEL*:           000013H   BYTE   UNIT     CODE           ?PR?WATCHDOG_COUNTER_READCOUNTER?WATCHDOG_COUNTER
   *DEL*:           00000AH   BYTE   UNIT     CODE           ?PR?WATCHDOG_COUNTER_READCAPTURE?WATCHDOG_COUNTER
   *DEL*:           00000AH   BYTE   UNIT     CODE           ?PR?WATCHDOG_COUNTER_READPERIOD?WATCHDOG_COUNTER
   *DEL*:           000006H   BYTE   UNIT     CODE           ?PR?WATCHDOG_ENABLER_READ?WATCHDOG_ENABLER
   *DEL*:           000006H   BYTE   UNIT     CODE           ?PR?WATCHDOG_REFRESH_READ?WATCHDOG_REFRESH
   *DEL*:           000012H   BYTE   UNIT     CODE           ?PR?CYDMACERROR?CYDMAC
   *DEL*:           000010H   BYTE   UNIT     CODE           ?PR?_CYDMACCLEARERROR?CYDMAC
   *DEL*:           00000AH   BYTE   UNIT     CODE           ?PR?CYDMACERRORADDRESS?CYDMAC
   *DEL*:           0000BEH   BYTE   UNIT     CODE           ?PR?CYDMACHALLOC?CYDMAC
   *DEL*:           000006H   BYTE   UNIT     XDATA          ?XD?CYDMACHALLOC?CYDMAC
   *DEL*:           000064H   BYTE   UNIT     CODE           ?PR?_CYDMACHFREE?CYDMAC
   *DEL*:           000003H   BYTE   UNIT     XDATA          ?XD?_CYDMACHFREE?CYDMAC
   *DEL*:           000033H   BYTE   UNIT     CODE           ?PR?_CYDMACHDISABLE?CYDMAC
   *DEL*:           000033H   BYTE   UNIT     CODE           ?PR?_CYDMACLEARPENDINGDRQ?CYDMAC
   *DEL*:           000025H   BYTE   UNIT     CODE           ?PR?_CYDMACHSETREQUEST?CYDMAC
LX51 LINKER/LOCATER V4.64.0.0                                                         01/10/2017  17:59:18  PAGE 12


   *DEL*:           000024H   BYTE   UNIT     CODE           ?PR?_CYDMACHGETREQUEST?CYDMAC
   *DEL*:           000072H   BYTE   UNIT     CODE           ?PR?_CYDMACHSTATUS?CYDMAC
   *DEL*:           000007H   BYTE   UNIT     XDATA          ?XD?_CYDMACHSTATUS?CYDMAC
   *DEL*:           00003EH   BYTE   UNIT     CODE           ?PR?_CYDMATDFREE?CYDMAC
   *DEL*:           000002H   BYTE   UNIT     XDATA          ?XD?_CYDMATDFREE?CYDMAC
   *DEL*:           000009H   BYTE   UNIT     CODE           ?PR?CYDMATDFREECOUNT?CYDMAC
   *DEL*:           0000C9H   BYTE   UNIT     CODE           ?PR?_CYDMATDGETCONFIGURATION?CYDMAC
   *DEL*:           00000DH   BYTE   UNIT     XDATA          ?XD?_CYDMATDGETCONFIGURATION?CYDMAC
   *DEL*:           0000A6H   BYTE   UNIT     CODE           ?PR?_CYDMATDGETADDRESS?CYDMAC
   *DEL*:           00000AH   BYTE   UNIT     XDATA          ?XD?_CYDMATDGETADDRESS?CYDMAC
   *DEL*:           000038H   BYTE   UNIT     CODE           ?PR?_CYDMACHROUNDROBIN?CYDMAC
   *DEL*:           000031H   BYTE   UNIT     CODE           ?PR?CYFLASH_START?CYFLASH
   *DEL*:           000015H   BYTE   UNIT     CODE           ?PR?CYFLASH_STOP?CYFLASH
   *DEL*:           00007DH   BYTE   UNIT     CODE           ?PR?_CYSETFLASHEEBUFFER?CYFLASH
   *DEL*:           000004H   BYTE   UNIT     XDATA          ?XD?_CYSETFLASHEEBUFFER?CYFLASH
   *DEL*:           000034H   BYTE   UNIT     CODE           ?PR?_CYWRITEROWDATA?CYFLASH
   *DEL*:           000003H   BYTE   UNIT     XDATA          ?XD?_CYWRITEROWDATA?CYFLASH
   *DEL*:           000190H   BYTE   UNIT     CODE           ?PR?_CYWRITEROWFULL?CYFLASH
   *DEL*:           000009H   BYTE   UNIT     XDATA          ?XD?_CYWRITEROWFULL?CYFLASH
   *DEL*:           000044H   BYTE   UNIT     CODE           ?PR?_CYFLASH_SETWAITCYCLES?CYFLASH
   *DEL*:           000001H   BYTE   UNIT     XDATA          ?XD?_CYFLASH_SETWAITCYCLES?CYFLASH
   *DEL*:           000015H   BYTE   UNIT     CODE           ?PR?CYEEPROM_STOP?CYFLASH
   *DEL*:           000010H   BYTE   UNIT     CODE           ?PR?CYEEPROM_READRESERVE?CYFLASH
   *DEL*:           000008H   BYTE   UNIT     CODE           ?PR?CYEEPROM_READRELEASE?CYFLASH
   *DEL*:           00006EH   BYTE   UNIT     CODE           ?PR?_CYPLL_OUT_START?CYLIB
   *DEL*:           000004H   BYTE   UNIT     XDATA          ?XD?_CYPLL_OUT_START?CYLIB
   *DEL*:           000008H   BYTE   UNIT     CODE           ?PR?CYPLL_OUT_STOP?CYLIB
   *DEL*:           000036H   BYTE   UNIT     CODE           ?PR?_CYPLL_OUT_SETPQ?CYLIB
   *DEL*:           000010H   BYTE   UNIT     CODE           ?PR?_CYPLL_OUT_SETSOURCE?CYLIB
   *DEL*:           000053H   BYTE   UNIT     CODE           ?PR?_CYIMO_START?CYLIB
   *DEL*:           000003H   BYTE   UNIT     XDATA          ?XD?_CYIMO_START?CYLIB
   *DEL*:           00000FH   BYTE   UNIT     CODE           ?PR?CYIMO_STOP?CYLIB
   *DEL*:           000027H   BYTE   UNIT     CODE           ?PR?CYUSB_POWERONCHECK?CYLIB
   *DEL*:           0000B6H   BYTE   UNIT     CODE           ?PR?_CYIMO_SETTRIMVALUE?CYLIB
   *DEL*:           000001H   BYTE   UNIT     XDATA          ?XD?_CYIMO_SETTRIMVALUE?CYLIB
   *DEL*:           000118H   BYTE   UNIT     CODE           ?PR?_CYIMO_SETFREQ?CYLIB
   *DEL*:           000003H   BYTE   UNIT     XDATA          ?XD?_CYIMO_SETFREQ?CYLIB
   *DEL*:           00002FH   BYTE   UNIT     CODE           ?PR?_CYIMO_SETSOURCE?CYLIB
   *DEL*:           000008H   BYTE   UNIT     CODE           ?PR?CYIMO_ENABLEDOUBLER?CYLIB
   *DEL*:           000008H   BYTE   UNIT     CODE           ?PR?CYIMO_DISABLEDOUBLER?CYLIB
   *DEL*:           00000DH   BYTE   UNIT     CODE           ?PR?_CYMASTERCLK_SETSOURCE?CYLIB
   *DEL*:           000006H   BYTE   UNIT     CODE           ?PR?_CYMASTERCLK_SETDIVIDER?CYLIB
   *DEL*:           000023H   BYTE   UNIT     CODE           ?PR?_CYBUSCLK_INTERNAL_SETDIVIDER?CYLIB
   *DEL*:           00007AH   BYTE   UNIT     CODE           ?PR?_CYBUSCLK_SETDIVIDER?CYLIB
   *DEL*:           000002H   BYTE   UNIT     XDATA          ?XD?_CYBUSCLK_SETDIVIDER?CYLIB
   *DEL*:           00000EH   BYTE   UNIT     CODE           ?PR?_CYCPUCLK_SETDIVIDER?CYLIB
   *DEL*:           00000DH   BYTE   UNIT     CODE           ?PR?_CYUSBCLK_SETSOURCE?CYLIB
   *DEL*:           000008H   BYTE   UNIT     CODE           ?PR?CYILO_START1K?CYLIB
   *DEL*:           000008H   BYTE   UNIT     CODE           ?PR?CYILO_STOP1K?CYLIB
   *DEL*:           000008H   BYTE   UNIT     CODE           ?PR?CYILO_START100K?CYLIB
   *DEL*:           000008H   BYTE   UNIT     CODE           ?PR?CYILO_STOP100K?CYLIB
   *DEL*:           000008H   BYTE   UNIT     CODE           ?PR?CYILO_ENABLE33K?CYLIB
   *DEL*:           000008H   BYTE   UNIT     CODE           ?PR?CYILO_DISABLE33K?CYLIB
   *DEL*:           000011H   BYTE   UNIT     CODE           ?PR?_CYILO_SETSOURCE?CYLIB
   *DEL*:           000029H   BYTE   UNIT     CODE           ?PR?_CYILO_SETPOWERMODE?CYLIB
   *DEL*:           00005EH   BYTE   UNIT     CODE           ?PR?CYXTAL_32KHZ_START?CYLIB
   *DEL*:           000002H   BYTE   UNIT     XDATA          ?XD?CYXTAL_32KHZ_START?CYLIB
   *DEL*:           000020H   BYTE   UNIT     CODE           ?PR?CYXTAL_32KHZ_STOP?CYLIB
   *DEL*:           000008H   BYTE   UNIT     CODE           ?PR?CYXTAL_32KHZ_READSTATUS?CYLIB
   *DEL*:           000066H   BYTE   UNIT     CODE           ?PR?_CYXTAL_32KHZ_SETPOWERMODE?CYLIB
   *DEL*:           000001H   BYTE   UNIT     XDATA          ?XD?_CYXTAL_32KHZ_SETPOWERMODE?CYLIB
   *DEL*:           0000A0H   BYTE   UNIT     CODE           ?PR?_CYXTAL_START?CYLIB
   *DEL*:           000006H   BYTE   UNIT     XDATA          ?XD?_CYXTAL_START?CYLIB
   *DEL*:           000008H   BYTE   UNIT     CODE           ?PR?CYXTAL_STOP?CYLIB
   *DEL*:           000008H   BYTE   UNIT     CODE           ?PR?CYXTAL_ENABLEERRSTATUS?CYLIB
LX51 LINKER/LOCATER V4.64.0.0                                                         01/10/2017  17:59:18  PAGE 13


   *DEL*:           000008H   BYTE   UNIT     CODE           ?PR?CYXTAL_DISABLEERRSTATUS?CYLIB
   *DEL*:           00000FH   BYTE   UNIT     CODE           ?PR?CYXTAL_READSTATUS?CYLIB
   *DEL*:           000008H   BYTE   UNIT     CODE           ?PR?CYXTAL_ENABLEFAULTRECOVERY?CYLIB
   *DEL*:           000008H   BYTE   UNIT     CODE           ?PR?CYXTAL_DISABLEFAULTRECOVERY?CYLIB
   *DEL*:           00000DH   BYTE   UNIT     CODE           ?PR?_CYXTAL_SETSTARTUP?CYLIB
   *DEL*:           00000DH   BYTE   UNIT     CODE           ?PR?_CYXTAL_SETFBVOLTAGE?CYLIB
   *DEL*:           00000EH   BYTE   UNIT     CODE           ?PR?_CYXTAL_SETWDVOLTAGE?CYLIB
   *DEL*:           000015H   BYTE   UNIT     CODE           ?PR?_?CYHALT?CYLIB
   *DEL*:           0000B8H   BYTE   UNIT     CODE           ?PR?_?CYDELAYFREQ?CYLIB
   *DEL*:           000026H   BYTE   UNIT     CODE           ?PR?_CYWDTSTART?CYLIB
   *DEL*:           000007H   BYTE   UNIT     CODE           ?PR?CYWDTCLEAR?CYLIB
   *DEL*:           000084H   BYTE   UNIT     CODE           ?PR?_CYVDLVDIGITENABLE?CYLIB
   *DEL*:           000007H   BYTE   UNIT     XDATA          ?XD?_CYVDLVDIGITENABLE?CYLIB
   *DEL*:           000083H   BYTE   UNIT     CODE           ?PR?_CYVDLVANALOGENABLE?CYLIB
   *DEL*:           000007H   BYTE   UNIT     XDATA          ?XD?_CYVDLVANALOGENABLE?CYLIB
   *DEL*:           00001DH   BYTE   UNIT     CODE           ?PR?CYVDLVDIGITDISABLE?CYLIB
   *DEL*:           000018H   BYTE   UNIT     CODE           ?PR?CYVDLVANALOGDISABLE?CYLIB
   *DEL*:           000056H   BYTE   UNIT     CODE           ?PR?CYVDHVANALOGENABLE?CYLIB
   *DEL*:           000005H   BYTE   UNIT     XDATA          ?XD?CYVDHVANALOGENABLE?CYLIB
   *DEL*:           000011H   BYTE   UNIT     CODE           ?PR?CYVDHVANALOGDISABLE?CYLIB
   *DEL*:           000039H   BYTE   UNIT     CODE           ?PR?_CYVDSTICKYSTATUS?CYLIB
   *DEL*:           000002H   BYTE   UNIT     XDATA          ?XD?_CYVDSTICKYSTATUS?CYLIB
   *DEL*:           000018H   BYTE   UNIT     CODE           ?PR?CYVDREALTIMESTATUS?CYLIB
   *DEL*:           000001H   BYTE   UNIT     XDATA          ?XD?CYVDREALTIMESTATUS?CYLIB
   *DEL*:           0000D0H   BYTE   UNIT     CODE           ?PR?CYDISABLEINTS?CYLIB
   *DEL*:           000005H   BYTE   UNIT     XDATA          ?XD?CYDISABLEINTS?CYLIB
   *DEL*:           000067H   BYTE   UNIT     CODE           ?PR?_CYENABLEINTS?CYLIB
   *DEL*:           000004H   BYTE   UNIT     XDATA          ?XD?_CYENABLEINTS?CYLIB
   *DEL*:           000018H   BYTE   UNIT     CODE           ?PR?_CYINTGETVECTOR?CYLIB
   *DEL*:           000014H   BYTE   UNIT     CODE           ?PR?_CYINTGETPRIORITY?CYLIB
   *DEL*:           000036H   BYTE   UNIT     CODE           ?PR?_CYINTGETSTATE?CYLIB
   *DEL*:           000248H   BYTE   UNIT     CODE           ?PR?_CYGETUNIQUEID?CYLIB
   *DEL*:           000003H   BYTE   UNIT     XDATA          ?XD?_CYGETUNIQUEID?CYLIB
   *DEL*:           000008H   BYTE   UNIT     CODE           ?PR?LED_BLINK_STOP?LED_BLINK
   *DEL*:           00000BH   BYTE   UNIT     CODE           ?PR?LED_BLINK_READCOUNTER?LED_BLINK
   *DEL*:           000006H   BYTE   UNIT     CODE           ?PR?LED_BLINK_READCONTROLREGISTER?LED_BLINK
   *DEL*:           000006H   BYTE   UNIT     CODE           ?PR?_LED_BLINK_WRITECONTROLREGISTER?LED_BLINK
   *DEL*:           000006H   BYTE   UNIT     CODE           ?PR?LED_BLINK_READCAPTURE?LED_BLINK
   *DEL*:           000006H   BYTE   UNIT     CODE           ?PR?LED_BLINK_READCOMPARE?LED_BLINK
   *DEL*:           000006H   BYTE   UNIT     CODE           ?PR?LED_BLINK_READPERIOD?LED_BLINK
   *DEL*:           000006H   BYTE   UNIT     CODE           ?PR?LED_CTRL_READ?LED_CTRL
   *DEL*:           000006H   BYTE   UNIT     CODE           ?PR?LED_BLINK_EN_READ?LED_BLINK_EN
   *DEL*:           00001AH   BYTE   UNIT     CODE           ?PR?_SETANALOGROUTINGPUMPS?CYFITTER_CFG
   *DEL*:           000021H   BYTE   UNIT     CODE           ?PR?_ADC_AMUX_FASTSELECT?ADC_AMUX
   *DEL*:           000001H   BYTE   UNIT     XDATA          ?XD?_ADC_AMUX_FASTSELECT?ADC_AMUX
   *DEL*:           00000FH   BYTE   UNIT     CODE           ?PR?ADC_EXT_CP_CLK_START?ADC_EXT_CP_CLK
   *DEL*:           00000FH   BYTE   UNIT     CODE           ?PR?ADC_EXT_CP_CLK_STOP?ADC_EXT_CP_CLK
   *DEL*:           00006EH   BYTE   UNIT     CODE           ?PR?ADC_EXT_CP_CLK_STOPBLOCK?ADC_EXT_CP_CLK
   *DEL*:           000002H   BYTE   UNIT     XDATA          ?XD?ADC_EXT_CP_CLK_STOPBLOCK?ADC_EXT_CP_CLK
   *DEL*:           000013H   BYTE   UNIT     CODE           ?PR?_ADC_EXT_CP_CLK_STANDBYPOWER?ADC_EXT_CP_CLK
   *DEL*:           00000EH   BYTE   UNIT     CODE           ?PR?_ADC_EXT_CP_CLK_CLEARMODEREGISTER?ADC_EXT_CP_CLK
   *DEL*:           000008H   BYTE   UNIT     CODE           ?PR?ADC_EXT_CP_CLK_GETMODEREGISTER?ADC_EXT_CP_CLK
   *DEL*:           000062H   BYTE   UNIT     CODE           ?PR?_ADC_EXT_CP_CLK_SETSOURCEREGISTER?ADC_EXT_CP_CLK
   *DEL*:           000003H   BYTE   UNIT     XDATA          ?XD?_ADC_EXT_CP_CLK_SETSOURCEREGISTER?ADC_EXT_CP_CLK
   *DEL*:           00000FH   BYTE   UNIT     CODE           ?PR?ADC_THEACLK_START?ADC_THEACLK
   *DEL*:           00000FH   BYTE   UNIT     CODE           ?PR?ADC_THEACLK_STOP?ADC_THEACLK
   *DEL*:           00006CH   BYTE   UNIT     CODE           ?PR?ADC_THEACLK_STOPBLOCK?ADC_THEACLK
   *DEL*:           000002H   BYTE   UNIT     XDATA          ?XD?ADC_THEACLK_STOPBLOCK?ADC_THEACLK
   *DEL*:           000013H   BYTE   UNIT     CODE           ?PR?_ADC_THEACLK_STANDBYPOWER?ADC_THEACLK
   *DEL*:           00000EH   BYTE   UNIT     CODE           ?PR?_ADC_THEACLK_CLEARMODEREGISTER?ADC_THEACLK
   *DEL*:           000008H   BYTE   UNIT     CODE           ?PR?ADC_THEACLK_GETMODEREGISTER?ADC_THEACLK
   *DEL*:           000062H   BYTE   UNIT     CODE           ?PR?_ADC_THEACLK_SETSOURCEREGISTER?ADC_THEACLK
   *DEL*:           000003H   BYTE   UNIT     XDATA          ?XD?_ADC_THEACLK_SETSOURCEREGISTER?ADC_THEACLK
   *DEL*:           000008H   BYTE   UNIT     CODE           ?PR?_ADC_THEACLK_SETPHASEREGISTER?ADC_THEACLK
   *DEL*:           000008H   BYTE   UNIT     CODE           ?PR?ADC_THEACLK_GETPHASEREGISTER?ADC_THEACLK
LX51 LINKER/LOCATER V4.64.0.0                                                         01/10/2017  17:59:18  PAGE 14


   *DEL*:           000004H   BYTE   UNIT     CODE           ?PR?_CyDelay?CYBOOTASMKEIL
   *DEL*:           000019H   BYTE   UNIT     CODE           ?PR?CYMEMZERO?CYMEM
   *DEL*:           00002DH   BYTE   UNIT     CODE           ?PR?CFG_WRITE_BYTES?CYMEM
   *DEL*:           00002EH   BYTE   UNIT     CODE           ?PR?CY_WRITE_BYTES_CODE?CYMEM
   *DEL*:           000015H   BYTE   UNIT     CODE           ?PR?CYREAD32?CYMEM
   *DEL*:           000015H   BYTE   UNIT     CODE           ?PR?CYWRITE32?CYMEM
   *DEL*:           0001A9H   BYTE   UNIT     CODE           ?PR?CYPMSAVECLOCKS?CYPM
   *DEL*:           00024CH   BYTE   UNIT     CODE           ?PR?CYPMRESTORECLOCKS?CYPM
   *DEL*:           000003H   BYTE   UNIT     XDATA          ?XD?CYPMRESTORECLOCKS?CYPM
   *DEL*:           0000E0H   BYTE   UNIT     CODE           ?PR?_CYPMALTACT?CYPM
   *DEL*:           000004H   BYTE   UNIT     XDATA          ?XD?_CYPMALTACT?CYPM
   *DEL*:           000160H   BYTE   UNIT     CODE           ?PR?_CYPMSLEEP?CYPM
   *DEL*:           000004H   BYTE   UNIT     XDATA          ?XD?_CYPMSLEEP?CYPM
   *DEL*:           000008H   BYTE   UNIT     CODE           ?PR?CYPMHIBERNATE?CYPM
   *DEL*:           0000D6H   BYTE   UNIT     CODE           ?PR?_CYPMHIBERNATEEX?CYPM
   *DEL*:           000003H   BYTE   UNIT     XDATA          ?XD?_CYPMHIBERNATEEX?CYPM
   *DEL*:           000039H   BYTE   UNIT     CODE           ?PR?_CYPMREADSTATUS?CYPM
   *DEL*:           000002H   BYTE   UNIT     XDATA          ?XD?_CYPMREADSTATUS?CYPM
   *DEL*:           000076H   BYTE   UNIT     CODE           ?PR?CYPMHIBSAVESET?CYPM
   *DEL*:           000040H   BYTE   UNIT     CODE           ?PR?CYPMHIBRESTORE?CYPM
   *DEL*:           000049H   BYTE   UNIT     CODE           ?PR?_CYPMCTWSETINTERVAL?CYPM
   *DEL*:           000001H   BYTE   UNIT     XDATA          ?XD?_CYPMCTWSETINTERVAL?CYPM
   *DEL*:           000017H   BYTE   UNIT     CODE           ?PR?CYPMOPPSSET?CYPM
   *DEL*:           00004DH   BYTE   UNIT     CODE           ?PR?_CYPMFTWSETINTERVAL?CYPM
   *DEL*:           000001H   BYTE   UNIT     XDATA          ?XD?_CYPMFTWSETINTERVAL?CYPM
   *DEL*:           00018CH   BYTE   UNIT     CODE           ?PR?CYPMHIBSLPSAVESET?CYPM
   *DEL*:           00010DH   BYTE   UNIT     CODE           ?PR?CYPMHIBSLPRESTORE?CYPM
   *DEL*:           000082H   BYTE   UNIT     CODE           ?PR?CYPMHVILVISAVEDISABLE?CYPM
   *DEL*:           000033H   BYTE   UNIT     CODE           ?PR?CYPMHVILVIRESTORE?CYPM
   *DEL*:           00000EH   BYTE   UNIT     CONST          ?CO?CYPM
   *DEL*:           000015H   BYTE   UNIT     CODE           ?PR?CYSPCSTOP?CYSPC
   *DEL*:           0000A7H   BYTE   UNIT     CODE           ?PR?_CYSPCLOADMULTIBYTE?CYSPC
   *DEL*:           000007H   BYTE   UNIT     XDATA          ?XD?_CYSPCLOADMULTIBYTE?CYSPC
   *DEL*:           000143H   BYTE   UNIT     CODE           ?PR?_CYSPCLOADROWFULL?CYSPC
   *DEL*:           00000FH   BYTE   UNIT     XDATA          ?XD?_CYSPCLOADROWFULL?CYSPC
   *DEL*:           000030H   BYTE   UNIT     CODE           ?PR?_CYSPCERASESECTOR?CYSPC



OVERLAY MAP OF MODULE:   .\DP8051_Keil_951\Release\hand_firmware_micro.omf (COMMAND_PROCESSING)


FUNCTION/MODULE                                BIT_GROUP   DATA_GROUP   IDATA_GROUP  XDATA_GROUP
--> CALLED FUNCTION/MODULE                    START  STOP  START  STOP  START  STOP  START  STOP
================================================================================================
ISR_WATCHDOG_HANDLER/INTERRUPTIONS            ----- -----  ----- -----  ----- -----  ----- -----

*** NEW ROOT ********************************

ISR_RS485_RX_EXINTERRUPT/INTERRUPTIONS        ----- -----  ----- -----  ----- -----  ----- -----

*** NEW ROOT ********************************

ISR_RS485_RX_INTERRUPT/ISR_RS485_RX           ----- -----  ----- -----  ----- -----  ----- -----

*** NEW ROOT ********************************

ISR_WATCHDOG_INTERRUPT/ISR_WATCHDOG           ----- -----  ----- -----  ----- -----  ----- -----

*** NEW ROOT ********************************

?C_C51STARTUP                                 ----- -----  ----- -----  ----- -----  ----- -----
  +--> ?CO?KEILSTART?3
  +--> CYFITTER_CFG/CYFITTER_CFG
  +--> CYDMACCONFIGURE/CYDMAC
LX51 LINKER/LOCATER V4.64.0.0                                                         01/10/2017  17:59:18  PAGE 15


  +--> MAIN/MAIN
  +--> ?C_INITSEG

?CO?KEILSTART?3                               ----- -----  ----- -----  ----- -----  ----- -----

CYFITTER_CFG/CYFITTER_CFG                     ----- -----  ----- -----  ----- -----  ----- -----
  +--> CYREAD8/CYMEM
  +--> CYWRITE8/CYMEM
  +--> CFG_DMA_INIT/CYFITTER_CFG
  +--> ?CO?CYFITTER_CFG
  +--> CYCONFIGCPYCODE/CYMEM
  +--> _CYCONFIGCPY/CYMEM
  +--> CLOCKSETUP/CYFITTER_CFG
  +--> ANALOGSETDEFAULT/CYFITTER_CFG

CYREAD8/CYMEM                                 ----- -----  ----- -----  ----- -----  ----- -----

CYWRITE8/CYMEM                                ----- -----  ----- -----  ----- -----  ----- -----

CFG_DMA_INIT/CYFITTER_CFG                     ----- -----  ----- -----  ----- -----  ----- -----
  +--> CYWRITE16/CYMEM
  +--> ?CO?CYFITTER_CFG
  +--> _CYCONFIGCPY/CYMEM

CYWRITE16/CYMEM                               ----- -----  ----- -----  ----- -----  ----- -----

?CO?CYFITTER_CFG                              ----- -----  ----- -----  ----- -----  ----- -----

_CYCONFIGCPY/CYMEM                            ----- -----  ----- -----  ----- -----  0005H 000CH

CYCONFIGCPYCODE/CYMEM                         ----- -----  ----- -----  ----- -----  ----- -----

CLOCKSETUP/CYFITTER_CFG                       ----- -----  ----- -----  ----- -----  0000H 0004H
  +--> CYWRITE16/CYMEM
  +--> _CYCONFIGCPY/CYMEM
  +--> CYREAD8/CYMEM
  +--> CYDELAYCYCLES/CYBOOTASMKEIL
  +--> _CYCLOCKSTARTUPERROR/CYFITTER_CFG

CYDELAYCYCLES/CYBOOTASMKEIL                   ----- -----  ----- -----  ----- -----  ----- -----

_CYCLOCKSTARTUPERROR/CYFITTER_CFG             ----- -----  ----- -----  ----- -----  ----- -----

ANALOGSETDEFAULT/CYFITTER_CFG                 ----- -----  ----- -----  ----- -----  ----- -----
  +--> CYREAD8/CYMEM

CYDMACCONFIGURE/CYDMAC                        ----- -----  ----- -----  ----- -----  ----- -----

MAIN/MAIN                                     ----- -----  ----- -----  ----- -----  0000H 0001H
  +--> EEPROM_START/EEPROM
  +--> MEMRECALL/COMMAND_PROCESSING
  +--> _?CYDELAY/CYLIB
  +--> _FTDI_ENABLE_REG_WRITE/FTDI_ENABLE_REG
  +--> _LED_CTRL_WRITE/LED_CTRL
  +--> _LED_BLINK_EN_WRITE/LED_BLINK_EN
  +--> LED_BLINK_START/LED_BLINK
  +--> _LED_BLINK_WRITECOMPARE/LED_BLINK
  +--> UART_RS485_STOP/UART_RS485
  +--> UART_RS485_START/UART_RS485
  +--> UART_RS485_INIT/UART_RS485
  +--> UART_RS485_CLEARRXBUFFER/UART_RS485
  +--> UART_RS485_CLEARTXBUFFER/UART_RS485
  +--> _ISR_RS485_RX_STARTEX/ISR_RS485_RX
  +--> WATCHDOG_COUNTER_START/WATCHDOG_COUNTER
  +--> _ISR_WATCHDOG_STARTEX/ISR_WATCHDOG
LX51 LINKER/LOCATER V4.64.0.0                                                         01/10/2017  17:59:18  PAGE 16


  +--> PWM_MOTORS_START/PWM_MOTORS
  +--> _PWM_MOTORS_WRITECOMPARE1/PWM_MOTORS
  +--> _PWM_MOTORS_WRITECOMPARE2/PWM_MOTORS
  +--> _MOTOR_DIR_WRITE/MOTOR_DIR
  +--> _MOTOR_ON_OFF_WRITE/MOTOR_ON_OFF
  +--> COUNTER_ENC_START/COUNTER_ENC
  +--> SHIFTREG_ENC_1_START/SHIFTREG_ENC_1
  +--> SHIFTREG_ENC_2_START/SHIFTREG_ENC_2
  +--> SHIFTREG_ENC_3_START/SHIFTREG_ENC_3
  +--> ADC_START/ADC
  +--> _ADC_SOC_WRITE/ADC_SOC
  +--> _DMA_DMAINITIALIZE/DMA_DMA
  +--> CYDMATDALLOCATE/CYDMAC
  +--> _CYDMATDSETCONFIGURATION/CYDMAC
  +--> _CYDMATDSETADDRESS/CYDMAC
  +--> _CYDMACHSETINITIALTD/CYDMAC
  +--> _CYDMACHENABLE/CYDMAC
  +--> _RS485_CTS_WRITE/RS485_CTS
  +--> MY_TIMER_START/MY_TIMER
  +--> PACER_TIMER_START/PACER_TIMER
  +--> _RESET_COUNTERS_WRITE/RESET_COUNTERS
  +--> _RESET_FF_WRITE/RESET_FF
  +--> FUNCTION_SCHEDULER/INTERRUPTIONS
  +--> FF_STATUS_READ/FF_STATUS
  +--> _WATCHDOG_REFRESH_WRITE/WATCHDOG_REFRESH
  +--> INTERRUPT_MANAGER/INTERRUPTIONS
  +--> UART_RS485_READRXSTATUS/UART_RS485

EEPROM_START/EEPROM                           ----- -----  ----- -----  ----- -----  ----- -----
  +--> EEPROM_ENABLE/EEPROM

EEPROM_ENABLE/EEPROM                          ----- -----  ----- -----  ----- -----  ----- -----
  +--> CYSETTEMP/CYFLASH
  +--> CYEEPROM_START/CYFLASH

CYSETTEMP/CYFLASH                             ----- -----  ----- -----  ----- -----  0019H 0019H
  +--> CYFLASHGETSPCALGORITHM/CYFLASH
  +--> CYSETTEMPINT/CYFLASH

CYFLASHGETSPCALGORITHM/CYFLASH                ----- -----  ----- -----  ----- -----  001AH 001AH
  +--> CYSPCSTART/CYSPC
  +--> CYSPCLOCK/CYSPC
  +--> CYSPCGETALGORITHM/CYSPC
  +--> CYDELAYUS/CYBOOTASMKEIL
  +--> CYSPCUNLOCK/CYSPC

CYSPCSTART/CYSPC                              ----- -----  ----- -----  ----- -----  ----- -----
  +--> CYENTERCRITICALSECTION/CYBOOTASMKEIL
  +--> CYEXITCRITICALSECTION/CYBOOTASMKEIL

CYENTERCRITICALSECTION/CYBOOTASMKEIL          ----- -----  ----- -----  ----- -----  ----- -----

CYEXITCRITICALSECTION/CYBOOTASMKEIL           ----- -----  ----- -----  ----- -----  ----- -----

CYSPCLOCK/CYSPC                               ----- -----  ----- -----  ----- -----  001EH 001EH
  +--> CYENTERCRITICALSECTION/CYBOOTASMKEIL
  +--> CYEXITCRITICALSECTION/CYBOOTASMKEIL

CYSPCGETALGORITHM/CYSPC                       ----- -----  ----- -----  ----- -----  ----- -----

CYDELAYUS/CYBOOTASMKEIL                       ----- -----  ----- -----  ----- -----  ----- -----
  +--> CYDELAYCYCLES/CYBOOTASMKEIL

CYSPCUNLOCK/CYSPC                             ----- -----  ----- -----  ----- -----  ----- -----
  +--> CYENTERCRITICALSECTION/CYBOOTASMKEIL
LX51 LINKER/LOCATER V4.64.0.0                                                         01/10/2017  17:59:18  PAGE 17


  +--> CYEXITCRITICALSECTION/CYBOOTASMKEIL

CYSETTEMPINT/CYFLASH                          ----- -----  ----- -----  ----- -----  001AH 001AH
  +--> CYSPCSTART/CYSPC
  +--> CYSPCLOCK/CYSPC
  +--> _CYSPCGETTEMP/CYSPC
  +--> _CYSPCREADDATA/CYSPC
  +--> CYDELAYUS/CYBOOTASMKEIL
  +--> CYSPCUNLOCK/CYSPC

_CYSPCGETTEMP/CYSPC                           ----- -----  ----- -----  ----- -----  ----- -----

_CYSPCREADDATA/CYSPC                          ----- -----  ----- -----  ----- -----  001BH 001FH
  +--> CYDELAYUS/CYBOOTASMKEIL

CYEEPROM_START/CYFLASH                        ----- -----  ----- -----  ----- -----  ----- -----
  +--> CYENTERCRITICALSECTION/CYBOOTASMKEIL
  +--> CYEXITCRITICALSECTION/CYBOOTASMKEIL

MEMRECALL/COMMAND_PROCESSING                  ----- -----  ----- -----  ----- -----  ----- -----
  +--> MEMRESTORE/COMMAND_PROCESSING

MEMRESTORE/COMMAND_PROCESSING                 ----- -----  ----- -----  ----- -----  ----- -----
  +--> MEMINIT/COMMAND_PROCESSING
  +--> _MEMSTORE/COMMAND_PROCESSING

MEMINIT/COMMAND_PROCESSING                    ----- -----  ----- -----  ----- -----  ----- -----
  +--> _MEMSTORE/COMMAND_PROCESSING

_MEMSTORE/COMMAND_PROCESSING                  ----- -----  ----- -----  ----- -----  0012H 0018H
  +--> ISR_RS485_RX_DISABLE/ISR_RS485_RX
  +--> _PWM_MOTORS_WRITECOMPARE1/PWM_MOTORS
  +--> _PWM_MOTORS_WRITECOMPARE2/PWM_MOTORS
  +--> CYSETTEMP/CYFLASH
  +--> _EEPROM_WRITE/EEPROM
  +--> ISR_RS485_RX_ENABLE/ISR_RS485_RX

ISR_RS485_RX_DISABLE/ISR_RS485_RX             ----- -----  ----- -----  ----- -----  ----- -----

_PWM_MOTORS_WRITECOMPARE1/PWM_MOTORS          ----- -----  ----- -----  ----- -----  ----- -----

_PWM_MOTORS_WRITECOMPARE2/PWM_MOTORS          ----- -----  ----- -----  ----- -----  ----- -----

_EEPROM_WRITE/EEPROM                          ----- -----  ----- -----  ----- -----  0019H 001DH
  +--> CYSPCSTART/CYSPC
  +--> CYSPCLOCK/CYSPC
  +--> _CYSPCLOADROW/CYSPC
  +--> _CYSPCWRITEROW/CYSPC
  +--> CYSPCUNLOCK/CYSPC

_CYSPCLOADROW/CYSPC                           ----- -----  ----- -----  ----- -----  001EH 0024H

_CYSPCWRITEROW/CYSPC                          ----- -----  ----- -----  ----- -----  001EH 0022H

ISR_RS485_RX_ENABLE/ISR_RS485_RX              ----- -----  ----- -----  ----- -----  ----- -----

_?CYDELAY/CYLIB                               ----- -----  ----- -----  ----- -----  ----- -----
  +--> CYDELAYCYCLES/CYBOOTASMKEIL

_FTDI_ENABLE_REG_WRITE/FTDI_ENABLE_REG        ----- -----  ----- -----  ----- -----  ----- -----

_LED_CTRL_WRITE/LED_CTRL                      ----- -----  ----- -----  ----- -----  ----- -----

_LED_BLINK_EN_WRITE/LED_BLINK_EN              ----- -----  ----- -----  ----- -----  ----- -----

LX51 LINKER/LOCATER V4.64.0.0                                                         01/10/2017  17:59:18  PAGE 18


LED_BLINK_START/LED_BLINK                     ----- -----  ----- -----  ----- -----  ----- -----
  +--> LED_BLINK_INIT/LED_BLINK
  +--> LED_BLINK_ENABLE/LED_BLINK

LED_BLINK_INIT/LED_BLINK                      ----- -----  ----- -----  ----- -----  ----- -----
  +--> _LED_BLINK_WRITECOUNTER/LED_BLINK
  +--> _LED_BLINK_WRITEPERIOD/LED_BLINK
  +--> _LED_BLINK_WRITECOMPARE/LED_BLINK

_LED_BLINK_WRITECOUNTER/LED_BLINK             ----- -----  ----- -----  ----- -----  ----- -----

_LED_BLINK_WRITEPERIOD/LED_BLINK              ----- -----  ----- -----  ----- -----  ----- -----

_LED_BLINK_WRITECOMPARE/LED_BLINK             ----- -----  ----- -----  ----- -----  ----- -----

LED_BLINK_ENABLE/LED_BLINK                    ----- -----  ----- -----  ----- -----  ----- -----

UART_RS485_STOP/UART_RS485                    ----- -----  ----- -----  ----- -----  ----- -----
  +--> CYENTERCRITICALSECTION/CYBOOTASMKEIL
  +--> CYEXITCRITICALSECTION/CYBOOTASMKEIL

UART_RS485_START/UART_RS485                   ----- -----  ----- -----  ----- -----  ----- -----
  +--> UART_RS485_INIT/UART_RS485
  +--> UART_RS485_ENABLE/UART_RS485

UART_RS485_INIT/UART_RS485                    ----- -----  ----- -----  ----- -----  ----- -----
  +--> _CYINTSETVECTOR/CYLIB
  +--> _CYINTSETPRIORITY/CYLIB

_CYINTSETVECTOR/CYLIB                         ----- -----  ----- -----  ----- -----  0002H 0006H
  +--> CYREAD16/CYMEM
  +--> CYWRITE16/CYMEM

CYREAD16/CYMEM                                ----- -----  ----- -----  ----- -----  ----- -----

_CYINTSETPRIORITY/CYLIB                       ----- -----  ----- -----  ----- -----  ----- -----

UART_RS485_ENABLE/UART_RS485                  ----- -----  ----- -----  ----- -----  ----- -----
  +--> CYENTERCRITICALSECTION/CYBOOTASMKEIL
  +--> CYEXITCRITICALSECTION/CYBOOTASMKEIL

UART_RS485_CLEARRXBUFFER/UART_RS485           ----- -----  ----- -----  ----- -----  ----- -----
  +--> CYENTERCRITICALSECTION/CYBOOTASMKEIL
  +--> CYEXITCRITICALSECTION/CYBOOTASMKEIL

UART_RS485_CLEARTXBUFFER/UART_RS485           ----- -----  ----- -----  ----- -----  ----- -----
  +--> CYENTERCRITICALSECTION/CYBOOTASMKEIL
  +--> CYEXITCRITICALSECTION/CYBOOTASMKEIL

_ISR_RS485_RX_STARTEX/ISR_RS485_RX            ----- -----  ----- -----  ----- -----  0002H 0003H
  +--> ISR_RS485_RX_DISABLE/ISR_RS485_RX
  +--> _ISR_RS485_RX_SETVECTOR/ISR_RS485_RX
  +--> _ISR_RS485_RX_SETPRIORITY/ISR_RS485_RX
  +--> ISR_RS485_RX_ENABLE/ISR_RS485_RX

_ISR_RS485_RX_SETVECTOR/ISR_RS485_RX          ----- -----  ----- -----  ----- -----  ----- -----
  +--> CYWRITE16/CYMEM

_ISR_RS485_RX_SETPRIORITY/ISR_RS485_RX        ----- -----  ----- -----  ----- -----  ----- -----

WATCHDOG_COUNTER_START/WATCHDOG_COUNTER       ----- -----  ----- -----  ----- -----  ----- -----
  +--> WATCHDOG_COUNTER_INIT/WATCHDOG_COUNTER
  +--> WATCHDOG_COUNTER_ENABLE/WATCHDOG_COUNTER

WATCHDOG_COUNTER_INIT/WATCHDOG_COUNTER        ----- -----  ----- -----  ----- -----  ----- -----
LX51 LINKER/LOCATER V4.64.0.0                                                         01/10/2017  17:59:18  PAGE 19


  +--> _WATCHDOG_COUNTER_WRITEPERIOD/WATCHDOG_COUNTER
  +--> _WATCHDOG_COUNTER_WRITECOUNTER/WATCHDOG_COUNTER
  +--> _WATCHDOG_COUNTER_SETINTERRUPTMODE/WATCHDOG_COUNTER

_WATCHDOG_COUNTER_WRITEPERIOD/WATCHDOG_C+     ----- -----  ----- -----  ----- -----  ----- -----
... OUNTER
  +--> CYWRITE16/CYMEM

_WATCHDOG_COUNTER_WRITECOUNTER/WATCHDOG_+     ----- -----  ----- -----  ----- -----  ----- -----
... COUNTER
  +--> CYWRITE16/CYMEM

_WATCHDOG_COUNTER_SETINTERRUPTMODE/WATCH+     ----- -----  ----- -----  ----- -----  ----- -----
... DOG_COUNTER

WATCHDOG_COUNTER_ENABLE/WATCHDOG_COUNTER      ----- -----  ----- -----  ----- -----  ----- -----

_ISR_WATCHDOG_STARTEX/ISR_WATCHDOG            ----- -----  ----- -----  ----- -----  0002H 0003H
  +--> ISR_WATCHDOG_DISABLE/ISR_WATCHDOG
  +--> _ISR_WATCHDOG_SETVECTOR/ISR_WATCHDOG
  +--> _ISR_WATCHDOG_SETPRIORITY/ISR_WATCHDOG
  +--> ISR_WATCHDOG_ENABLE/ISR_WATCHDOG

ISR_WATCHDOG_DISABLE/ISR_WATCHDOG             ----- -----  ----- -----  ----- -----  ----- -----

_ISR_WATCHDOG_SETVECTOR/ISR_WATCHDOG          ----- -----  ----- -----  ----- -----  ----- -----
  +--> CYWRITE16/CYMEM

_ISR_WATCHDOG_SETPRIORITY/ISR_WATCHDOG        ----- -----  ----- -----  ----- -----  ----- -----

ISR_WATCHDOG_ENABLE/ISR_WATCHDOG              ----- -----  ----- -----  ----- -----  ----- -----

PWM_MOTORS_START/PWM_MOTORS                   ----- -----  ----- -----  ----- -----  ----- -----
  +--> PWM_MOTORS_INIT/PWM_MOTORS
  +--> PWM_MOTORS_ENABLE/PWM_MOTORS

PWM_MOTORS_INIT/PWM_MOTORS                    ----- -----  ----- -----  ----- -----  ----- -----
  +--> _PWM_MOTORS_WRITECOUNTER/PWM_MOTORS
  +--> _PWM_MOTORS_WRITEPERIOD/PWM_MOTORS
  +--> _PWM_MOTORS_WRITECOMPARE1/PWM_MOTORS
  +--> _PWM_MOTORS_WRITECOMPARE2/PWM_MOTORS

_PWM_MOTORS_WRITECOUNTER/PWM_MOTORS           ----- -----  ----- -----  ----- -----  ----- -----

_PWM_MOTORS_WRITEPERIOD/PWM_MOTORS            ----- -----  ----- -----  ----- -----  ----- -----

PWM_MOTORS_ENABLE/PWM_MOTORS                  ----- -----  ----- -----  ----- -----  ----- -----

_MOTOR_DIR_WRITE/MOTOR_DIR                    ----- -----  ----- -----  ----- -----  ----- -----

_MOTOR_ON_OFF_WRITE/MOTOR_ON_OFF              ----- -----  ----- -----  ----- -----  ----- -----

COUNTER_ENC_START/COUNTER_ENC                 ----- -----  ----- -----  ----- -----  ----- -----
  +--> COUNTER_ENC_INIT/COUNTER_ENC
  +--> COUNTER_ENC_ENABLE/COUNTER_ENC

COUNTER_ENC_INIT/COUNTER_ENC                  ----- -----  ----- -----  ----- -----  ----- -----
  +--> COUNTER_ENC_CLEARFIFO/COUNTER_ENC
  +--> _COUNTER_ENC_WRITEPERIOD/COUNTER_ENC
  +--> _COUNTER_ENC_WRITECOUNTER/COUNTER_ENC
  +--> _COUNTER_ENC_SETINTERRUPTMODE/COUNTER_ENC
  +--> COUNTER_ENC_READSTATUSREGISTER/COUNTER_ENC
  +--> _COUNTER_ENC_WRITECOMPARE/COUNTER_ENC
  +--> CYENTERCRITICALSECTION/CYBOOTASMKEIL
  +--> CYEXITCRITICALSECTION/CYBOOTASMKEIL
LX51 LINKER/LOCATER V4.64.0.0                                                         01/10/2017  17:59:18  PAGE 20



COUNTER_ENC_CLEARFIFO/COUNTER_ENC             ----- -----  ----- -----  ----- -----  ----- -----
  +--> COUNTER_ENC_READSTATUSREGISTER/COUNTER_ENC
  +--> COUNTER_ENC_READCAPTURE/COUNTER_ENC

COUNTER_ENC_READSTATUSREGISTER/COUNTER_E+     ----- -----  ----- -----  ----- -----  ----- -----
... NC

COUNTER_ENC_READCAPTURE/COUNTER_ENC           ----- -----  ----- -----  ----- -----  ----- -----

_COUNTER_ENC_WRITEPERIOD/COUNTER_ENC          ----- -----  ----- -----  ----- -----  ----- -----

_COUNTER_ENC_WRITECOUNTER/COUNTER_ENC         ----- -----  ----- -----  ----- -----  ----- -----

_COUNTER_ENC_SETINTERRUPTMODE/COUNTER_EN+     ----- -----  ----- -----  ----- -----  ----- -----
... C

_COUNTER_ENC_WRITECOMPARE/COUNTER_ENC         ----- -----  ----- -----  ----- -----  ----- -----

COUNTER_ENC_ENABLE/COUNTER_ENC                ----- -----  ----- -----  ----- -----  ----- -----

SHIFTREG_ENC_1_START/SHIFTREG_ENC_1           ----- -----  ----- -----  ----- -----  ----- -----
  +--> SHIFTREG_ENC_1_INIT/SHIFTREG_ENC_1
  +--> SHIFTREG_ENC_1_ENABLE/SHIFTREG_ENC_1

SHIFTREG_ENC_1_INIT/SHIFTREG_ENC_1            ----- -----  ----- -----  ----- -----  ----- -----
  +--> _SHIFTREG_ENC_1_SETINTMODE/SHIFTREG_ENC_1

_SHIFTREG_ENC_1_SETINTMODE/SHIFTREG_ENC_+     ----- -----  ----- -----  ----- -----  ----- -----
... 1

SHIFTREG_ENC_1_ENABLE/SHIFTREG_ENC_1          ----- -----  ----- -----  ----- -----  ----- -----
  +--> SHIFTREG_ENC_1_ENABLEINT/SHIFTREG_ENC_1

SHIFTREG_ENC_1_ENABLEINT/SHIFTREG_ENC_1       ----- -----  ----- -----  ----- -----  ----- -----
  +--> CYENTERCRITICALSECTION/CYBOOTASMKEIL
  +--> CYEXITCRITICALSECTION/CYBOOTASMKEIL

SHIFTREG_ENC_2_START/SHIFTREG_ENC_2           ----- -----  ----- -----  ----- -----  ----- -----
  +--> SHIFTREG_ENC_2_INIT/SHIFTREG_ENC_2
  +--> SHIFTREG_ENC_2_ENABLE/SHIFTREG_ENC_2

SHIFTREG_ENC_2_INIT/SHIFTREG_ENC_2            ----- -----  ----- -----  ----- -----  ----- -----
  +--> _SHIFTREG_ENC_2_SETINTMODE/SHIFTREG_ENC_2

_SHIFTREG_ENC_2_SETINTMODE/SHIFTREG_ENC_+     ----- -----  ----- -----  ----- -----  ----- -----
... 2

SHIFTREG_ENC_2_ENABLE/SHIFTREG_ENC_2          ----- -----  ----- -----  ----- -----  ----- -----
  +--> SHIFTREG_ENC_2_ENABLEINT/SHIFTREG_ENC_2

SHIFTREG_ENC_2_ENABLEINT/SHIFTREG_ENC_2       ----- -----  ----- -----  ----- -----  ----- -----
  +--> CYENTERCRITICALSECTION/CYBOOTASMKEIL
  +--> CYEXITCRITICALSECTION/CYBOOTASMKEIL

SHIFTREG_ENC_3_START/SHIFTREG_ENC_3           ----- -----  ----- -----  ----- -----  ----- -----
  +--> SHIFTREG_ENC_3_INIT/SHIFTREG_ENC_3
  +--> SHIFTREG_ENC_3_ENABLE/SHIFTREG_ENC_3

SHIFTREG_ENC_3_INIT/SHIFTREG_ENC_3            ----- -----  ----- -----  ----- -----  ----- -----
  +--> _SHIFTREG_ENC_3_SETINTMODE/SHIFTREG_ENC_3

_SHIFTREG_ENC_3_SETINTMODE/SHIFTREG_ENC_+     ----- -----  ----- -----  ----- -----  ----- -----
... 3

LX51 LINKER/LOCATER V4.64.0.0                                                         01/10/2017  17:59:18  PAGE 21


SHIFTREG_ENC_3_ENABLE/SHIFTREG_ENC_3          ----- -----  ----- -----  ----- -----  ----- -----
  +--> SHIFTREG_ENC_3_ENABLEINT/SHIFTREG_ENC_3

SHIFTREG_ENC_3_ENABLEINT/SHIFTREG_ENC_3       ----- -----  ----- -----  ----- -----  ----- -----
  +--> CYENTERCRITICALSECTION/CYBOOTASMKEIL
  +--> CYEXITCRITICALSECTION/CYBOOTASMKEIL

ADC_START/ADC                                 ----- -----  ----- -----  ----- -----  ----- -----
  +--> ADC_INIT/ADC
  +--> ADC_ENABLE/ADC

ADC_INIT/ADC                                  ----- -----  ----- -----  ----- -----  ----- -----
  +--> _ADC_EXT_CP_CLK_SETMODEREGISTER/ADC_EXT_CP_CLK
  +--> _ADC_THEACLK_SETMODEREGISTER/ADC_THEACLK
  +--> _CYINTSETPRIORITY/CYLIB
  +--> _ADC_GAINCOMPENSATION/ADC
  +--> CYWRITE16/CYMEM
  +--> _ADC_INITCONFIG/ADC

_ADC_EXT_CP_CLK_SETMODEREGISTER/ADC_EXT_+     ----- -----  ----- -----  ----- -----  ----- -----
... CP_CLK

_ADC_THEACLK_SETMODEREGISTER/ADC_THEACLK      ----- -----  ----- -----  ----- -----  ----- -----

_ADC_GAINCOMPENSATION/ADC                     ----- -----  ----- -----  ----- -----  0002H 0009H
  +--> CYREAD8/CYMEM

_ADC_INITCONFIG/ADC                           ----- -----  ----- -----  ----- -----  ----- -----
  +--> _ADC_SETDSMREF0REG/ADC
  +--> _ADC_AMUX_SELECT/ADC_AMUX
  +--> _ADC_EXT_CP_CLK_SETDIVIDERREGISTER/ADC_EXT_CP_CLK
  +--> _ADC_THEACLK_SETDIVIDERREGISTER/ADC_THEACLK
  +--> _CYINTSETVECTOR/CYLIB

_ADC_SETDSMREF0REG/ADC                        ----- -----  ----- -----  ----- -----  0002H 0003H
  +--> CYENTERCRITICALSECTION/CYBOOTASMKEIL
  +--> CYDELAYUS/CYBOOTASMKEIL
  +--> CYEXITCRITICALSECTION/CYBOOTASMKEIL

_ADC_AMUX_SELECT/ADC_AMUX                     ----- -----  ----- -----  ----- -----  0002H 0002H
  +--> ADC_AMUX_START/ADC_AMUX
  +--> _ADC_AMUX_SET/CYFITTER_CFG

ADC_AMUX_START/ADC_AMUX                       ----- -----  ----- -----  ----- -----  0003H 0003H
  +--> _ADC_AMUX_UNSET/CYFITTER_CFG

_ADC_AMUX_UNSET/CYFITTER_CFG                  ----- -----  ----- -----  ----- -----  ----- -----
  +--> ?CO?CYFITTER_CFG

_ADC_AMUX_SET/CYFITTER_CFG                    ----- -----  ----- -----  ----- -----  ----- -----
  +--> ?CO?CYFITTER_CFG

_ADC_EXT_CP_CLK_SETDIVIDERREGISTER/ADC_E+     ----- -----  ----- -----  ----- -----  0002H 0008H
... XT_CP_CLK
  +--> ADC_EXT_CP_CLK_GETSOURCEREGISTER/ADC_EXT_CP_CLK
  +--> ADC_EXT_CP_CLK_GETDIVIDERREGISTER/ADC_EXT_CP_CLK
  +--> CYWRITE16/CYMEM

ADC_EXT_CP_CLK_GETSOURCEREGISTER/ADC_EXT+     ----- -----  ----- -----  ----- -----  ----- -----
... _CP_CLK

ADC_EXT_CP_CLK_GETDIVIDERREGISTER/ADC_EX+     ----- -----  ----- -----  ----- -----  ----- -----
... T_CP_CLK
  +--> CYREAD16/CYMEM

LX51 LINKER/LOCATER V4.64.0.0                                                         01/10/2017  17:59:18  PAGE 22


_ADC_THEACLK_SETDIVIDERREGISTER/ADC_THEA+     ----- -----  ----- -----  ----- -----  0002H 0008H
... CLK
  +--> ADC_THEACLK_GETSOURCEREGISTER/ADC_THEACLK
  +--> ADC_THEACLK_GETDIVIDERREGISTER/ADC_THEACLK
  +--> CYWRITE16/CYMEM

ADC_THEACLK_GETSOURCEREGISTER/ADC_THEACL+     ----- -----  ----- -----  ----- -----  ----- -----
... K

ADC_THEACLK_GETDIVIDERREGISTER/ADC_THEAC+     ----- -----  ----- -----  ----- -----  ----- -----
... LK
  +--> CYREAD16/CYMEM

ADC_ENABLE/ADC                                ----- -----  ----- -----  ----- -----  0002H 0003H
  +--> CYENTERCRITICALSECTION/CYBOOTASMKEIL
  +--> CYDELAYUS/CYBOOTASMKEIL
  +--> CYEXITCRITICALSECTION/CYBOOTASMKEIL

_ADC_SOC_WRITE/ADC_SOC                        ----- -----  ----- -----  ----- -----  ----- -----

_DMA_DMAINITIALIZE/DMA_DMA                    ----- -----  ----- -----  ----- -----  0002H 0007H
  +--> _CYDMACHSETCONFIGURATION/CYDMAC
  +--> _CYDMACHSETEXTENDEDADDRESS/CYDMAC
  +--> _CYDMACHPRIORITY/CYDMAC

_CYDMACHSETCONFIGURATION/CYDMAC               ----- -----  ----- -----  ----- -----  0008H 000DH

_CYDMACHSETEXTENDEDADDRESS/CYDMAC             ----- -----  ----- -----  ----- -----  0008H 000FH
  +--> CYWRITE16/CYMEM

_CYDMACHPRIORITY/CYDMAC                       ----- -----  ----- -----  ----- -----  ----- -----

CYDMATDALLOCATE/CYDMAC                        ----- -----  ----- -----  ----- -----  0002H 0002H
  +--> CYENTERCRITICALSECTION/CYBOOTASMKEIL
  +--> CYEXITCRITICALSECTION/CYBOOTASMKEIL

_CYDMATDSETCONFIGURATION/CYDMAC               ----- -----  ----- -----  ----- -----  0002H 0009H
  +--> CYWRITE16/CYMEM

_CYDMATDSETADDRESS/CYDMAC                     ----- -----  ----- -----  ----- -----  0002H 0009H
  +--> CYWRITE16/CYMEM

_CYDMACHSETINITIALTD/CYDMAC                   ----- -----  ----- -----  ----- -----  ----- -----

_CYDMACHENABLE/CYDMAC                         ----- -----  ----- -----  ----- -----  ----- -----

_RS485_CTS_WRITE/RS485_CTS                    ----- -----  ----- -----  ----- -----  ----- -----

MY_TIMER_START/MY_TIMER                       ----- -----  ----- -----  ----- -----  ----- -----
  +--> MY_TIMER_INIT/MY_TIMER
  +--> MY_TIMER_ENABLE/MY_TIMER

MY_TIMER_INIT/MY_TIMER                        ----- -----  ----- -----  ----- -----  ----- -----
  +--> _MY_TIMER_WRITEPERIOD/MY_TIMER
  +--> _MY_TIMER_WRITECOUNTER/MY_TIMER
  +--> CYENTERCRITICALSECTION/CYBOOTASMKEIL
  +--> CYEXITCRITICALSECTION/CYBOOTASMKEIL
  +--> MY_TIMER_CLEARFIFO/MY_TIMER
  +--> _MY_TIMER_SETINTERRUPTMODE/MY_TIMER

_MY_TIMER_WRITEPERIOD/MY_TIMER                ----- -----  ----- -----  ----- -----  ----- -----
  +--> CYWRITE24/CYMEM

CYWRITE24/CYMEM                               ----- -----  ----- -----  ----- -----  ----- -----

LX51 LINKER/LOCATER V4.64.0.0                                                         01/10/2017  17:59:18  PAGE 23


_MY_TIMER_WRITECOUNTER/MY_TIMER               ----- -----  ----- -----  ----- -----  ----- -----
  +--> CYWRITE24/CYMEM

MY_TIMER_CLEARFIFO/MY_TIMER                   ----- -----  ----- -----  ----- -----  ----- -----
  +--> MY_TIMER_READSTATUSREGISTER/MY_TIMER
  +--> MY_TIMER_READCAPTURE/MY_TIMER

MY_TIMER_READSTATUSREGISTER/MY_TIMER          ----- -----  ----- -----  ----- -----  ----- -----

MY_TIMER_READCAPTURE/MY_TIMER                 ----- -----  ----- -----  ----- -----  ----- -----
  +--> CYREAD24/CYMEM

CYREAD24/CYMEM                                ----- -----  ----- -----  ----- -----  ----- -----

_MY_TIMER_SETINTERRUPTMODE/MY_TIMER           ----- -----  ----- -----  ----- -----  ----- -----

MY_TIMER_ENABLE/MY_TIMER                      ----- -----  ----- -----  ----- -----  ----- -----

PACER_TIMER_START/PACER_TIMER                 ----- -----  ----- -----  ----- -----  ----- -----
  +--> PACER_TIMER_INIT/PACER_TIMER
  +--> PACER_TIMER_ENABLE/PACER_TIMER

PACER_TIMER_INIT/PACER_TIMER                  ----- -----  ----- -----  ----- -----  ----- -----
  +--> _PACER_TIMER_WRITEPERIOD/PACER_TIMER
  +--> _PACER_TIMER_WRITECOUNTER/PACER_TIMER
  +--> _PACER_TIMER_SETINTERRUPTMODE/PACER_TIMER

_PACER_TIMER_WRITEPERIOD/PACER_TIMER          ----- -----  ----- -----  ----- -----  ----- -----
  +--> CYWRITE16/CYMEM

_PACER_TIMER_WRITECOUNTER/PACER_TIMER         ----- -----  ----- -----  ----- -----  ----- -----
  +--> CYWRITE16/CYMEM

_PACER_TIMER_SETINTERRUPTMODE/PACER_TIME+     ----- -----  ----- -----  ----- -----  ----- -----
... R

PACER_TIMER_ENABLE/PACER_TIMER                ----- -----  ----- -----  ----- -----  ----- -----

_RESET_COUNTERS_WRITE/RESET_COUNTERS          ----- -----  ----- -----  ----- -----  ----- -----

_RESET_FF_WRITE/RESET_FF                      ----- -----  ----- -----  ----- -----  ----- -----

FUNCTION_SCHEDULER/INTERRUPTIONS              ----- -----  ----- -----  ----- -----  ----- -----
  +--> MY_TIMER_READCOUNTER/MY_TIMER
  +--> _ADC_SOC_WRITE/ADC_SOC
  +--> INTERRUPT_MANAGER/INTERRUPTIONS
  +--> _ENCODER_READING/INTERRUPTIONS
  +--> MOTOR_CONTROL/INTERRUPTIONS
  +--> ANALOG_READ_END/INTERRUPTIONS
  +--> OVERCURRENT_CONTROL/INTERRUPTIONS
  +--> COMMAND_SLAVE/INTERRUPTIONS
  +--> CALIBRATION/UTILS
  +--> _MY_TIMER_WRITECOUNTER/MY_TIMER

MY_TIMER_READCOUNTER/MY_TIMER                 ----- -----  ----- -----  ----- -----  ----- -----
  +--> CYREAD24/CYMEM

INTERRUPT_MANAGER/INTERRUPTIONS               20H.0 20H.0  0027H 0028H  ----- -----  ----- -----
  +--> UART_RS485_GETRXBUFFERSIZE/UART_RS485
  +--> UART_RS485_GETCHAR/UART_RS485
  +--> _INFOGET/COMMAND_PROCESSING
  +--> COMMPROCESS/COMMAND_PROCESSING
  +--> _RS485_CTS_WRITE/RS485_CTS

UART_RS485_GETRXBUFFERSIZE/UART_RS485         ----- -----  ----- -----  ----- -----  ----- -----
LX51 LINKER/LOCATER V4.64.0.0                                                         01/10/2017  17:59:18  PAGE 24



UART_RS485_GETCHAR/UART_RS485                 ----- -----  ----- -----  ----- -----  ----- -----

_INFOGET/COMMAND_PROCESSING                   ----- -----  ----- -----  ----- -----  0002H 044FH
  +--> ?CO?COMMAND_PROCESSING
  +--> _INFOPREPARE/COMMAND_PROCESSING
  +--> _UART_RS485_PUTSTRING/UART_RS485

?CO?COMMAND_PROCESSING                        ----- -----  ----- -----  ----- -----  ----- -----

_INFOPREPARE/COMMAND_PROCESSING               ----- -----  ----- -----  ----- -----  0450H 04B8H
  +--> ?CO?COMMAND_PROCESSING
  +--> _STRCAT/STRCAT
  +--> PRINTF/PRINTF

_STRCAT/STRCAT                                ----- -----  ----- -----  ----- -----  0900H 0908H

PRINTF/PRINTF                                 20H.1 21H.1  002AH 002EH  ----- -----  04B9H 04E8H
  +--> PUTCHAR/PUTCHAR

PUTCHAR/PUTCHAR                               ----- -----  ----- -----  ----- -----  ----- -----

_UART_RS485_PUTSTRING/UART_RS485              ----- -----  ----- -----  ----- -----  0450H 0452H
  +--> _UART_RS485_PUTCHAR/UART_RS485

_UART_RS485_PUTCHAR/UART_RS485                ----- -----  ----- -----  ----- -----  ----- -----

COMMPROCESS/COMMAND_PROCESSING                ----- -----  0029H 0029H  ----- -----  ----- -----
  +--> _LCRCHECKSUM/COMMAND_PROCESSING
  +--> CMD_ACTIVATE/COMMAND_PROCESSING
  +--> CMD_SET_INPUTS/COMMAND_PROCESSING
  +--> CMD_GET_MEASUREMENTS/COMMAND_PROCESSING
  +--> CMD_GET_CURRENTS/COMMAND_PROCESSING
  +--> CMD_GET_EMG/COMMAND_PROCESSING
  +--> CMD_SET_WATCHDOG/COMMAND_PROCESSING
  +--> CMD_GET_ACTIVATE/COMMAND_PROCESSING
  +--> CMD_SET_BAUDRATE/COMMAND_PROCESSING
  +--> CMD_GET_INPUTS/COMMAND_PROCESSING
  +--> _INFOGET/COMMAND_PROCESSING
  +--> SETZEROS/COMMAND_PROCESSING
  +--> _GET_PARAM_LIST/COMMAND_PROCESSING
  +--> CMD_PING/COMMAND_PROCESSING
  +--> CMD_STORE_PARAMS/COMMAND_PROCESSING
  +--> _MEMSTORE/COMMAND_PROCESSING
  +--> _SENDACKNOWLEDGMENT/COMMAND_PROCESSING
  +--> MEMRESTORE/COMMAND_PROCESSING
  +--> MEMINIT/COMMAND_PROCESSING
  +--> _?CYDELAY/CYLIB
  +--> _FTDI_ENABLE_REG_WRITE/FTDI_ENABLE_REG
  +--> BOOTLOADABLE_LOAD/BOOTLOADABLE

_LCRCHECKSUM/COMMAND_PROCESSING               ----- -----  003DH 003EH  ----- -----  0900H 0902H

CMD_ACTIVATE/COMMAND_PROCESSING               ----- -----  ----- -----  ----- -----  ----- -----
  +--> _MOTOR_ON_OFF_WRITE/MOTOR_ON_OFF

CMD_SET_INPUTS/COMMAND_PROCESSING             ----- -----  ----- -----  ----- -----  ----- -----

CMD_GET_MEASUREMENTS/COMMAND_PROCESSING       ----- -----  002AH 002AH  ----- -----  0002H 0009H
  +--> _LCRCHECKSUM/COMMAND_PROCESSING
  +--> _COMMWRITE/COMMAND_PROCESSING

_COMMWRITE/COMMAND_PROCESSING                 ----- -----  003DH 003EH  ----- -----  0900H 0904H
  +--> _UART_RS485_PUTCHAR/UART_RS485
  +--> UART_RS485_READTXSTATUS/UART_RS485
LX51 LINKER/LOCATER V4.64.0.0                                                         01/10/2017  17:59:18  PAGE 25


  +--> _RS485_CTS_WRITE/RS485_CTS

UART_RS485_READTXSTATUS/UART_RS485            ----- -----  ----- -----  ----- -----  ----- -----

CMD_GET_CURRENTS/COMMAND_PROCESSING           ----- -----  ----- -----  ----- -----  0002H 0007H
  +--> _CURR_ESTIM/UTILS
  +--> _FILTER_CURR_DIFF/UTILS
  +--> _LCRCHECKSUM/COMMAND_PROCESSING
  +--> _COMMWRITE/COMMAND_PROCESSING

_CURR_ESTIM/UTILS                             ----- -----  ----- -----  ----- -----  0008H 0013H
  +--> _POW/POW
  +--> _ABS/ABS

_POW/POW                                      ----- -----  ----- -----  ----- -----  0014H 001DH
  +--> LOG/LOG
  +--> EXP/EXP

LOG/LOG                                       20H.1 20H.1  ----- -----  ----- -----  001EH 0021H

EXP/EXP                                       ----- -----  ----- -----  ----- -----  ----- -----

_ABS/ABS                                      ----- -----  ----- -----  ----- -----  ----- -----

_FILTER_CURR_DIFF/UTILS                       ----- -----  ----- -----  ----- -----  0008H 000BH

CMD_GET_EMG/COMMAND_PROCESSING                ----- -----  ----- -----  ----- -----  0002H 0007H
  +--> _LCRCHECKSUM/COMMAND_PROCESSING
  +--> _COMMWRITE/COMMAND_PROCESSING

CMD_SET_WATCHDOG/COMMAND_PROCESSING           ----- -----  ----- -----  ----- -----  ----- -----
  +--> _WATCHDOG_ENABLER_WRITE/WATCHDOG_ENABLER
  +--> _WATCHDOG_COUNTER_WRITEPERIOD/WATCHDOG_COUNTER

_WATCHDOG_ENABLER_WRITE/WATCHDOG_ENABLER      ----- -----  ----- -----  ----- -----  ----- -----

CMD_GET_ACTIVATE/COMMAND_PROCESSING           ----- -----  ----- -----  ----- -----  0002H 0004H
  +--> _LCRCHECKSUM/COMMAND_PROCESSING
  +--> _COMMWRITE/COMMAND_PROCESSING

CMD_SET_BAUDRATE/COMMAND_PROCESSING           ----- -----  ----- -----  ----- -----  ----- -----
  +--> _CLOCK_UART_SETDIVIDERREGISTER/CLOCK_UART

_CLOCK_UART_SETDIVIDERREGISTER/CLOCK_UAR+     ----- -----  ----- -----  ----- -----  0002H 0008H
... T
  +--> CLOCK_UART_GETSOURCEREGISTER/CLOCK_UART
  +--> CLOCK_UART_GETDIVIDERREGISTER/CLOCK_UART
  +--> CYWRITE16/CYMEM

CLOCK_UART_GETSOURCEREGISTER/CLOCK_UART       ----- -----  ----- -----  ----- -----  ----- -----

CLOCK_UART_GETDIVIDERREGISTER/CLOCK_UART      ----- -----  ----- -----  ----- -----  ----- -----
  +--> CYREAD16/CYMEM

CMD_GET_INPUTS/COMMAND_PROCESSING             ----- -----  ----- -----  ----- -----  0002H 0007H
  +--> _LCRCHECKSUM/COMMAND_PROCESSING
  +--> _COMMWRITE/COMMAND_PROCESSING

SETZEROS/COMMAND_PROCESSING                   ----- -----  002AH 002AH  ----- -----  ----- -----
  +--> _SENDACKNOWLEDGMENT/COMMAND_PROCESSING

_SENDACKNOWLEDGMENT/COMMAND_PROCESSING        ----- -----  ----- -----  ----- -----  0012H 0013H
  +--> _COMMWRITE/COMMAND_PROCESSING

_GET_PARAM_LIST/COMMAND_PROCESSING            ----- -----  002AH 003CH  ----- -----  0002H 08FFH
LX51 LINKER/LOCATER V4.64.0.0                                                         01/10/2017  17:59:18  PAGE 26


  +--> ?CO?COMMAND_PROCESSING
  +--> _STRLEN/STRLEN
  +--> _STRCAT/STRCAT
  +--> _LCRCHECKSUM/COMMAND_PROCESSING
  +--> _COMMWRITE/COMMAND_PROCESSING

_STRLEN/STRLEN                                ----- -----  ----- -----  ----- -----  ----- -----

CMD_PING/COMMAND_PROCESSING                   ----- -----  ----- -----  ----- -----  0002H 0003H
  +--> _COMMWRITE/COMMAND_PROCESSING

CMD_STORE_PARAMS/COMMAND_PROCESSING           ----- -----  002AH 002DH  ----- -----  0002H 0011H
  +--> _MEMSTORE/COMMAND_PROCESSING
  +--> _COMMWRITE_OLD_ID/COMMAND_PROCESSING
  +--> _SENDACKNOWLEDGMENT/COMMAND_PROCESSING

_COMMWRITE_OLD_ID/COMMAND_PROCESSING          ----- -----  002EH 002FH  ----- -----  0012H 0017H
  +--> _UART_RS485_PUTCHAR/UART_RS485
  +--> UART_RS485_READTXSTATUS/UART_RS485
  +--> _RS485_CTS_WRITE/RS485_CTS

BOOTLOADABLE_LOAD/BOOTLOADABLE                ----- -----  ----- -----  ----- -----  ----- -----
  +--> CYSOFTWARERESET/CYLIB

CYSOFTWARERESET/CYLIB                         ----- -----  ----- -----  ----- -----  ----- -----

_ENCODER_READING/INTERRUPTIONS                ----- -----  0023H 0023H  ----- -----  0002H 0015H
  +--> SHIFTREG_ENC_1_READDATA/SHIFTREG_ENC_1
  +--> SHIFTREG_ENC_2_READDATA/SHIFTREG_ENC_2
  +--> SHIFTREG_ENC_3_READDATA/SHIFTREG_ENC_3
  +--> _CHECK_ENC_DATA/UTILS
  +--> _ABS/ABS
  +--> _FILTER_VEL_1/UTILS
  +--> _FILTER_VEL_2/UTILS
  +--> _FILTER_VEL_3/UTILS
  +--> _FILTER_ACC_1/UTILS
  +--> _FILTER_ACC_2/UTILS
  +--> _FILTER_ACC_3/UTILS
  +--> _CALC_TURNS_FCN/UTILS
  +--> _MOTOR_ON_OFF_WRITE/MOTOR_ON_OFF

SHIFTREG_ENC_1_READDATA/SHIFTREG_ENC_1        ----- -----  ----- -----  ----- -----  ----- -----
  +--> CYREAD24/CYMEM

SHIFTREG_ENC_2_READDATA/SHIFTREG_ENC_2        ----- -----  ----- -----  ----- -----  ----- -----
  +--> CYREAD24/CYMEM

SHIFTREG_ENC_3_READDATA/SHIFTREG_ENC_3        ----- -----  ----- -----  ----- -----  ----- -----
  +--> CYREAD24/CYMEM

_CHECK_ENC_DATA/UTILS                         ----- -----  0024H 0024H  0014H 0016H  ----- -----

_FILTER_VEL_1/UTILS                           ----- -----  ----- -----  ----- -----  0016H 0019H

_FILTER_VEL_2/UTILS                           ----- -----  ----- -----  ----- -----  0016H 0019H

_FILTER_VEL_3/UTILS                           ----- -----  ----- -----  ----- -----  0016H 0019H

_FILTER_ACC_1/UTILS                           ----- -----  ----- -----  ----- -----  0016H 0019H

_FILTER_ACC_2/UTILS                           ----- -----  ----- -----  ----- -----  0016H 0019H

_FILTER_ACC_3/UTILS                           ----- -----  ----- -----  ----- -----  0016H 0019H

_CALC_TURNS_FCN/UTILS                         ----- -----  ----- -----  ----- -----  0016H 001DH
LX51 LINKER/LOCATER V4.64.0.0                                                         01/10/2017  17:59:18  PAGE 27


  +--> _MY_MOD/UTILS

_MY_MOD/UTILS                                 ----- -----  ----- -----  ----- -----  001EH 0025H

MOTOR_CONTROL/INTERRUPTIONS                   ----- -----  0023H 006EH  ----- -----  ----- -----
  +--> _MOTOR_DIR_WRITE/MOTOR_DIR
  +--> _ABS/ABS
  +--> _PWM_MOTORS_WRITECOMPARE1/PWM_MOTORS

ANALOG_READ_END/INTERRUPTIONS                 ----- -----  0023H 0026H  ----- -----  ----- -----
  +--> ADC_STATUS_READ/ADC_STATUS
  +--> INTERRUPT_MANAGER/INTERRUPTIONS
  +--> PWM_LIMIT_SEARCH/INTERRUPTIONS
  +--> _FILTER_I1/UTILS
  +--> _FILTER_CH1/UTILS
  +--> _LED_CTRL_WRITE/LED_CTRL
  +--> _LED_BLINK_EN_WRITE/LED_BLINK_EN
  +--> _FILTER_CH2/UTILS
  +--> _MOTOR_ON_OFF_WRITE/MOTOR_ON_OFF

ADC_STATUS_READ/ADC_STATUS                    ----- -----  ----- -----  ----- -----  ----- -----

PWM_LIMIT_SEARCH/INTERRUPTIONS                ----- -----  0027H 0027H  ----- -----  ----- -----

_FILTER_I1/UTILS                              ----- -----  ----- -----  ----- -----  ----- -----

_FILTER_CH1/UTILS                             ----- -----  ----- -----  ----- -----  0002H 0005H

_FILTER_CH2/UTILS                             ----- -----  ----- -----  ----- -----  0002H 0005H

OVERCURRENT_CONTROL/INTERRUPTIONS             ----- -----  ----- -----  ----- -----  ----- -----

COMMAND_SLAVE/INTERRUPTIONS                   ----- -----  ----- -----  ----- -----  0002H 000CH
  +--> _LCRCHECKSUM/COMMAND_PROCESSING
  +--> _COMMWRITEANOTHER/COMMAND_PROCESSING

_COMMWRITEANOTHER/COMMAND_PROCESSING          ----- -----  ----- -----  ----- -----  000DH 0011H
  +--> _UART_RS485_PUTCHAR/UART_RS485
  +--> UART_RS485_READTXSTATUS/UART_RS485

CALIBRATION/UTILS                             ----- -----  ----- -----  ----- -----  ----- -----

FF_STATUS_READ/FF_STATUS                      ----- -----  ----- -----  ----- -----  ----- -----

_WATCHDOG_REFRESH_WRITE/WATCHDOG_REFRESH      ----- -----  ----- -----  ----- -----  ----- -----

UART_RS485_READRXSTATUS/UART_RS485            ----- -----  ----- -----  ----- -----  ----- -----

?C_INITSEG                                    ----- -----  ----- -----  ----- -----  ----- -----

*** NEW ROOT ********************************

UART_RS485_RXISR/UART_RS485_INT               ----- -----  ----- -----  ----- -----  ----- -----

*** NEW ROOT ********************************

ADC_ISR1/ADC_INT                              ----- -----  ----- -----  ----- -----  ----- -----

*** NEW ROOT ********************************

ADC_ISR2/ADC_INT                              ----- -----  ----- -----  ----- -----  ----- -----

*** NEW ROOT ********************************

ADC_ISR3/ADC_INT                              ----- -----  ----- -----  ----- -----  ----- -----
LX51 LINKER/LOCATER V4.64.0.0                                                         01/10/2017  17:59:18  PAGE 28



*** NEW ROOT ********************************

ADC_ISR4/ADC_INT                              ----- -----  ----- -----  ----- -----  ----- -----



PUBLIC SYMBOLS OF MODULE:  .\DP8051_Keil_951\Release\hand_firmware_micro.omf (COMMAND_PROCESSING)


      VALUE       CLASS    TYPE      PUBLIC SYMBOL NAME
      =================================================
*DEL*:00000000H   XDATA    BYTE      ?_Bootloadable_SetFlashByte?BYTE
      02000016H   XDATA    BYTE      ?_calc_turns_fcn?BYTE
      02000012H   XDATA    BYTE      ?_commWrite_old_id?BYTE
      02000008H   XDATA    BYTE      ?_curr_estim?BYTE
      02000005H   XDATA    BYTE      ?_cyconfigcpy?BYTE
      02000008H   XDATA    BYTE      ?_CyDmaChSetConfiguration?BYTE
*DEL*:00000000H   XDATA    BYTE      ?_CyDmaChStatus?BYTE
*DEL*:00000000H   XDATA    BYTE      ?_CyDmaTdGetAddress?BYTE
*DEL*:00000000H   XDATA    BYTE      ?_CyDmaTdGetConfiguration?BYTE
      02000002H   XDATA    BYTE      ?_CyDmaTdSetConfiguration?BYTE
*DEL*:00000000H   XDATA    BYTE      ?_CySpcLoadMultiByte?BYTE
      0200001EH   XDATA    BYTE      ?_CySpcLoadRow?BYTE
*DEL*:00000000H   XDATA    BYTE      ?_CySpcLoadRowFull?BYTE
      0200001EH   XDATA    BYTE      ?_CySpcWriteRow?BYTE
*DEL*:00000000H   XDATA    BYTE      ?_CyWriteRowFull?BYTE
      02000002H   XDATA    BYTE      ?_DMA_DmaInitialize?BYTE
      0200001EH   XDATA    BYTE      ?_my_mod?BYTE
      02000014H   XDATA    ---       ?_pow?BYTE
      020004B9H   XDATA    ---       ?_PRINTF?BYTE
      020004B9H   XDATA    ---       ?_SPRINTF?BYTE
      02000900H   XDATA    ---       ?_strcat?BYTE
      01007B98H   CODE     ---       ?C?ADDXBP
      010075E2H   CODE     ---       ?C?CASTF
      01007B72H   CODE     ---       ?C?CCASE
      01007663H   CODE     ---       ?C?CHKFLOAT
      010078A6H   CODE     ---       ?C?CLDOPTR
      0100788DH   CODE     ---       ?C?CLDPTR
      00000000H   NUMBER   ---       ?C?CODESEG
      01007CA5H   CODE     ---       ?C?COPYAMD
      010078D3H   CODE     ---       ?C?CSTPTR
      010075AEH   CODE     ---       ?C?FCASTC
      010075A9H   CODE     ---       ?C?FCASTI
      010075A4H   CODE     ---       ?C?FCASTL
      01007840H   CODE     ---       ?C?FP2SERIES
      01007294H   CODE     ---       ?C?FPADD
      0100752DH   CODE     ---       ?C?FPCMP
      0100752BH   CODE     ---       ?C?FPCMP3
      010076CBH   CODE     ---       ?C?FPCONVERT
      0100748EH   CODE     ---       ?C?FPDIV
      01007619H   CODE     ---       ?C?FPGETOPN2
      01007385H   CODE     ---       ?C?FPMUL
      0100764EH   CODE     ---       ?C?FPNANRESULT
      0100767DH   CODE     ---       ?C?FPNEG
      01007658H   CODE     ---       ?C?FPOVERFLOW
      01007630H   CODE     ---       ?C?FPRESULT
      01007644H   CODE     ---       ?C?FPRESULT2
      0100768EH   CODE     ---       ?C?FPROUND
      0100784FH   CODE     ---       ?C?FPSERIES
      01007290H   CODE     ---       ?C?FPSUB
      01007655H   CODE     ---       ?C?FPUNDERFLOW
      01007800H   CODE     ---       ?C?FTNPWR
      01007DA0H   CODE     ---       ?C?IILDX
      01007DB6H   CODE     ---       ?C?ILDIX
LX51 LINKER/LOCATER V4.64.0.0                                                         01/10/2017  17:59:18  PAGE 29


      010078E5H   CODE     ---       ?C?IMUL
      010078F7H   CODE     ---       ?C?ISTPTR
      01007BBCH   CODE     ---       ?C?LIMUL
      01007AE9H   CODE     ---       ?C?LLDCODE
      01007B05H   CODE     ---       ?C?LLDCODE0
      01007DCCH   CODE     ---       ?C?LLDIDATA
      01007DE4H   CODE     ---       ?C?LLDPDATA
      01007AAFH   CODE     ---       ?C?LLDPTR
      01007DD8H   CODE     ---       ?C?LLDXDATA
      01007AF9H   CODE     ---       ?C?LLDXDATA0
      01007916H   CODE     ---       ?C?LMUL
      01007A40H   CODE     ---       ?C?LNEG
      01007A33H   CODE     ---       ?C?LNOT
      01007A9CH   CODE     ---       ?C?LSHL
      01007DF0H   CODE     ---       ?C?LSTIDATA
      01007B21H   CODE     ---       ?C?LSTKXDATA
      01007DFCH   CODE     ---       ?C?LSTPDATA
      01007ACFH   CODE     ---       ?C?LSTPTR
      01007B15H   CODE     ---       ?C?LSTXDATA
      01007B52H   CODE     ---       ?C?PLDIXDATA
      01007B69H   CODE     ---       ?C?PSTXDATA
      01007A4EH   CODE     ---       ?C?SLCMP
      0100C4F8H   CODE     ---       ?C?SLDIV
      01007A88H   CODE     ---       ?C?SLSHR
      01007D83H   CODE     ---       ?C?STRCPYAMD
      01007A64H   CODE     ---       ?C?ULCMP
      010079A1H   CODE     ---       ?C?ULDIV
      01007A75H   CODE     ---       ?C?ULSHR
      00000000H   NUMBER   ---       ?C?XDATASEG
      00000000H   NUMBER   ---       ?C?XPAGE1RST
      00000093H   DATA     BYTE      ?C?XPAGE1SFR
      0100A8FCH   CODE     ---       ?C_START
      01002600H   CODE     NEAR LAB  ?C_STARTUP
      00000012H   DATA     ---       ?C_XBP
      0100B528H   CODE     ---       _?CyDelay
*DEL*:00000000H   CODE     ---       _?CyDelayFreq
*DEL*:00000000H   CODE     ---       _?CyHalt
      0100CF64H   CODE     ---       _ABS
*DEL*:00000000H   CODE     ---       _ADC_AMux_FastSelect
      0100CC49H   CODE     ---       _ADC_AMux_Select
      0100C7D0H   CODE     ---       _ADC_AMux_Set
      0100C939H   CODE     ---       _ADC_AMux_Unset
*DEL*:00000000H   CODE     ---       _ADC_CountsTo_mVolts
*DEL*:00000000H   CODE     ---       _ADC_CountsTo_uVolts
*DEL*:00000000H   CODE     ---       _ADC_CountsTo_Volts
*DEL*:00000000H   CODE     ---       _ADC_Ext_CP_Clk_ClearModeRegister
      0100A114H   CODE     ---       _ADC_Ext_CP_Clk_SetDividerRegister
      0100CF26H   CODE     ---       _ADC_Ext_CP_Clk_SetModeRegister
*DEL*:00000000H   CODE     ---       _ADC_Ext_CP_Clk_SetSourceRegister
*DEL*:00000000H   CODE     ---       _ADC_Ext_CP_Clk_StandbyPower
*DEL*:00000000H   CODE     ---       _ADC_IsEndConversion
*DEL*:00000000H   CODE     ---       _ADC_SelectConfiguration
*DEL*:00000000H   CODE     ---       _ADC_SetBufferGain
*DEL*:00000000H   CODE     ---       _ADC_SetCoherency
*DEL*:00000000H   CODE     ---       _ADC_SetGain
*DEL*:00000000H   CODE     ---       _ADC_SetGCOR
*DEL*:00000000H   CODE     ---       _ADC_SetOffset
      0100D102H   CODE     ---       _ADC_SOC_Write
*DEL*:00000000H   CODE     ---       _ADC_STATUS_WriteMask
*DEL*:00000000H   CODE     ---       _ADC_theACLK_ClearModeRegister
      0100A4A5H   CODE     ---       _ADC_theACLK_SetDividerRegister
      0100CF33H   CODE     ---       _ADC_theACLK_SetModeRegister
*DEL*:00000000H   CODE     ---       _ADC_theACLK_SetPhaseRegister
*DEL*:00000000H   CODE     ---       _ADC_theACLK_SetSourceRegister
*DEL*:00000000H   CODE     ---       _ADC_theACLK_StandbyPower
LX51 LINKER/LOCATER V4.64.0.0                                                         01/10/2017  17:59:18  PAGE 30


*DEL*:00000000H   CODE     ---       _Bootloadable_SetFlashByte
      0100ADFBH   CODE     ---       _calc_turns_fcn
*DEL*:00000000H   CODE     NEAR LAB  _cfg_write_bytes
*DEL*:00000000H   CODE     NEAR LAB  _cfg_write_bytes_code
      0100BFF7H   CODE     ---       _check_enc_data
*DEL*:00000000H   CODE     ---       _CLOCK_UART_ClearModeRegister
      0100A375H   CODE     ---       _CLOCK_UART_SetDividerRegister
*DEL*:00000000H   CODE     ---       _CLOCK_UART_SetModeRegister
*DEL*:00000000H   CODE     ---       _CLOCK_UART_SetSourceRegister
*DEL*:00000000H   CODE     ---       _CLOCK_UART_StandbyPower
      0100B413H   CODE     ---       _commWrite
      0100B386H   CODE     ---       _commWrite_old_id
      0100B637H   CODE     ---       _commWriteAnother
      0100D096H   CODE     ---       _COUNTER_ENC_SetInterruptMode
      0100D0B4H   CODE     ---       _COUNTER_ENC_WriteCompare
*DEL*:00000000H   CODE     ---       _COUNTER_ENC_WriteControlRegister
      0100D0A2H   CODE     ---       _COUNTER_ENC_WriteCounter
      0100D0AEH   CODE     ---       _COUNTER_ENC_WritePeriod
      01009AD2H   CODE     ---       _curr_estim
*DEL*:00000000H   CODE     ---       _CyBusClk_SetDivider
      0100C86FH   CODE     NEAR LAB  _cyconfigcpy
      0100CA99H   CODE     NEAR LAB  _cyconfigcpycode
*DEL*:00000000H   CODE     ---       _CyCpuClk_SetDivider
*DEL*:00000000H   CODE     NEAR LAB  _CyDelay
      0100C800H   CODE     NEAR LAB  _CyDelayCycles
      0100C9C8H   CODE     NEAR LAB  _CyDelayUs
*DEL*:00000000H   CODE     ---       _CyDmacClearError
*DEL*:00000000H   CODE     ---       _CyDmaChDisable
      0100C3D3H   CODE     ---       _CyDmaChEnable
*DEL*:00000000H   CODE     ---       _CyDmaChFree
*DEL*:00000000H   CODE     ---       _CyDmaChGetRequest
      0100C5C0H   CODE     ---       _CyDmaChPriority
*DEL*:00000000H   CODE     ---       _CyDmaChRoundRobin
      0100BC50H   CODE     ---       _CyDmaChSetConfiguration
      0100BCC9H   CODE     ---       _CyDmaChSetExtendedAddress
      0100CBC2H   CODE     ---       _CyDmaChSetInitialTd
*DEL*:00000000H   CODE     ---       _CyDmaChSetRequest
*DEL*:00000000H   CODE     ---       _CyDmaChStatus
*DEL*:00000000H   CODE     ---       _CyDmaClearPendingDrq
*DEL*:00000000H   CODE     ---       _CyDmaTdFree
*DEL*:00000000H   CODE     ---       _CyDmaTdGetAddress
*DEL*:00000000H   CODE     ---       _CyDmaTdGetConfiguration
      0100BD41H   CODE     ---       _CyDmaTdSetAddress
      0100B5B0H   CODE     ---       _CyDmaTdSetConfiguration
*DEL*:00000000H   CODE     ---       _CyEnableInts
      0100CC7AH   CODE     NEAR LAB  _CyExitCriticalSection
*DEL*:00000000H   CODE     ---       _CyFlash_SetWaitCycles
*DEL*:00000000H   CODE     ---       _CyGetUniqueId
*DEL*:00000000H   CODE     ---       _CyILO_SetPowerMode
*DEL*:00000000H   CODE     ---       _CyILO_SetSource
*DEL*:00000000H   CODE     ---       _CyIMO_SetFreq
*DEL*:00000000H   CODE     ---       _CyIMO_SetSource
*DEL*:00000000H   CODE     ---       _CyIMO_Start
*DEL*:00000000H   CODE     ---       _CyIntGetPriority
*DEL*:00000000H   CODE     ---       _CyIntGetState
*DEL*:00000000H   CODE     ---       _CyIntGetVector
      0100CC30H   CODE     ---       _CyIntSetPriority
      0100C23FH   CODE     ---       _CyIntSetVector
*DEL*:00000000H   CODE     ---       _CyMasterClk_SetDivider
*DEL*:00000000H   CODE     ---       _CyMasterClk_SetSource
*DEL*:00000000H   CODE     NEAR LAB  _cymemzero
*DEL*:00000000H   CODE     ---       _CyPLL_OUT_SetPQ
*DEL*:00000000H   CODE     ---       _CyPLL_OUT_SetSource
*DEL*:00000000H   CODE     ---       _CyPLL_OUT_Start
*DEL*:00000000H   CODE     ---       _CyPmAltAct
LX51 LINKER/LOCATER V4.64.0.0                                                         01/10/2017  17:59:18  PAGE 31


*DEL*:00000000H   CODE     ---       _CyPmCtwSetInterval
*DEL*:00000000H   CODE     ---       _CyPmFtwSetInterval
*DEL*:00000000H   CODE     ---       _CyPmHibernateEx
*DEL*:00000000H   CODE     ---       _CyPmReadStatus
*DEL*:00000000H   CODE     ---       _CyPmSleep
      0100CE71H   CODE     NEAR LAB  _cyread16
      0100CE73H   CODE     NEAR LAB  _cyread16_nodpx
      0100CDF8H   CODE     NEAR LAB  _cyread24
      0100CDFAH   CODE     NEAR LAB  _cyread24_nodpx
*DEL*:00000000H   CODE     NEAR LAB  _cyread32
*DEL*:00000002H   CODE     NEAR LAB  _cyread32_nodpx
      0100CF40H   CODE     NEAR LAB  _cyread8
      0100CF42H   CODE     NEAR LAB  _cyread8_nodpx
*DEL*:00000000H   CODE     ---       _CySetFlashEEBuffer
*DEL*:00000000H   CODE     ---       _CySpcEraseSector
      0100C999H   CODE     ---       _CySpcGetTemp
*DEL*:00000000H   CODE     ---       _CySpcLoadMultiByte
      0100BF18H   CODE     ---       _CySpcLoadRow
*DEL*:00000000H   CODE     ---       _CySpcLoadRowFull
      0100C12EH   CODE     ---       _CySpcReadData
      0100C293H   CODE     ---       _CySpcWriteRow
*DEL*:00000000H   CODE     ---       _CyUsbClk_SetSource
*DEL*:00000000H   CODE     ---       _CyVdLvAnalogEnable
*DEL*:00000000H   CODE     ---       _CyVdLvDigitEnable
*DEL*:00000000H   CODE     ---       _CyVdStickyStatus
*DEL*:00000000H   CODE     ---       _CyWdtStart
      0100CE80H   CODE     NEAR LAB  _cywrite16
      0100CE82H   CODE     NEAR LAB  _cywrite16_nodpx
      0100CE1DH   CODE     NEAR LAB  _cywrite24
      0100CE1FH   CODE     NEAR LAB  _cywrite24_nodpx
*DEL*:00000000H   CODE     NEAR LAB  _cywrite32
*DEL*:00000002H   CODE     NEAR LAB  _cywrite32_nodpx
      0100CF4CH   CODE     NEAR LAB  _cywrite8
      0100CF4EH   CODE     NEAR LAB  _cywrite8_nodpx
*DEL*:00000000H   CODE     ---       _CyWriteRowData
*DEL*:00000000H   CODE     ---       _CyWriteRowFull
*DEL*:00000000H   CODE     ---       _CyXTAL_32KHZ_SetPowerMode
*DEL*:00000000H   CODE     ---       _CyXTAL_SetFbVoltage
*DEL*:00000000H   CODE     ---       _CyXTAL_SetStartup
*DEL*:00000000H   CODE     ---       _CyXTAL_SetWdVoltage
*DEL*:00000000H   CODE     ---       _CyXTAL_Start
      0100C41EH   CODE     ---       _DMA_DmaInitialize
      01002604H   CODE     NEAR LAB  _dma_wait
*DEL*:00000000H   CODE     ---       _EEPROM_ByteWritePos
*DEL*:00000000H   CODE     ---       _EEPROM_EraseSector
*DEL*:00000000H   CODE     ---       _EEPROM_ReadByte
*DEL*:00000000H   CODE     ---       _EEPROM_StartErase
*DEL*:00000000H   CODE     ---       _EEPROM_StartWrite
      0100AD1CH   CODE     ---       _EEPROM_Write
*DEL*:00000000H   CODE     ---       _EEPROM_WriteByte
      01007E08H   CODE     ---       _encoder_reading
      0100B324H   CODE     ---       _EXP
*DEL*:00000000H   CODE     ---       _FF_STATUS_WriteMask
      0100B9CDH   CODE     ---       _filter_acc_1
      0100BA50H   CODE     ---       _filter_acc_2
      0100BAD3H   CODE     ---       _filter_acc_3
      0100B73EH   CODE     ---       _filter_ch1
      0100B94AH   CODE     ---       _filter_ch2
      0100AF8EH   CODE     ---       _filter_curr_diff
      0100BE2FH   CODE     ---       _filter_i1
*DEL*:00000000H   CODE     ---       _filter_v
      0100B7C1H   CODE     ---       _filter_vel_1
      0100B844H   CODE     ---       _filter_vel_2
      0100B8C7H   CODE     ---       _filter_vel_3
      0100D0D2H   CODE     ---       _FTDI_ENABLE_REG_Write
LX51 LINKER/LOCATER V4.64.0.0                                                         01/10/2017  17:59:18  PAGE 32


      0100261AH   CODE     ---       _get_param_list
      0100C6B7H   CODE     ---       _infoGet
      01003B0BH   CODE     ---       _infoPrepare
      0100CF9BH   CODE     ---       _ISR_RS485_RX_SetPriority
      0100CE8FH   CODE     ---       _ISR_RS485_RX_SetVector
      0100CB65H   CODE     ---       _ISR_RS485_RX_StartEx
      0100CFEBH   CODE     ---       _ISR_WATCHDOG_SetPriority
      0100CEE3H   CODE     ---       _ISR_WATCHDOG_SetVector
      0100CB84H   CODE     ---       _ISR_WATCHDOG_StartEx
      0100C8D6H   CODE     ---       _LCRChecksum
      0100D132H   CODE     ---       _LED_BLINK_EN_Write
      0100D126H   CODE     ---       _LED_BLINK_WriteCompare
*DEL*:00000000H   CODE     ---       _LED_BLINK_WriteControlRegister
      0100D11AH   CODE     ---       _LED_BLINK_WriteCounter
      0100D120H   CODE     ---       _LED_BLINK_WritePeriod
      0100D12CH   CODE     ---       _LED_CTRL_Write
      0100A608H   CODE     ---       _LOG
      0100A604H   CODE     ---       _LOG10
      0100AED6H   CODE     ---       _memStore
      0100D090H   CODE     ---       _MOTOR_DIR_Write
      0100D0CCH   CODE     ---       _MOTOR_ON_OFF_Write
      0100BB56H   CODE     ---       _my_mod
*DEL*:00000000H   CODE     ---       _my_round
      0100D0E4H   CODE     ---       _MY_TIMER_SetInterruptMode
*DEL*:00000000H   CODE     ---       _MY_TIMER_WriteControlRegister
      0100CFD7H   CODE     ---       _MY_TIMER_WriteCounter
      0100CFC3H   CODE     ---       _MY_TIMER_WritePeriod
      0100D084H   CODE     ---       _PACER_TIMER_SetInterruptMode
*DEL*:00000000H   CODE     ---       _PACER_TIMER_WriteControlRegister
      0100CEABH   CODE     ---       _PACER_TIMER_WriteCounter
      0100CE9DH   CODE     ---       _PACER_TIMER_WritePeriod
      01009FAEH   CODE     ---       _pow
      01008CA2H   CODE     ---       _PRINTF
      0100CA4CH   CODE     ---       _PUTCHAR
      0100D078H   CODE     ---       _PWM_MOTORS_WriteCompare1
      0100D07EH   CODE     ---       _PWM_MOTORS_WriteCompare2
*DEL*:00000000H   CODE     ---       _PWM_MOTORS_WriteControlRegister
      0100D06CH   CODE     ---       _PWM_MOTORS_WriteCounter
      0100D072H   CODE     ---       _PWM_MOTORS_WritePeriod
      0100D0F6H   CODE     ---       _RESET_COUNTERS_Write
      0100D0D8H   CODE     ---       _RESET_FF_Write
      0100D0C6H   CODE     ---       _RS485_CTS_Write
      0100CCBEH   CODE     ---       _sendAcknowledgment
*DEL*:00000000H   CODE     ---       _SetAnalogRoutingPumps
*DEL*:00000000H   CODE     ---       _SHIFTREG_ENC_1_GetFIFOStatus
      0100CE51H   CODE     ---       _SHIFTREG_ENC_1_SetIntMode
*DEL*:00000000H   CODE     ---       _SHIFTREG_ENC_1_WriteRegValue
*DEL*:00000000H   CODE     ---       _SHIFTREG_ENC_2_GetFIFOStatus
      0100CE40H   CODE     ---       _SHIFTREG_ENC_2_SetIntMode
*DEL*:00000000H   CODE     ---       _SHIFTREG_ENC_2_WriteRegValue
*DEL*:00000000H   CODE     ---       _SHIFTREG_ENC_3_GetFIFOStatus
      0100CE2FH   CODE     ---       _SHIFTREG_ENC_3_SetIntMode
*DEL*:00000000H   CODE     ---       _SHIFTREG_ENC_3_WriteRegValue
      01008C9CH   CODE     ---       _SPRINTF
      0100C062H   CODE     ---       _strcat
      0100CCFDH   CODE     ---       _STRLEN
*DEL*:00000000H   CODE     ---       _UART_RS485_PutArray
      0100CEFFH   CODE     ---       _UART_RS485_PutChar
*DEL*:00000000H   CODE     ---       _UART_RS485_PutCRLF
      0100C83BH   CODE     ---       _UART_RS485_PutString
*DEL*:00000000H   CODE     ---       _UART_RS485_SendBreak
*DEL*:00000000H   CODE     ---       _UART_RS485_SetRxAddress1
*DEL*:00000000H   CODE     ---       _UART_RS485_SetRxAddress2
*DEL*:00000000H   CODE     ---       _UART_RS485_SetRxAddressMode
*DEL*:00000000H   CODE     ---       _UART_RS485_SetRxInterruptMode
LX51 LINKER/LOCATER V4.64.0.0                                                         01/10/2017  17:59:18  PAGE 33


*DEL*:00000000H   CODE     ---       _UART_RS485_SetTxAddressMode
*DEL*:00000000H   CODE     ---       _UART_RS485_SetTxInterruptMode
*DEL*:00000000H   CODE     ---       _UART_RS485_WriteControlRegister
*DEL*:00000000H   CODE     ---       _UART_RS485_WriteTxData
      0100D108H   CODE     ---       _WATCHDOG_COUNTER_SetInterruptMode
*DEL*:00000000H   CODE     ---       _WATCHDOG_COUNTER_WriteControlRegister
      0100CBE0H   CODE     ---       _WATCHDOG_COUNTER_WriteCounter
      0100CEF1H   CODE     ---       _WATCHDOG_COUNTER_WritePeriod
      0100D10EH   CODE     ---       _WATCHDOG_ENABLER_Write
      0100D114H   CODE     ---       _WATCHDOG_REFRESH_Write
*SFR* 000000D0H.6 DATA     BIT       AC
*SFR* 000000E0H   DATA     BYTE      ACC
      0100DCEFH   CONST    ---       ADC_AMux__addrTable
      0100DCF3H   CONST    ---       ADC_AMux__maskTable
      0100CB24H   CODE     ---       ADC_AMux_Start
      02000B4DH   XDATA    ---       ADC_buf
      02000D6EH   XDATA    BYTE      ADC_Config
      02000D79H   XDATA    BYTE      ADC_convDone
      02000D7AH   XDATA    LONG      ADC_CountsPerVolt
      0100B4A0H   CODE     ---       ADC_Enable
      0100CFF5H   CODE     ---       ADC_Ext_CP_Clk_GetDividerRegister
*DEL*:00000000H   CODE     ---       ADC_Ext_CP_Clk_GetModeRegister
      0100D039H   CODE     ---       ADC_Ext_CP_Clk_GetSourceRegister
*DEL*:00000000H   CODE     ---       ADC_Ext_CP_Clk_Start
*DEL*:00000000H   CODE     ---       ADC_Ext_CP_Clk_Stop
*DEL*:00000000H   CODE     ---       ADC_Ext_CP_Clk_StopBlock
*DEL*:00000000H   CODE     ---       ADC_GetResult16
*DEL*:00000000H   CODE     ---       ADC_GetResult32
*DEL*:00000000H   CODE     ---       ADC_GetResult8
      0100B041H   CODE     ---       ADC_Init
      02000D6FH   XDATA    BYTE      ADC_initVar
      0100D146H   CODE     ---       ADC_ISR1
      0100D147H   CODE     ---       ADC_ISR2
      0100D148H   CODE     ---       ADC_ISR3
      0100D149H   CODE     ---       ADC_ISR4
      02000D70H   XDATA    LONG      ADC_Offset
*DEL*:00000000H   CODE     ---       ADC_Read16
*DEL*:00000000H   CODE     ---       ADC_Read32
*DEL*:00000000H   CODE     ---       ADC_Read8
*DEL*:00000000H   CODE     ---       ADC_ReadGCOR
*DEL*:00000000H   CODE     ---       ADC_SOC_Read
      0100CC17H   CODE     ---       ADC_Start
*DEL*:00000000H   CODE     ---       ADC_StartConvert
      02000D75H   XDATA    BYTE      ADC_started
*DEL*:00000000H   CODE     ---       ADC_STATUS_InterruptDisable
*DEL*:00000000H   CODE     ---       ADC_STATUS_InterruptEnable
      0100D0FCH   CODE     ---       ADC_STATUS_Read
*DEL*:00000000H   CODE     ---       ADC_STATUS_ReadMask
*DEL*:00000000H   CODE     ---       ADC_Stop
      02000D74H   XDATA    BYTE      ADC_stopConversion
*DEL*:00000000H   CODE     ---       ADC_StopConvert
      0100CFFFH   CODE     ---       ADC_theACLK_GetDividerRegister
*DEL*:00000000H   CODE     ---       ADC_theACLK_GetModeRegister
*DEL*:00000000H   CODE     ---       ADC_theACLK_GetPhaseRegister
      0100D041H   CODE     ---       ADC_theACLK_GetSourceRegister
*DEL*:00000000H   CODE     ---       ADC_theACLK_Start
*DEL*:00000000H   CODE     ---       ADC_theACLK_Stop
*DEL*:00000000H   CODE     ---       ADC_theACLK_StopBlock
      0100867AH   CODE     ---       analog_read_end
*SFR* 000000F0H   DATA     BYTE      B
      0100CFB9H   CODE     ---       Bootloadable_Load
      02000909H   XDATA    ---       c_mem
      02000B8EH   XDATA    ---       calib
      0100A245H   CODE     ---       calibration
      0100CF91H   CODE     ---       CLOCK_UART_GetDividerRegister
LX51 LINKER/LOCATER V4.64.0.0                                                         01/10/2017  17:59:18  PAGE 34


*DEL*:00000000H   CODE     ---       CLOCK_UART_GetModeRegister
      0100D009H   CODE     ---       CLOCK_UART_GetSourceRegister
*DEL*:00000000H   CODE     ---       CLOCK_UART_Start
*DEL*:00000000H   CODE     ---       CLOCK_UART_Stop
*DEL*:00000000H   CODE     ---       CLOCK_UART_StopBlock
      0100C53CH   CODE     ---       cmd_activate
      0100CA21H   CODE     ---       cmd_get_activate
*DEL*:00000000H   CODE     ---       cmd_get_curr_and_meas
      0100B251H   CODE     ---       cmd_get_currents
      0100C468H   CODE     ---       cmd_get_emg
      0100C0CDH   CODE     ---       cmd_get_inputs
      0100BF8BH   CODE     ---       cmd_get_measurements
      0100CD12H   CODE     ---       cmd_ping
      0100CB45H   CODE     ---       cmd_set_baudrate
      010095C7H   CODE     ---       cmd_set_inputs
      0100C57FH   CODE     ---       cmd_set_watchdog
      010090BAH   CODE     ---       cmd_store_params
      0100BBD7H   CODE     ---       command_slave
      0100992AH   CODE     ---       commProcess
      0100CF0CH   CODE     ---       COUNTER_ENC_ClearFIFO
      0100D019H   CODE     ---       COUNTER_ENC_Enable
      0100C79BH   CODE     ---       COUNTER_ENC_Init
      02000DA0H   XDATA    BYTE      COUNTER_ENC_initVar
      0100D0A8H   CODE     ---       COUNTER_ENC_ReadCapture
*DEL*:00000000H   CODE     ---       COUNTER_ENC_ReadCompare
*DEL*:00000000H   CODE     ---       COUNTER_ENC_ReadControlRegister
*DEL*:00000000H   CODE     ---       COUNTER_ENC_ReadCounter
*DEL*:00000000H   CODE     ---       COUNTER_ENC_ReadPeriod
      0100D09CH   CODE     ---       COUNTER_ENC_ReadStatusRegister
      0100CD73H   CODE     ---       COUNTER_ENC_Start
*DEL*:00000000H   CODE     ---       COUNTER_ENC_Stop
*SFR* 000000D0H.7 DATA     BIT       CY
      02000D89H   XDATA    DWORD     cydelay_32k_ms
      02000D84H   XDATA    DWORD     cydelay_freq_hz
      02000D7FH   XDATA    DWORD     cydelay_freq_khz
      02000D83H   XDATA    BYTE      cydelay_freq_mhz
*DEL*:00000000H   CODE     ---       CyDisableInts
      0100C765H   CODE     ---       CyDmacConfigure
*DEL*:00000000H   CODE     ---       CyDmacError
*DEL*:00000000H   CODE     ---       CyDmacErrorAddress
*DEL*:00000000H   CODE     ---       CyDmaChAlloc
      0100C600H   CODE     ---       CyDmaTdAllocate
*DEL*:00000000H   CODE     ---       CyDmaTdFreeCount
*DEL*:00000000H   CODE     ---       CyEEPROM_ReadRelease
*DEL*:00000000H   CODE     ---       CyEEPROM_ReadReserve
      0100C908H   CODE     ---       CyEEPROM_Start
*DEL*:00000000H   CODE     ---       CyEEPROM_Stop
      0100CCD3H   CODE     NEAR LAB  CyEnterCriticalSection
      0100A941H   CODE     ---       cyfitter_cfg
*DEL*:00000000H   CODE     ---       CyFlash_Start
*DEL*:00000000H   CODE     ---       CyFlash_Stop
*DEL*:00000000H   CODE     ---       CyILO_Disable33K
*DEL*:00000000H   CODE     ---       CyILO_Enable33K
*DEL*:00000000H   CODE     ---       CyILO_Start100K
*DEL*:00000000H   CODE     ---       CyILO_Start1K
*DEL*:00000000H   CODE     ---       CyILO_Stop100K
*DEL*:00000000H   CODE     ---       CyILO_Stop1K
*DEL*:00000000H   CODE     ---       CyIMO_DisableDoubler
*DEL*:00000000H   CODE     ---       CyIMO_EnableDoubler
*DEL*:00000000H   CODE     ---       CyIMO_Stop
*DEL*:00000000H   CODE     ---       CyPLL_OUT_Stop
*DEL*:00000000H   CODE     ---       CyPmHibernate
*DEL*:00000000H   CODE     ---       CyPmOppsSet
*DEL*:00000000H   CODE     ---       CyPmRestoreClocks
*DEL*:00000000H   CODE     ---       CyPmSaveClocks
LX51 LINKER/LOCATER V4.64.0.0                                                         01/10/2017  17:59:18  PAGE 35


      02000D88H   XDATA    BYTE      CyResetStatus
      0100CC62H   CODE     ---       CySetTemp
      0100D029H   CODE     ---       CySoftwareReset
      0100CBFCH   CODE     ---       CySpcGetAlgorithm
      0100CBA3H   CODE     ---       CySpcLock
      0100CCE8H   CODE     ---       CySpcStart
*DEL*:00000000H   CODE     ---       CySpcStop
      0100CF58H   CODE     ---       CySpcUnlock
*DEL*:00000000H   CODE     ---       CyVdHvAnalogDisable
*DEL*:00000000H   CODE     ---       CyVdHvAnalogEnable
*DEL*:00000000H   CODE     ---       CyVdLvAnalogDisable
*DEL*:00000000H   CODE     ---       CyVdLvDigitDisable
*DEL*:00000000H   CODE     ---       CyVdRealTimeStatus
*DEL*:00000000H   CODE     ---       CyWdtClear
*DEL*:00000000H   CODE     ---       CyXTAL_32KHZ_ReadStatus
*DEL*:00000000H   CODE     ---       CyXTAL_32KHZ_Start
*DEL*:00000000H   CODE     ---       CyXTAL_32KHZ_Stop
*DEL*:00000000H   CODE     ---       CyXTAL_DisableErrStatus
*DEL*:00000000H   CODE     ---       CyXTAL_DisableFaultRecovery
*DEL*:00000000H   CODE     ---       CyXTAL_EnableErrStatus
*DEL*:00000000H   CODE     ---       CyXTAL_EnableFaultRecovery
*DEL*:00000000H   CODE     ---       CyXTAL_ReadStatus
*DEL*:00000000H   CODE     ---       CyXTAL_Stop
      02000B8DH   XDATA    BYTE      dev_pwm_limit
      02000A8AH   XDATA    LONG      dev_tension
      02000D96H   XDATA    ---       dieTemperature
      02000DA5H   XDATA    BYTE      DMA_DmaHandle
*DEL*:00000000H   CODE     ---       DMA_DmaRelease
*SFR* 00000083H   DATA     BYTE      DPH
*SFR* 00000085H   DATA     BYTE      DPH1
*SFR* 00000082H   DATA     BYTE      DPL
*SFR* 00000084H   DATA     BYTE      DPL1
*SFR* 00000086H   DATA     BYTE      DPS
*SFR* 00000093H   DATA     BYTE      DPX
*SFR* 00000095H   DATA     BYTE      DPX1
*SFR* 000000A8H.7 DATA     BIT       EA
      02000D9CH   XDATA    ---       EEPROM_ADDR
      0100D057H   CODE     ---       EEPROM_Enable
*DEL*:00000000H   CODE     ---       EEPROM_Query
      0100D138H   CODE     ---       EEPROM_Start
*DEL*:00000000H   CODE     ---       EEPROM_Stop
*DEL*:00000000H   CODE     ---       EEPROM_UpdateTemperature
*SFR* 000000D0H.5 DATA     BIT       F0
*SFR* 000000D0H.1 DATA     BIT       F1
*DEL*:00000000H   CODE     ---       FF_STATUS_InterruptDisable
*DEL*:00000000H   CODE     ---       FF_STATUS_InterruptEnable
      0100D0DEH   CODE     ---       FF_STATUS_Read
*DEL*:00000000H   CODE     ---       FF_STATUS_ReadMask
*DEL*:00000000H   CODE     ---       FTDI_ENABLE_REG_Read
      0100AA5AH   CODE     ---       function_scheduler
      02000B56H   XDATA    ---       g_meas
      02000A4EH   XDATA    ---       g_measOld
      020009B8H   XDATA    ---       g_mem
      0200099FH   XDATA    ---       g_ref
      02000B2CH   XDATA    ---       g_refNew
      02000A8EH   XDATA    ---       g_refOld
      02000AA7H   XDATA    ---       g_rx
*SFR* 000000A8H   DATA     BYTE      IE
*DEL*:00000000H   CODE     ---       infoSend
      00000021H.4 BIT      BIT       interrupt_flag
      0100A6FDH   CODE     ---       interrupt_manager
*DEL*:00000000H   CODE     ---       ISR_RS485_RX_ClearPending
      0100D050H   CODE     ---       ISR_RS485_RX_Disable
      0100D049H   CODE     ---       ISR_RS485_RX_Enable
      0100D13FH   CODE     ---       ISR_RS485_RX_ExInterrupt
LX51 LINKER/LOCATER V4.64.0.0                                                         01/10/2017  17:59:18  PAGE 36


*DEL*:00000000H   CODE     ---       ISR_RS485_RX_GetPriority
*DEL*:00000000H   CODE     ---       ISR_RS485_RX_GetState
*DEL*:00000000H   CODE     ---       ISR_RS485_RX_GetVector
      0100C9C7H   CODE     ---       ISR_RS485_RX_Interrupt
*DEL*:00000000H   CODE     ---       ISR_RS485_RX_SetPending
*DEL*:00000000H   CODE     ---       ISR_RS485_RX_Start
*DEL*:00000000H   CODE     ---       ISR_RS485_RX_Stop
*DEL*:00000000H   CODE     ---       ISR_WATCHDOG_ClearPending
      0100D065H   CODE     ---       ISR_WATCHDOG_Disable
      0100D05EH   CODE     ---       ISR_WATCHDOG_Enable
*DEL*:00000000H   CODE     ---       ISR_WATCHDOG_GetPriority
*DEL*:00000000H   CODE     ---       ISR_WATCHDOG_GetState
*DEL*:00000000H   CODE     ---       ISR_WATCHDOG_GetVector
      0100D13CH   CODE     ---       ISR_WATCHDOG_Handler
      0100D145H   CODE     ---       ISR_WATCHDOG_Interrupt
*DEL*:00000000H   CODE     ---       ISR_WATCHDOG_SetPending
*DEL*:00000000H   CODE     ---       ISR_WATCHDOG_Start
*DEL*:00000000H   CODE     ---       ISR_WATCHDOG_Stop
*DEL*:00000000H   CODE     ---       LED_BLINK_EN_Read
      0100D031H   CODE     ---       LED_BLINK_Enable
      0100CB03H   CODE     ---       LED_BLINK_Init
      02000DA7H   XDATA    BYTE      LED_BLINK_initVar
*DEL*:00000000H   CODE     ---       LED_BLINK_ReadCapture
*DEL*:00000000H   CODE     ---       LED_BLINK_ReadCompare
*DEL*:00000000H   CODE     ---       LED_BLINK_ReadControlRegister
*DEL*:00000000H   CODE     ---       LED_BLINK_ReadCounter
*DEL*:00000000H   CODE     ---       LED_BLINK_ReadPeriod
      0100CDE5H   CODE     ---       LED_BLINK_Start
*DEL*:00000000H   CODE     ---       LED_BLINK_Stop
*DEL*:00000000H   CODE     ---       LED_CTRL_Read
      010093C2H   CODE     ---       main
      02000A85H   XDATA    BYTE      master_mode
      0100977BH   CODE     ---       memInit
      0100C386H   CODE     ---       memRecall
      0100C4B1H   CODE     ---       memRestore
      01006253H   CODE     ---       motor_control
*DEL*:00000000H   CODE     ---       MOTOR_DIR_Read
*DEL*:00000000H   CODE     ---       MOTOR_ON_OFF_Read
*SFR* 000000EAH   DATA     BYTE      MXAX
      0100CF19H   CODE     ---       MY_TIMER_ClearFIFO
      0100D021H   CODE     ---       MY_TIMER_Enable
      0100C9F5H   CODE     ---       MY_TIMER_Init
      02000DA3H   XDATA    BYTE      MY_TIMER_initVar
      0100CFCDH   CODE     ---       MY_TIMER_ReadCapture
*DEL*:00000000H   CODE     ---       MY_TIMER_ReadControlRegister
      0100CE62H   CODE     ---       MY_TIMER_ReadCounter
*DEL*:00000000H   CODE     ---       MY_TIMER_ReadPeriod
      0100D0EAH   CODE     ---       MY_TIMER_ReadStatusRegister
*DEL*:00000000H   CODE     ---       MY_TIMER_SoftwareCapture
      0100CDACH   CODE     ---       MY_TIMER_Start
*DEL*:00000000H   CODE     ---       MY_TIMER_Stop
*SFR* 000000D0H.2 DATA     BIT       OV
      0100BEA4H   CODE     ---       overcurrent_control
*SFR* 000000D0H   DATA     BIT       P
*SFR* 000000A0H   DATA     BYTE      P2AX
      0100CC92H   CODE     ---       PACER_TIMER_Enable
      0100C67BH   CODE     ---       PACER_TIMER_Init
      02000D9FH   XDATA    BYTE      PACER_TIMER_initVar
*DEL*:00000000H   CODE     ---       PACER_TIMER_ReadCapture
*DEL*:00000000H   CODE     ---       PACER_TIMER_ReadControlRegister
*DEL*:00000000H   CODE     ---       PACER_TIMER_ReadCounter
*DEL*:00000000H   CODE     ---       PACER_TIMER_ReadPeriod
*DEL*:00000000H   CODE     ---       PACER_TIMER_ReadStatusRegister
*DEL*:00000000H   CODE     ---       PACER_TIMER_SoftwareCapture
      0100CD4DH   CODE     ---       PACER_TIMER_Start
LX51 LINKER/LOCATER V4.64.0.0                                                         01/10/2017  17:59:18  PAGE 37


*DEL*:00000000H   CODE     ---       PACER_TIMER_Stop
*SFR* 000000D0H   DATA     BYTE      PSW
      0100BDB9H   CODE     ---       pwm_limit_search
      0100D011H   CODE     ---       PWM_MOTORS_Enable
      0100CA73H   CODE     ---       PWM_MOTORS_Init
      02000D9EH   XDATA    BYTE      PWM_MOTORS_initVar
*DEL*:00000000H   CODE     ---       PWM_MOTORS_ReadCapture
*DEL*:00000000H   CODE     ---       PWM_MOTORS_ReadCompare1
*DEL*:00000000H   CODE     ---       PWM_MOTORS_ReadCompare2
*DEL*:00000000H   CODE     ---       PWM_MOTORS_ReadControlRegister
*DEL*:00000000H   CODE     ---       PWM_MOTORS_ReadCounter
*DEL*:00000000H   CODE     ---       PWM_MOTORS_ReadPeriod
      0100CD3AH   CODE     ---       PWM_MOTORS_Start
*DEL*:00000000H   CODE     ---       PWM_MOTORS_Stop
      02000B55H   XDATA    CHAR      pwm_sign
*DEL*:00000000H   CODE     ---       RESET_COUNTERS_Read
*DEL*:00000000H   CODE     ---       RESET_FF_Read
      00000021H.2 BIT      BIT       reset_last_value_flag
*SFR* 000000D0H.3 DATA     BIT       RS0
*SFR* 000000D0H.4 DATA     BIT       RS1
*DEL*:00000000H   CODE     ---       RS485_CTS_Read
      0100B6BBH   CODE     ---       setZeros
*SFR* 00000080H   DATA     BYTE      SFRPRT0DR
*SFR* 00000089H   DATA     BYTE      SFRPRT0PS
*SFR* 0000008AH   DATA     BYTE      SFRPRT0SEL
*SFR* 000000E8H   DATA     BYTE      SFRPRT12DR
*SFR* 000000E9H   DATA     BYTE      SFRPRT12PS
*SFR* 000000F2H   DATA     BYTE      SFRPRT12SEL
*SFR* 000000F8H   DATA     BYTE      SFRPRT15DR
*SFR* 000000F9H   DATA     BYTE      SFRPRT15PS
*SFR* 000000FAH   DATA     BYTE      SFRPRT15SEL
*SFR* 00000090H   DATA     BYTE      SFRPRT1DR
*SFR* 00000091H   DATA     BYTE      SFRPRT1PS
*SFR* 000000A2H   DATA     BYTE      SFRPRT1SEL
*SFR* 00000098H   DATA     BYTE      SFRPRT2DR
*SFR* 00000099H   DATA     BYTE      SFRPRT2PS
*SFR* 0000009AH   DATA     BYTE      SFRPRT2SEL
*SFR* 000000B0H   DATA     BYTE      SFRPRT3DR
*SFR* 000000B1H   DATA     BYTE      SFRPRT3PS
*SFR* 000000B2H   DATA     BYTE      SFRPRT3SEL
*SFR* 000000C0H   DATA     BYTE      SFRPRT4DR
*SFR* 000000C1H   DATA     BYTE      SFRPRT4PS
*SFR* 000000C2H   DATA     BYTE      SFRPRT4SEL
*SFR* 000000C8H   DATA     BYTE      SFRPRT5DR
*SFR* 000000C9H   DATA     BYTE      SFRPRT5PS
*SFR* 000000CAH   DATA     BYTE      SFRPRT5SEL
*SFR* 000000D8H   DATA     BYTE      SFRPRT6DR
*SFR* 000000D9H   DATA     BYTE      SFRPRT6PS
*SFR* 000000DAH   DATA     BYTE      SFRPRT6SEL
*DEL*:00000000H   CODE     ---       SHIFTREG_ENC_1_DisableInt
      0100CF86H   CODE     ---       SHIFTREG_ENC_1_Enable
      0100CED5H   CODE     ---       SHIFTREG_ENC_1_EnableInt
*DEL*:00000000H   CODE     ---       SHIFTREG_ENC_1_GetIntStatus
      0100D0F0H   CODE     ---       SHIFTREG_ENC_1_Init
      02000DA4H   XDATA    BYTE      SHIFTREG_ENC_1_initVar
      0100CFE1H   CODE     ---       SHIFTREG_ENC_1_ReadData
*DEL*:00000000H   CODE     ---       SHIFTREG_ENC_1_ReadRegValue
      0100CDBFH   CODE     ---       SHIFTREG_ENC_1_Start
*DEL*:00000000H   CODE     ---       SHIFTREG_ENC_1_Stop
*DEL*:00000000H   CODE     ---       SHIFTREG_ENC_2_DisableInt
      0100CF7BH   CODE     ---       SHIFTREG_ENC_2_Enable
      0100CEC7H   CODE     ---       SHIFTREG_ENC_2_EnableInt
*DEL*:00000000H   CODE     ---       SHIFTREG_ENC_2_GetIntStatus
      0100D0C0H   CODE     ---       SHIFTREG_ENC_2_Init
      02000DA2H   XDATA    BYTE      SHIFTREG_ENC_2_initVar
LX51 LINKER/LOCATER V4.64.0.0                                                         01/10/2017  17:59:18  PAGE 38


      0100CFAFH   CODE     ---       SHIFTREG_ENC_2_ReadData
*DEL*:00000000H   CODE     ---       SHIFTREG_ENC_2_ReadRegValue
      0100CD99H   CODE     ---       SHIFTREG_ENC_2_Start
*DEL*:00000000H   CODE     ---       SHIFTREG_ENC_2_Stop
*DEL*:00000000H   CODE     ---       SHIFTREG_ENC_3_DisableInt
      0100CF70H   CODE     ---       SHIFTREG_ENC_3_Enable
      0100CEB9H   CODE     ---       SHIFTREG_ENC_3_EnableInt
*DEL*:00000000H   CODE     ---       SHIFTREG_ENC_3_GetIntStatus
      0100D0BAH   CODE     ---       SHIFTREG_ENC_3_Init
      02000DA1H   XDATA    BYTE      SHIFTREG_ENC_3_initVar
      0100CFA5H   CODE     ---       SHIFTREG_ENC_3_ReadData
*DEL*:00000000H   CODE     ---       SHIFTREG_ENC_3_ReadRegValue
      0100CD86H   CODE     ---       SHIFTREG_ENC_3_Start
*DEL*:00000000H   CODE     ---       SHIFTREG_ENC_3_Stop
*SFR* 00000081H   DATA     BYTE      SP
      02000DA9H   XDATA    BYTE      SpcLockState
      0100A824H   CODE     NEAR LAB  STARTUP1
      02000B49H   XDATA    FLOAT     tau_feedback
      00000021H.5 BIT      BIT       tension_valid
      02000A86H   XDATA    DWORD     timer_value
      02000B45H   XDATA    DWORD     timer_value0
      0100C96AH   CODE     ---       UART_RS485_ClearRxBuffer
      0100CE0BH   CODE     ---       UART_RS485_ClearTxBuffer
      0100CABFH   CODE     ---       UART_RS485_Enable
      02000D6DH   XDATA    BYTE      UART_RS485_errorStatus
*DEL*:00000000H   CODE     ---       UART_RS485_GetByte
      0100C18EH   CODE     ---       UART_RS485_GetChar
      0100C337H   CODE     ---       UART_RS485_GetRxBufferSize
*DEL*:00000000H   CODE     ---       UART_RS485_GetTxBufferSize
      0100C8A3H   CODE     ---       UART_RS485_Init
      02000D6BH   XDATA    BYTE      UART_RS485_initVar
*DEL*:00000000H   CODE     ---       UART_RS485_ReadControlRegister
*DEL*:00000000H   CODE     ---       UART_RS485_ReadRxData
      0100CD26H   CODE     ---       UART_RS485_ReadRxStatus
      0100D08AH   CODE     ---       UART_RS485_ReadTxStatus
      02000D4AH   XDATA    ---       UART_RS485_rxBuffer
      02000D48H   XDATA    BYTE      UART_RS485_rxBufferLoopDetect
      02000D6CH   XDATA    BYTE      UART_RS485_rxBufferOverflow
      02000D49H   XDATA    BYTE      UART_RS485_rxBufferRead
      02000D6AH   XDATA    BYTE      UART_RS485_rxBufferWrite
      0100B0F2H   CODE     ---       UART_RS485_RXISR
      0100CD60H   CODE     ---       UART_RS485_Start
      0100CAE1H   CODE     ---       UART_RS485_Stop
      0100CCA8H   CODE     ---       WATCHDOG_COUNTER_Enable
      0100C72DH   CODE     ---       WATCHDOG_COUNTER_Init
      02000DA6H   XDATA    BYTE      WATCHDOG_COUNTER_initVar
*DEL*:00000000H   CODE     ---       WATCHDOG_COUNTER_ReadCapture
*DEL*:00000000H   CODE     ---       WATCHDOG_COUNTER_ReadControlRegister
*DEL*:00000000H   CODE     ---       WATCHDOG_COUNTER_ReadCounter
*DEL*:00000000H   CODE     ---       WATCHDOG_COUNTER_ReadPeriod
*DEL*:00000000H   CODE     ---       WATCHDOG_COUNTER_ReadStatusRegister
      0100CDD2H   CODE     ---       WATCHDOG_COUNTER_Start
*DEL*:00000000H   CODE     ---       WATCHDOG_COUNTER_Stop
*DEL*:00000000H   CODE     ---       WATCHDOG_ENABLER_Read
      00000021H.3 BIT      BIT       watchdog_flag
*DEL*:00000000H   CODE     ---       WATCHDOG_REFRESH_Read



SYMBOL TABLE OF MODULE:  .\DP8051_Keil_951\Release\hand_firmware_micro.omf (COMMAND_PROCESSING)

      VALUE       REP       CLASS    TYPE      SYMBOL NAME
      ====================================================
      ---         MODULE    ---      ---       COMMAND_PROCESSING
      02000D9CH   PUBLIC    XDATA    ---       EEPROM_ADDR
LX51 LINKER/LOCATER V4.64.0.0                                                         01/10/2017  17:59:18  PAGE 39


      0100C468H   PUBLIC    CODE     ---       cmd_get_emg
      010090BAH   PUBLIC    CODE     ---       cmd_store_params
      0100C0CDH   PUBLIC    CODE     ---       cmd_get_inputs
      0100C57FH   PUBLIC    CODE     ---       cmd_set_watchdog
      0100CD12H   PUBLIC    CODE     ---       cmd_ping
      0100CB45H   PUBLIC    CODE     ---       cmd_set_baudrate
      0100B251H   PUBLIC    CODE     ---       cmd_get_currents
      0100CA21H   PUBLIC    CODE     ---       cmd_get_activate
      0100C53CH   PUBLIC    CODE     ---       cmd_activate
      010095C7H   PUBLIC    CODE     ---       cmd_set_inputs
      0100BF8BH   PUBLIC    CODE     ---       cmd_get_measurements
      0100977BH   PUBLIC    CODE     ---       memInit
      0100C4B1H   PUBLIC    CODE     ---       memRestore
      0100C386H   PUBLIC    CODE     ---       memRecall
      0100AED6H   PUBLIC    CODE     ---       _memStore
      0100CCBEH   PUBLIC    CODE     ---       _sendAcknowledgment
      0100C8D6H   PUBLIC    CODE     ---       _LCRChecksum
      0100B637H   PUBLIC    CODE     ---       _commWriteAnother
      0100B413H   PUBLIC    CODE     ---       _commWrite
      02000012H   PUBLIC    XDATA    BYTE      ?_commWrite_old_id?BYTE
      0100B386H   PUBLIC    CODE     ---       _commWrite_old_id
      01003B0BH   PUBLIC    CODE     ---       _infoPrepare
      0100B6BBH   PUBLIC    CODE     ---       setZeros
      0100261AH   PUBLIC    CODE     ---       _get_param_list
      0100C6B7H   PUBLIC    CODE     ---       _infoGet
      0100992AH   PUBLIC    CODE     ---       commProcess
      000000CAH   SFRSYM    DATA     BYTE      SFRPRT5SEL
      000000DAH   SFRSYM    DATA     BYTE      SFRPRT6SEL
      000000D0H.6 SFRSYM    DATA     BIT       AC
      000000A8H.7 SFRSYM    DATA     BIT       EA
      000000A8H   SFRSYM    DATA     BYTE      IE
      00000085H   SFRSYM    DATA     BYTE      DPH1
      00000084H   SFRSYM    DATA     BYTE      DPL1
      000000D0H.7 SFRSYM    DATA     BIT       CY
      000000A0H   SFRSYM    DATA     BYTE      P2AX
      00000095H   SFRSYM    DATA     BYTE      DPX1
      00000081H   SFRSYM    DATA     BYTE      SP
      000000D0H.2 SFRSYM    DATA     BIT       OV
      00000080H   SFRSYM    DATA     BYTE      SFRPRT0DR
      00000090H   SFRSYM    DATA     BYTE      SFRPRT1DR
      000000F2H   SFRSYM    DATA     BYTE      SFRPRT12SEL
      00000098H   SFRSYM    DATA     BYTE      SFRPRT2DR
      000000B0H   SFRSYM    DATA     BYTE      SFRPRT3DR
      000000C0H   SFRSYM    DATA     BYTE      SFRPRT4DR
      000000FAH   SFRSYM    DATA     BYTE      SFRPRT15SEL
      000000C8H   SFRSYM    DATA     BYTE      SFRPRT5DR
      000000D8H   SFRSYM    DATA     BYTE      SFRPRT6DR
      00000089H   SFRSYM    DATA     BYTE      SFRPRT0PS
      00000091H   SFRSYM    DATA     BYTE      SFRPRT1PS
      00000099H   SFRSYM    DATA     BYTE      SFRPRT2PS
      000000B1H   SFRSYM    DATA     BYTE      SFRPRT3PS
      000000C1H   SFRSYM    DATA     BYTE      SFRPRT4PS
      000000C9H   SFRSYM    DATA     BYTE      SFRPRT5PS
      000000D9H   SFRSYM    DATA     BYTE      SFRPRT6PS
      000000EAH   SFRSYM    DATA     BYTE      MXAX
      000000F0H   SFRSYM    DATA     BYTE      B
      000000E0H   SFRSYM    DATA     BYTE      ACC
      000000D0H   SFRSYM    DATA     BIT       P
      000000D0H.3 SFRSYM    DATA     BIT       RS0
      000000D0H.4 SFRSYM    DATA     BIT       RS1
      00000083H   SFRSYM    DATA     BYTE      DPH
      000000E8H   SFRSYM    DATA     BYTE      SFRPRT12DR
      00000082H   SFRSYM    DATA     BYTE      DPL
      000000F8H   SFRSYM    DATA     BYTE      SFRPRT15DR
      00000086H   SFRSYM    DATA     BYTE      DPS
LX51 LINKER/LOCATER V4.64.0.0                                                         01/10/2017  17:59:18  PAGE 40


      000000E9H   SFRSYM    DATA     BYTE      SFRPRT12PS
      00000093H   SFRSYM    DATA     BYTE      DPX
      000000F9H   SFRSYM    DATA     BYTE      SFRPRT15PS
      000000D0H.5 SFRSYM    DATA     BIT       F0
      000000D0H.1 SFRSYM    DATA     BIT       F1
      0000008AH   SFRSYM    DATA     BYTE      SFRPRT0SEL
      000000D0H   SFRSYM    DATA     BYTE      PSW
      000000A2H   SFRSYM    DATA     BYTE      SFRPRT1SEL
      0000009AH   SFRSYM    DATA     BYTE      SFRPRT2SEL
      000000B2H   SFRSYM    DATA     BYTE      SFRPRT3SEL
      000000C2H   SFRSYM    DATA     BYTE      SFRPRT4SEL
      01005511H   SYMBOL    CODE     ---       _?ix1000
      01006041H   SYMBOL    CODE     ---       _?ix1010
      0100595DH   SYMBOL    CODE     ---       _?ix1001
      01006141H   SYMBOL    CODE     ---       _?ix1020
      01006052H   SYMBOL    CODE     ---       _?ix1011
      01005F6CH   SYMBOL    CODE     ---       _?ix1002
      0100615AH   SYMBOL    CODE     ---       _?ix1021
      0100606EH   SYMBOL    CODE     ---       _?ix1012
      01005F7BH   SYMBOL    CODE     ---       _?ix1003
      01006172H   SYMBOL    CODE     ---       _?ix1022
      0100608BH   SYMBOL    CODE     ---       _?ix1013
      01005F97H   SYMBOL    CODE     ---       _?ix1004
      01006187H   SYMBOL    CODE     ---       _?ix1023
      010060A6H   SYMBOL    CODE     ---       _?ix1014
      01005FB2H   SYMBOL    CODE     ---       _?ix1005
      010061EAH   SYMBOL    CODE     ---       _?ix1024
      010060BAH   SYMBOL    CODE     ---       _?ix1015
      01005FCEH   SYMBOL    CODE     ---       _?ix1006
      01006229H   SYMBOL    CODE     ---       _?ix1025
      010060DFH   SYMBOL    CODE     ---       _?ix1016
      01005FF0H   SYMBOL    CODE     ---       _?ix1007
      010060F4H   SYMBOL    CODE     ---       _?ix1017
      01006017H   SYMBOL    CODE     ---       _?ix1008
      01006109H   SYMBOL    CODE     ---       _?ix1018
      01006028H   SYMBOL    CODE     ---       _?ix1009
      0100611DH   SYMBOL    CODE     ---       _?ix1019

      0100992AH   BLOCK     CODE     ---       LVL=0
      0100992AH   BLOCK     CODE     NEAR LAB  LVL=1
      00000029H   SYMBOL    DATA     BYTE      rx_cmd
      ---         BLOCKEND  ---      ---       LVL=1
      0100992AH   LINE      CODE     ---       #37
      0100992AH   LINE      CODE     ---       #41
      01009930H   LINE      CODE     ---       #45
      0100995BH   LINE      CODE     ---       #47
      01009961H   LINE      CODE     ---       #49
      01009961H   LINE      CODE     ---       #51
      010099A3H   LINE      CODE     ---       #54
      010099A3H   LINE      CODE     ---       #55
      010099A6H   LINE      CODE     ---       #56
      010099A7H   LINE      CODE     ---       #60
      010099A7H   LINE      CODE     ---       #61
      010099AAH   LINE      CODE     ---       #62
      010099ABH   LINE      CODE     ---       #66
      010099ABH   LINE      CODE     ---       #67
      010099AEH   LINE      CODE     ---       #68
      010099AFH   LINE      CODE     ---       #72
      010099AFH   LINE      CODE     ---       #73
      010099B2H   LINE      CODE     ---       #74
      010099B3H   LINE      CODE     ---       #79
      010099B3H   LINE      CODE     ---       #80
      010099B6H   LINE      CODE     ---       #81
      010099B7H   LINE      CODE     ---       #85
      010099B7H   LINE      CODE     ---       #86
LX51 LINKER/LOCATER V4.64.0.0                                                         01/10/2017  17:59:18  PAGE 41


      010099BAH   LINE      CODE     ---       #87
      010099BBH   LINE      CODE     ---       #91
      010099BBH   LINE      CODE     ---       #92
      010099BEH   LINE      CODE     ---       #93
      010099BFH   LINE      CODE     ---       #97
      010099BFH   LINE      CODE     ---       #98
      010099C2H   LINE      CODE     ---       #99
      010099C3H   LINE      CODE     ---       #103
      010099C3H   LINE      CODE     ---       #104
      010099C6H   LINE      CODE     ---       #105
      010099C7H   LINE      CODE     ---       #109
      010099C7H   LINE      CODE     ---       #110
      010099D2H   LINE      CODE     ---       #111
      010099D3H   LINE      CODE     ---       #115
      010099D3H   LINE      CODE     ---       #116
      010099D6H   LINE      CODE     ---       #117
      010099D7H   LINE      CODE     ---       #121
      010099D7H   LINE      CODE     ---       #122
      010099E2H   LINE      CODE     ---       #123
      010099E3H   LINE      CODE     ---       #127
      010099E3H   LINE      CODE     ---       #128
      010099E6H   LINE      CODE     ---       #129
      010099E7H   LINE      CODE     ---       #133
      010099E7H   LINE      CODE     ---       #134
      010099EAH   LINE      CODE     ---       #135
      010099EBH   LINE      CODE     ---       #139
      010099EBH   LINE      CODE     ---       #140
      010099F5H   LINE      CODE     ---       #141
      010099FBH   LINE      CODE     ---       #143
      01009A00H   LINE      CODE     ---       #144
      01009A01H   LINE      CODE     ---       #148
      01009A01H   LINE      CODE     ---       #149
      01009A07H   LINE      CODE     ---       #150
      01009A0DH   LINE      CODE     ---       #152
      01009A12H   LINE      CODE     ---       #153
      01009A13H   LINE      CODE     ---       #157
      01009A13H   LINE      CODE     ---       #158
      01009A19H   LINE      CODE     ---       #159
      01009A1FH   LINE      CODE     ---       #161
      01009A24H   LINE      CODE     ---       #162
      01009A25H   LINE      CODE     ---       #166
      01009A25H   LINE      CODE     ---       #168
      01009A2AH   LINE      CODE     ---       #169
      01009A34H   LINE      CODE     ---       #170
      01009A39H   LINE      CODE     ---       #171
      01009A43H   LINE      CODE     ---       #172
      01009A46H   LINE      CODE     ---       #173
      01009A47H   LINE      CODE     ---       #177
      01009A47H   LINE      CODE     ---       #178
      01009A56H   LINE      CODE     ---       #179
      01009A65H   LINE      CODE     ---       #182
      01009A75H   LINE      CODE     ---       #183
      01009A7CH   LINE      CODE     ---       #184
      01009A89H   LINE      CODE     ---       #185
      01009A92H   LINE      CODE     ---       #186
      01009A92H   LINE      CODE     ---       #187
      01009AA2H   LINE      CODE     ---       #188
      01009AA9H   LINE      CODE     ---       #189
      01009AB6H   LINE      CODE     ---       #190
      01009AC0H   LINE      CODE     ---       #191
      01009AC0H   LINE      CODE     ---       #193
      01009ACBH   LINE      CODE     ---       #194
      01009AD1H   LINE      CODE     ---       #195
      01009AD1H   LINE      CODE     ---       #198
      01009AD1H   LINE      CODE     ---       #199
LX51 LINKER/LOCATER V4.64.0.0                                                         01/10/2017  17:59:18  PAGE 42


      01009AD1H   LINE      CODE     ---       #201
      01009AD1H   LINE      CODE     ---       #202
      ---         BLOCKEND  ---      ---       LVL=0

      0100C6B7H   BLOCK     CODE     ---       LVL=0
      02000002H   SYMBOL    XDATA    WORD      info_type
      0100C6BFH   BLOCK     CODE     NEAR LAB  LVL=1
      02000004H   SYMBOL    XDATA    ---       packet_string
      ---         BLOCKEND  ---      ---       LVL=1
      0100C6B7H   LINE      CODE     ---       #220
      0100C6BFH   LINE      CODE     ---       #221
      0100C6D2H   LINE      CODE     ---       #225
      0100C6DFH   LINE      CODE     ---       #226
      0100C6DFH   LINE      CODE     ---       #227
      0100C6E8H   LINE      CODE     ---       #228
      0100C6F1H   LINE      CODE     ---       #229
      0100C6F1H   LINE      CODE     ---       #231
      0100C6F1H   LINE      CODE     ---       #232
      0100C6F1H   LINE      CODE     ---       #233
      0100C6F1H   LINE      CODE     ---       #234
      ---         BLOCKEND  ---      ---       LVL=0

      0100261AH   BLOCK     CODE     ---       LVL=0
      02000002H   SYMBOL    XDATA    WORD      index
      01002622H   BLOCK     CODE     NEAR LAB  LVL=1
      02000004H   SYMBOL    XDATA    ---       packet_data
      02000613H   SYMBOL    XDATA    WORD      packet_lenght
      0000002AH   SYMBOL    DATA     BYTE      i
      0000002BH   SYMBOL    DATA     BYTE      string_lenght
      02000615H   SYMBOL    XDATA    LONG      aux_int
      00000007H   SYMBOL    DATA     BYTE      aux_uchar
      02000619H   SYMBOL    XDATA    ---       id_str
      02000628H   SYMBOL    XDATA    ---       pos_pid_str
      02000644H   SYMBOL    XDATA    ---       curr_pid_str
      0200065FH   SYMBOL    XDATA    ---       startup_str
      0200067BH   SYMBOL    XDATA    ---       input_str
      0200069DH   SYMBOL    XDATA    ---       contr_str
      020006C4H   SYMBOL    XDATA    ---       res_str
      020006D5H   SYMBOL    XDATA    ---       m_off_str
      020006EEH   SYMBOL    XDATA    ---       mult_str
      020006FFH   SYMBOL    XDATA    ---       pos_lim_flag_str
      0200071BH   SYMBOL    XDATA    ---       pos_lim_str
      02000738H   SYMBOL    XDATA    ---       max_step_str
      02000753H   SYMBOL    XDATA    ---       curr_limit_str
      02000767H   SYMBOL    XDATA    ---       emg_flag_str
      0200078CH   SYMBOL    XDATA    ---       emg_thr_str
      020007A1H   SYMBOL    XDATA    ---       emg_max_val_str
      020007B6H   SYMBOL    XDATA    ---       emg_max_speed_str
      020007CAH   SYMBOL    XDATA    ---       abs_enc_str
      020007EEH   SYMBOL    XDATA    ---       handle_ratio_str
      02000807H   SYMBOL    XDATA    ---       motor_type_str
      0200081FH   SYMBOL    XDATA    ---       curr_lookup_str
      02000834H   SYMBOL    XDATA    ---       input_mode_menu
      02000897H   SYMBOL    XDATA    ---       control_mode_menu
      020008D6H   SYMBOL    XDATA    ---       yes_no_menu
      0000002CH   SYMBOL    DATA     BYTE      id_str_len
      0000002DH   SYMBOL    DATA     BYTE      pos_pid_str_len
      0000002EH   SYMBOL    DATA     BYTE      curr_pid_str_len
      0000002FH   SYMBOL    DATA     BYTE      res_str_len
      00000030H   SYMBOL    DATA     BYTE      m_off_str_len
      00000031H   SYMBOL    DATA     BYTE      mult_str_len
      00000032H   SYMBOL    DATA     BYTE      pos_lim_str_len
      00000033H   SYMBOL    DATA     BYTE      max_step_str_len
      00000034H   SYMBOL    DATA     BYTE      curr_limit_str_len
      00000035H   SYMBOL    DATA     BYTE      emg_thr_str_len
LX51 LINKER/LOCATER V4.64.0.0                                                         01/10/2017  17:59:18  PAGE 43


      00000036H   SYMBOL    DATA     BYTE      emg_max_val_str_len
      00000037H   SYMBOL    DATA     BYTE      emg_max_speed_str_len
      00000038H   SYMBOL    DATA     BYTE      handle_ratio_str_len
      00000039H   SYMBOL    DATA     BYTE      curr_lookup_str_len
      0000003AH   SYMBOL    DATA     BYTE      input_mode_menu_len
      0000003BH   SYMBOL    DATA     BYTE      control_mode_menu_len
      0000003CH   SYMBOL    DATA     BYTE      yes_no_menu_len
      ---         BLOCKEND  ---      ---       LVL=1
      0100261AH   LINE      CODE     ---       #240
      01002622H   LINE      CODE     ---       #242
      01002635H   LINE      CODE     ---       #243
      0100263FH   LINE      CODE     ---       #252
      01002651H   LINE      CODE     ---       #253
      01002664H   LINE      CODE     ---       #254
      01002677H   LINE      CODE     ---       #255
      0100268AH   LINE      CODE     ---       #256
      0100269DH   LINE      CODE     ---       #257
      010026B0H   LINE      CODE     ---       #258
      010026C3H   LINE      CODE     ---       #259
      010026D6H   LINE      CODE     ---       #260
      010026E9H   LINE      CODE     ---       #261
      010026FCH   LINE      CODE     ---       #262
      0100270FH   LINE      CODE     ---       #263
      01002722H   LINE      CODE     ---       #264
      01002735H   LINE      CODE     ---       #265
      01002748H   LINE      CODE     ---       #266
      0100275BH   LINE      CODE     ---       #267
      0100276EH   LINE      CODE     ---       #268
      01002781H   LINE      CODE     ---       #269
      01002794H   LINE      CODE     ---       #270
      010027A7H   LINE      CODE     ---       #271
      010027BAH   LINE      CODE     ---       #272
      010027CDH   LINE      CODE     ---       #275
      010027E0H   LINE      CODE     ---       #276
      010027F3H   LINE      CODE     ---       #277
      01002806H   LINE      CODE     ---       #280
      01002811H   LINE      CODE     ---       #281
      0100281CH   LINE      CODE     ---       #282
      01002827H   LINE      CODE     ---       #284
      01002832H   LINE      CODE     ---       #285
      0100283DH   LINE      CODE     ---       #286
      01002848H   LINE      CODE     ---       #288
      01002853H   LINE      CODE     ---       #289
      0100285EH   LINE      CODE     ---       #290
      01002869H   LINE      CODE     ---       #292
      01002874H   LINE      CODE     ---       #293
      0100287FH   LINE      CODE     ---       #294
      0100288AH   LINE      CODE     ---       #296
      01002895H   LINE      CODE     ---       #297
      010028A0H   LINE      CODE     ---       #298
      010028ABH   LINE      CODE     ---       #299
      010028B6H   LINE      CODE     ---       #300
      010028C1H   LINE      CODE     ---       #302
      010028C7H   LINE      CODE     ---       #303
      010028CBH   LINE      CODE     ---       #305
      0100292BH   LINE      CODE     ---       #306
      0100292BH   LINE      CODE     ---       #309
      01002931H   LINE      CODE     ---       #310
      01002934H   LINE      CODE     ---       #311
      0100293CH   LINE      CODE     ---       #312
      01002943H   LINE      CODE     ---       #313
      01002975H   LINE      CODE     ---       #317
      0100297BH   LINE      CODE     ---       #318
      0100297FH   LINE      CODE     ---       #319
      01002987H   LINE      CODE     ---       #320
LX51 LINKER/LOCATER V4.64.0.0                                                         01/10/2017  17:59:18  PAGE 44


      010029A9H   LINE      CODE     ---       #321
      010029CBH   LINE      CODE     ---       #322
      010029EDH   LINE      CODE     ---       #323
      010029EFH   LINE      CODE     ---       #324
      010029EFH   LINE      CODE     ---       #325
      01002A11H   LINE      CODE     ---       #326
      01002A33H   LINE      CODE     ---       #327
      01002A55H   LINE      CODE     ---       #328
      01002A55H   LINE      CODE     ---       #330
      01002A5CH   LINE      CODE     ---       #331
      01002A8EH   LINE      CODE     ---       #335
      01002A94H   LINE      CODE     ---       #336
      01002A98H   LINE      CODE     ---       #337
      01002AA0H   LINE      CODE     ---       #338
      01002AC2H   LINE      CODE     ---       #339
      01002AE4H   LINE      CODE     ---       #340
      01002B06H   LINE      CODE     ---       #341
      01002B08H   LINE      CODE     ---       #342
      01002B08H   LINE      CODE     ---       #343
      01002B2AH   LINE      CODE     ---       #344
      01002B4CH   LINE      CODE     ---       #345
      01002B6EH   LINE      CODE     ---       #346
      01002B6EH   LINE      CODE     ---       #348
      01002B75H   LINE      CODE     ---       #349
      01002BA7H   LINE      CODE     ---       #353
      01002BACH   LINE      CODE     ---       #354
      01002BAFH   LINE      CODE     ---       #355
      01002BB7H   LINE      CODE     ---       #356
      01002BBCH   LINE      CODE     ---       #357
      01002BD3H   LINE      CODE     ---       #358
      01002BD6H   LINE      CODE     ---       #359
      01002BD8H   LINE      CODE     ---       #360
      01002BD8H   LINE      CODE     ---       #361
      01002BEFH   LINE      CODE     ---       #362
      01002BF2H   LINE      CODE     ---       #363
      01002BF2H   LINE      CODE     ---       #364
      01002BF9H   LINE      CODE     ---       #365
      01002C2BH   LINE      CODE     ---       #367
      01002C39H   LINE      CODE     ---       #371
      01002C3EH   LINE      CODE     ---       #372
      01002C41H   LINE      CODE     ---       #373
      01002C49H   LINE      CODE     ---       #374
      01002C65H   LINE      CODE     ---       #375
      01002C65H   LINE      CODE     ---       #376
      01002C7CH   LINE      CODE     ---       #377
      01002C7FH   LINE      CODE     ---       #378
      01002C82H   LINE      CODE     ---       #379
      01002C82H   LINE      CODE     ---       #380
      01002C99H   LINE      CODE     ---       #381
      01002C9CH   LINE      CODE     ---       #382
      01002C9EH   LINE      CODE     ---       #383
      01002C9EH   LINE      CODE     ---       #384
      01002CB5H   LINE      CODE     ---       #385
      01002CB8H   LINE      CODE     ---       #386
      01002CBAH   LINE      CODE     ---       #387
      01002CBAH   LINE      CODE     ---       #388
      01002CD1H   LINE      CODE     ---       #389
      01002CD4H   LINE      CODE     ---       #390
      01002CD6H   LINE      CODE     ---       #391
      01002CD6H   LINE      CODE     ---       #392
      01002CEDH   LINE      CODE     ---       #393
      01002CF0H   LINE      CODE     ---       #394
      01002CF2H   LINE      CODE     ---       #395
      01002CF2H   LINE      CODE     ---       #396
      01002D09H   LINE      CODE     ---       #397
LX51 LINKER/LOCATER V4.64.0.0                                                         01/10/2017  17:59:18  PAGE 45


      01002D0CH   LINE      CODE     ---       #398
      01002D0CH   LINE      CODE     ---       #399
      01002D0CH   LINE      CODE     ---       #400
      01002D13H   LINE      CODE     ---       #401
      01002D45H   LINE      CODE     ---       #403
      01002D53H   LINE      CODE     ---       #407
      01002D58H   LINE      CODE     ---       #408
      01002D5BH   LINE      CODE     ---       #409
      01002D63H   LINE      CODE     ---       #410
      01002D73H   LINE      CODE     ---       #411
      01002D73H   LINE      CODE     ---       #412
      01002D8AH   LINE      CODE     ---       #413
      01002D8DH   LINE      CODE     ---       #414
      01002D8FH   LINE      CODE     ---       #415
      01002D8FH   LINE      CODE     ---       #416
      01002DA6H   LINE      CODE     ---       #417
      01002DA9H   LINE      CODE     ---       #418
      01002DABH   LINE      CODE     ---       #419
      01002DABH   LINE      CODE     ---       #420
      01002DC2H   LINE      CODE     ---       #421
      01002DC5H   LINE      CODE     ---       #422
      01002DC7H   LINE      CODE     ---       #423
      01002DC7H   LINE      CODE     ---       #424
      01002DDEH   LINE      CODE     ---       #425
      01002DE1H   LINE      CODE     ---       #426
      01002DE1H   LINE      CODE     ---       #427
      01002DE1H   LINE      CODE     ---       #428
      01002DE8H   LINE      CODE     ---       #429
      01002E1AH   LINE      CODE     ---       #431
      01002E28H   LINE      CODE     ---       #435
      01002E2CH   LINE      CODE     ---       #436
      01002E2FH   LINE      CODE     ---       #437
      01002E39H   LINE      CODE     ---       #438
      01002E57H   LINE      CODE     ---       #439
      01002E5EH   LINE      CODE     ---       #440
      01002E90H   LINE      CODE     ---       #444
      01002E96H   LINE      CODE     ---       #445
      01002E98H   LINE      CODE     ---       #446
      01002EA2H   LINE      CODE     ---       #447
      01002EE6H   LINE      CODE     ---       #448
      01002EEDH   LINE      CODE     ---       #449
      01002F1FH   LINE      CODE     ---       #453
      01002F25H   LINE      CODE     ---       #454
      01002F29H   LINE      CODE     ---       #455
      01002F33H   LINE      CODE     ---       #456
      01002F64H   LINE      CODE     ---       #457
      01002F6BH   LINE      CODE     ---       #458
      01002F9DH   LINE      CODE     ---       #462
      01002FA2H   LINE      CODE     ---       #463
      01002FA5H   LINE      CODE     ---       #464
      01002FADH   LINE      CODE     ---       #465
      01002FB2H   LINE      CODE     ---       #466
      01002FC9H   LINE      CODE     ---       #467
      01002FCCH   LINE      CODE     ---       #468
      01002FCEH   LINE      CODE     ---       #469
      01002FCEH   LINE      CODE     ---       #470
      01002FE5H   LINE      CODE     ---       #471
      01002FE8H   LINE      CODE     ---       #472
      01002FE8H   LINE      CODE     ---       #473
      01002FEFH   LINE      CODE     ---       #474
      01003021H   LINE      CODE     ---       #476
      0100302FH   LINE      CODE     ---       #480
      01003035H   LINE      CODE     ---       #481
      01003039H   LINE      CODE     ---       #482
      01003046H   LINE      CODE     ---       #483
LX51 LINKER/LOCATER V4.64.0.0                                                         01/10/2017  17:59:18  PAGE 46


      01003084H   LINE      CODE     ---       #484
      010030C2H   LINE      CODE     ---       #485
      010030C7H   LINE      CODE     ---       #486
      010030CEH   LINE      CODE     ---       #487
      01003100H   LINE      CODE     ---       #491
      01003106H   LINE      CODE     ---       #492
      0100310AH   LINE      CODE     ---       #493
      0100311EH   LINE      CODE     ---       #494
      01003132H   LINE      CODE     ---       #495
      01003139H   LINE      CODE     ---       #496
      0100316BH   LINE      CODE     ---       #500
      01003171H   LINE      CODE     ---       #501
      01003175H   LINE      CODE     ---       #502
      01003184H   LINE      CODE     ---       #503
      0100318BH   LINE      CODE     ---       #504
      010031BDH   LINE      CODE     ---       #508
      010031C2H   LINE      CODE     ---       #509
      010031C5H   LINE      CODE     ---       #510
      010031CDH   LINE      CODE     ---       #511
      010031D2H   LINE      CODE     ---       #512
      010031E9H   LINE      CODE     ---       #513
      010031ECH   LINE      CODE     ---       #514
      010031EEH   LINE      CODE     ---       #515
      010031EEH   LINE      CODE     ---       #516
      01003205H   LINE      CODE     ---       #517
      01003208H   LINE      CODE     ---       #518
      01003208H   LINE      CODE     ---       #519
      0100320FH   LINE      CODE     ---       #520
      01003241H   LINE      CODE     ---       #522
      0100324FH   LINE      CODE     ---       #526
      01003254H   LINE      CODE     ---       #527
      01003258H   LINE      CODE     ---       #528
      01003267H   LINE      CODE     ---       #529
      01003276H   LINE      CODE     ---       #530
      0100327DH   LINE      CODE     ---       #531
      010032AFH   LINE      CODE     ---       #535
      010032B5H   LINE      CODE     ---       #536
      010032B9H   LINE      CODE     ---       #537
      010032CDH   LINE      CODE     ---       #538
      010032E1H   LINE      CODE     ---       #539
      010032E8H   LINE      CODE     ---       #540
      0100331AH   LINE      CODE     ---       #544
      01003320H   LINE      CODE     ---       #545
      01003323H   LINE      CODE     ---       #546
      0100332BH   LINE      CODE     ---       #547
      01003332H   LINE      CODE     ---       #548
      01003364H   LINE      CODE     ---       #552
      01003369H   LINE      CODE     ---       #553
      0100336CH   LINE      CODE     ---       #554
      01003374H   LINE      CODE     ---       #555
      01003379H   LINE      CODE     ---       #556
      01003390H   LINE      CODE     ---       #557
      01003393H   LINE      CODE     ---       #558
      01003395H   LINE      CODE     ---       #559
      01003395H   LINE      CODE     ---       #560
      010033ACH   LINE      CODE     ---       #561
      010033AFH   LINE      CODE     ---       #562
      010033AFH   LINE      CODE     ---       #563
      010033B6H   LINE      CODE     ---       #564
      010033E8H   LINE      CODE     ---       #566
      010033F6H   LINE      CODE     ---       #570
      010033FCH   LINE      CODE     ---       #571
      010033FEH   LINE      CODE     ---       #572
      01003406H   LINE      CODE     ---       #573
      0100340DH   LINE      CODE     ---       #574
LX51 LINKER/LOCATER V4.64.0.0                                                         01/10/2017  17:59:18  PAGE 47


      0100343FH   LINE      CODE     ---       #578
      01003444H   LINE      CODE     ---       #579
      01003447H   LINE      CODE     ---       #580
      0100344FH   LINE      CODE     ---       #581
      01003454H   LINE      CODE     ---       #582
      0100346BH   LINE      CODE     ---       #583
      0100346EH   LINE      CODE     ---       #584
      01003470H   LINE      CODE     ---       #585
      01003470H   LINE      CODE     ---       #586
      01003487H   LINE      CODE     ---       #587
      0100348AH   LINE      CODE     ---       #588
      0100348AH   LINE      CODE     ---       #589
      01003491H   LINE      CODE     ---       #590
      010034C3H   LINE      CODE     ---       #592
      010034D1H   LINE      CODE     ---       #596
      010034D7H   LINE      CODE     ---       #597
      010034DAH   LINE      CODE     ---       #598
      010034E4H   LINE      CODE     ---       #599
      01003515H   LINE      CODE     ---       #600
      0100351CH   LINE      CODE     ---       #601
      0100354EH   LINE      CODE     ---       #605
      01003555H   LINE      CODE     ---       #606
      01003587H   LINE      CODE     ---       #608
      0100358EH   LINE      CODE     ---       #609
      010035C0H   LINE      CODE     ---       #611
      010035C7H   LINE      CODE     ---       #612
      010035F9H   LINE      CODE     ---       #614
      0100361DH   LINE      CODE     ---       #615
      01003626H   LINE      CODE     ---       #616
      01003627H   LINE      CODE     ---       #619
      01003627H   LINE      CODE     ---       #620
      0100362FH   LINE      CODE     ---       #621
      01003630H   LINE      CODE     ---       #624
      01003630H   LINE      CODE     ---       #625
      01003638H   LINE      CODE     ---       #626
      01003659H   LINE      CODE     ---       #627
      0100367AH   LINE      CODE     ---       #628
      0100369BH   LINE      CODE     ---       #629
      0100369CH   LINE      CODE     ---       #630
      0100369CH   LINE      CODE     ---       #631
      010036BDH   LINE      CODE     ---       #632
      010036DEH   LINE      CODE     ---       #633
      010036FFH   LINE      CODE     ---       #634
      010036FFH   LINE      CODE     ---       #635
      01003700H   LINE      CODE     ---       #638
      01003700H   LINE      CODE     ---       #639
      01003708H   LINE      CODE     ---       #640
      01003729H   LINE      CODE     ---       #641
      0100374AH   LINE      CODE     ---       #642
      0100376BH   LINE      CODE     ---       #643
      0100376CH   LINE      CODE     ---       #644
      0100376CH   LINE      CODE     ---       #645
      0100378DH   LINE      CODE     ---       #646
      010037AEH   LINE      CODE     ---       #647
      010037CFH   LINE      CODE     ---       #648
      010037CFH   LINE      CODE     ---       #650
      010037D0H   LINE      CODE     ---       #653
      010037D0H   LINE      CODE     ---       #654
      010037D6H   LINE      CODE     ---       #655
      010037DDH   LINE      CODE     ---       #657
      010037E2H   LINE      CODE     ---       #658
      010037E3H   LINE      CODE     ---       #661
      010037E3H   LINE      CODE     ---       #662
      010037EBH   LINE      CODE     ---       #663
      010037ECH   LINE      CODE     ---       #666
LX51 LINKER/LOCATER V4.64.0.0                                                         01/10/2017  17:59:18  PAGE 48


      010037ECH   LINE      CODE     ---       #667
      010037F4H   LINE      CODE     ---       #668
      010037F5H   LINE      CODE     ---       #671
      010037F5H   LINE      CODE     ---       #672
      01003802H   LINE      CODE     ---       #673
      0100381CH   LINE      CODE     ---       #674
      01003820H   LINE      CODE     ---       #675
      01003820H   LINE      CODE     ---       #678
      01003820H   LINE      CODE     ---       #679
      0100382AH   LINE      CODE     ---       #680
      01003854H   LINE      CODE     ---       #681
      0100388AH   LINE      CODE     ---       #683
      01003897H   LINE      CODE     ---       #684
      0100389BH   LINE      CODE     ---       #685
      0100389DH   LINE      CODE     ---       #686
      0100389EH   LINE      CODE     ---       #689
      0100389EH   LINE      CODE     ---       #690
      010038ABH   LINE      CODE     ---       #691
      010038DBH   LINE      CODE     ---       #692
      010038DBH   LINE      CODE     ---       #695
      010038DBH   LINE      CODE     ---       #696
      010038E3H   LINE      CODE     ---       #697
      010038E4H   LINE      CODE     ---       #700
      010038E4H   LINE      CODE     ---       #701
      010038F1H   LINE      CODE     ---       #702
      0100391DH   LINE      CODE     ---       #703
      01003949H   LINE      CODE     ---       #705
      0100397FH   LINE      CODE     ---       #706
      010039B5H   LINE      CODE     ---       #707
      010039BAH   LINE      CODE     ---       #708
      010039BAH   LINE      CODE     ---       #711
      010039BAH   LINE      CODE     ---       #712
      010039CEH   LINE      CODE     ---       #713
      010039E7H   LINE      CODE     ---       #714
      010039FBH   LINE      CODE     ---       #716
      01003A0FH   LINE      CODE     ---       #717
      01003A2BH   LINE      CODE     ---       #718
      01003A3FH   LINE      CODE     ---       #720
      01003A40H   LINE      CODE     ---       #723
      01003A40H   LINE      CODE     ---       #724
      01003A4FH   LINE      CODE     ---       #725
      01003A50H   LINE      CODE     ---       #728
      01003A50H   LINE      CODE     ---       #729
      01003A58H   LINE      CODE     ---       #730
      01003A59H   LINE      CODE     ---       #733
      01003A59H   LINE      CODE     ---       #734
      01003A68H   LINE      CODE     ---       #735
      01003A77H   LINE      CODE     ---       #736
      01003A78H   LINE      CODE     ---       #739
      01003A78H   LINE      CODE     ---       #740
      01003A8CH   LINE      CODE     ---       #741
      01003AA0H   LINE      CODE     ---       #742
      01003AA1H   LINE      CODE     ---       #745
      01003AA1H   LINE      CODE     ---       #746
      01003AA9H   LINE      CODE     ---       #747
      01003AAAH   LINE      CODE     ---       #750
      01003AAAH   LINE      CODE     ---       #751
      01003AAFH   LINE      CODE     ---       #752
      01003AB1H   LINE      CODE     ---       #753
      01003AB7H   LINE      CODE     ---       #754
      01003AB8H   LINE      CODE     ---       #755
      01003ABDH   LINE      CODE     ---       #756
      01003ABDH   LINE      CODE     ---       #757
      01003ABEH   LINE      CODE     ---       #760
      01003ABEH   LINE      CODE     ---       #761
LX51 LINKER/LOCATER V4.64.0.0                                                         01/10/2017  17:59:18  PAGE 49


      01003AC6H   LINE      CODE     ---       #762
      01003AC7H   LINE      CODE     ---       #765
      01003AC7H   LINE      CODE     ---       #766
      01003ACFH   LINE      CODE     ---       #767
      01003AD0H   LINE      CODE     ---       #769
      01003AD0H   LINE      CODE     ---       #770
      01003ADAH   LINE      CODE     ---       #771
      01003B0AH   LINE      CODE     ---       #772
      01003B0AH   LINE      CODE     ---       #773
      01003B0AH   LINE      CODE     ---       #774
      ---         BLOCKEND  ---      ---       LVL=0

      0100B6BBH   BLOCK     CODE     ---       LVL=0
      0100B6BBH   BLOCK     CODE     NEAR LAB  LVL=1
      0000002AH   SYMBOL    DATA     BYTE      i
      ---         BLOCKEND  ---      ---       LVL=1
      0100B6BBH   LINE      CODE     ---       #780
      0100B6BBH   LINE      CODE     ---       #781
      0100B6BBH   LINE      CODE     ---       #784
      0100B6C5H   LINE      CODE     ---       #785
      0100B6EFH   LINE      CODE     ---       #786
      0100B725H   LINE      CODE     ---       #788
      0100B732H   LINE      CODE     ---       #789
      0100B736H   LINE      CODE     ---       #790
      0100B738H   LINE      CODE     ---       #792
      0100B73DH   LINE      CODE     ---       #793
      ---         BLOCKEND  ---      ---       LVL=0

      01003B0BH   BLOCK     CODE     ---       LVL=0
      02000450H   SYMBOL    XDATA    ---       info_string
      01003B16H   BLOCK     CODE     NEAR LAB  LVL=1
      02000453H   SYMBOL    XDATA    INT       i
      01003B21H   BLOCK     CODE     NEAR LAB  LVL=2
      02000455H   SYMBOL    XDATA    ---       str
      ---         BLOCKEND  ---      ---       LVL=2
      ---         BLOCKEND  ---      ---       LVL=1
      01003B0BH   LINE      CODE     ---       #799
      01003B16H   LINE      CODE     ---       #800
      01003B16H   LINE      CODE     ---       #802
      01003B21H   LINE      CODE     ---       #804
      01003B39H   LINE      CODE     ---       #805
      01003B55H   LINE      CODE     ---       #806
      01003B71H   LINE      CODE     ---       #807
      01003B8DH   LINE      CODE     ---       #808
      01003BA9H   LINE      CODE     ---       #810
      01003BC5H   LINE      CODE     ---       #811
      01003BE9H   LINE      CODE     ---       #812
      01003C05H   LINE      CODE     ---       #813
      01003C21H   LINE      CODE     ---       #814
      01003C28H   LINE      CODE     ---       #815
      01003C46H   LINE      CODE     ---       #817
      01003C62H   LINE      CODE     ---       #819
      01003C86H   LINE      CODE     ---       #820
      01003CA2H   LINE      CODE     ---       #821
      01003CBEH   LINE      CODE     ---       #823
      01003CDAH   LINE      CODE     ---       #824
      01003CF6H   LINE      CODE     ---       #826
      01003CFDH   LINE      CODE     ---       #827
      01003D1BH   LINE      CODE     ---       #828
      01003D1BH   LINE      CODE     ---       #829
      01003D22H   LINE      CODE     ---       #830
      01003D40H   LINE      CODE     ---       #832
      01003D5CH   LINE      CODE     ---       #833
      01003D5CH   LINE      CODE     ---       #835
      01003D77H   LINE      CODE     ---       #836
LX51 LINKER/LOCATER V4.64.0.0                                                         01/10/2017  17:59:18  PAGE 50


      01003D7FH   LINE      CODE     ---       #837
      01003DBFH   LINE      CODE     ---       #838
      01003DDBH   LINE      CODE     ---       #839
      01003DDEH   LINE      CODE     ---       #840
      01003DDEH   LINE      CODE     ---       #841
      01003DE6H   LINE      CODE     ---       #842
      01003E26H   LINE      CODE     ---       #843
      01003E42H   LINE      CODE     ---       #844
      01003E44H   LINE      CODE     ---       #845
      01003E44H   LINE      CODE     ---       #846
      01003E9AH   LINE      CODE     ---       #847
      01003EB6H   LINE      CODE     ---       #848
      01003EB6H   LINE      CODE     ---       #849
      01003EB6H   LINE      CODE     ---       #850
      01003EC7H   LINE      CODE     ---       #851
      01003EE3H   LINE      CODE     ---       #852
      01003EFFH   LINE      CODE     ---       #854
      01003F16H   LINE      CODE     ---       #855
      01003F1EH   LINE      CODE     ---       #856
      01003F35H   LINE      CODE     ---       #857
      01003F37H   LINE      CODE     ---       #858
      01003F4EH   LINE      CODE     ---       #859
      01003F4EH   LINE      CODE     ---       #860
      01003F6AH   LINE      CODE     ---       #862
      01003F86H   LINE      CODE     ---       #863
      01003FA2H   LINE      CODE     ---       #864
      01003FBDH   LINE      CODE     ---       #866
      01004026H   LINE      CODE     ---       #867
      01004042H   LINE      CODE     ---       #868
      0100405EH   LINE      CODE     ---       #869
      0100406FH   LINE      CODE     ---       #871
      0100409AH   LINE      CODE     ---       #872
      010040B6H   LINE      CODE     ---       #873
      010040D2H   LINE      CODE     ---       #875
      010040FDH   LINE      CODE     ---       #876
      01004119H   LINE      CODE     ---       #877
      01004135H   LINE      CODE     ---       #880
      01004151H   LINE      CODE     ---       #882
      0100416DH   LINE      CODE     ---       #883
      01004178H   LINE      CODE     ---       #884
      010041B1H   LINE      CODE     ---       #885
      010041CDH   LINE      CODE     ---       #886
      01004206H   LINE      CODE     ---       #887
      01004222H   LINE      CODE     ---       #888
      0100425BH   LINE      CODE     ---       #889
      01004277H   LINE      CODE     ---       #890
      0100427AH   LINE      CODE     ---       #891
      0100427AH   LINE      CODE     ---       #892
      010042B3H   LINE      CODE     ---       #893
      010042CFH   LINE      CODE     ---       #894
      01004308H   LINE      CODE     ---       #895
      01004324H   LINE      CODE     ---       #896
      0100435DH   LINE      CODE     ---       #897
      01004379H   LINE      CODE     ---       #898
      01004379H   LINE      CODE     ---       #900
      01004395H   LINE      CODE     ---       #901
      010043A0H   LINE      CODE     ---       #902
      010043D9H   LINE      CODE     ---       #903
      010043F5H   LINE      CODE     ---       #904
      0100442EH   LINE      CODE     ---       #905
      0100444AH   LINE      CODE     ---       #906
      01004483H   LINE      CODE     ---       #907
      0100449FH   LINE      CODE     ---       #908
      010044A2H   LINE      CODE     ---       #909
      010044A2H   LINE      CODE     ---       #910
LX51 LINKER/LOCATER V4.64.0.0                                                         01/10/2017  17:59:18  PAGE 51


      010044DBH   LINE      CODE     ---       #911
      010044F7H   LINE      CODE     ---       #912
      01004530H   LINE      CODE     ---       #913
      0100454CH   LINE      CODE     ---       #914
      01004585H   LINE      CODE     ---       #915
      010045A1H   LINE      CODE     ---       #916
      010045A1H   LINE      CODE     ---       #918
      010045BDH   LINE      CODE     ---       #921
      010045C4H   LINE      CODE     ---       #922
      010045E0H   LINE      CODE     ---       #923
      010045E2H   LINE      CODE     ---       #924
      010045FEH   LINE      CODE     ---       #925
      010045FEH   LINE      CODE     ---       #927
      0100461EH   LINE      CODE     ---       #928
      0100461EH   LINE      CODE     ---       #929
      0100463AH   LINE      CODE     ---       #930
      0100463DH   LINE      CODE     ---       #931
      0100463DH   LINE      CODE     ---       #932
      01004659H   LINE      CODE     ---       #933
      0100465BH   LINE      CODE     ---       #934
      0100465BH   LINE      CODE     ---       #935
      01004677H   LINE      CODE     ---       #936
      01004679H   LINE      CODE     ---       #937
      01004679H   LINE      CODE     ---       #938
      01004695H   LINE      CODE     ---       #939
      01004697H   LINE      CODE     ---       #940
      01004697H   LINE      CODE     ---       #941
      010046B3H   LINE      CODE     ---       #942
      010046B5H   LINE      CODE     ---       #943
      010046B5H   LINE      CODE     ---       #944
      010046D1H   LINE      CODE     ---       #945
      010046D1H   LINE      CODE     ---       #946
      010046D1H   LINE      CODE     ---       #948
      010046E2H   LINE      CODE     ---       #949
      010046E2H   LINE      CODE     ---       #950
      010046FEH   LINE      CODE     ---       #951
      01004700H   LINE      CODE     ---       #952
      01004700H   LINE      CODE     ---       #953
      0100471CH   LINE      CODE     ---       #954
      0100471EH   LINE      CODE     ---       #955
      0100471EH   LINE      CODE     ---       #956
      0100473AH   LINE      CODE     ---       #957
      0100473CH   LINE      CODE     ---       #958
      0100473CH   LINE      CODE     ---       #959
      01004758H   LINE      CODE     ---       #960
      01004758H   LINE      CODE     ---       #961
      01004758H   LINE      CODE     ---       #962
      01004758H   LINE      CODE     ---       #963
      01004758H   LINE      CODE     ---       #965
      0100475EH   LINE      CODE     ---       #966
      0100477AH   LINE      CODE     ---       #967
      0100477CH   LINE      CODE     ---       #968
      01004798H   LINE      CODE     ---       #969
      01004798H   LINE      CODE     ---       #971
      010047BEH   LINE      CODE     ---       #972
      010047DAH   LINE      CODE     ---       #976
      010047F6H   LINE      CODE     ---       #977
      01004811H   LINE      CODE     ---       #978
      01004850H   LINE      CODE     ---       #979
      0100486CH   LINE      CODE     ---       #980
      01004888H   LINE      CODE     ---       #981
      01004899H   LINE      CODE     ---       #984
      010048B5H   LINE      CODE     ---       #985
      010048D0H   LINE      CODE     ---       #986
      01004937H   LINE      CODE     ---       #987
LX51 LINKER/LOCATER V4.64.0.0                                                         01/10/2017  17:59:18  PAGE 52


      01004953H   LINE      CODE     ---       #988
      0100496FH   LINE      CODE     ---       #989
      01004980H   LINE      CODE     ---       #991
      0100499CH   LINE      CODE     ---       #992
      010049B7H   LINE      CODE     ---       #993
      01004A08H   LINE      CODE     ---       #994
      01004A24H   LINE      CODE     ---       #995
      01004A40H   LINE      CODE     ---       #996
      01004A51H   LINE      CODE     ---       #998
      01004A6DH   LINE      CODE     ---       #999
      01004AC0H   LINE      CODE     ---       #1000
      01004ADCH   LINE      CODE     ---       #1001
      01004B2FH   LINE      CODE     ---       #1002
      01004B4BH   LINE      CODE     ---       #1003
      01004B67H   LINE      CODE     ---       #1006
      01004B8BH   LINE      CODE     ---       #1007
      01004BA7H   LINE      CODE     ---       #1008
      01004BC3H   LINE      CODE     ---       #1010
      01004BDEH   LINE      CODE     ---       #1012
      01004C45H   LINE      CODE     ---       #1013
      01004C61H   LINE      CODE     ---       #1016
      01004CB5H   LINE      CODE     ---       #1017
      01004CD1H   LINE      CODE     ---       #1018
      01004CE2H   LINE      CODE     ---       #1020
      01004D1FH   LINE      CODE     ---       #1021
      01004D3BH   LINE      CODE     ---       #1022
      01004D57H   LINE      CODE     ---       #1024
      01004D7DH   LINE      CODE     ---       #1025
      01004D99H   LINE      CODE     ---       #1026
      01004DB5H   LINE      CODE     ---       #1028
      01004DEAH   LINE      CODE     ---       #1029
      01004E06H   LINE      CODE     ---       #1030
      01004E22H   LINE      CODE     ---       #1032
      01004E61H   LINE      CODE     ---       #1033
      01004E7DH   LINE      CODE     ---       #1034
      01004E99H   LINE      CODE     ---       #1036
      01004E9FH   LINE      CODE     ---       #1037
      01004EBBH   LINE      CODE     ---       #1038
      01004EBDH   LINE      CODE     ---       #1039
      01004ED9H   LINE      CODE     ---       #1040
      01004ED9H   LINE      CODE     ---       #1042
      01004EFDH   LINE      CODE     ---       #1043
      01004F19H   LINE      CODE     ---       #1044
      01004F35H   LINE      CODE     ---       #1046
      01004F79H   LINE      CODE     ---       #1047
      01004F95H   LINE      CODE     ---       #1048
      01004FB1H   LINE      CODE     ---       #1049
      01004FB1H   LINE      CODE     ---       #1050
      ---         BLOCKEND  ---      ---       LVL=0

      0100B386H   BLOCK     CODE     ---       LVL=0
      02000012H   SYMBOL    XDATA    ---       packet_data
      02000015H   SYMBOL    XDATA    WORD      packet_lenght
      02000017H   SYMBOL    XDATA    BYTE      old_id
      0100B397H   BLOCK     CODE     NEAR LAB  LVL=1
      0000002EH   SYMBOL    DATA     WORD      index
      ---         BLOCKEND  ---      ---       LVL=1
      0100B386H   LINE      CODE     ---       #1056
      0100B397H   LINE      CODE     ---       #1057
      0100B397H   LINE      CODE     ---       #1061
      0100B39CH   LINE      CODE     ---       #1062
      0100B3A1H   LINE      CODE     ---       #1065
      0100B3A9H   LINE      CODE     ---       #1070
      0100B3B3H   LINE      CODE     ---       #1072
      0100B3C7H   LINE      CODE     ---       #1073
LX51 LINKER/LOCATER V4.64.0.0                                                         01/10/2017  17:59:18  PAGE 53


      0100B3DFH   LINE      CODE     ---       #1074
      0100B3E9H   LINE      CODE     ---       #1076
      0100B3EEH   LINE      CODE     ---       #1078
      0100B408H   LINE      CODE     ---       #1080
      0100B40DH   LINE      CODE     ---       #1081
      0100B412H   LINE      CODE     ---       #1082
      ---         BLOCKEND  ---      ---       LVL=0

      0100B413H   BLOCK     CODE     ---       LVL=0
      02000900H   SYMBOL    XDATA    ---       packet_data
      02000903H   SYMBOL    XDATA    WORD      packet_lenght
      0100B424H   BLOCK     CODE     NEAR LAB  LVL=1
      0000003DH   SYMBOL    DATA     WORD      index
      ---         BLOCKEND  ---      ---       LVL=1
      0100B413H   LINE      CODE     ---       #1084
      0100B424H   LINE      CODE     ---       #1085
      0100B424H   LINE      CODE     ---       #1089
      0100B429H   LINE      CODE     ---       #1090
      0100B42EH   LINE      CODE     ---       #1092
      0100B436H   LINE      CODE     ---       #1094
      0100B440H   LINE      CODE     ---       #1096
      0100B454H   LINE      CODE     ---       #1097
      0100B46CH   LINE      CODE     ---       #1098
      0100B476H   LINE      CODE     ---       #1100
      0100B47BH   LINE      CODE     ---       #1102
      0100B495H   LINE      CODE     ---       #1104
      0100B49AH   LINE      CODE     ---       #1105
      0100B49FH   LINE      CODE     ---       #1106
      ---         BLOCKEND  ---      ---       LVL=0

      0100B637H   BLOCK     CODE     ---       LVL=0
      0200000DH   SYMBOL    XDATA    ---       packet_data
      02000010H   SYMBOL    XDATA    WORD      packet_lenght
      0100B648H   BLOCK     CODE     NEAR LAB  LVL=1
      00000010H   SYMBOL    DATA     WORD      i
      ---         BLOCKEND  ---      ---       LVL=1
      0100B637H   LINE      CODE     ---       #1112
      0100B648H   LINE      CODE     ---       #1113
      0100B648H   LINE      CODE     ---       #1117
      0100B64DH   LINE      CODE     ---       #1118
      0100B652H   LINE      CODE     ---       #1120
      0100B65BH   LINE      CODE     ---       #1122
      0100B665H   LINE      CODE     ---       #1124
      0100B679H   LINE      CODE     ---       #1125
      0100B691H   LINE      CODE     ---       #1126
      0100B69BH   LINE      CODE     ---       #1128
      0100B6A0H   LINE      CODE     ---       #1130
      0100B6BAH   LINE      CODE     ---       #1131
      ---         BLOCKEND  ---      ---       LVL=0

      0100C8D6H   BLOCK     CODE     ---       LVL=0
      02000900H   SYMBOL    XDATA    ---       data_array
      00000005H   SYMBOL    DATA     BYTE      data_length
      0100C8E1H   BLOCK     CODE     NEAR LAB  LVL=1
      0000003DH   SYMBOL    DATA     BYTE      i
      0000003EH   SYMBOL    DATA     BYTE      checksum
      ---         BLOCKEND  ---      ---       LVL=1
      0100C8D6H   LINE      CODE     ---       #1139
      0100C8E1H   LINE      CODE     ---       #1142
      0100C8E4H   LINE      CODE     ---       #1144
      0100C8ECH   LINE      CODE     ---       #1145
      0100C905H   LINE      CODE     ---       #1147
      0100C907H   LINE      CODE     ---       #1148
      ---         BLOCKEND  ---      ---       LVL=0

LX51 LINKER/LOCATER V4.64.0.0                                                         01/10/2017  17:59:18  PAGE 54


      0100CCBEH   BLOCK     CODE     ---       LVL=0
      00000007H   SYMBOL    DATA     BYTE      value
      0100CCBEH   BLOCK     CODE     NEAR LAB  LVL=1
      00000004H   SYMBOL    DATA     INT       packet_lenght
      02000012H   SYMBOL    XDATA    ---       packet_data
      ---         BLOCKEND  ---      ---       LVL=1
      0100CCBEH   LINE      CODE     ---       #1155
      0100CCBEH   LINE      CODE     ---       #1156
      0100CCC2H   LINE      CODE     ---       #1159
      0100CCC7H   LINE      CODE     ---       #1160
      0100CCC9H   LINE      CODE     ---       #1162
      0100CCD2H   LINE      CODE     ---       #1163
      ---         BLOCKEND  ---      ---       LVL=0

      0100AED6H   BLOCK     CODE     ---       LVL=0
      02000012H   SYMBOL    XDATA    INT       displacement
      0100AEDEH   BLOCK     CODE     NEAR LAB  LVL=1
      02000014H   SYMBOL    XDATA    INT       i
      00000007H   SYMBOL    DATA     BYTE      writeStatus
      02000016H   SYMBOL    XDATA    INT       pages
      02000018H   SYMBOL    XDATA    BYTE      ret_val
      ---         BLOCKEND  ---      ---       LVL=1
      0100AED6H   LINE      CODE     ---       #1170
      0100AEDEH   LINE      CODE     ---       #1171
      0100AEDEH   LINE      CODE     ---       #1175
      0100AEE4H   LINE      CODE     ---       #1178
      0100AEE7H   LINE      CODE     ---       #1181
      0100AEECH   LINE      CODE     ---       #1182
      0100AEF1H   LINE      CODE     ---       #1185
      0100AEF4H   LINE      CODE     ---       #1187
      0100AF07H   LINE      CODE     ---       #1189
      0100AF10H   LINE      CODE     ---       #1191
      0100AF33H   LINE      CODE     ---       #1192
      0100AF58H   LINE      CODE     ---       #1193
      0100AF5BH   LINE      CODE     ---       #1194
      0100AF60H   LINE      CODE     ---       #1195
      0100AF62H   LINE      CODE     ---       #1196
      0100AF62H   LINE      CODE     ---       #1197
      0100AF72H   LINE      CODE     ---       #1199
      0100AF85H   LINE      CODE     ---       #1202
      0100AF88H   LINE      CODE     ---       #1204
      0100AF8DH   LINE      CODE     ---       #1205
      ---         BLOCKEND  ---      ---       LVL=0

      0100C386H   BLOCK     CODE     ---       LVL=0
      0100C386H   BLOCK     CODE     NEAR LAB  LVL=1
      00000006H   SYMBOL    DATA     WORD      i
      ---         BLOCKEND  ---      ---       LVL=1
      0100C386H   LINE      CODE     ---       #1213
      0100C386H   LINE      CODE     ---       #1214
      0100C386H   LINE      CODE     ---       #1217
      0100C392H   LINE      CODE     ---       #1218
      0100C3AEH   LINE      CODE     ---       #1219
      0100C3B5H   LINE      CODE     ---       #1222
      0100C3BBH   LINE      CODE     ---       #1223
      0100C3BEH   LINE      CODE     ---       #1224
      0100C3BFH   LINE      CODE     ---       #1225
      0100C3D2H   LINE      CODE     ---       #1226
      0100C3D2H   LINE      CODE     ---       #1227
      ---         BLOCKEND  ---      ---       LVL=0

      0100C4B1H   BLOCK     CODE     ---       LVL=0
      0100C4B1H   BLOCK     CODE     NEAR LAB  LVL=1
      00000006H   SYMBOL    DATA     WORD      i
      ---         BLOCKEND  ---      ---       LVL=1
LX51 LINKER/LOCATER V4.64.0.0                                                         01/10/2017  17:59:18  PAGE 55


      0100C4B1H   LINE      CODE     ---       #1235
      0100C4B1H   LINE      CODE     ---       #1238
      0100C4BDH   LINE      CODE     ---       #1239
      0100C4E0H   LINE      CODE     ---       #1240
      0100C4E7H   LINE      CODE     ---       #1243
      0100C4EDH   LINE      CODE     ---       #1244
      0100C4F1H   LINE      CODE     ---       #1245
      0100C4F1H   LINE      CODE     ---       #1246
      0100C4F7H   LINE      CODE     ---       #1247
      0100C4F7H   LINE      CODE     ---       #1248
      ---         BLOCKEND  ---      ---       LVL=0

      0100977BH   BLOCK     CODE     ---       LVL=0
      0100977BH   BLOCK     CODE     NEAR LAB  LVL=1
      00000003H   SYMBOL    DATA     BYTE      i
      ---         BLOCKEND  ---      ---       LVL=1
      0100977BH   LINE      CODE     ---       #1254
      0100977BH   LINE      CODE     ---       #1255
      0100977BH   LINE      CODE     ---       #1259
      01009781H   LINE      CODE     ---       #1261
      0100978CH   LINE      CODE     ---       #1262
      01009797H   LINE      CODE     ---       #1263
      010097A4H   LINE      CODE     ---       #1264
      010097B0H   LINE      CODE     ---       #1265
      010097BCH   LINE      CODE     ---       #1266
      010097C7H   LINE      CODE     ---       #1268
      010097D4H   LINE      CODE     ---       #1269
      010097DFH   LINE      CODE     ---       #1270
      010097EAH   LINE      CODE     ---       #1271
      010097F7H   LINE      CODE     ---       #1272
      01009803H   LINE      CODE     ---       #1273
      0100980EH   LINE      CODE     ---       #1275
      01009813H   LINE      CODE     ---       #1276
      01009815H   LINE      CODE     ---       #1277
      01009817H   LINE      CODE     ---       #1279
      0100981CH   LINE      CODE     ---       #1281
      01009821H   LINE      CODE     ---       #1283
      01009827H   LINE      CODE     ---       #1284
      01009829H   LINE      CODE     ---       #1285
      0100982BH   LINE      CODE     ---       #1287
      01009833H   LINE      CODE     ---       #1288
      01009849H   LINE      CODE     ---       #1289
      0100986AH   LINE      CODE     ---       #1290
      0100986DH   LINE      CODE     ---       #1292
      01009875H   LINE      CODE     ---       #1293
      01009875H   LINE      CODE     ---       #1294
      0100988DH   LINE      CODE     ---       #1295
      010098B3H   LINE      CODE     ---       #1296
      010098B6H   LINE      CODE     ---       #1298
      010098C1H   LINE      CODE     ---       #1299
      010098CCH   LINE      CODE     ---       #1301
      010098D6H   LINE      CODE     ---       #1304
      010098DBH   LINE      CODE     ---       #1306
      010098E3H   LINE      CODE     ---       #1307
      010098EEH   LINE      CODE     ---       #1309
      010098F7H   LINE      CODE     ---       #1310
      010098FEH   LINE      CODE     ---       #1312
      01009902H   LINE      CODE     ---       #1314
      01009906H   LINE      CODE     ---       #1315
      0100990AH   LINE      CODE     ---       #1318
      01009910H   LINE      CODE     ---       #1321
      01009929H   LINE      CODE     ---       #1322
      ---         BLOCKEND  ---      ---       LVL=0

      0100BF8BH   BLOCK     CODE     ---       LVL=0
LX51 LINKER/LOCATER V4.64.0.0                                                         01/10/2017  17:59:18  PAGE 56


      0100BF8BH   BLOCK     CODE     NEAR LAB  LVL=1
      0000002AH   SYMBOL    DATA     BYTE      index
      02000002H   SYMBOL    XDATA    ---       packet_data
      ---         BLOCKEND  ---      ---       LVL=1
      0100BF8BH   LINE      CODE     ---       #1331
      0100BF8BH   LINE      CODE     ---       #1340
      0100BF91H   LINE      CODE     ---       #1342
      0100BF9BH   LINE      CODE     ---       #1343
      0100BFDAH   LINE      CODE     ---       #1347
      0100BFEAH   LINE      CODE     ---       #1349
      0100BFF6H   LINE      CODE     ---       #1351
      ---         BLOCKEND  ---      ---       LVL=0

      010095C7H   BLOCK     CODE     ---       LVL=0
      010095C7H   LINE      CODE     ---       #1353
      010095C7H   LINE      CODE     ---       #1357
      010095CFH   LINE      CODE     ---       #1358
      010095E3H   LINE      CODE     ---       #1359
      010095F7H   LINE      CODE     ---       #1360
      010095FAH   LINE      CODE     ---       #1361
      010095FAH   LINE      CODE     ---       #1362
      010095FEH   LINE      CODE     ---       #1363
      01009612H   LINE      CODE     ---       #1364
      01009626H   LINE      CODE     ---       #1365
      01009628H   LINE      CODE     ---       #1366
      01009628H   LINE      CODE     ---       #1367
      0100963CH   LINE      CODE     ---       #1368
      01009659H   LINE      CODE     ---       #1370
      0100966DH   LINE      CODE     ---       #1371
      0100968AH   LINE      CODE     ---       #1372
      0100968AH   LINE      CODE     ---       #1373
      0100968AH   LINE      CODE     ---       #1377
      010096A2H   LINE      CODE     ---       #1379
      010096A2H   LINE      CODE     ---       #1381
      010096C4H   LINE      CODE     ---       #1382
      010096D8H   LINE      CODE     ---       #1383
      010096FAH   LINE      CODE     ---       #1384
      0100970EH   LINE      CODE     ---       #1386
      01009730H   LINE      CODE     ---       #1387
      01009744H   LINE      CODE     ---       #1388
      01009766H   LINE      CODE     ---       #1389
      0100977AH   LINE      CODE     ---       #1390
      0100977AH   LINE      CODE     ---       #1391
      ---         BLOCKEND  ---      ---       LVL=0

      0100C53CH   BLOCK     CODE     ---       LVL=0
      0100C53CH   LINE      CODE     ---       #1393
      0100C53CH   LINE      CODE     ---       #1396
      0100C544H   LINE      CODE     ---       #1399
      0100C54EH   LINE      CODE     ---       #1400
      0100C562H   LINE      CODE     ---       #1401
      0100C576H   LINE      CODE     ---       #1402
      0100C576H   LINE      CODE     ---       #1405
      0100C57EH   LINE      CODE     ---       #1406
      ---         BLOCKEND  ---      ---       LVL=0

      0100CA21H   BLOCK     CODE     ---       LVL=0
      0100CA21H   BLOCK     CODE     NEAR LAB  LVL=1
      02000002H   SYMBOL    XDATA    ---       packet_data
      ---         BLOCKEND  ---      ---       LVL=1
      0100CA21H   LINE      CODE     ---       #1408
      0100CA21H   LINE      CODE     ---       #1413
      0100CA27H   LINE      CODE     ---       #1416
      0100CA2FH   LINE      CODE     ---       #1419
      0100CA3FH   LINE      CODE     ---       #1422
LX51 LINKER/LOCATER V4.64.0.0                                                         01/10/2017  17:59:18  PAGE 57


      0100CA4BH   LINE      CODE     ---       #1424
      ---         BLOCKEND  ---      ---       LVL=0

      0100B251H   BLOCK     CODE     ---       LVL=0
      0100B251H   BLOCK     CODE     NEAR LAB  LVL=1
      02000002H   SYMBOL    XDATA    ---       packet_data
      ---         BLOCKEND  ---      ---       LVL=1
      0100B251H   LINE      CODE     ---       #1452
      0100B251H   LINE      CODE     ---       #1460
      0100B257H   LINE      CODE     ---       #1462
      0100B26AH   LINE      CODE     ---       #1463
      0100B2CFH   LINE      CODE     ---       #1467
      0100B2DFH   LINE      CODE     ---       #1469
      0100B2EBH   LINE      CODE     ---       #1470
      ---         BLOCKEND  ---      ---       LVL=0

      0100CB45H   BLOCK     CODE     ---       LVL=0
      0100CB45H   LINE      CODE     ---       #1472
      0100CB45H   LINE      CODE     ---       #1475
      0100CB4DH   LINE      CODE     ---       #1477
      0100CB51H   LINE      CODE     ---       #1478
      0100CB51H   LINE      CODE     ---       #1479
      0100CB5AH   LINE      CODE     ---       #1480
      0100CB5BH   LINE      CODE     ---       #1481
      0100CB5BH   LINE      CODE     ---       #1482
      0100CB64H   LINE      CODE     ---       #1483
      0100CB64H   LINE      CODE     ---       #1484
      ---         BLOCKEND  ---      ---       LVL=0

      0100CD12H   BLOCK     CODE     ---       LVL=0
      0100CD12H   BLOCK     CODE     NEAR LAB  LVL=1
      02000002H   SYMBOL    XDATA    ---       packet_data
      ---         BLOCKEND  ---      ---       LVL=1
      0100CD12H   LINE      CODE     ---       #1486
      0100CD12H   LINE      CODE     ---       #1491
      0100CD17H   LINE      CODE     ---       #1494
      0100CD19H   LINE      CODE     ---       #1497
      0100CD25H   LINE      CODE     ---       #1498
      ---         BLOCKEND  ---      ---       LVL=0

      0100C57FH   BLOCK     CODE     ---       LVL=0
      0100C57FH   LINE      CODE     ---       #1500
      0100C57FH   LINE      CODE     ---       #1502
      0100C588H   LINE      CODE     ---       #1504
      0100C58DH   LINE      CODE     ---       #1505
      0100C592H   LINE      CODE     ---       #1506
      0100C593H   LINE      CODE     ---       #1507
      0100C593H   LINE      CODE     ---       #1509
      0100C59CH   LINE      CODE     ---       #1510
      0100C59FH   LINE      CODE     ---       #1515
      0100C5B7H   LINE      CODE     ---       #1516
      0100C5BAH   LINE      CODE     ---       #1517
      0100C5BFH   LINE      CODE     ---       #1518
      0100C5BFH   LINE      CODE     ---       #1519
      ---         BLOCKEND  ---      ---       LVL=0

      0100C0CDH   BLOCK     CODE     ---       LVL=0
      0100C0CDH   BLOCK     CODE     NEAR LAB  LVL=1
      02000002H   SYMBOL    XDATA    ---       packet_data
      ---         BLOCKEND  ---      ---       LVL=1
      0100C0CDH   LINE      CODE     ---       #1521
      0100C0CDH   LINE      CODE     ---       #1529
      0100C0D3H   LINE      CODE     ---       #1531
      0100C0F2H   LINE      CODE     ---       #1532
      0100C111H   LINE      CODE     ---       #1536
LX51 LINKER/LOCATER V4.64.0.0                                                         01/10/2017  17:59:18  PAGE 58


      0100C121H   LINE      CODE     ---       #1538
      0100C12DH   LINE      CODE     ---       #1539
      ---         BLOCKEND  ---      ---       LVL=0

      010090BAH   BLOCK     CODE     ---       LVL=0
      010090BAH   BLOCK     CODE     NEAR LAB  LVL=1
      02000002H   SYMBOL    XDATA    DWORD     off_1
      02000006H   SYMBOL    XDATA    DWORD     off_2
      0200000AH   SYMBOL    XDATA    FLOAT     mult_1
      0200000EH   SYMBOL    XDATA    FLOAT     mult_2
      0000002AH   SYMBOL    DATA     BYTE      packet_lenght
      0000002BH   SYMBOL    DATA     ---       packet_data
      0000002DH   SYMBOL    DATA     BYTE      old_id
      ---         BLOCKEND  ---      ---       LVL=1
      010090BAH   LINE      CODE     ---       #1541
      010090BAH   LINE      CODE     ---       #1546
      010090BDH   LINE      CODE     ---       #1550
      010090C6H   LINE      CODE     ---       #1551
      010090DAH   LINE      CODE     ---       #1552
      010090EEH   LINE      CODE     ---       #1553
      01009102H   LINE      CODE     ---       #1554
      01009116H   LINE      CODE     ---       #1556
      01009142H   LINE      CODE     ---       #1557
      0100916EH   LINE      CODE     ---       #1559
      0100919AH   LINE      CODE     ---       #1560
      010091C6H   LINE      CODE     ---       #1562
      01009224H   LINE      CODE     ---       #1563
      01009282H   LINE      CODE     ---       #1567
      0100928BH   LINE      CODE     ---       #1568
      010092ABH   LINE      CODE     ---       #1569
      010092BFH   LINE      CODE     ---       #1570
      010092E1H   LINE      CODE     ---       #1571
      010092F5H   LINE      CODE     ---       #1573
      01009317H   LINE      CODE     ---       #1574
      0100932BH   LINE      CODE     ---       #1575
      0100934DH   LINE      CODE     ---       #1576
      01009361H   LINE      CODE     ---       #1577
      01009361H   LINE      CODE     ---       #1578
      01009361H   LINE      CODE     ---       #1581
      0100936EH   LINE      CODE     ---       #1582
      01009370H   LINE      CODE     ---       #1583
      01009379H   LINE      CODE     ---       #1584
      0100937CH   LINE      CODE     ---       #1585
      0100937FH   LINE      CODE     ---       #1586
      01009393H   LINE      CODE     ---       #1587
      01009394H   LINE      CODE     ---       #1588
      01009394H   LINE      CODE     ---       #1589
      01009397H   LINE      CODE     ---       #1590
      01009399H   LINE      CODE     ---       #1591
      010093ACH   LINE      CODE     ---       #1592
      010093ACH   LINE      CODE     ---       #1593
      010093ADH   LINE      CODE     ---       #1594
      010093ADH   LINE      CODE     ---       #1595
      010093B6H   LINE      CODE     ---       #1596
      010093BCH   LINE      CODE     ---       #1598
      010093C1H   LINE      CODE     ---       #1599
      010093C1H   LINE      CODE     ---       #1600
      ---         BLOCKEND  ---      ---       LVL=0

      0100C468H   BLOCK     CODE     ---       LVL=0
      0100C468H   BLOCK     CODE     NEAR LAB  LVL=1
      02000002H   SYMBOL    XDATA    ---       packet_data
      ---         BLOCKEND  ---      ---       LVL=1
      0100C468H   LINE      CODE     ---       #1602
      0100C468H   LINE      CODE     ---       #1607
LX51 LINKER/LOCATER V4.64.0.0                                                         01/10/2017  17:59:18  PAGE 59


      0100C46EH   LINE      CODE     ---       #1609
      0100C481H   LINE      CODE     ---       #1610
      0100C494H   LINE      CODE     ---       #1612
      0100C4A4H   LINE      CODE     ---       #1614
      0100C4B0H   LINE      CODE     ---       #1616
      ---         BLOCKEND  ---      ---       LVL=0

      ---         MODULE    ---      ---       GLOBALS
      02000B8EH   PUBLIC    XDATA    ---       calib
      02000B8DH   PUBLIC    XDATA    BYTE      dev_pwm_limit
      00000021H.5 PUBLIC    BIT      BIT       tension_valid
      00000021H.4 PUBLIC    BIT      BIT       interrupt_flag
      02000B56H   PUBLIC    XDATA    ---       g_meas
      02000B55H   PUBLIC    XDATA    CHAR      pwm_sign
      02000B4DH   PUBLIC    XDATA    ---       ADC_buf
      02000B49H   PUBLIC    XDATA    FLOAT     tau_feedback
      02000B45H   PUBLIC    XDATA    DWORD     timer_value0
      00000021H.3 PUBLIC    BIT      BIT       watchdog_flag
      00000021H.2 PUBLIC    BIT      BIT       reset_last_value_flag
      02000B2CH   PUBLIC    XDATA    ---       g_refNew
      02000AA7H   PUBLIC    XDATA    ---       g_rx
      02000A8EH   PUBLIC    XDATA    ---       g_refOld
      02000A8AH   PUBLIC    XDATA    LONG      dev_tension
      02000A86H   PUBLIC    XDATA    DWORD     timer_value
      02000A85H   PUBLIC    XDATA    BYTE      master_mode
      02000A4EH   PUBLIC    XDATA    ---       g_measOld
      020009B8H   PUBLIC    XDATA    ---       g_mem
      0200099FH   PUBLIC    XDATA    ---       g_ref
      02000909H   PUBLIC    XDATA    ---       c_mem
      000000CAH   SFRSYM    DATA     BYTE      SFRPRT5SEL
      000000DAH   SFRSYM    DATA     BYTE      SFRPRT6SEL
      000000D0H.6 SFRSYM    DATA     BIT       AC
      000000A8H.7 SFRSYM    DATA     BIT       EA
      000000A8H   SFRSYM    DATA     BYTE      IE
      00000085H   SFRSYM    DATA     BYTE      DPH1
      00000084H   SFRSYM    DATA     BYTE      DPL1
      000000D0H.7 SFRSYM    DATA     BIT       CY
      000000A0H   SFRSYM    DATA     BYTE      P2AX
      00000095H   SFRSYM    DATA     BYTE      DPX1
      00000081H   SFRSYM    DATA     BYTE      SP
      000000D0H.2 SFRSYM    DATA     BIT       OV
      00000080H   SFRSYM    DATA     BYTE      SFRPRT0DR
      00000090H   SFRSYM    DATA     BYTE      SFRPRT1DR
      000000F2H   SFRSYM    DATA     BYTE      SFRPRT12SEL
      00000098H   SFRSYM    DATA     BYTE      SFRPRT2DR
      000000B0H   SFRSYM    DATA     BYTE      SFRPRT3DR
      000000C0H   SFRSYM    DATA     BYTE      SFRPRT4DR
      000000FAH   SFRSYM    DATA     BYTE      SFRPRT15SEL
      000000C8H   SFRSYM    DATA     BYTE      SFRPRT5DR
      000000D8H   SFRSYM    DATA     BYTE      SFRPRT6DR
      00000089H   SFRSYM    DATA     BYTE      SFRPRT0PS
      00000091H   SFRSYM    DATA     BYTE      SFRPRT1PS
      00000099H   SFRSYM    DATA     BYTE      SFRPRT2PS
      000000B1H   SFRSYM    DATA     BYTE      SFRPRT3PS
      000000C1H   SFRSYM    DATA     BYTE      SFRPRT4PS
      000000C9H   SFRSYM    DATA     BYTE      SFRPRT5PS
      000000D9H   SFRSYM    DATA     BYTE      SFRPRT6PS
      000000EAH   SFRSYM    DATA     BYTE      MXAX
      000000F0H   SFRSYM    DATA     BYTE      B
      000000E0H   SFRSYM    DATA     BYTE      ACC
      000000D0H   SFRSYM    DATA     BIT       P
      000000D0H.3 SFRSYM    DATA     BIT       RS0
      000000D0H.4 SFRSYM    DATA     BIT       RS1
      00000083H   SFRSYM    DATA     BYTE      DPH
      000000E8H   SFRSYM    DATA     BYTE      SFRPRT12DR
LX51 LINKER/LOCATER V4.64.0.0                                                         01/10/2017  17:59:18  PAGE 60


      00000082H   SFRSYM    DATA     BYTE      DPL
      000000F8H   SFRSYM    DATA     BYTE      SFRPRT15DR
      00000086H   SFRSYM    DATA     BYTE      DPS
      000000E9H   SFRSYM    DATA     BYTE      SFRPRT12PS
      00000093H   SFRSYM    DATA     BYTE      DPX
      000000F9H   SFRSYM    DATA     BYTE      SFRPRT15PS
      000000D0H.5 SFRSYM    DATA     BIT       F0
      000000D0H.1 SFRSYM    DATA     BIT       F1
      0000008AH   SFRSYM    DATA     BYTE      SFRPRT0SEL
      000000D0H   SFRSYM    DATA     BYTE      PSW
      000000A2H   SFRSYM    DATA     BYTE      SFRPRT1SEL
      0000009AH   SFRSYM    DATA     BYTE      SFRPRT2SEL
      000000B2H   SFRSYM    DATA     BYTE      SFRPRT3SEL
      000000C2H   SFRSYM    DATA     BYTE      SFRPRT4SEL

      ---         MODULE    ---      ---       INTERRUPTIONS
      0100BBD7H   PUBLIC    CODE     ---       command_slave
      0100BDB9H   PUBLIC    CODE     ---       pwm_limit_search
      0100BEA4H   PUBLIC    CODE     ---       overcurrent_control
      0100867AH   PUBLIC    CODE     ---       analog_read_end
      01007E08H   PUBLIC    CODE     ---       _encoder_reading
      01006253H   PUBLIC    CODE     ---       motor_control
      0100AA5AH   PUBLIC    CODE     ---       function_scheduler
      0100A6FDH   PUBLIC    CODE     ---       interrupt_manager
      0100D13FH   PUBLIC    CODE     ---       ISR_RS485_RX_ExInterrupt
      0100D13CH   PUBLIC    CODE     ---       ISR_WATCHDOG_Handler
      000000CAH   SFRSYM    DATA     BYTE      SFRPRT5SEL
      000000DAH   SFRSYM    DATA     BYTE      SFRPRT6SEL
      000000D0H.6 SFRSYM    DATA     BIT       AC
      000000A8H.7 SFRSYM    DATA     BIT       EA
      000000A8H   SFRSYM    DATA     BYTE      IE
      00000085H   SFRSYM    DATA     BYTE      DPH1
      00000084H   SFRSYM    DATA     BYTE      DPL1
      000000D0H.7 SFRSYM    DATA     BIT       CY
      000000A0H   SFRSYM    DATA     BYTE      P2AX
      00000095H   SFRSYM    DATA     BYTE      DPX1
      00000081H   SFRSYM    DATA     BYTE      SP
      000000D0H.2 SFRSYM    DATA     BIT       OV
      00000080H   SFRSYM    DATA     BYTE      SFRPRT0DR
      00000090H   SFRSYM    DATA     BYTE      SFRPRT1DR
      000000F2H   SFRSYM    DATA     BYTE      SFRPRT12SEL
      00000098H   SFRSYM    DATA     BYTE      SFRPRT2DR
      000000B0H   SFRSYM    DATA     BYTE      SFRPRT3DR
      000000C0H   SFRSYM    DATA     BYTE      SFRPRT4DR
      000000FAH   SFRSYM    DATA     BYTE      SFRPRT15SEL
      000000C8H   SFRSYM    DATA     BYTE      SFRPRT5DR
      000000D8H   SFRSYM    DATA     BYTE      SFRPRT6DR
      00000089H   SFRSYM    DATA     BYTE      SFRPRT0PS
      00000091H   SFRSYM    DATA     BYTE      SFRPRT1PS
      00000099H   SFRSYM    DATA     BYTE      SFRPRT2PS
      000000B1H   SFRSYM    DATA     BYTE      SFRPRT3PS
      000000C1H   SFRSYM    DATA     BYTE      SFRPRT4PS
      000000C9H   SFRSYM    DATA     BYTE      SFRPRT5PS
      000000D9H   SFRSYM    DATA     BYTE      SFRPRT6PS
      000000EAH   SFRSYM    DATA     BYTE      MXAX
      000000F0H   SFRSYM    DATA     BYTE      B
      000000E0H   SFRSYM    DATA     BYTE      ACC
      000000D0H   SFRSYM    DATA     BIT       P
      000000D0H.3 SFRSYM    DATA     BIT       RS0
      000000D0H.4 SFRSYM    DATA     BIT       RS1
      00000083H   SFRSYM    DATA     BYTE      DPH
      000000E8H   SFRSYM    DATA     BYTE      SFRPRT12DR
      00000082H   SFRSYM    DATA     BYTE      DPL
      000000F8H   SFRSYM    DATA     BYTE      SFRPRT15DR
      00000086H   SFRSYM    DATA     BYTE      DPS
LX51 LINKER/LOCATER V4.64.0.0                                                         01/10/2017  17:59:18  PAGE 61


      000000E9H   SFRSYM    DATA     BYTE      SFRPRT12PS
      00000093H   SFRSYM    DATA     BYTE      DPX
      000000F9H   SFRSYM    DATA     BYTE      SFRPRT15PS
      000000D0H.5 SFRSYM    DATA     BIT       F0
      000000D0H.1 SFRSYM    DATA     BIT       F1
      0000008AH   SFRSYM    DATA     BYTE      SFRPRT0SEL
      000000D0H   SFRSYM    DATA     BYTE      PSW
      000000A2H   SFRSYM    DATA     BYTE      SFRPRT1SEL
      0000009AH   SFRSYM    DATA     BYTE      SFRPRT2SEL
      000000B2H   SFRSYM    DATA     BYTE      SFRPRT3SEL
      000000C2H   SFRSYM    DATA     BYTE      SFRPRT4SEL
      02000C88H   SYMBOL    XDATA    ---       pwm_preload_values

      0100D13CH   BLOCK     CODE     ---       LVL=0
      0100D13CH   LINE      CODE     ---       #72
      0100D13CH   LINE      CODE     ---       #76
      0100D13EH   LINE      CODE     ---       #78
      ---         BLOCKEND  ---      ---       LVL=0

      0100D13FH   BLOCK     CODE     ---       LVL=0
      0100D13FH   LINE      CODE     ---       #84
      0100D13FH   LINE      CODE     ---       #88
      0100D141H   LINE      CODE     ---       #90
      ---         BLOCKEND  ---      ---       LVL=0

      0100A6FDH   BLOCK     CODE     ---       LVL=0
      0100A6FDH   BLOCK     CODE     NEAR LAB  LVL=1
      00000008H   SYMBOL    DATA     BYTE      state
      00000009H   SYMBOL    DATA     BYTE      data_packet_index
      0000000AH   SYMBOL    DATA     BYTE      data_packet_length
      02000B94H   SYMBOL    XDATA    ---       data_packet_buffer
      0000000BH   SYMBOL    DATA     ---       rx_queue
      00000027H   SYMBOL    DATA     BYTE      rx_data
      00000020H.0 SYMBOL    BIT      BIT       rx_data_type
      00000028H   SYMBOL    DATA     BYTE      package_count
      ---         BLOCKEND  ---      ---       LVL=1
      0100A6FDH   LINE      CODE     ---       #107
      0100A6FDH   LINE      CODE     ---       #123
      0100A700H   LINE      CODE     ---       #129
      0100A713H   LINE      CODE     ---       #133
      0100A718H   LINE      CODE     ---       #135
      0100A730H   LINE      CODE     ---       #137
      0100A730H   LINE      CODE     ---       #139
      0100A733H   LINE      CODE     ---       #140
      0100A736H   LINE      CODE     ---       #141
      0100A739H   LINE      CODE     ---       #144
      0100A743H   LINE      CODE     ---       #145
      0100A746H   LINE      CODE     ---       #146
      0100A748H   LINE      CODE     ---       #147
      0100A74AH   LINE      CODE     ---       #148
      0100A74DH   LINE      CODE     ---       #149
      0100A74FH   LINE      CODE     ---       #150
      0100A75FH   LINE      CODE     ---       #153
      0100A764H   LINE      CODE     ---       #154
      0100A766H   LINE      CODE     ---       #157
      0100A766H   LINE      CODE     ---       #160
      0100A772H   LINE      CODE     ---       #161
      0100A776H   LINE      CODE     ---       #163
      0100A778H   LINE      CODE     ---       #165
      0100A77BH   LINE      CODE     ---       #166
      0100A77EH   LINE      CODE     ---       #167
      0100A780H   LINE      CODE     ---       #170
      0100A780H   LINE      CODE     ---       #173
      0100A783H   LINE      CODE     ---       #175
      0100A78AH   LINE      CODE     ---       #176
LX51 LINKER/LOCATER V4.64.0.0                                                         01/10/2017  17:59:18  PAGE 62


      0100A78DH   LINE      CODE     ---       #177
      0100A78FH   LINE      CODE     ---       #178
      0100A799H   LINE      CODE     ---       #179
      0100A79CH   LINE      CODE     ---       #180
      0100A79EH   LINE      CODE     ---       #181
      0100A7A1H   LINE      CODE     ---       #182
      0100A7A4H   LINE      CODE     ---       #184
      0100A7A7H   LINE      CODE     ---       #185
      0100A7ADH   LINE      CODE     ---       #187
      0100A7B0H   LINE      CODE     ---       #188
      0100A7B0H   LINE      CODE     ---       #189
      0100A7B3H   LINE      CODE     ---       #192
      0100A7B3H   LINE      CODE     ---       #194
      0100A7C1H   LINE      CODE     ---       #195
      0100A7C3H   LINE      CODE     ---       #198
      0100A7CDH   LINE      CODE     ---       #200
      0100A7D0H   LINE      CODE     ---       #202
      0100A7E3H   LINE      CODE     ---       #203
      0100A7ECH   LINE      CODE     ---       #204
      0100A7F2H   LINE      CODE     ---       #205
      0100A7F5H   LINE      CODE     ---       #206
      0100A7F5H   LINE      CODE     ---       #208
      0100A7F8H   LINE      CODE     ---       #209
      0100A7FAH   LINE      CODE     ---       #210
      0100A7FCH   LINE      CODE     ---       #211
      0100A7FEH   LINE      CODE     ---       #213
      0100A7FEH   LINE      CODE     ---       #214
      0100A801H   LINE      CODE     ---       #217
      0100A801H   LINE      CODE     ---       #218
      0100A80AH   LINE      CODE     ---       #219
      0100A80CH   LINE      CODE     ---       #220
      0100A80EH   LINE      CODE     ---       #221
      0100A813H   LINE      CODE     ---       #222
      0100A818H   LINE      CODE     ---       #223
      0100A81BH   LINE      CODE     ---       #224
      0100A81DH   LINE      CODE     ---       #225
      0100A81DH   LINE      CODE     ---       #226
      0100A820H   LINE      CODE     ---       #227
      0100A820H   LINE      CODE     ---       #228
      0100A823H   LINE      CODE     ---       #229
      ---         BLOCKEND  ---      ---       LVL=0

      0100AA5AH   BLOCK     CODE     ---       LVL=0
      0100AA5AH   BLOCK     CODE     NEAR LAB  LVL=1
      02000C14H   SYMBOL    XDATA    WORD      counter_calibration
      ---         BLOCKEND  ---      ---       LVL=1
      0100AA5AH   LINE      CODE     ---       #238
      0100AA5AH   LINE      CODE     ---       #242
      0100AA63H   LINE      CODE     ---       #246
      0100AA68H   LINE      CODE     ---       #250
      0100AA6BH   LINE      CODE     ---       #251
      0100AA6DH   LINE      CODE     ---       #252
      0100AA70H   LINE      CODE     ---       #253
      0100AA70H   LINE      CODE     ---       #257
      0100AA75H   LINE      CODE     ---       #261
      0100AA78H   LINE      CODE     ---       #262
      0100AA7AH   LINE      CODE     ---       #263
      0100AA7DH   LINE      CODE     ---       #264
      0100AA7DH   LINE      CODE     ---       #266
      0100AA82H   LINE      CODE     ---       #270
      0100AA85H   LINE      CODE     ---       #271
      0100AA87H   LINE      CODE     ---       #272
      0100AA8AH   LINE      CODE     ---       #273
      0100AA8AH   LINE      CODE     ---       #275
      0100AA8FH   LINE      CODE     ---       #279
LX51 LINKER/LOCATER V4.64.0.0                                                         01/10/2017  17:59:18  PAGE 63


      0100AA92H   LINE      CODE     ---       #280
      0100AA94H   LINE      CODE     ---       #281
      0100AA97H   LINE      CODE     ---       #282
      0100AA97H   LINE      CODE     ---       #286
      0100AA9AH   LINE      CODE     ---       #290
      0100AA9DH   LINE      CODE     ---       #291
      0100AA9FH   LINE      CODE     ---       #292
      0100AAA2H   LINE      CODE     ---       #293
      0100AAA2H   LINE      CODE     ---       #297
      0100AAA5H   LINE      CODE     ---       #299
      0100AAA8H   LINE      CODE     ---       #300
      0100AAAAH   LINE      CODE     ---       #301
      0100AAADH   LINE      CODE     ---       #302
      0100AAADH   LINE      CODE     ---       #306
      0100AAB0H   LINE      CODE     ---       #310
      0100AAB3H   LINE      CODE     ---       #311
      0100AAB5H   LINE      CODE     ---       #312
      0100AAB8H   LINE      CODE     ---       #313
      0100AAB8H   LINE      CODE     ---       #317
      0100AABEH   LINE      CODE     ---       #318
      0100AAC1H   LINE      CODE     ---       #322
      0100AAC4H   LINE      CODE     ---       #323
      0100AAC6H   LINE      CODE     ---       #324
      0100AAC9H   LINE      CODE     ---       #325
      0100AAC9H   LINE      CODE     ---       #330
      0100AAD0H   LINE      CODE     ---       #331
      0100AADCH   LINE      CODE     ---       #332
      0100AADFH   LINE      CODE     ---       #333
      0100AAE6H   LINE      CODE     ---       #334
      0100AAE6H   LINE      CODE     ---       #335
      0100AAF4H   LINE      CODE     ---       #336
      0100AAF4H   LINE      CODE     ---       #340
      0100AAF7H   LINE      CODE     ---       #341
      0100AAF9H   LINE      CODE     ---       #342
      0100AAFCH   LINE      CODE     ---       #343
      0100AAFCH   LINE      CODE     ---       #348
      0100AB0FH   LINE      CODE     ---       #349
      0100AB22H   LINE      CODE     ---       #352
      0100AB35H   LINE      CODE     ---       #354
      0100AB38H   LINE      CODE     ---       #355
      0100AB3AH   LINE      CODE     ---       #356
      0100AB3DH   LINE      CODE     ---       #357
      0100AB3DH   LINE      CODE     ---       #359
      0100AB46H   LINE      CODE     ---       #360
      0100AB51H   LINE      CODE     ---       #362
      ---         BLOCKEND  ---      ---       LVL=0

      01006253H   BLOCK     CODE     ---       LVL=0
      01006253H   BLOCK     CODE     NEAR LAB  LVL=1
      00000023H   SYMBOL    DATA     LONG      pwm_input
      00000027H   SYMBOL    DATA     LONG      pos_error
      0000002BH   SYMBOL    DATA     LONG      curr_error
      0000002FH   SYMBOL    DATA     LONG      i_ref
      00000033H   SYMBOL    DATA     LONG      handle_value
      00000037H   SYMBOL    DATA     LONG      err_emg_1
      0000003BH   SYMBOL    DATA     LONG      err_emg_2
      0000003FH   SYMBOL    DATA     LONG      k_p
      00000043H   SYMBOL    DATA     LONG      k_i
      00000047H   SYMBOL    DATA     LONG      k_d
      0000004BH   SYMBOL    DATA     LONG      k_p_c
      0000004FH   SYMBOL    DATA     LONG      k_i_c
      00000053H   SYMBOL    DATA     LONG      k_d_c
      00000057H   SYMBOL    DATA     LONG      k_p_dl
      0000005BH   SYMBOL    DATA     LONG      k_i_dl
      0000005FH   SYMBOL    DATA     LONG      k_d_dl
LX51 LINKER/LOCATER V4.64.0.0                                                         01/10/2017  17:59:18  PAGE 64


      00000063H   SYMBOL    DATA     LONG      k_p_c_dl
      00000067H   SYMBOL    DATA     LONG      k_i_c_dl
      0000006BH   SYMBOL    DATA     LONG      k_d_c_dl
      02000C16H   SYMBOL    XDATA    LONG      pos_error_sum
      02000C1AH   SYMBOL    XDATA    LONG      curr_error_sum
      02000C1EH   SYMBOL    XDATA    LONG      prev_pos_err
      02000C22H   SYMBOL    XDATA    LONG      prev_curr_err
      00000021H.6 SYMBOL    BIT      BIT       motor_dir
      02000C26H   SYMBOL    XDATA    BYTE      current_emg
      ---         BLOCKEND  ---      ---       LVL=1
      01006253H   LINE      CODE     ---       #368
      01006253H   LINE      CODE     ---       #370
      0100625CH   LINE      CODE     ---       #380
      01006271H   LINE      CODE     ---       #381
      01006284H   LINE      CODE     ---       #382
      01006297H   LINE      CODE     ---       #384
      010062AAH   LINE      CODE     ---       #385
      010062BDH   LINE      CODE     ---       #386
      010062D0H   LINE      CODE     ---       #388
      010062E3H   LINE      CODE     ---       #389
      010062F6H   LINE      CODE     ---       #390
      01006309H   LINE      CODE     ---       #392
      0100631CH   LINE      CODE     ---       #393
      0100632FH   LINE      CODE     ---       #394
      01006342H   LINE      CODE     ---       #411
      0100636DH   LINE      CODE     ---       #412
      01006398H   LINE      CODE     ---       #415
      010063BCH   LINE      CODE     ---       #417
      010063BCH   LINE      CODE     ---       #421
      010063C2H   LINE      CODE     ---       #422
      010063E6H   LINE      CODE     ---       #424
      0100640AH   LINE      CODE     ---       #428
      01006453H   LINE      CODE     ---       #429
      01006481H   LINE      CODE     ---       #430
      01006481H   LINE      CODE     ---       #431
      010064C9H   LINE      CODE     ---       #432
      010064F7H   LINE      CODE     ---       #434
      01006505H   LINE      CODE     ---       #435
      01006505H   LINE      CODE     ---       #436
      01006508H   LINE      CODE     ---       #438
      01006508H   LINE      CODE     ---       #439
      0100651BH   LINE      CODE     ---       #440
      01006558H   LINE      CODE     ---       #442
      01006563H   LINE      CODE     ---       #443
      01006566H   LINE      CODE     ---       #445
      01006566H   LINE      CODE     ---       #446
      0100657AH   LINE      CODE     ---       #447
      0100658DH   LINE      CODE     ---       #448
      010065E3H   LINE      CODE     ---       #449
      010065E3H   LINE      CODE     ---       #450
      010065F9H   LINE      CODE     ---       #451
      01006658H   LINE      CODE     ---       #452
      01006658H   LINE      CODE     ---       #453
      0100665BH   LINE      CODE     ---       #455
      0100665BH   LINE      CODE     ---       #456
      0100666FH   LINE      CODE     ---       #457
      01006683H   LINE      CODE     ---       #458
      01006683H   LINE      CODE     ---       #460
      01006696H   LINE      CODE     ---       #461
      0100669CH   LINE      CODE     ---       #462
      0100669FH   LINE      CODE     ---       #463
      0100669FH   LINE      CODE     ---       #464
      010066B5H   LINE      CODE     ---       #465
      010066BBH   LINE      CODE     ---       #466
      010066BEH   LINE      CODE     ---       #467
LX51 LINKER/LOCATER V4.64.0.0                                                         01/10/2017  17:59:18  PAGE 65


      010066BEH   LINE      CODE     ---       #468
      010066BEH   LINE      CODE     ---       #470
      010066BEH   LINE      CODE     ---       #472
      010066D1H   LINE      CODE     ---       #473
      010066D6H   LINE      CODE     ---       #474
      010066D9H   LINE      CODE     ---       #475
      010066D9H   LINE      CODE     ---       #476
      01006735H   LINE      CODE     ---       #477
      01006738H   LINE      CODE     ---       #479
      01006738H   LINE      CODE     ---       #481
      0100674BH   LINE      CODE     ---       #482
      01006750H   LINE      CODE     ---       #483
      01006753H   LINE      CODE     ---       #484
      01006753H   LINE      CODE     ---       #485
      010067B8H   LINE      CODE     ---       #486
      010067BBH   LINE      CODE     ---       #488
      010067BBH   LINE      CODE     ---       #489
      010067BBH   LINE      CODE     ---       #490
      010067BBH   LINE      CODE     ---       #492
      010067BEH   LINE      CODE     ---       #494
      010067BEH   LINE      CODE     ---       #495
      010067D2H   LINE      CODE     ---       #496
      010067E6H   LINE      CODE     ---       #498
      010067E6H   LINE      CODE     ---       #499
      010067F9H   LINE      CODE     ---       #500
      010067FFH   LINE      CODE     ---       #501
      01006802H   LINE      CODE     ---       #502
      01006802H   LINE      CODE     ---       #503
      01006818H   LINE      CODE     ---       #504
      0100681EH   LINE      CODE     ---       #505
      01006821H   LINE      CODE     ---       #506
      01006821H   LINE      CODE     ---       #507
      01006821H   LINE      CODE     ---       #510
      01006821H   LINE      CODE     ---       #512
      01006847H   LINE      CODE     ---       #513
      0100684CH   LINE      CODE     ---       #514
      0100684FH   LINE      CODE     ---       #515
      0100684FH   LINE      CODE     ---       #517
      01006865H   LINE      CODE     ---       #518
      010068B7H   LINE      CODE     ---       #520
      010068BAH   LINE      CODE     ---       #523
      010068BAH   LINE      CODE     ---       #525
      010068E0H   LINE      CODE     ---       #526
      010068E5H   LINE      CODE     ---       #527
      010068E7H   LINE      CODE     ---       #528
      010068E7H   LINE      CODE     ---       #530
      010068FAH   LINE      CODE     ---       #531
      01006955H   LINE      CODE     ---       #532
      01006955H   LINE      CODE     ---       #533
      01006955H   LINE      CODE     ---       #535
      01006955H   LINE      CODE     ---       #536
      01006955H   LINE      CODE     ---       #537
      01006955H   LINE      CODE     ---       #539
      01006955H   LINE      CODE     ---       #540
      01006955H   LINE      CODE     ---       #541
      01006955H   LINE      CODE     ---       #544
      0100695BH   LINE      CODE     ---       #545
      0100697BH   LINE      CODE     ---       #546
      0100698FH   LINE      CODE     ---       #547
      010069B1H   LINE      CODE     ---       #548
      010069C5H   LINE      CODE     ---       #549
      010069C5H   LINE      CODE     ---       #551
      010069E0H   LINE      CODE     ---       #553
      010069E0H   LINE      CODE     ---       #554
      01006A0BH   LINE      CODE     ---       #556
LX51 LINKER/LOCATER V4.64.0.0                                                         01/10/2017  17:59:18  PAGE 66


      01006A2DH   LINE      CODE     ---       #559
      01006A49H   LINE      CODE     ---       #560
      01006A59H   LINE      CODE     ---       #561
      01006A59H   LINE      CODE     ---       #562
      01006A75H   LINE      CODE     ---       #563
      01006A83H   LINE      CODE     ---       #564
      01006A83H   LINE      CODE     ---       #568
      01006A8CH   LINE      CODE     ---       #571
      01006A9EH   LINE      CODE     ---       #572
      01006AC4H   LINE      CODE     ---       #575
      01006AD7H   LINE      CODE     ---       #576
      01006B03H   LINE      CODE     ---       #579
      01006B16H   LINE      CODE     ---       #580
      01006B59H   LINE      CODE     ---       #583
      01006B67H   LINE      CODE     ---       #589
      01006B7AH   LINE      CODE     ---       #590
      01006B7EH   LINE      CODE     ---       #592
      01006B80H   LINE      CODE     ---       #598
      01006B9CH   LINE      CODE     ---       #599
      01006BB2H   LINE      CODE     ---       #601
      01006BD4H   LINE      CODE     ---       #602
      01006BEEH   LINE      CODE     ---       #614
      01006C11H   LINE      CODE     ---       #615
      01006C33H   LINE      CODE     ---       #617
      01006C4FH   LINE      CODE     ---       #618
      01006C5FH   LINE      CODE     ---       #619
      01006C5FH   LINE      CODE     ---       #620
      01006C7BH   LINE      CODE     ---       #621
      01006C89H   LINE      CODE     ---       #622
      01006C89H   LINE      CODE     ---       #626
      01006C92H   LINE      CODE     ---       #629
      01006CA4H   LINE      CODE     ---       #630
      01006CCAH   LINE      CODE     ---       #633
      01006CDDH   LINE      CODE     ---       #634
      01006D09H   LINE      CODE     ---       #637
      01006D1CH   LINE      CODE     ---       #638
      01006D5FH   LINE      CODE     ---       #641
      01006D74H   LINE      CODE     ---       #642
      01006D81H   LINE      CODE     ---       #643
      01006D81H   LINE      CODE     ---       #644
      01006D95H   LINE      CODE     ---       #645
      01006D9FH   LINE      CODE     ---       #646
      01006D9FH   LINE      CODE     ---       #649
      01006DADH   LINE      CODE     ---       #651
      01006DB0H   LINE      CODE     ---       #654
      01006DB0H   LINE      CODE     ---       #655
      01006DDBH   LINE      CODE     ---       #657
      01006DFDH   LINE      CODE     ---       #660
      01006E18H   LINE      CODE     ---       #661
      01006E25H   LINE      CODE     ---       #662
      01006E43H   LINE      CODE     ---       #663
      01006E51H   LINE      CODE     ---       #664
      01006E51H   LINE      CODE     ---       #667
      01006E64H   LINE      CODE     ---       #668
      01006E7EH   LINE      CODE     ---       #672
      01006E91H   LINE      CODE     ---       #673
      01006EBDH   LINE      CODE     ---       #677
      01006ED0H   LINE      CODE     ---       #678
      01006F13H   LINE      CODE     ---       #682
      01006F21H   LINE      CODE     ---       #684
      01006F34H   LINE      CODE     ---       #685
      01006F39H   LINE      CODE     ---       #687
      01006F3BH   LINE      CODE     ---       #689
      01006F3EH   LINE      CODE     ---       #692
      01006F3EH   LINE      CODE     ---       #693
LX51 LINKER/LOCATER V4.64.0.0                                                         01/10/2017  17:59:18  PAGE 67


      01006F4DH   LINE      CODE     ---       #695
      01006F62H   LINE      CODE     ---       #697
      01006F7EH   LINE      CODE     ---       #698
      01006F94H   LINE      CODE     ---       #699
      01006F94H   LINE      CODE     ---       #700
      01006FB6H   LINE      CODE     ---       #701
      01006FD0H   LINE      CODE     ---       #702
      01006FD0H   LINE      CODE     ---       #705
      01006FF3H   LINE      CODE     ---       #706
      01007015H   LINE      CODE     ---       #708
      01007031H   LINE      CODE     ---       #709
      01007041H   LINE      CODE     ---       #710
      01007041H   LINE      CODE     ---       #711
      0100705DH   LINE      CODE     ---       #712
      0100706BH   LINE      CODE     ---       #713
      0100706BH   LINE      CODE     ---       #715
      01007074H   LINE      CODE     ---       #718
      01007086H   LINE      CODE     ---       #719
      010070ACH   LINE      CODE     ---       #722
      010070BFH   LINE      CODE     ---       #723
      010070EBH   LINE      CODE     ---       #726
      010070FEH   LINE      CODE     ---       #727
      01007141H   LINE      CODE     ---       #729
      0100714FH   LINE      CODE     ---       #731
      01007162H   LINE      CODE     ---       #732
      01007166H   LINE      CODE     ---       #734
      01007168H   LINE      CODE     ---       #735
      01007168H   LINE      CODE     ---       #736
      0100716AH   LINE      CODE     ---       #739
      0100716AH   LINE      CODE     ---       #741
      0100717FH   LINE      CODE     ---       #743
      01007192H   LINE      CODE     ---       #744
      01007196H   LINE      CODE     ---       #746
      01007198H   LINE      CODE     ---       #750
      010071ADH   LINE      CODE     ---       #751
      010071BAH   LINE      CODE     ---       #752
      010071CEH   LINE      CODE     ---       #753
      010071D8H   LINE      CODE     ---       #756
      010071D8H   LINE      CODE     ---       #757
      010071D8H   LINE      CODE     ---       #761
      010071ECH   LINE      CODE     ---       #762
      010071F6H   LINE      CODE     ---       #763
      0100720BH   LINE      CODE     ---       #764
      01007216H   LINE      CODE     ---       #767
      0100721EH   LINE      CODE     ---       #768
      01007255H   LINE      CODE     ---       #771
      01007273H   LINE      CODE     ---       #773
      01007276H   LINE      CODE     ---       #774
      0100727DH   LINE      CODE     ---       #776
      01007282H   LINE      CODE     ---       #778
      0100728CH   LINE      CODE     ---       #779
      ---         BLOCKEND  ---      ---       LVL=0

      01007E08H   BLOCK     CODE     ---       LVL=0
      00000007H   SYMBOL    DATA     BYTE      idx
      01007E08H   BLOCK     CODE     NEAR LAB  LVL=1
      00000023H   SYMBOL    DATA     BYTE      index
      00000003H   SYMBOL    DATA     BYTE      jj
      02000002H   SYMBOL    XDATA    DWORD     data_encoder
      02000006H   SYMBOL    XDATA    LONG      value_encoder
      0200000AH   SYMBOL    XDATA    LONG      speed_encoder
      0200000EH   SYMBOL    XDATA    LONG      accel_encoder
      02000012H   SYMBOL    XDATA    LONG      aux
      02000C27H   SYMBOL    XDATA    ---       last_value_encoder
      02000C33H   SYMBOL    XDATA    ---       error
LX51 LINKER/LOCATER V4.64.0.0                                                         01/10/2017  17:59:18  PAGE 68


      00000021H.7 SYMBOL    BIT      BIT       only_first_time
      02000C36H   SYMBOL    XDATA    BYTE      one_time_execute
      00000022H.0 SYMBOL    BIT      BIT       pos_reconstruct
      02000C37H   SYMBOL    XDATA    ---       v_value
      02000C43H   SYMBOL    XDATA    ---       vv_value
      02000C4FH   SYMBOL    XDATA    ---       vvv_value
      02000C5BH   SYMBOL    XDATA    ---       a_value
      02000C67H   SYMBOL    XDATA    ---       aa_value
      02000C73H   SYMBOL    XDATA    ---       aaa_value
      ---         BLOCKEND  ---      ---       LVL=1
      01007E08H   LINE      CODE     ---       #785
      01007E08H   LINE      CODE     ---       #787
      01007E0AH   LINE      CODE     ---       #814
      01007E14H   LINE      CODE     ---       #817
      01007E17H   LINE      CODE     ---       #818
      01007E1FH   LINE      CODE     ---       #819
      01007E37H   LINE      CODE     ---       #821
      01007E39H   LINE      CODE     ---       #822
      01007E39H   LINE      CODE     ---       #826
      01007E3DH   LINE      CODE     ---       #827
      01007E55H   LINE      CODE     ---       #828
      01007E55H   LINE      CODE     ---       #829
      01007E5AH   LINE      CODE     ---       #830
      01007E72H   LINE      CODE     ---       #832
      01007E88H   LINE      CODE     ---       #833
      01007E88H   LINE      CODE     ---       #836
      01007E96H   LINE      CODE     ---       #838
      01007EEEH   LINE      CODE     ---       #845
      01007EF1H   LINE      CODE     ---       #846
      01007F11H   LINE      CODE     ---       #847
      01007F16H   LINE      CODE     ---       #848
      01007F18H   LINE      CODE     ---       #849
      01007F18H   LINE      CODE     ---       #852
      01007F51H   LINE      CODE     ---       #872
      01007F6BH   LINE      CODE     ---       #873
      01007F7BH   LINE      CODE     ---       #874
      01007F7BH   LINE      CODE     ---       #875
      01007F97H   LINE      CODE     ---       #876
      01007FA7H   LINE      CODE     ---       #877
      01007FA7H   LINE      CODE     ---       #878
      01007FC1H   LINE      CODE     ---       #879
      01007FCFH   LINE      CODE     ---       #880
      01007FE3H   LINE      CODE     ---       #883
      01007FE3H   LINE      CODE     ---       #884
      01007FE3H   LINE      CODE     ---       #885
      01007FE3H   LINE      CODE     ---       #887
      01007FF0H   LINE      CODE     ---       #889
      01008010H   LINE      CODE     ---       #891
      0100804CH   LINE      CODE     ---       #893
      01008072H   LINE      CODE     ---       #894
      010080AAH   LINE      CODE     ---       #895
      010080AAH   LINE      CODE     ---       #897
      010080CAH   LINE      CODE     ---       #898
      010080CAH   LINE      CODE     ---       #900
      010080DFH   LINE      CODE     ---       #901
      010080DFH   LINE      CODE     ---       #902
      0100817DH   LINE      CODE     ---       #903
      01008180H   LINE      CODE     ---       #904
      01008180H   LINE      CODE     ---       #905
      01008180H   LINE      CODE     ---       #906
      0100821EH   LINE      CODE     ---       #907
      01008221H   LINE      CODE     ---       #908
      01008221H   LINE      CODE     ---       #909
      01008221H   LINE      CODE     ---       #910
      010082BFH   LINE      CODE     ---       #911
LX51 LINKER/LOCATER V4.64.0.0                                                         01/10/2017  17:59:18  PAGE 69


      010082BFH   LINE      CODE     ---       #912
      010082BFH   LINE      CODE     ---       #913
      010082BFH   LINE      CODE     ---       #915
      010082DFH   LINE      CODE     ---       #918
      010082F4H   LINE      CODE     ---       #919
      010082F4H   LINE      CODE     ---       #920
      01008392H   LINE      CODE     ---       #921
      01008395H   LINE      CODE     ---       #923
      01008395H   LINE      CODE     ---       #924
      01008433H   LINE      CODE     ---       #925
      01008436H   LINE      CODE     ---       #927
      01008436H   LINE      CODE     ---       #928
      010084D4H   LINE      CODE     ---       #929
      010084D4H   LINE      CODE     ---       #930
      010084D4H   LINE      CODE     ---       #932
      010084F4H   LINE      CODE     ---       #935
      01008520H   LINE      CODE     ---       #936
      0100854CH   LINE      CODE     ---       #937
      0100856CH   LINE      CODE     ---       #939
      01008598H   LINE      CODE     ---       #940
      010085C4H   LINE      CODE     ---       #941
      010085E4H   LINE      CODE     ---       #945
      010085EAH   LINE      CODE     ---       #946
      010085F3H   LINE      CODE     ---       #947
      010085F7H   LINE      CODE     ---       #948
      010085F7H   LINE      CODE     ---       #950
      010085FDH   LINE      CODE     ---       #951
      01008627H   LINE      CODE     ---       #953
      0100865BH   LINE      CODE     ---       #956
      0100866FH   LINE      CODE     ---       #958
      01008677H   LINE      CODE     ---       #960
      01008679H   LINE      CODE     ---       #961
      01008679H   LINE      CODE     ---       #962
      01008679H   LINE      CODE     ---       #963
      ---         BLOCKEND  ---      ---       LVL=0

      0100867AH   BLOCK     CODE     ---       LVL=0
      0100867AH   BLOCK     CODE     NEAR LAB  LVL=1
      00000023H   SYMBOL    DATA     LONG      i_aux
      0000000EH   SYMBOL    DATA     BYTE      emg_1_status
      0000000FH   SYMBOL    DATA     BYTE      emg_2_status
      02000C7FH   SYMBOL    XDATA    WORD      emg_counter_1
      02000C81H   SYMBOL    XDATA    WORD      emg_counter_2
      02000C83H   SYMBOL    XDATA    BYTE      first_tension_valid
      02000C84H   SYMBOL    XDATA    LONG      pow_tension
      ---         BLOCKEND  ---      ---       LVL=1
      0100867AH   LINE      CODE     ---       #969
      0100867AH   LINE      CODE     ---       #1002
      01008680H   LINE      CODE     ---       #1003
      01008683H   LINE      CODE     ---       #1004
      01008685H   LINE      CODE     ---       #1005
      01008688H   LINE      CODE     ---       #1006
      01008688H   LINE      CODE     ---       #1007
      0100868AH   LINE      CODE     ---       #1010
      010086B2H   LINE      CODE     ---       #1012
      010086B5H   LINE      CODE     ---       #1013
      010086B7H   LINE      CODE     ---       #1014
      010086BAH   LINE      CODE     ---       #1015
      010086BAH   LINE      CODE     ---       #1017
      010086C3H   LINE      CODE     ---       #1018
      010086DEH   LINE      CODE     ---       #1019
      010086EBH   LINE      CODE     ---       #1020
      010086EDH   LINE      CODE     ---       #1021
      010086EDH   LINE      CODE     ---       #1022
      01008708H   LINE      CODE     ---       #1023
LX51 LINKER/LOCATER V4.64.0.0                                                         01/10/2017  17:59:18  PAGE 70


      01008715H   LINE      CODE     ---       #1024
      01008717H   LINE      CODE     ---       #1026
      01008724H   LINE      CODE     ---       #1027
      01008724H   LINE      CODE     ---       #1029
      01008729H   LINE      CODE     ---       #1030
      01008729H   LINE      CODE     ---       #1034
      01008745H   LINE      CODE     ---       #1037
      01008747H   LINE      CODE     ---       #1039
      0100874DH   LINE      CODE     ---       #1040
      01008750H   LINE      CODE     ---       #1043
      0100878DH   LINE      CODE     ---       #1047
      01008790H   LINE      CODE     ---       #1048
      01008792H   LINE      CODE     ---       #1049
      01008795H   LINE      CODE     ---       #1050
      01008795H   LINE      CODE     ---       #1053
      0100879BH   LINE      CODE     ---       #1054
      0100879DH   LINE      CODE     ---       #1055
      0100879FH   LINE      CODE     ---       #1056
      0100879FH   LINE      CODE     ---       #1061
      010087BAH   LINE      CODE     ---       #1062
      010087BAH   LINE      CODE     ---       #1063
      010087D3H   LINE      CODE     ---       #1064
      010087F1H   LINE      CODE     ---       #1066
      010087F4H   LINE      CODE     ---       #1067
      010087F6H   LINE      CODE     ---       #1068
      010087F9H   LINE      CODE     ---       #1069
      010087F9H   LINE      CODE     ---       #1071
      0100880CH   LINE      CODE     ---       #1072
      01008817H   LINE      CODE     ---       #1074
      0100882BH   LINE      CODE     ---       #1075
      01008835H   LINE      CODE     ---       #1077
      01008843H   LINE      CODE     ---       #1079
      01008849H   LINE      CODE     ---       #1080
      0100884BH   LINE      CODE     ---       #1081
      0100884EH   LINE      CODE     ---       #1082
      0100884EH   LINE      CODE     ---       #1084
      01008851H   LINE      CODE     ---       #1086
      01008851H   LINE      CODE     ---       #1087
      01008858H   LINE      CODE     ---       #1088
      01008862H   LINE      CODE     ---       #1089
      01008865H   LINE      CODE     ---       #1091
      01008868H   LINE      CODE     ---       #1093
      01008868H   LINE      CODE     ---       #1094
      01008876H   LINE      CODE     ---       #1095
      01008887H   LINE      CODE     ---       #1096
      0100888DH   LINE      CODE     ---       #1099
      01008892H   LINE      CODE     ---       #1101
      01008897H   LINE      CODE     ---       #1103
      0100889AH   LINE      CODE     ---       #1104
      0100889CH   LINE      CODE     ---       #1105
      0100889FH   LINE      CODE     ---       #1106
      0100889FH   LINE      CODE     ---       #1108
      010088A2H   LINE      CODE     ---       #1109
      010088A2H   LINE      CODE     ---       #1110
      010088A5H   LINE      CODE     ---       #1112
      010088A5H   LINE      CODE     ---       #1114
      010088B3H   LINE      CODE     ---       #1115
      010088F4H   LINE      CODE     ---       #1117
      010088F7H   LINE      CODE     ---       #1118
      010088F9H   LINE      CODE     ---       #1119
      010088FCH   LINE      CODE     ---       #1120
      010088FCH   LINE      CODE     ---       #1122
      0100890AH   LINE      CODE     ---       #1123
      01008928H   LINE      CODE     ---       #1125
      0100892BH   LINE      CODE     ---       #1126
LX51 LINKER/LOCATER V4.64.0.0                                                         01/10/2017  17:59:18  PAGE 71


      0100892DH   LINE      CODE     ---       #1127
      01008930H   LINE      CODE     ---       #1128
      01008930H   LINE      CODE     ---       #1131
      01008935H   LINE      CODE     ---       #1133
      0100893AH   LINE      CODE     ---       #1135
      01008941H   LINE      CODE     ---       #1137
      01008943H   LINE      CODE     ---       #1138
      01008943H   LINE      CODE     ---       #1139
      01008943H   LINE      CODE     ---       #1141
      01008943H   LINE      CODE     ---       #1142
      01008943H   LINE      CODE     ---       #1143
      01008943H   LINE      CODE     ---       #1145
      01008946H   LINE      CODE     ---       #1146
      01008948H   LINE      CODE     ---       #1147
      0100894BH   LINE      CODE     ---       #1148
      0100894BH   LINE      CODE     ---       #1150
      0100896CH   LINE      CODE     ---       #1151
      0100896CH   LINE      CODE     ---       #1152
      01008985H   LINE      CODE     ---       #1153
      010089A3H   LINE      CODE     ---       #1155
      010089A6H   LINE      CODE     ---       #1156
      010089A8H   LINE      CODE     ---       #1157
      010089ABH   LINE      CODE     ---       #1158
      010089ABH   LINE      CODE     ---       #1160
      010089BEH   LINE      CODE     ---       #1161
      010089C9H   LINE      CODE     ---       #1163
      010089DDH   LINE      CODE     ---       #1164
      010089E7H   LINE      CODE     ---       #1166
      010089F5H   LINE      CODE     ---       #1168
      010089F8H   LINE      CODE     ---       #1170
      010089F8H   LINE      CODE     ---       #1171
      010089FFH   LINE      CODE     ---       #1172
      01008A09H   LINE      CODE     ---       #1174
      01008A0CH   LINE      CODE     ---       #1175
      01008A0EH   LINE      CODE     ---       #1176
      01008A11H   LINE      CODE     ---       #1177
      01008A11H   LINE      CODE     ---       #1179
      01008A14H   LINE      CODE     ---       #1180
      01008A17H   LINE      CODE     ---       #1182
      01008A17H   LINE      CODE     ---       #1183
      01008A25H   LINE      CODE     ---       #1184
      01008A36H   LINE      CODE     ---       #1185
      01008A3CH   LINE      CODE     ---       #1188
      01008A41H   LINE      CODE     ---       #1190
      01008A46H   LINE      CODE     ---       #1192
      01008A49H   LINE      CODE     ---       #1193
      01008A4BH   LINE      CODE     ---       #1194
      01008A4EH   LINE      CODE     ---       #1195
      01008A4EH   LINE      CODE     ---       #1197
      01008A51H   LINE      CODE     ---       #1198
      01008A51H   LINE      CODE     ---       #1199
      01008A54H   LINE      CODE     ---       #1201
      01008A54H   LINE      CODE     ---       #1203
      01008A62H   LINE      CODE     ---       #1204
      01008AA3H   LINE      CODE     ---       #1206
      01008AA6H   LINE      CODE     ---       #1207
      01008AA8H   LINE      CODE     ---       #1208
      01008AABH   LINE      CODE     ---       #1209
      01008AABH   LINE      CODE     ---       #1211
      01008ABCH   LINE      CODE     ---       #1212
      01008ADAH   LINE      CODE     ---       #1215
      01008ADFH   LINE      CODE     ---       #1217
      01008AE4H   LINE      CODE     ---       #1219
      01008AEBH   LINE      CODE     ---       #1221
      01008AEEH   LINE      CODE     ---       #1222
LX51 LINKER/LOCATER V4.64.0.0                                                         01/10/2017  17:59:18  PAGE 72


      01008AF0H   LINE      CODE     ---       #1223
      01008AF3H   LINE      CODE     ---       #1224
      01008AF3H   LINE      CODE     ---       #1227
      01008B0AH   LINE      CODE     ---       #1230
      01008B0AH   LINE      CODE     ---       #1231
      01008B10H   LINE      CODE     ---       #1232
      01008B24H   LINE      CODE     ---       #1233
      01008B38H   LINE      CODE     ---       #1234
      01008B38H   LINE      CODE     ---       #1235
      01008B41H   LINE      CODE     ---       #1236
      01008B44H   LINE      CODE     ---       #1237
      01008B44H   LINE      CODE     ---       #1238
      01008B47H   LINE      CODE     ---       #1239
      01008B47H   LINE      CODE     ---       #1240
      01008B49H   LINE      CODE     ---       #1242
      01008B49H   LINE      CODE     ---       #1243
      01008B4DH   LINE      CODE     ---       #1244
      01008B50H   LINE      CODE     ---       #1245
      01008B50H   LINE      CODE     ---       #1247
      01008B50H   LINE      CODE     ---       #1248
      01008B50H   LINE      CODE     ---       #1249
      01008B50H   LINE      CODE     ---       #1251
      01008B53H   LINE      CODE     ---       #1252
      01008B55H   LINE      CODE     ---       #1253
      01008B58H   LINE      CODE     ---       #1254
      01008B58H   LINE      CODE     ---       #1255
      01008B5AH   LINE      CODE     ---       #1256
      01008B5AH   LINE      CODE     ---       #1258
      01008B5DH   LINE      CODE     ---       #1259
      01008B60H   LINE      CODE     ---       #1261
      01008B62H   LINE      CODE     ---       #1264
      01008B67H   LINE      CODE     ---       #1266
      01008B6CH   LINE      CODE     ---       #1268
      01008B6FH   LINE      CODE     ---       #1269
      01008B71H   LINE      CODE     ---       #1270
      01008B74H   LINE      CODE     ---       #1271
      01008B74H   LINE      CODE     ---       #1273
      01008B7AH   LINE      CODE     ---       #1274
      01008B91H   LINE      CODE     ---       #1277
      01008B91H   LINE      CODE     ---       #1278
      01008B96H   LINE      CODE     ---       #1279
      01008B9AH   LINE      CODE     ---       #1280
      01008B9AH   LINE      CODE     ---       #1281
      01008B9AH   LINE      CODE     ---       #1284
      01008BA5H   LINE      CODE     ---       #1287
      01008BB0H   LINE      CODE     ---       #1288
      01008BBBH   LINE      CODE     ---       #1290
      01008BBBH   LINE      CODE     ---       #1293
      01008BCCH   LINE      CODE     ---       #1294
      01008C18H   LINE      CODE     ---       #1296
      01008C1DH   LINE      CODE     ---       #1299
      01008C22H   LINE      CODE     ---       #1300
      01008C24H   LINE      CODE     ---       #1301
      01008C24H   LINE      CODE     ---       #1303
      01008C29H   LINE      CODE     ---       #1306
      01008C2EH   LINE      CODE     ---       #1307
      01008C2EH   LINE      CODE     ---       #1308
      01008C2EH   LINE      CODE     ---       #1310
      01008C31H   LINE      CODE     ---       #1311
      01008C33H   LINE      CODE     ---       #1312
      01008C36H   LINE      CODE     ---       #1313
      01008C36H   LINE      CODE     ---       #1314
      ---         BLOCKEND  ---      ---       LVL=0

      0100BEA4H   BLOCK     CODE     ---       LVL=0
LX51 LINKER/LOCATER V4.64.0.0                                                         01/10/2017  17:59:18  PAGE 73


      0100BEA4H   LINE      CODE     ---       #1320
      0100BEA4H   LINE      CODE     ---       #1321
      0100BEAFH   LINE      CODE     ---       #1323
      0100BEC9H   LINE      CODE     ---       #1325
      0100BECFH   LINE      CODE     ---       #1327
      0100BEF8H   LINE      CODE     ---       #1329
      0100BEFEH   LINE      CODE     ---       #1330
      0100BEFEH   LINE      CODE     ---       #1333
      0100BF08H   LINE      CODE     ---       #1334
      0100BF0BH   LINE      CODE     ---       #1336
      0100BF11H   LINE      CODE     ---       #1337
      0100BF17H   LINE      CODE     ---       #1338
      0100BF17H   LINE      CODE     ---       #1339
      ---         BLOCKEND  ---      ---       LVL=0

      0100BDB9H   BLOCK     CODE     ---       LVL=0
      0100BDB9H   BLOCK     CODE     NEAR LAB  LVL=1
      00000027H   SYMBOL    DATA     BYTE      index
      ---         BLOCKEND  ---      ---       LVL=1
      0100BDB9H   LINE      CODE     ---       #1345
      0100BDB9H   LINE      CODE     ---       #1349
      0100BDD4H   LINE      CODE     ---       #1350
      0100BDD9H   LINE      CODE     ---       #1351
      0100BDF5H   LINE      CODE     ---       #1352
      0100BDFBH   LINE      CODE     ---       #1353
      0100BDFCH   LINE      CODE     ---       #1354
      0100BE1FH   LINE      CODE     ---       #1355
      0100BE2EH   LINE      CODE     ---       #1356
      0100BE2EH   LINE      CODE     ---       #1357
      ---         BLOCKEND  ---      ---       LVL=0

      0100BBD7H   BLOCK     CODE     ---       LVL=0
      0100BBD7H   BLOCK     CODE     NEAR LAB  LVL=1
      02000002H   SYMBOL    XDATA    ---       packet_data
      0200000CH   SYMBOL    XDATA    BYTE      packet_lenght
      ---         BLOCKEND  ---      ---       LVL=1
      0100BBD7H   LINE      CODE     ---       #1364
      0100BBD7H   LINE      CODE     ---       #1369
      0100BBF1H   LINE      CODE     ---       #1373
      0100BBF1H   LINE      CODE     ---       #1374
      0100BBF7H   LINE      CODE     ---       #1376
      0100BBF7H   LINE      CODE     ---       #1379
      0100BBFDH   LINE      CODE     ---       #1381
      0100BC1CH   LINE      CODE     ---       #1382
      0100BC21H   LINE      CODE     ---       #1383
      0100BC27H   LINE      CODE     ---       #1384
      0100BC42H   LINE      CODE     ---       #1386
      0100BC4FH   LINE      CODE     ---       #1387
      ---         BLOCKEND  ---      ---       LVL=0

      ---         MODULE    ---      ---       MAIN
      010093C2H   PUBLIC    CODE     ---       main
      000000CAH   SFRSYM    DATA     BYTE      SFRPRT5SEL
      000000DAH   SFRSYM    DATA     BYTE      SFRPRT6SEL
      000000D0H.6 SFRSYM    DATA     BIT       AC
      000000A8H.7 SFRSYM    DATA     BIT       EA
      000000A8H   SFRSYM    DATA     BYTE      IE
      00000085H   SFRSYM    DATA     BYTE      DPH1
      00000084H   SFRSYM    DATA     BYTE      DPL1
      000000D0H.7 SFRSYM    DATA     BIT       CY
      000000A0H   SFRSYM    DATA     BYTE      P2AX
      00000095H   SFRSYM    DATA     BYTE      DPX1
      00000081H   SFRSYM    DATA     BYTE      SP
      000000D0H.2 SFRSYM    DATA     BIT       OV
      00000080H   SFRSYM    DATA     BYTE      SFRPRT0DR
LX51 LINKER/LOCATER V4.64.0.0                                                         01/10/2017  17:59:18  PAGE 74


      00000090H   SFRSYM    DATA     BYTE      SFRPRT1DR
      000000F2H   SFRSYM    DATA     BYTE      SFRPRT12SEL
      00000098H   SFRSYM    DATA     BYTE      SFRPRT2DR
      000000B0H   SFRSYM    DATA     BYTE      SFRPRT3DR
      000000C0H   SFRSYM    DATA     BYTE      SFRPRT4DR
      000000FAH   SFRSYM    DATA     BYTE      SFRPRT15SEL
      000000C8H   SFRSYM    DATA     BYTE      SFRPRT5DR
      000000D8H   SFRSYM    DATA     BYTE      SFRPRT6DR
      00000089H   SFRSYM    DATA     BYTE      SFRPRT0PS
      00000091H   SFRSYM    DATA     BYTE      SFRPRT1PS
      00000099H   SFRSYM    DATA     BYTE      SFRPRT2PS
      000000B1H   SFRSYM    DATA     BYTE      SFRPRT3PS
      000000C1H   SFRSYM    DATA     BYTE      SFRPRT4PS
      000000C9H   SFRSYM    DATA     BYTE      SFRPRT5PS
      000000D9H   SFRSYM    DATA     BYTE      SFRPRT6PS
      000000EAH   SFRSYM    DATA     BYTE      MXAX
      000000F0H   SFRSYM    DATA     BYTE      B
      000000E0H   SFRSYM    DATA     BYTE      ACC
      000000D0H   SFRSYM    DATA     BIT       P
      000000D0H.3 SFRSYM    DATA     BIT       RS0
      000000D0H.4 SFRSYM    DATA     BIT       RS1
      00000083H   SFRSYM    DATA     BYTE      DPH
      000000E8H   SFRSYM    DATA     BYTE      SFRPRT12DR
      00000082H   SFRSYM    DATA     BYTE      DPL
      000000F8H   SFRSYM    DATA     BYTE      SFRPRT15DR
      00000086H   SFRSYM    DATA     BYTE      DPS
      000000E9H   SFRSYM    DATA     BYTE      SFRPRT12PS
      00000093H   SFRSYM    DATA     BYTE      DPX
      000000F9H   SFRSYM    DATA     BYTE      SFRPRT15PS
      000000D0H.5 SFRSYM    DATA     BIT       F0
      000000D0H.1 SFRSYM    DATA     BIT       F1
      0000008AH   SFRSYM    DATA     BYTE      SFRPRT0SEL
      000000D0H   SFRSYM    DATA     BYTE      PSW
      000000A2H   SFRSYM    DATA     BYTE      SFRPRT1SEL
      0000009AH   SFRSYM    DATA     BYTE      SFRPRT2SEL
      000000B2H   SFRSYM    DATA     BYTE      SFRPRT3SEL
      000000C2H   SFRSYM    DATA     BYTE      SFRPRT4SEL

      010093C2H   BLOCK     CODE     ---       LVL=0
      010093C2H   BLOCK     CODE     NEAR LAB  LVL=1
      00000003H   SYMBOL    DATA     BYTE      i
      02000000H   SYMBOL    XDATA    BYTE      DMA_Chan
      02000001H   SYMBOL    XDATA    ---       DMA_TD
      ---         BLOCKEND  ---      ---       LVL=1
      010093C2H   LINE      CODE     ---       #51
      010093C2H   LINE      CODE     ---       #52
      010093C2H   LINE      CODE     ---       #65
      010093C5H   LINE      CODE     ---       #66
      010093C8H   LINE      CODE     ---       #70
      010093D1H   LINE      CODE     ---       #71
      010093D6H   LINE      CODE     ---       #74
      010093DBH   LINE      CODE     ---       #76
      010093E0H   LINE      CODE     ---       #77
      010093E3H   LINE      CODE     ---       #78
      010093E8H   LINE      CODE     ---       #82
      010093EBH   LINE      CODE     ---       #83
      010093EEH   LINE      CODE     ---       #84
      010093F1H   LINE      CODE     ---       #86
      010093F4H   LINE      CODE     ---       #87
      010093F7H   LINE      CODE     ---       #89
      010093FEH   LINE      CODE     ---       #93
      01009401H   LINE      CODE     ---       #95
      01009408H   LINE      CODE     ---       #99
      0100940BH   LINE      CODE     ---       #100
      01009410H   LINE      CODE     ---       #101
LX51 LINKER/LOCATER V4.64.0.0                                                         01/10/2017  17:59:18  PAGE 75


      01009415H   LINE      CODE     ---       #102
      0100941AH   LINE      CODE     ---       #103
      0100941FH   LINE      CODE     ---       #108
      01009422H   LINE      CODE     ---       #110
      01009425H   LINE      CODE     ---       #111
      01009428H   LINE      CODE     ---       #112
      0100942BH   LINE      CODE     ---       #116
      0100942EH   LINE      CODE     ---       #117
      01009433H   LINE      CODE     ---       #120
      01009448H   LINE      CODE     ---       #121
      01009450H   LINE      CODE     ---       #122
      01009460H   LINE      CODE     ---       #123
      01009477H   LINE      CODE     ---       #124
      01009482H   LINE      CODE     ---       #126
      0100948CH   LINE      CODE     ---       #128
      01009491H   LINE      CODE     ---       #132
      01009494H   LINE      CODE     ---       #133
      01009497H   LINE      CODE     ---       #135
      0100949FH   LINE      CODE     ---       #139
      010094A4H   LINE      CODE     ---       #141
      010094ADH   LINE      CODE     ---       #144
      010094B5H   LINE      CODE     ---       #145
      010094CDH   LINE      CODE     ---       #148
      010094D3H   LINE      CODE     ---       #149
      010094EAH   LINE      CODE     ---       #153
      010094F1H   LINE      CODE     ---       #155
      010094F9H   LINE      CODE     ---       #156
      010094FBH   LINE      CODE     ---       #158
      01009503H   LINE      CODE     ---       #161
      0100950BH   LINE      CODE     ---       #162
      01009521H   LINE      CODE     ---       #163
      0100952DH   LINE      CODE     ---       #164
      0100952FH   LINE      CODE     ---       #166
      01009542H   LINE      CODE     ---       #168
      0100954CH   LINE      CODE     ---       #171
      01009557H   LINE      CODE     ---       #172
      01009562H   LINE      CODE     ---       #174
      01009567H   LINE      CODE     ---       #176
      0100956CH   LINE      CODE     ---       #177
      0100956EH   LINE      CODE     ---       #179
      01009570H   LINE      CODE     ---       #182
      01009576H   LINE      CODE     ---       #183
      0100957AH   LINE      CODE     ---       #186
      0100957FH   LINE      CODE     ---       #190
      0100957FH   LINE      CODE     ---       #191
      0100957FH   LINE      CODE     ---       #193
      01009584H   LINE      CODE     ---       #196
      01009587H   LINE      CODE     ---       #199
      0100958DH   LINE      CODE     ---       #201
      01009590H   LINE      CODE     ---       #203
      01009595H   LINE      CODE     ---       #205
      01009597H   LINE      CODE     ---       #206
      01009599H   LINE      CODE     ---       #208
      0100959CH   LINE      CODE     ---       #209
      0100959EH   LINE      CODE     ---       #211
      0100959EH   LINE      CODE     ---       #212
      010095A1H   LINE      CODE     ---       #214
      010095A6H   LINE      CODE     ---       #216
      010095ABH   LINE      CODE     ---       #217
      010095ABH   LINE      CODE     ---       #218
      010095ABH   LINE      CODE     ---       #219
      010095ADH   LINE      CODE     ---       #222
      010095B2H   LINE      CODE     ---       #225
      010095BAH   LINE      CODE     ---       #227
      010095C1H   LINE      CODE     ---       #228
LX51 LINKER/LOCATER V4.64.0.0                                                         01/10/2017  17:59:18  PAGE 76


      010095C4H   LINE      CODE     ---       #229
      010095C6H   LINE      CODE     ---       #230
      010095C6H   LINE      CODE     ---       #231
      ---         BLOCKEND  ---      ---       LVL=0

      ---         MODULE    ---      ---       UTILS
      02000016H   PUBLIC    XDATA    BYTE      ?_calc_turns_fcn?BYTE
      0100ADFBH   PUBLIC    CODE     ---       _calc_turns_fcn
      0100A245H   PUBLIC    CODE     ---       calibration
      0200001EH   PUBLIC    XDATA    BYTE      ?_my_mod?BYTE
      0100BB56H   PUBLIC    CODE     ---       _my_mod
      0100BFF7H   PUBLIC    CODE     ---       _check_enc_data
      0100BAD3H   PUBLIC    CODE     ---       _filter_acc_3
      0100BA50H   PUBLIC    CODE     ---       _filter_acc_2
      0100B9CDH   PUBLIC    CODE     ---       _filter_acc_1
      0100B94AH   PUBLIC    CODE     ---       _filter_ch2
      0100AF8EH   PUBLIC    CODE     ---       _filter_curr_diff
      0100B8C7H   PUBLIC    CODE     ---       _filter_vel_3
      0100B844H   PUBLIC    CODE     ---       _filter_vel_2
      0100B7C1H   PUBLIC    CODE     ---       _filter_vel_1
      0100B73EH   PUBLIC    CODE     ---       _filter_ch1
      0100BE2FH   PUBLIC    CODE     ---       _filter_i1
      02000008H   PUBLIC    XDATA    BYTE      ?_curr_estim?BYTE
      01009AD2H   PUBLIC    CODE     ---       _curr_estim
      000000CAH   SFRSYM    DATA     BYTE      SFRPRT5SEL
      000000DAH   SFRSYM    DATA     BYTE      SFRPRT6SEL
      000000D0H.6 SFRSYM    DATA     BIT       AC
      000000A8H.7 SFRSYM    DATA     BIT       EA
      000000A8H   SFRSYM    DATA     BYTE      IE
      00000085H   SFRSYM    DATA     BYTE      DPH1
      00000084H   SFRSYM    DATA     BYTE      DPL1
      000000D0H.7 SFRSYM    DATA     BIT       CY
      000000A0H   SFRSYM    DATA     BYTE      P2AX
      00000095H   SFRSYM    DATA     BYTE      DPX1
      00000081H   SFRSYM    DATA     BYTE      SP
      000000D0H.2 SFRSYM    DATA     BIT       OV
      00000080H   SFRSYM    DATA     BYTE      SFRPRT0DR
      00000090H   SFRSYM    DATA     BYTE      SFRPRT1DR
      000000F2H   SFRSYM    DATA     BYTE      SFRPRT12SEL
      00000098H   SFRSYM    DATA     BYTE      SFRPRT2DR
      000000B0H   SFRSYM    DATA     BYTE      SFRPRT3DR
      000000C0H   SFRSYM    DATA     BYTE      SFRPRT4DR
      000000FAH   SFRSYM    DATA     BYTE      SFRPRT15SEL
      000000C8H   SFRSYM    DATA     BYTE      SFRPRT5DR
      000000D8H   SFRSYM    DATA     BYTE      SFRPRT6DR
      00000089H   SFRSYM    DATA     BYTE      SFRPRT0PS
      00000091H   SFRSYM    DATA     BYTE      SFRPRT1PS
      00000099H   SFRSYM    DATA     BYTE      SFRPRT2PS
      000000B1H   SFRSYM    DATA     BYTE      SFRPRT3PS
      000000C1H   SFRSYM    DATA     BYTE      SFRPRT4PS
      000000C9H   SFRSYM    DATA     BYTE      SFRPRT5PS
      000000D9H   SFRSYM    DATA     BYTE      SFRPRT6PS
      000000EAH   SFRSYM    DATA     BYTE      MXAX
      000000F0H   SFRSYM    DATA     BYTE      B
      000000E0H   SFRSYM    DATA     BYTE      ACC
      000000D0H   SFRSYM    DATA     BIT       P
      000000D0H.3 SFRSYM    DATA     BIT       RS0
      000000D0H.4 SFRSYM    DATA     BIT       RS1
      00000083H   SFRSYM    DATA     BYTE      DPH
      000000E8H   SFRSYM    DATA     BYTE      SFRPRT12DR
      00000082H   SFRSYM    DATA     BYTE      DPL
      000000F8H   SFRSYM    DATA     BYTE      SFRPRT15DR
      00000086H   SFRSYM    DATA     BYTE      DPS
      000000E9H   SFRSYM    DATA     BYTE      SFRPRT12PS
      00000093H   SFRSYM    DATA     BYTE      DPX
LX51 LINKER/LOCATER V4.64.0.0                                                         01/10/2017  17:59:18  PAGE 77


      000000F9H   SFRSYM    DATA     BYTE      SFRPRT15PS
      000000D0H.5 SFRSYM    DATA     BIT       F0
      000000D0H.1 SFRSYM    DATA     BIT       F1
      0000008AH   SFRSYM    DATA     BYTE      SFRPRT0SEL
      000000D0H   SFRSYM    DATA     BYTE      PSW
      000000A2H   SFRSYM    DATA     BYTE      SFRPRT1SEL
      0000009AH   SFRSYM    DATA     BYTE      SFRPRT2SEL
      000000B2H   SFRSYM    DATA     BYTE      SFRPRT3SEL
      000000C2H   SFRSYM    DATA     BYTE      SFRPRT4SEL

      01009AD2H   BLOCK     CODE     ---       LVL=0
      02000008H   SYMBOL    XDATA    LONG      pos
      0200000CH   SYMBOL    XDATA    LONG      vel
      02000010H   SYMBOL    XDATA    LONG      acc
      01009AD2H   LINE      CODE     ---       #22
      01009AD8H   LINE      CODE     ---       #23
      01009C73H   LINE      CODE     ---       #29
      ---         BLOCKEND  ---      ---       LVL=0
      00000004H   SYMBOL    DATA     LONG      new_value
      02000CA5H   SYMBOL    XDATA    LONG      old_value
      02000CA9H   SYMBOL    XDATA    LONG      aux

      0100BE2FH   BLOCK     CODE     ---       LVL=0
      00000004H   SYMBOL    DATA     LONG      new_value
      0100BE2FH   BLOCK     CODE     NEAR LAB  LVL=1
      02000CADH   SYMBOL    XDATA    LONG      old_value
      02000CB1H   SYMBOL    XDATA    LONG      aux
      ---         BLOCKEND  ---      ---       LVL=1
      0100BE2FH   LINE      CODE     ---       #46
      0100BE2FH   LINE      CODE     ---       #50
      0100BE7CH   LINE      CODE     ---       #52
      0100BE90H   LINE      CODE     ---       #54
      0100BEA3H   LINE      CODE     ---       #55
      ---         BLOCKEND  ---      ---       LVL=0

      0100B73EH   BLOCK     CODE     ---       LVL=0
      02000002H   SYMBOL    XDATA    LONG      new_value
      0100B744H   BLOCK     CODE     NEAR LAB  LVL=1
      02000CB5H   SYMBOL    XDATA    LONG      old_value
      02000CB9H   SYMBOL    XDATA    LONG      aux
      ---         BLOCKEND  ---      ---       LVL=1
      0100B73EH   LINE      CODE     ---       #61
      0100B744H   LINE      CODE     ---       #65
      0100B79EH   LINE      CODE     ---       #67
      0100B7B2H   LINE      CODE     ---       #69
      0100B7C0H   LINE      CODE     ---       #70
      ---         BLOCKEND  ---      ---       LVL=0

      0100B7C1H   BLOCK     CODE     ---       LVL=0
      02000016H   SYMBOL    XDATA    LONG      new_value
      0100B7C7H   BLOCK     CODE     NEAR LAB  LVL=1
      02000CBDH   SYMBOL    XDATA    LONG      old_out
      02000CC1H   SYMBOL    XDATA    LONG      aux
      ---         BLOCKEND  ---      ---       LVL=1
      0100B7C1H   LINE      CODE     ---       #76
      0100B7C7H   LINE      CODE     ---       #80
      0100B821H   LINE      CODE     ---       #82
      0100B835H   LINE      CODE     ---       #84
      0100B843H   LINE      CODE     ---       #85
      ---         BLOCKEND  ---      ---       LVL=0

      0100B844H   BLOCK     CODE     ---       LVL=0
      02000016H   SYMBOL    XDATA    LONG      new_value
      0100B84AH   BLOCK     CODE     NEAR LAB  LVL=1
      02000CC5H   SYMBOL    XDATA    LONG      old_out
LX51 LINKER/LOCATER V4.64.0.0                                                         01/10/2017  17:59:18  PAGE 78


      02000CC9H   SYMBOL    XDATA    LONG      aux
      ---         BLOCKEND  ---      ---       LVL=1
      0100B844H   LINE      CODE     ---       #87
      0100B84AH   LINE      CODE     ---       #91
      0100B8A4H   LINE      CODE     ---       #93
      0100B8B8H   LINE      CODE     ---       #95
      0100B8C6H   LINE      CODE     ---       #96
      ---         BLOCKEND  ---      ---       LVL=0

      0100B8C7H   BLOCK     CODE     ---       LVL=0
      02000016H   SYMBOL    XDATA    LONG      new_value
      0100B8CDH   BLOCK     CODE     NEAR LAB  LVL=1
      02000CCDH   SYMBOL    XDATA    LONG      old_out
      02000CD1H   SYMBOL    XDATA    LONG      aux
      ---         BLOCKEND  ---      ---       LVL=1
      0100B8C7H   LINE      CODE     ---       #98
      0100B8CDH   LINE      CODE     ---       #102
      0100B927H   LINE      CODE     ---       #104
      0100B93BH   LINE      CODE     ---       #106
      0100B949H   LINE      CODE     ---       #107
      ---         BLOCKEND  ---      ---       LVL=0

      0100AF8EH   BLOCK     CODE     ---       LVL=0
      02000008H   SYMBOL    XDATA    LONG      curr_diff
      0100AF94H   BLOCK     CODE     NEAR LAB  LVL=1
      02000CD5H   SYMBOL    XDATA    LONG      old_out
      02000CD9H   SYMBOL    XDATA    LONG      aux
      02000CDDH   SYMBOL    XDATA    LONG      old_input
      ---         BLOCKEND  ---      ---       LVL=1
      0100AF8EH   LINE      CODE     ---       #113
      0100AF94H   LINE      CODE     ---       #117
      0100B00AH   LINE      CODE     ---       #119
      0100B01EH   LINE      CODE     ---       #120
      0100B032H   LINE      CODE     ---       #122
      0100B040H   LINE      CODE     ---       #123
      ---         BLOCKEND  ---      ---       LVL=0

      0100B94AH   BLOCK     CODE     ---       LVL=0
      02000002H   SYMBOL    XDATA    LONG      new_value
      0100B950H   BLOCK     CODE     NEAR LAB  LVL=1
      02000CE1H   SYMBOL    XDATA    LONG      old_value
      02000CE5H   SYMBOL    XDATA    LONG      aux
      ---         BLOCKEND  ---      ---       LVL=1
      0100B94AH   LINE      CODE     ---       #129
      0100B950H   LINE      CODE     ---       #133
      0100B9AAH   LINE      CODE     ---       #135
      0100B9BEH   LINE      CODE     ---       #137
      0100B9CCH   LINE      CODE     ---       #138
      ---         BLOCKEND  ---      ---       LVL=0

      0100B9CDH   BLOCK     CODE     ---       LVL=0
      02000016H   SYMBOL    XDATA    LONG      new_value
      0100B9D3H   BLOCK     CODE     NEAR LAB  LVL=1
      02000CE9H   SYMBOL    XDATA    LONG      old_out
      02000CEDH   SYMBOL    XDATA    LONG      aux
      ---         BLOCKEND  ---      ---       LVL=1
      0100B9CDH   LINE      CODE     ---       #144
      0100B9D3H   LINE      CODE     ---       #148
      0100BA2DH   LINE      CODE     ---       #150
      0100BA41H   LINE      CODE     ---       #152
      0100BA4FH   LINE      CODE     ---       #153
      ---         BLOCKEND  ---      ---       LVL=0

      0100BA50H   BLOCK     CODE     ---       LVL=0
      02000016H   SYMBOL    XDATA    LONG      new_value
LX51 LINKER/LOCATER V4.64.0.0                                                         01/10/2017  17:59:18  PAGE 79


      0100BA56H   BLOCK     CODE     NEAR LAB  LVL=1
      02000CF1H   SYMBOL    XDATA    LONG      old_out
      02000CF5H   SYMBOL    XDATA    LONG      aux
      ---         BLOCKEND  ---      ---       LVL=1
      0100BA50H   LINE      CODE     ---       #155
      0100BA56H   LINE      CODE     ---       #159
      0100BAB0H   LINE      CODE     ---       #161
      0100BAC4H   LINE      CODE     ---       #163
      0100BAD2H   LINE      CODE     ---       #164
      ---         BLOCKEND  ---      ---       LVL=0

      0100BAD3H   BLOCK     CODE     ---       LVL=0
      02000016H   SYMBOL    XDATA    LONG      new_value
      0100BAD9H   BLOCK     CODE     NEAR LAB  LVL=1
      02000CF9H   SYMBOL    XDATA    LONG      old_out
      02000CFDH   SYMBOL    XDATA    LONG      aux
      ---         BLOCKEND  ---      ---       LVL=1
      0100BAD3H   LINE      CODE     ---       #166
      0100BAD9H   LINE      CODE     ---       #170
      0100BB33H   LINE      CODE     ---       #172
      0100BB47H   LINE      CODE     ---       #174
      0100BB55H   LINE      CODE     ---       #175
      ---         BLOCKEND  ---      ---       LVL=0

      0100BFF7H   BLOCK     CODE     ---       LVL=0
      00000001H   SYMBOL    DATA     ---       value
      0100BFF7H   BLOCK     CODE     NEAR LAB  LVL=1
      00000014H   SYMBOL    IDATA    ---       p
      00000024H   SYMBOL    DATA     BYTE      a
      ---         BLOCKEND  ---      ---       LVL=1
      0100BFF7H   LINE      CODE     ---       #183
      0100BFF7H   LINE      CODE     ---       #185
      0100C001H   LINE      CODE     ---       #186
      0100C006H   LINE      CODE     ---       #188
      0100C01AH   LINE      CODE     ---       #189
      0100C02EH   LINE      CODE     ---       #190
      0100C042H   LINE      CODE     ---       #191
      0100C04FH   LINE      CODE     ---       #193
      0100C061H   LINE      CODE     ---       #195
      ---         BLOCKEND  ---      ---       LVL=0

      0100BB56H   BLOCK     CODE     ---       LVL=0
      0200001EH   SYMBOL    XDATA    LONG      val
      02000022H   SYMBOL    XDATA    LONG      divisor
      0100BB56H   LINE      CODE     ---       #213
      0100BB5CH   LINE      CODE     ---       #215
      0100BB75H   LINE      CODE     ---       #216
      0100BB9DH   LINE      CODE     ---       #217
      0100BB9DH   LINE      CODE     ---       #218
      0100BBD6H   LINE      CODE     ---       #219
      0100BBD6H   LINE      CODE     ---       #220
      ---         BLOCKEND  ---      ---       LVL=0

      0100A245H   BLOCK     CODE     ---       LVL=0
      0100A245H   BLOCK     CODE     NEAR LAB  LVL=1
      02000D01H   SYMBOL    XDATA    BYTE      direction
      02000D02H   SYMBOL    XDATA    WORD      closure_counter
      ---         BLOCKEND  ---      ---       LVL=1
      0100A245H   LINE      CODE     ---       #227
      0100A245H   LINE      CODE     ---       #233
      0100A24BH   LINE      CODE     ---       #234
      0100A29AH   LINE      CODE     ---       #235
      0100A2BFH   LINE      CODE     ---       #236
      0100A2C5H   LINE      CODE     ---       #237
      0100A2C5H   LINE      CODE     ---       #238
LX51 LINKER/LOCATER V4.64.0.0                                                         01/10/2017  17:59:18  PAGE 80


      0100A2C6H   LINE      CODE     ---       #239
      0100A319H   LINE      CODE     ---       #240
      0100A342H   LINE      CODE     ---       #241
      0100A347H   LINE      CODE     ---       #242
      0100A355H   LINE      CODE     ---       #243
      0100A369H   LINE      CODE     ---       #244
      0100A370H   LINE      CODE     ---       #245
      0100A374H   LINE      CODE     ---       #246
      0100A374H   LINE      CODE     ---       #247
      0100A374H   LINE      CODE     ---       #248
      0100A374H   LINE      CODE     ---       #249
      ---         BLOCKEND  ---      ---       LVL=0

      0100ADFBH   BLOCK     CODE     ---       LVL=0
      02000016H   SYMBOL    XDATA    LONG      pos1
      0200001AH   SYMBOL    XDATA    LONG      pos2
      0100AE01H   BLOCK     CODE     NEAR LAB  LVL=1
      00000004H   SYMBOL    DATA     LONG      x
      00000004H   SYMBOL    DATA     LONG      aux
      ---         BLOCKEND  ---      ---       LVL=1
      0100ADFBH   LINE      CODE     ---       #285
      0100AE01H   LINE      CODE     ---       #287
      0100AE82H   LINE      CODE     ---       #289
      0100AEA1H   LINE      CODE     ---       #291
      0100AED5H   LINE      CODE     ---       #292
      ---         BLOCKEND  ---      ---       LVL=0

      ---         MODULE    ---      ---       CLOCK_UART
      0100D009H   PUBLIC    CODE     ---       CLOCK_UART_GetSourceRegister
      0100CF91H   PUBLIC    CODE     ---       CLOCK_UART_GetDividerRegister
      0100A375H   PUBLIC    CODE     ---       _CLOCK_UART_SetDividerRegister
      00000007H   SYMBOL    DATA     BYTE      state

      0100A375H   BLOCK     CODE     ---       LVL=0
      02000002H   SYMBOL    XDATA    WORD      clkDivider
      02000004H   SYMBOL    XDATA    BYTE      restart
      0100A380H   BLOCK     CODE     NEAR LAB  LVL=1
      02000005H   SYMBOL    XDATA    BYTE      enabled
      02000006H   SYMBOL    XDATA    BYTE      currSrc
      02000007H   SYMBOL    XDATA    WORD      oldDivider
      ---         BLOCKEND  ---      ---       LVL=1
      0100A375H   LINE      CODE     ---       #193
      0100A380H   LINE      CODE     ---       #195
      0100A380H   LINE      CODE     ---       #198
      0100A388H   LINE      CODE     ---       #199
      0100A393H   LINE      CODE     ---       #201
      0100A3A5H   LINE      CODE     ---       #202
      0100A3A5H   LINE      CODE     ---       #203
      0100A3AFH   LINE      CODE     ---       #205
      0100A3C0H   LINE      CODE     ---       #206
      0100A3C0H   LINE      CODE     ---       #208
      0100A3C4H   LINE      CODE     ---       #209
      0100A3C4H   LINE      CODE     ---       #213
      0100A3CDH   LINE      CODE     ---       #214
      0100A3D4H   LINE      CODE     ---       #215
      0100A3D5H   LINE      CODE     ---       #217
      0100A3D5H   LINE      CODE     ---       #220
      0100A3DCH   LINE      CODE     ---       #221
      0100A3EDH   LINE      CODE     ---       #222
      0100A3EDH   LINE      CODE     ---       #223
      0100A3EEH   LINE      CODE     ---       #225
      0100A3EEH   LINE      CODE     ---       #227
      0100A3F4H   LINE      CODE     ---       #228
      0100A3F4H   LINE      CODE     ---       #229
      0100A3F9H   LINE      CODE     ---       #236
LX51 LINKER/LOCATER V4.64.0.0                                                         01/10/2017  17:59:18  PAGE 81


      0100A3FEH   LINE      CODE     ---       #237
      0100A403H   LINE      CODE     ---       #240
      0100A40AH   LINE      CODE     ---       #243
      0100A41CH   LINE      CODE     ---       #244
      0100A41CH   LINE      CODE     ---       #246
      0100A42DH   LINE      CODE     ---       #247
      0100A433H   LINE      CODE     ---       #250
      0100A43BH   LINE      CODE     ---       #253
      0100A442H   LINE      CODE     ---       #257
      0100A447H   LINE      CODE     ---       #259
      0100A447H   LINE      CODE     ---       #260
      0100A447H   LINE      CODE     ---       #263
      0100A44FH   LINE      CODE     ---       #264
      0100A44FH   LINE      CODE     ---       #266
      0100A460H   LINE      CODE     ---       #268
      0100A473H   LINE      CODE     ---       #269
      0100A47DH   LINE      CODE     ---       #270
      0100A47EH   LINE      CODE     ---       #272
      0100A47EH   LINE      CODE     ---       #274
      0100A48FH   LINE      CODE     ---       #275
      0100A4A4H   LINE      CODE     ---       #276
      0100A4A4H   LINE      CODE     ---       #277
      0100A4A4H   LINE      CODE     ---       #278
      0100A4A4H   LINE      CODE     ---       #279
      ---         BLOCKEND  ---      ---       LVL=0

      0100CF91H   BLOCK     CODE     ---       LVL=0
      0100CF91H   LINE      CODE     ---       #297
      0100CF91H   LINE      CODE     ---       #298
      0100CF91H   LINE      CODE     ---       #299
      0100CF9AH   LINE      CODE     ---       #300
      ---         BLOCKEND  ---      ---       LVL=0
      00000007H   SYMBOL    DATA     BYTE      modeBitMask
      00000007H   SYMBOL    DATA     BYTE      modeBitMask
      00000007H   SYMBOL    DATA     BYTE      oldSrc

      0100D009H   BLOCK     CODE     ---       LVL=0
      0100D009H   LINE      CODE     ---       #464
      0100D009H   LINE      CODE     ---       #465
      0100D009H   LINE      CODE     ---       #466
      0100D010H   LINE      CODE     ---       #467
      ---         BLOCKEND  ---      ---       LVL=0

      ---         MODULE    ---      ---       ISR_RS485_RX
      0100D050H   PUBLIC    CODE     ---       ISR_RS485_RX_Disable
      0100D049H   PUBLIC    CODE     ---       ISR_RS485_RX_Enable
      0100CF9BH   PUBLIC    CODE     ---       _ISR_RS485_RX_SetPriority
      0100CE8FH   PUBLIC    CODE     ---       _ISR_RS485_RX_SetVector
      0100C9C7H   PUBLIC    CODE     ---       ISR_RS485_RX_Interrupt
      0100CB65H   PUBLIC    CODE     ---       _ISR_RS485_RX_StartEx
      000000CAH   SFRSYM    DATA     BYTE      SFRPRT5SEL
      000000DAH   SFRSYM    DATA     BYTE      SFRPRT6SEL
      000000D0H.6 SFRSYM    DATA     BIT       AC
      000000A8H.7 SFRSYM    DATA     BIT       EA
      000000A8H   SFRSYM    DATA     BYTE      IE
      00000085H   SFRSYM    DATA     BYTE      DPH1
      00000084H   SFRSYM    DATA     BYTE      DPL1
      000000D0H.7 SFRSYM    DATA     BIT       CY
      000000A0H   SFRSYM    DATA     BYTE      P2AX
      00000095H   SFRSYM    DATA     BYTE      DPX1
      00000081H   SFRSYM    DATA     BYTE      SP
      000000D0H.2 SFRSYM    DATA     BIT       OV
      00000080H   SFRSYM    DATA     BYTE      SFRPRT0DR
      00000090H   SFRSYM    DATA     BYTE      SFRPRT1DR
      000000F2H   SFRSYM    DATA     BYTE      SFRPRT12SEL
LX51 LINKER/LOCATER V4.64.0.0                                                         01/10/2017  17:59:18  PAGE 82


      00000098H   SFRSYM    DATA     BYTE      SFRPRT2DR
      000000B0H   SFRSYM    DATA     BYTE      SFRPRT3DR
      000000C0H   SFRSYM    DATA     BYTE      SFRPRT4DR
      000000FAH   SFRSYM    DATA     BYTE      SFRPRT15SEL
      000000C8H   SFRSYM    DATA     BYTE      SFRPRT5DR
      000000D8H   SFRSYM    DATA     BYTE      SFRPRT6DR
      00000089H   SFRSYM    DATA     BYTE      SFRPRT0PS
      00000091H   SFRSYM    DATA     BYTE      SFRPRT1PS
      00000099H   SFRSYM    DATA     BYTE      SFRPRT2PS
      000000B1H   SFRSYM    DATA     BYTE      SFRPRT3PS
      000000C1H   SFRSYM    DATA     BYTE      SFRPRT4PS
      000000C9H   SFRSYM    DATA     BYTE      SFRPRT5PS
      000000D9H   SFRSYM    DATA     BYTE      SFRPRT6PS
      000000EAH   SFRSYM    DATA     BYTE      MXAX
      000000F0H   SFRSYM    DATA     BYTE      B
      000000E0H   SFRSYM    DATA     BYTE      ACC
      000000D0H   SFRSYM    DATA     BIT       P
      000000D0H.3 SFRSYM    DATA     BIT       RS0
      000000D0H.4 SFRSYM    DATA     BIT       RS1
      00000083H   SFRSYM    DATA     BYTE      DPH
      000000E8H   SFRSYM    DATA     BYTE      SFRPRT12DR
      00000082H   SFRSYM    DATA     BYTE      DPL
      000000F8H   SFRSYM    DATA     BYTE      SFRPRT15DR
      00000086H   SFRSYM    DATA     BYTE      DPS
      000000E9H   SFRSYM    DATA     BYTE      SFRPRT12PS
      00000093H   SFRSYM    DATA     BYTE      DPX
      000000F9H   SFRSYM    DATA     BYTE      SFRPRT15PS
      000000D0H.5 SFRSYM    DATA     BIT       F0
      000000D0H.1 SFRSYM    DATA     BIT       F1
      0000008AH   SFRSYM    DATA     BYTE      SFRPRT0SEL
      000000D0H   SFRSYM    DATA     BYTE      PSW
      000000A2H   SFRSYM    DATA     BYTE      SFRPRT1SEL
      0000009AH   SFRSYM    DATA     BYTE      SFRPRT2SEL
      000000B2H   SFRSYM    DATA     BYTE      SFRPRT3SEL
      000000C2H   SFRSYM    DATA     BYTE      SFRPRT4SEL

      0100CB65H   BLOCK     CODE     ---       LVL=0
      02000002H   SYMBOL    XDATA    ---       address
      0100CB65H   LINE      CODE     ---       #94
      0100CB6DH   LINE      CODE     ---       #95
      0100CB6DH   LINE      CODE     ---       #97
      0100CB70H   LINE      CODE     ---       #100
      0100CB7BH   LINE      CODE     ---       #103
      0100CB80H   LINE      CODE     ---       #106
      0100CB83H   LINE      CODE     ---       #107
      ---         BLOCKEND  ---      ---       LVL=0

      0100C9C7H   BLOCK     CODE     ---       LVL=0
      0100C9C7H   LINE      CODE     ---       #151
      0100C9C7H   LINE      CODE     ---       #168
      ---         BLOCKEND  ---      ---       LVL=0

      0100CE8FH   BLOCK     CODE     ---       LVL=0
      00000006H   SYMBOL    DATA     ---       address
      0100CE8FH   LINE      CODE     ---       #198
      0100CE8FH   LINE      CODE     ---       #199
      0100CE8FH   LINE      CODE     ---       #200
      0100CE9CH   LINE      CODE     ---       #201
      ---         BLOCKEND  ---      ---       LVL=0

      0100CF9BH   BLOCK     CODE     ---       LVL=0
      00000007H   SYMBOL    DATA     BYTE      priority
      0100CF9BH   LINE      CODE     ---       #248
      0100CF9BH   LINE      CODE     ---       #249
      0100CF9BH   LINE      CODE     ---       #250
LX51 LINKER/LOCATER V4.64.0.0                                                         01/10/2017  17:59:18  PAGE 83


      0100CFA4H   LINE      CODE     ---       #251
      ---         BLOCKEND  ---      ---       LVL=0
      00000007H   SYMBOL    DATA     BYTE      priority

      0100D049H   BLOCK     CODE     ---       LVL=0
      0100D049H   LINE      CODE     ---       #297
      0100D049H   LINE      CODE     ---       #298
      0100D049H   LINE      CODE     ---       #300
      0100D04FH   LINE      CODE     ---       #301
      ---         BLOCKEND  ---      ---       LVL=0

      0100D050H   BLOCK     CODE     ---       LVL=0
      0100D050H   LINE      CODE     ---       #339
      0100D050H   LINE      CODE     ---       #340
      0100D050H   LINE      CODE     ---       #342
      0100D056H   LINE      CODE     ---       #343
      ---         BLOCKEND  ---      ---       LVL=0

      ---         MODULE    ---      ---       PWM_MOTORS
      02000D9EH   PUBLIC    XDATA    BYTE      PWM_MOTORS_initVar
      0100D07EH   PUBLIC    CODE     ---       _PWM_MOTORS_WriteCompare2
      0100D078H   PUBLIC    CODE     ---       _PWM_MOTORS_WriteCompare1
      0100D072H   PUBLIC    CODE     ---       _PWM_MOTORS_WritePeriod
      0100D06CH   PUBLIC    CODE     ---       _PWM_MOTORS_WriteCounter
      0100D011H   PUBLIC    CODE     ---       PWM_MOTORS_Enable
      0100CA73H   PUBLIC    CODE     ---       PWM_MOTORS_Init
      0100CD3AH   PUBLIC    CODE     ---       PWM_MOTORS_Start
      000000CAH   SFRSYM    DATA     BYTE      SFRPRT5SEL
      000000DAH   SFRSYM    DATA     BYTE      SFRPRT6SEL
      000000D0H.6 SFRSYM    DATA     BIT       AC
      000000A8H.7 SFRSYM    DATA     BIT       EA
      000000A8H   SFRSYM    DATA     BYTE      IE
      00000085H   SFRSYM    DATA     BYTE      DPH1
      00000084H   SFRSYM    DATA     BYTE      DPL1
      000000D0H.7 SFRSYM    DATA     BIT       CY
      000000A0H   SFRSYM    DATA     BYTE      P2AX
      00000095H   SFRSYM    DATA     BYTE      DPX1
      00000081H   SFRSYM    DATA     BYTE      SP
      000000D0H.2 SFRSYM    DATA     BIT       OV
      00000080H   SFRSYM    DATA     BYTE      SFRPRT0DR
      00000090H   SFRSYM    DATA     BYTE      SFRPRT1DR
      000000F2H   SFRSYM    DATA     BYTE      SFRPRT12SEL
      00000098H   SFRSYM    DATA     BYTE      SFRPRT2DR
      000000B0H   SFRSYM    DATA     BYTE      SFRPRT3DR
      000000C0H   SFRSYM    DATA     BYTE      SFRPRT4DR
      000000FAH   SFRSYM    DATA     BYTE      SFRPRT15SEL
      000000C8H   SFRSYM    DATA     BYTE      SFRPRT5DR
      000000D8H   SFRSYM    DATA     BYTE      SFRPRT6DR
      00000089H   SFRSYM    DATA     BYTE      SFRPRT0PS
      00000091H   SFRSYM    DATA     BYTE      SFRPRT1PS
      00000099H   SFRSYM    DATA     BYTE      SFRPRT2PS
      000000B1H   SFRSYM    DATA     BYTE      SFRPRT3PS
      000000C1H   SFRSYM    DATA     BYTE      SFRPRT4PS
      000000C9H   SFRSYM    DATA     BYTE      SFRPRT5PS
      000000D9H   SFRSYM    DATA     BYTE      SFRPRT6PS
      000000EAH   SFRSYM    DATA     BYTE      MXAX
      000000F0H   SFRSYM    DATA     BYTE      B
      000000E0H   SFRSYM    DATA     BYTE      ACC
      000000D0H   SFRSYM    DATA     BIT       P
      000000D0H.3 SFRSYM    DATA     BIT       RS0
      000000D0H.4 SFRSYM    DATA     BIT       RS1
      00000083H   SFRSYM    DATA     BYTE      DPH
      000000E8H   SFRSYM    DATA     BYTE      SFRPRT12DR
      00000082H   SFRSYM    DATA     BYTE      DPL
      000000F8H   SFRSYM    DATA     BYTE      SFRPRT15DR
LX51 LINKER/LOCATER V4.64.0.0                                                         01/10/2017  17:59:18  PAGE 84


      00000086H   SFRSYM    DATA     BYTE      DPS
      000000E9H   SFRSYM    DATA     BYTE      SFRPRT12PS
      00000093H   SFRSYM    DATA     BYTE      DPX
      000000F9H   SFRSYM    DATA     BYTE      SFRPRT15PS
      000000D0H.5 SFRSYM    DATA     BIT       F0
      000000D0H.1 SFRSYM    DATA     BIT       F1
      0000008AH   SFRSYM    DATA     BYTE      SFRPRT0SEL
      000000D0H   SFRSYM    DATA     BYTE      PSW
      000000A2H   SFRSYM    DATA     BYTE      SFRPRT1SEL
      0000009AH   SFRSYM    DATA     BYTE      SFRPRT2SEL
      000000B2H   SFRSYM    DATA     BYTE      SFRPRT3SEL
      000000C2H   SFRSYM    DATA     BYTE      SFRPRT4SEL

      0100CD3AH   BLOCK     CODE     ---       LVL=0
      0100CD3AH   LINE      CODE     ---       #55
      0100CD3AH   LINE      CODE     ---       #56
      0100CD3AH   LINE      CODE     ---       #58
      0100CD40H   LINE      CODE     ---       #59
      0100CD40H   LINE      CODE     ---       #60
      0100CD43H   LINE      CODE     ---       #61
      0100CD49H   LINE      CODE     ---       #62
      0100CD49H   LINE      CODE     ---       #63
      0100CD4CH   LINE      CODE     ---       #65
      ---         BLOCKEND  ---      ---       LVL=0

      0100CA73H   BLOCK     CODE     ---       LVL=0
      0100CA73H   BLOCK     CODE     NEAR LAB  LVL=1
      00000007H   SYMBOL    DATA     BYTE      ctrl
      ---         BLOCKEND  ---      ---       LVL=1
      0100CA73H   LINE      CODE     ---       #84
      0100CA73H   LINE      CODE     ---       #85
      0100CA73H   LINE      CODE     ---       #118
      0100CA7AH   LINE      CODE     ---       #120
      0100CA7DH   LINE      CODE     ---       #126
      0100CA84H   LINE      CODE     ---       #133
      0100CA89H   LINE      CODE     ---       #136
      0100CA8EH   LINE      CODE     ---       #141
      0100CA93H   LINE      CODE     ---       #142
      0100CA98H   LINE      CODE     ---       #179
      ---         BLOCKEND  ---      ---       LVL=0

      0100D011H   BLOCK     CODE     ---       LVL=0
      0100D011H   LINE      CODE     ---       #199
      0100D011H   LINE      CODE     ---       #200
      0100D011H   LINE      CODE     ---       #209
      0100D018H   LINE      CODE     ---       #211
      ---         BLOCKEND  ---      ---       LVL=0

      0100D06CH   BLOCK     CODE     ---       LVL=0
      00000007H   SYMBOL    DATA     BYTE      counter
      0100D06CH   LINE      CODE     ---       #403
      0100D06CH   LINE      CODE     ---       #405
      0100D06CH   LINE      CODE     ---       #406
      0100D071H   LINE      CODE     ---       #407
      ---         BLOCKEND  ---      ---       LVL=0

      0100D072H   BLOCK     CODE     ---       LVL=0
      00000007H   SYMBOL    DATA     BYTE      period
      0100D072H   LINE      CODE     ---       #482
      0100D072H   LINE      CODE     ---       #483
      0100D072H   LINE      CODE     ---       #487
      0100D077H   LINE      CODE     ---       #489
      ---         BLOCKEND  ---      ---       LVL=0

      0100D078H   BLOCK     CODE     ---       LVL=0
LX51 LINKER/LOCATER V4.64.0.0                                                         01/10/2017  17:59:18  PAGE 85


      00000007H   SYMBOL    DATA     BYTE      compare
      0100D078H   LINE      CODE     ---       #555
      0100D078H   LINE      CODE     ---       #557
      0100D078H   LINE      CODE     ---       #561
      0100D07DH   LINE      CODE     ---       #563
      ---         BLOCKEND  ---      ---       LVL=0

      0100D07EH   BLOCK     CODE     ---       LVL=0
      00000007H   SYMBOL    DATA     BYTE      compare
      0100D07EH   LINE      CODE     ---       #584
      0100D07EH   LINE      CODE     ---       #586
      0100D07EH   LINE      CODE     ---       #590
      0100D083H   LINE      CODE     ---       #592
      ---         BLOCKEND  ---      ---       LVL=0
      00000007H   SYMBOL    DATA     BYTE      result
      00000007H   SYMBOL    DATA     BYTE      control

      ---         MODULE    ---      ---       PACER_TIMER
      02000D9FH   PUBLIC    XDATA    BYTE      PACER_TIMER_initVar
      0100CEABH   PUBLIC    CODE     ---       _PACER_TIMER_WriteCounter
      0100CE9DH   PUBLIC    CODE     ---       _PACER_TIMER_WritePeriod
      0100D084H   PUBLIC    CODE     ---       _PACER_TIMER_SetInterruptMode
      0100CD4DH   PUBLIC    CODE     ---       PACER_TIMER_Start
      0100CC92H   PUBLIC    CODE     ---       PACER_TIMER_Enable
      0100C67BH   PUBLIC    CODE     ---       PACER_TIMER_Init
      000000CAH   SFRSYM    DATA     BYTE      SFRPRT5SEL
      000000DAH   SFRSYM    DATA     BYTE      SFRPRT6SEL
      000000D0H.6 SFRSYM    DATA     BIT       AC
      000000A8H.7 SFRSYM    DATA     BIT       EA
      000000A8H   SFRSYM    DATA     BYTE      IE
      00000085H   SFRSYM    DATA     BYTE      DPH1
      00000084H   SFRSYM    DATA     BYTE      DPL1
      000000D0H.7 SFRSYM    DATA     BIT       CY
      000000A0H   SFRSYM    DATA     BYTE      P2AX
      00000095H   SFRSYM    DATA     BYTE      DPX1
      00000081H   SFRSYM    DATA     BYTE      SP
      000000D0H.2 SFRSYM    DATA     BIT       OV
      00000080H   SFRSYM    DATA     BYTE      SFRPRT0DR
      00000090H   SFRSYM    DATA     BYTE      SFRPRT1DR
      000000F2H   SFRSYM    DATA     BYTE      SFRPRT12SEL
      00000098H   SFRSYM    DATA     BYTE      SFRPRT2DR
      000000B0H   SFRSYM    DATA     BYTE      SFRPRT3DR
      000000C0H   SFRSYM    DATA     BYTE      SFRPRT4DR
      000000FAH   SFRSYM    DATA     BYTE      SFRPRT15SEL
      000000C8H   SFRSYM    DATA     BYTE      SFRPRT5DR
      000000D8H   SFRSYM    DATA     BYTE      SFRPRT6DR
      00000089H   SFRSYM    DATA     BYTE      SFRPRT0PS
      00000091H   SFRSYM    DATA     BYTE      SFRPRT1PS
      00000099H   SFRSYM    DATA     BYTE      SFRPRT2PS
      000000B1H   SFRSYM    DATA     BYTE      SFRPRT3PS
      000000C1H   SFRSYM    DATA     BYTE      SFRPRT4PS
      000000C9H   SFRSYM    DATA     BYTE      SFRPRT5PS
      000000D9H   SFRSYM    DATA     BYTE      SFRPRT6PS
      000000EAH   SFRSYM    DATA     BYTE      MXAX
      000000F0H   SFRSYM    DATA     BYTE      B
      000000E0H   SFRSYM    DATA     BYTE      ACC
      000000D0H   SFRSYM    DATA     BIT       P
      000000D0H.3 SFRSYM    DATA     BIT       RS0
      000000D0H.4 SFRSYM    DATA     BIT       RS1
      00000083H   SFRSYM    DATA     BYTE      DPH
      000000E8H   SFRSYM    DATA     BYTE      SFRPRT12DR
      00000082H   SFRSYM    DATA     BYTE      DPL
      000000F8H   SFRSYM    DATA     BYTE      SFRPRT15DR
      00000086H   SFRSYM    DATA     BYTE      DPS
      000000E9H   SFRSYM    DATA     BYTE      SFRPRT12PS
LX51 LINKER/LOCATER V4.64.0.0                                                         01/10/2017  17:59:18  PAGE 86


      00000093H   SFRSYM    DATA     BYTE      DPX
      000000F9H   SFRSYM    DATA     BYTE      SFRPRT15PS
      000000D0H.5 SFRSYM    DATA     BIT       F0
      000000D0H.1 SFRSYM    DATA     BIT       F1
      0000008AH   SFRSYM    DATA     BYTE      SFRPRT0SEL
      000000D0H   SFRSYM    DATA     BYTE      PSW
      000000A2H   SFRSYM    DATA     BYTE      SFRPRT1SEL
      0000009AH   SFRSYM    DATA     BYTE      SFRPRT2SEL
      000000B2H   SFRSYM    DATA     BYTE      SFRPRT3SEL
      000000C2H   SFRSYM    DATA     BYTE      SFRPRT4SEL

      0100C67BH   BLOCK     CODE     ---       LVL=0
      0100C67BH   LINE      CODE     ---       #43
      0100C67BH   LINE      CODE     ---       #44
      0100C67BH   LINE      CODE     ---       #52
      0100C682H   LINE      CODE     ---       #60
      0100C689H   LINE      CODE     ---       #106
      0100C690H   LINE      CODE     ---       #107
      0100C694H   LINE      CODE     ---       #110
      0100C698H   LINE      CODE     ---       #111
      0100C69CH   LINE      CODE     ---       #114
      0100C6A3H   LINE      CODE     ---       #118
      0100C6AAH   LINE      CODE     ---       #119
      0100C6B1H   LINE      CODE     ---       #162
      0100C6B6H   LINE      CODE     ---       #163
      ---         BLOCKEND  ---      ---       LVL=0

      0100CC92H   BLOCK     CODE     ---       LVL=0
      0100CC92H   LINE      CODE     ---       #180
      0100CC92H   LINE      CODE     ---       #181
      0100CC92H   LINE      CODE     ---       #184
      0100CC99H   LINE      CODE     ---       #185
      0100CCA0H   LINE      CODE     ---       #190
      0100CCA7H   LINE      CODE     ---       #192
      ---         BLOCKEND  ---      ---       LVL=0

      0100CD4DH   BLOCK     CODE     ---       LVL=0
      0100CD4DH   LINE      CODE     ---       #215
      0100CD4DH   LINE      CODE     ---       #216
      0100CD4DH   LINE      CODE     ---       #217
      0100CD53H   LINE      CODE     ---       #218
      0100CD53H   LINE      CODE     ---       #219
      0100CD56H   LINE      CODE     ---       #221
      0100CD5CH   LINE      CODE     ---       #222
      0100CD5CH   LINE      CODE     ---       #225
      0100CD5FH   LINE      CODE     ---       #226
      ---         BLOCKEND  ---      ---       LVL=0

      0100D084H   BLOCK     CODE     ---       LVL=0
      00000007H   SYMBOL    DATA     BYTE      interruptMode
      0100D084H   LINE      CODE     ---       #279
      0100D084H   LINE      CODE     ---       #280
      0100D084H   LINE      CODE     ---       #281
      0100D089H   LINE      CODE     ---       #282
      ---         BLOCKEND  ---      ---       LVL=0
      00000007H   SYMBOL    DATA     BYTE      control

      0100CE9DH   BLOCK     CODE     ---       LVL=0
      00000006H   SYMBOL    DATA     WORD      period
      0100CE9DH   BLOCK     CODE     NEAR LAB  LVL=1
      00000006H   SYMBOL    DATA     WORD      period_temp
      ---         BLOCKEND  ---      ---       LVL=1
      0100CE9DH   LINE      CODE     ---       #431
      0100CE9DH   LINE      CODE     ---       #432
      0100CE9DH   LINE      CODE     ---       #434
LX51 LINKER/LOCATER V4.64.0.0                                                         01/10/2017  17:59:18  PAGE 87


      0100CE9DH   LINE      CODE     ---       #435
      0100CEAAH   LINE      CODE     ---       #439
      ---         BLOCKEND  ---      ---       LVL=0

      0100CEABH   BLOCK     CODE     ---       LVL=0
      00000006H   SYMBOL    DATA     WORD      counter
      0100CEABH   LINE      CODE     ---       #480
      0100CEABH   LINE      CODE     ---       #481
      0100CEABH   LINE      CODE     ---       #486
      0100CEB8H   LINE      CODE     ---       #491
      ---         BLOCKEND  ---      ---       LVL=0

      ---         MODULE    ---      ---       UART_RS485
      02000D6DH   PUBLIC    XDATA    BYTE      UART_RS485_errorStatus
      02000D6CH   PUBLIC    XDATA    BYTE      UART_RS485_rxBufferOverflow
      02000D6BH   PUBLIC    XDATA    BYTE      UART_RS485_initVar
      02000D6AH   PUBLIC    XDATA    BYTE      UART_RS485_rxBufferWrite
      02000D4AH   PUBLIC    XDATA    ---       UART_RS485_rxBuffer
      02000D49H   PUBLIC    XDATA    BYTE      UART_RS485_rxBufferRead
      02000D48H   PUBLIC    XDATA    BYTE      UART_RS485_rxBufferLoopDetect
      0100CE0BH   PUBLIC    CODE     ---       UART_RS485_ClearTxBuffer
      0100C83BH   PUBLIC    CODE     ---       _UART_RS485_PutString
      0100CEFFH   PUBLIC    CODE     ---       _UART_RS485_PutChar
      0100D08AH   PUBLIC    CODE     ---       UART_RS485_ReadTxStatus
      0100C96AH   PUBLIC    CODE     ---       UART_RS485_ClearRxBuffer
      0100C337H   PUBLIC    CODE     ---       UART_RS485_GetRxBufferSize
      0100C18EH   PUBLIC    CODE     ---       UART_RS485_GetChar
      0100CD26H   PUBLIC    CODE     ---       UART_RS485_ReadRxStatus
      0100CAE1H   PUBLIC    CODE     ---       UART_RS485_Stop
      0100CABFH   PUBLIC    CODE     ---       UART_RS485_Enable
      0100C8A3H   PUBLIC    CODE     ---       UART_RS485_Init
      0100CD60H   PUBLIC    CODE     ---       UART_RS485_Start
      000000CAH   SFRSYM    DATA     BYTE      SFRPRT5SEL
      000000DAH   SFRSYM    DATA     BYTE      SFRPRT6SEL
      000000D0H.6 SFRSYM    DATA     BIT       AC
      000000A8H.7 SFRSYM    DATA     BIT       EA
      000000A8H   SFRSYM    DATA     BYTE      IE
      00000085H   SFRSYM    DATA     BYTE      DPH1
      00000084H   SFRSYM    DATA     BYTE      DPL1
      000000D0H.7 SFRSYM    DATA     BIT       CY
      000000A0H   SFRSYM    DATA     BYTE      P2AX
      00000095H   SFRSYM    DATA     BYTE      DPX1
      00000081H   SFRSYM    DATA     BYTE      SP
      000000D0H.2 SFRSYM    DATA     BIT       OV
      00000080H   SFRSYM    DATA     BYTE      SFRPRT0DR
      00000090H   SFRSYM    DATA     BYTE      SFRPRT1DR
      000000F2H   SFRSYM    DATA     BYTE      SFRPRT12SEL
      00000098H   SFRSYM    DATA     BYTE      SFRPRT2DR
      000000B0H   SFRSYM    DATA     BYTE      SFRPRT3DR
      000000C0H   SFRSYM    DATA     BYTE      SFRPRT4DR
      000000FAH   SFRSYM    DATA     BYTE      SFRPRT15SEL
      000000C8H   SFRSYM    DATA     BYTE      SFRPRT5DR
      000000D8H   SFRSYM    DATA     BYTE      SFRPRT6DR
      00000089H   SFRSYM    DATA     BYTE      SFRPRT0PS
      00000091H   SFRSYM    DATA     BYTE      SFRPRT1PS
      00000099H   SFRSYM    DATA     BYTE      SFRPRT2PS
      000000B1H   SFRSYM    DATA     BYTE      SFRPRT3PS
      000000C1H   SFRSYM    DATA     BYTE      SFRPRT4PS
      000000C9H   SFRSYM    DATA     BYTE      SFRPRT5PS
      000000D9H   SFRSYM    DATA     BYTE      SFRPRT6PS
      000000EAH   SFRSYM    DATA     BYTE      MXAX
      000000F0H   SFRSYM    DATA     BYTE      B
      000000E0H   SFRSYM    DATA     BYTE      ACC
      000000D0H   SFRSYM    DATA     BIT       P
      000000D0H.3 SFRSYM    DATA     BIT       RS0
LX51 LINKER/LOCATER V4.64.0.0                                                         01/10/2017  17:59:18  PAGE 88


      000000D0H.4 SFRSYM    DATA     BIT       RS1
      00000083H   SFRSYM    DATA     BYTE      DPH
      000000E8H   SFRSYM    DATA     BYTE      SFRPRT12DR
      00000082H   SFRSYM    DATA     BYTE      DPL
      000000F8H   SFRSYM    DATA     BYTE      SFRPRT15DR
      00000086H   SFRSYM    DATA     BYTE      DPS
      000000E9H   SFRSYM    DATA     BYTE      SFRPRT12PS
      00000093H   SFRSYM    DATA     BYTE      DPX
      000000F9H   SFRSYM    DATA     BYTE      SFRPRT15PS
      000000D0H.5 SFRSYM    DATA     BIT       F0
      000000D0H.1 SFRSYM    DATA     BIT       F1
      0000008AH   SFRSYM    DATA     BYTE      SFRPRT0SEL
      000000D0H   SFRSYM    DATA     BYTE      PSW
      000000A2H   SFRSYM    DATA     BYTE      SFRPRT1SEL
      0000009AH   SFRSYM    DATA     BYTE      SFRPRT2SEL
      000000B2H   SFRSYM    DATA     BYTE      SFRPRT3SEL
      000000C2H   SFRSYM    DATA     BYTE      SFRPRT4SEL

      0100CD60H   BLOCK     CODE     ---       LVL=0
      0100CD60H   LINE      CODE     ---       #76
      0100CD60H   LINE      CODE     ---       #77
      0100CD60H   LINE      CODE     ---       #79
      0100CD66H   LINE      CODE     ---       #80
      0100CD66H   LINE      CODE     ---       #81
      0100CD69H   LINE      CODE     ---       #82
      0100CD6FH   LINE      CODE     ---       #83
      0100CD6FH   LINE      CODE     ---       #85
      0100CD72H   LINE      CODE     ---       #86
      ---         BLOCKEND  ---      ---       LVL=0

      0100C8A3H   BLOCK     CODE     ---       LVL=0
      0100C8A3H   LINE      CODE     ---       #106
      0100C8A3H   LINE      CODE     ---       #107
      0100C8A3H   LINE      CODE     ---       #112
      0100C8ACH   LINE      CODE     ---       #113
      0100C8B3H   LINE      CODE     ---       #114
      0100C8B8H   LINE      CODE     ---       #124
      0100C8BEH   LINE      CODE     ---       #126
      0100C8C4H   LINE      CODE     ---       #138
      0100C8CAH   LINE      CODE     ---       #139
      0100C8D0H   LINE      CODE     ---       #150
      0100C8D5H   LINE      CODE     ---       #160
      ---         BLOCKEND  ---      ---       LVL=0

      0100CABFH   BLOCK     CODE     ---       LVL=0
      0100CABFH   BLOCK     CODE     NEAR LAB  LVL=1
      00000007H   SYMBOL    DATA     BYTE      enableInterrupts
      ---         BLOCKEND  ---      ---       LVL=1
      0100CABFH   LINE      CODE     ---       #183
      0100CABFH   LINE      CODE     ---       #184
      0100CABFH   LINE      CODE     ---       #186
      0100CAC2H   LINE      CODE     ---       #190
      0100CAC9H   LINE      CODE     ---       #193
      0100CAD0H   LINE      CODE     ---       #196
      0100CAD6H   LINE      CODE     ---       #211
      0100CADDH   LINE      CODE     ---       #222
      0100CAE0H   LINE      CODE     ---       #223
      ---         BLOCKEND  ---      ---       LVL=0

      0100CAE1H   BLOCK     CODE     ---       LVL=0
      0100CAE1H   BLOCK     CODE     NEAR LAB  LVL=1
      00000007H   SYMBOL    DATA     BYTE      enableInterrupts
      ---         BLOCKEND  ---      ---       LVL=1
      0100CAE1H   LINE      CODE     ---       #240
      0100CAE1H   LINE      CODE     ---       #241
LX51 LINKER/LOCATER V4.64.0.0                                                         01/10/2017  17:59:18  PAGE 89


      0100CAE1H   LINE      CODE     ---       #243
      0100CAE4H   LINE      CODE     ---       #247
      0100CAEBH   LINE      CODE     ---       #262
      0100CAF2H   LINE      CODE     ---       #265
      0100CAF8H   LINE      CODE     ---       #270
      0100CAFFH   LINE      CODE     ---       #277
      0100CB02H   LINE      CODE     ---       #278
      ---         BLOCKEND  ---      ---       LVL=0
      00000007H   SYMBOL    DATA     BYTE      intSrc
      00000007H   SYMBOL    DATA     BYTE      rxData
      00000006H   SYMBOL    DATA     BYTE      locRxBufferRead
      00000005H   SYMBOL    DATA     BYTE      locRxBufferWrite

      0100CD26H   BLOCK     CODE     ---       LVL=0
      0100CD26H   BLOCK     CODE     NEAR LAB  LVL=1
      00000007H   SYMBOL    DATA     BYTE      status
      ---         BLOCKEND  ---      ---       LVL=1
      0100CD26H   LINE      CODE     ---       #485
      0100CD26H   LINE      CODE     ---       #486
      0100CD26H   LINE      CODE     ---       #489
      0100CD2DH   LINE      CODE     ---       #492
      0100CD33H   LINE      CODE     ---       #493
      0100CD33H   LINE      CODE     ---       #494
      0100CD37H   LINE      CODE     ---       #495
      0100CD39H   LINE      CODE     ---       #496
      0100CD39H   LINE      CODE     ---       #499
      0100CD39H   LINE      CODE     ---       #500
      ---         BLOCKEND  ---      ---       LVL=0

      0100C18EH   BLOCK     CODE     ---       LVL=0
      0100C18EH   BLOCK     CODE     NEAR LAB  LVL=1
      00000007H   SYMBOL    DATA     BYTE      rxData
      00000006H   SYMBOL    DATA     BYTE      rxStatus
      00000006H   SYMBOL    DATA     BYTE      locRxBufferRead
      00000005H   SYMBOL    DATA     BYTE      locRxBufferWrite
      ---         BLOCKEND  ---      ---       LVL=1
      0100C18EH   LINE      CODE     ---       #532
      0100C18EH   LINE      CODE     ---       #533
      0100C18EH   LINE      CODE     ---       #534
      0100C190H   LINE      CODE     ---       #542
      0100C196H   LINE      CODE     ---       #544
      0100C19BH   LINE      CODE     ---       #545
      0100C1A0H   LINE      CODE     ---       #547
      0100C1AAH   LINE      CODE     ---       #548
      0100C1AAH   LINE      CODE     ---       #549
      0100C1B6H   LINE      CODE     ---       #550
      0100C1B7H   LINE      CODE     ---       #551
      0100C1BDH   LINE      CODE     ---       #552
      0100C1BDH   LINE      CODE     ---       #553
      0100C1BFH   LINE      CODE     ---       #554
      0100C1BFH   LINE      CODE     ---       #556
      0100C1C4H   LINE      CODE     ---       #558
      0100C1CAH   LINE      CODE     ---       #559
      0100C1CAH   LINE      CODE     ---       #560
      0100C1CCH   LINE      CODE     ---       #575
      0100C1CCH   LINE      CODE     ---       #577
      0100C1CEH   LINE      CODE     ---       #579
      0100C1D3H   LINE      CODE     ---       #580
      0100C1D6H   LINE      CODE     ---       #581
      0100C1D6H   LINE      CODE     ---       #582
      0100C1DBH   LINE      CODE     ---       #585
      0100C1E0H   LINE      CODE     ---       #586
      0100C1E0H   LINE      CODE     ---       #587
      0100C1E2H   LINE      CODE     ---       #588
      0100C1E2H   LINE      CODE     ---       #589
LX51 LINKER/LOCATER V4.64.0.0                                                         01/10/2017  17:59:18  PAGE 90


      0100C1E2H   LINE      CODE     ---       #590
      0100C1E2H   LINE      CODE     ---       #592
      0100C1E8H   LINE      CODE     ---       #611
      0100C1E8H   LINE      CODE     ---       #612
      ---         BLOCKEND  ---      ---       LVL=0
      00000002H   SYMBOL    DATA     WORD      locErrorStatus

      0100C337H   BLOCK     CODE     ---       LVL=0
      0100C337H   BLOCK     CODE     NEAR LAB  LVL=1
      00000007H   SYMBOL    DATA     BYTE      size
      ---         BLOCKEND  ---      ---       LVL=1
      0100C337H   LINE      CODE     ---       #683
      0100C337H   LINE      CODE     ---       #685
      0100C337H   LINE      CODE     ---       #691
      0100C33DH   LINE      CODE     ---       #693
      0100C349H   LINE      CODE     ---       #694
      0100C349H   LINE      CODE     ---       #695
      0100C34FH   LINE      CODE     ---       #696
      0100C34FH   LINE      CODE     ---       #697
      0100C351H   LINE      CODE     ---       #698
      0100C353H   LINE      CODE     ---       #700
      0100C353H   LINE      CODE     ---       #701
      0100C355H   LINE      CODE     ---       #702
      0100C355H   LINE      CODE     ---       #703
      0100C357H   LINE      CODE     ---       #704
      0100C364H   LINE      CODE     ---       #705
      0100C364H   LINE      CODE     ---       #706
      0100C36DH   LINE      CODE     ---       #707
      0100C36FH   LINE      CODE     ---       #709
      0100C36FH   LINE      CODE     ---       #710
      0100C37FH   LINE      CODE     ---       #711
      0100C37FH   LINE      CODE     ---       #713
      0100C385H   LINE      CODE     ---       #722
      0100C385H   LINE      CODE     ---       #723
      ---         BLOCKEND  ---      ---       LVL=0

      0100C96AH   BLOCK     CODE     ---       LVL=0
      0100C96AH   BLOCK     CODE     NEAR LAB  LVL=1
      00000007H   SYMBOL    DATA     BYTE      enableInterrupts
      ---         BLOCKEND  ---      ---       LVL=1
      0100C96AH   LINE      CODE     ---       #757
      0100C96AH   LINE      CODE     ---       #758
      0100C96AH   LINE      CODE     ---       #762
      0100C96DH   LINE      CODE     ---       #763
      0100C974H   LINE      CODE     ---       #764
      0100C978H   LINE      CODE     ---       #765
      0100C97BH   LINE      CODE     ---       #770
      0100C981H   LINE      CODE     ---       #772
      0100C986H   LINE      CODE     ---       #773
      0100C98AH   LINE      CODE     ---       #774
      0100C98EH   LINE      CODE     ---       #775
      0100C992H   LINE      CODE     ---       #777
      0100C998H   LINE      CODE     ---       #781
      ---         BLOCKEND  ---      ---       LVL=0
      00000007H   SYMBOL    DATA     BYTE      address
      00000007H   SYMBOL    DATA     BYTE      address
      00000007H   SYMBOL    DATA     BYTE      intSrc
      00000007H   SYMBOL    DATA     BYTE      txDataByte

      0100D08AH   BLOCK     CODE     ---       LVL=0
      0100D08AH   LINE      CODE     ---       #1003
      0100D08AH   LINE      CODE     ---       #1004
      0100D08AH   LINE      CODE     ---       #1005
      0100D08FH   LINE      CODE     ---       #1006
      ---         BLOCKEND  ---      ---       LVL=0
LX51 LINKER/LOCATER V4.64.0.0                                                         01/10/2017  17:59:18  PAGE 91



      0100CEFFH   BLOCK     CODE     ---       LVL=0
      00000007H   SYMBOL    DATA     BYTE      txDataByte
      0100CEFFH   LINE      CODE     ---       #1041
      0100CEFFH   LINE      CODE     ---       #1042
      0100CEFFH   LINE      CODE     ---       #1107
      0100CF06H   LINE      CODE     ---       #1108
      0100CF06H   LINE      CODE     ---       #1110
      0100CF06H   LINE      CODE     ---       #1113
      0100CF0BH   LINE      CODE     ---       #1116
      ---         BLOCKEND  ---      ---       LVL=0

      0100C83BH   BLOCK     CODE     ---       LVL=0
      02000450H   SYMBOL    XDATA    ---       string
      0100C846H   BLOCK     CODE     NEAR LAB  LVL=1
      00000004H   SYMBOL    DATA     WORD      bufIndex
      ---         BLOCKEND  ---      ---       LVL=1
      0100C83BH   LINE      CODE     ---       #1145
      0100C846H   LINE      CODE     ---       #1146
      0100C846H   LINE      CODE     ---       #1147
      0100C849H   LINE      CODE     ---       #1150
      0100C84FH   LINE      CODE     ---       #1151
      0100C84FH   LINE      CODE     ---       #1153
      0100C864H   LINE      CODE     ---       #1154
      0100C864H   LINE      CODE     ---       #1155
      0100C867H   LINE      CODE     ---       #1156
      0100C86CH   LINE      CODE     ---       #1157
      0100C86EH   LINE      CODE     ---       #1158
      0100C86EH   LINE      CODE     ---       #1159
      ---         BLOCKEND  ---      ---       LVL=0
      00000005H   SYMBOL    DATA     BYTE      byteCount
      00000006H   SYMBOL    DATA     BYTE      bufIndex
      00000007H   SYMBOL    DATA     BYTE      txDataByte
      00000007H   SYMBOL    DATA     BYTE      size

      0100CE0BH   BLOCK     CODE     ---       LVL=0
      0100CE0BH   BLOCK     CODE     NEAR LAB  LVL=1
      00000007H   SYMBOL    DATA     BYTE      enableInterrupts
      ---         BLOCKEND  ---      ---       LVL=1
      0100CE0BH   LINE      CODE     ---       #1354
      0100CE0BH   LINE      CODE     ---       #1355
      0100CE0BH   LINE      CODE     ---       #1358
      0100CE0EH   LINE      CODE     ---       #1360
      0100CE15H   LINE      CODE     ---       #1361
      0100CE19H   LINE      CODE     ---       #1362
      0100CE1CH   LINE      CODE     ---       #1376
      ---         BLOCKEND  ---      ---       LVL=0
      00000007H   SYMBOL    DATA     BYTE      retMode
      02000D47H   SYMBOL    XDATA    BYTE      txPeriod

      ---         MODULE    ---      ---       MOTOR_DIR
      0100D090H   PUBLIC    CODE     ---       _MOTOR_DIR_Write

      0100D090H   BLOCK     CODE     ---       LVL=0
      00000007H   SYMBOL    DATA     BYTE      control
      0100D090H   LINE      CODE     ---       #37
      0100D090H   LINE      CODE     ---       #38
      0100D090H   LINE      CODE     ---       #39
      0100D095H   LINE      CODE     ---       #40
      ---         BLOCKEND  ---      ---       LVL=0

      ---         MODULE    ---      ---       COUNTER_ENC
      02000DA0H   PUBLIC    XDATA    BYTE      COUNTER_ENC_initVar
      0100CF0CH   PUBLIC    CODE     ---       COUNTER_ENC_ClearFIFO
      0100D0B4H   PUBLIC    CODE     ---       _COUNTER_ENC_WriteCompare
LX51 LINKER/LOCATER V4.64.0.0                                                         01/10/2017  17:59:18  PAGE 92


      0100D0AEH   PUBLIC    CODE     ---       _COUNTER_ENC_WritePeriod
      0100D0A8H   PUBLIC    CODE     ---       COUNTER_ENC_ReadCapture
      0100D0A2H   PUBLIC    CODE     ---       _COUNTER_ENC_WriteCounter
      0100D09CH   PUBLIC    CODE     ---       COUNTER_ENC_ReadStatusRegister
      0100D096H   PUBLIC    CODE     ---       _COUNTER_ENC_SetInterruptMode
      0100CD73H   PUBLIC    CODE     ---       COUNTER_ENC_Start
      0100D019H   PUBLIC    CODE     ---       COUNTER_ENC_Enable
      0100C79BH   PUBLIC    CODE     ---       COUNTER_ENC_Init
      000000CAH   SFRSYM    DATA     BYTE      SFRPRT5SEL
      000000DAH   SFRSYM    DATA     BYTE      SFRPRT6SEL
      000000D0H.6 SFRSYM    DATA     BIT       AC
      000000A8H.7 SFRSYM    DATA     BIT       EA
      000000A8H   SFRSYM    DATA     BYTE      IE
      00000085H   SFRSYM    DATA     BYTE      DPH1
      00000084H   SFRSYM    DATA     BYTE      DPL1
      000000D0H.7 SFRSYM    DATA     BIT       CY
      000000A0H   SFRSYM    DATA     BYTE      P2AX
      00000095H   SFRSYM    DATA     BYTE      DPX1
      00000081H   SFRSYM    DATA     BYTE      SP
      000000D0H.2 SFRSYM    DATA     BIT       OV
      00000080H   SFRSYM    DATA     BYTE      SFRPRT0DR
      00000090H   SFRSYM    DATA     BYTE      SFRPRT1DR
      000000F2H   SFRSYM    DATA     BYTE      SFRPRT12SEL
      00000098H   SFRSYM    DATA     BYTE      SFRPRT2DR
      000000B0H   SFRSYM    DATA     BYTE      SFRPRT3DR
      000000C0H   SFRSYM    DATA     BYTE      SFRPRT4DR
      000000FAH   SFRSYM    DATA     BYTE      SFRPRT15SEL
      000000C8H   SFRSYM    DATA     BYTE      SFRPRT5DR
      000000D8H   SFRSYM    DATA     BYTE      SFRPRT6DR
      00000089H   SFRSYM    DATA     BYTE      SFRPRT0PS
      00000091H   SFRSYM    DATA     BYTE      SFRPRT1PS
      00000099H   SFRSYM    DATA     BYTE      SFRPRT2PS
      000000B1H   SFRSYM    DATA     BYTE      SFRPRT3PS
      000000C1H   SFRSYM    DATA     BYTE      SFRPRT4PS
      000000C9H   SFRSYM    DATA     BYTE      SFRPRT5PS
      000000D9H   SFRSYM    DATA     BYTE      SFRPRT6PS
      000000EAH   SFRSYM    DATA     BYTE      MXAX
      000000F0H   SFRSYM    DATA     BYTE      B
      000000E0H   SFRSYM    DATA     BYTE      ACC
      000000D0H   SFRSYM    DATA     BIT       P
      000000D0H.3 SFRSYM    DATA     BIT       RS0
      000000D0H.4 SFRSYM    DATA     BIT       RS1
      00000083H   SFRSYM    DATA     BYTE      DPH
      000000E8H   SFRSYM    DATA     BYTE      SFRPRT12DR
      00000082H   SFRSYM    DATA     BYTE      DPL
      000000F8H   SFRSYM    DATA     BYTE      SFRPRT15DR
      00000086H   SFRSYM    DATA     BYTE      DPS
      000000E9H   SFRSYM    DATA     BYTE      SFRPRT12PS
      00000093H   SFRSYM    DATA     BYTE      DPX
      000000F9H   SFRSYM    DATA     BYTE      SFRPRT15PS
      000000D0H.5 SFRSYM    DATA     BIT       F0
      000000D0H.1 SFRSYM    DATA     BIT       F1
      0000008AH   SFRSYM    DATA     BYTE      SFRPRT0SEL
      000000D0H   SFRSYM    DATA     BYTE      PSW
      000000A2H   SFRSYM    DATA     BYTE      SFRPRT1SEL
      0000009AH   SFRSYM    DATA     BYTE      SFRPRT2SEL
      000000B2H   SFRSYM    DATA     BYTE      SFRPRT3SEL
      000000C2H   SFRSYM    DATA     BYTE      SFRPRT4SEL

      0100C79BH   BLOCK     CODE     ---       LVL=0
      0100C79BH   BLOCK     CODE     NEAR LAB  LVL=1
      00000007H   SYMBOL    DATA     BYTE      ctrl
      00000007H   SYMBOL    DATA     BYTE      COUNTER_ENC_interruptState
      ---         BLOCKEND  ---      ---       LVL=1
      0100C79BH   LINE      CODE     ---       #37
LX51 LINKER/LOCATER V4.64.0.0                                                         01/10/2017  17:59:18  PAGE 93


      0100C79BH   LINE      CODE     ---       #38
      0100C79BH   LINE      CODE     ---       #79
      0100C7A2H   LINE      CODE     ---       #80
      0100C7A3H   LINE      CODE     ---       #83
      0100C7A7H   LINE      CODE     ---       #88
      0100C7A8H   LINE      CODE     ---       #96
      0100C7ABH   LINE      CODE     ---       #100
      0100C7B0H   LINE      CODE     ---       #102
      0100C7B5H   LINE      CODE     ---       #104
      0100C7BAH   LINE      CODE     ---       #108
      0100C7BDH   LINE      CODE     ---       #110
      0100C7C2H   LINE      CODE     ---       #115
      0100C7C5H   LINE      CODE     ---       #117
      0100C7CCH   LINE      CODE     ---       #120
      0100C7CFH   LINE      CODE     ---       #123
      ---         BLOCKEND  ---      ---       LVL=0

      0100D019H   BLOCK     CODE     ---       LVL=0
      0100D019H   LINE      CODE     ---       #143
      0100D019H   LINE      CODE     ---       #144
      0100D019H   LINE      CODE     ---       #155
      0100D020H   LINE      CODE     ---       #158
      ---         BLOCKEND  ---      ---       LVL=0

      0100CD73H   BLOCK     CODE     ---       LVL=0
      0100CD73H   LINE      CODE     ---       #178
      0100CD73H   LINE      CODE     ---       #179
      0100CD73H   LINE      CODE     ---       #180
      0100CD79H   LINE      CODE     ---       #181
      0100CD79H   LINE      CODE     ---       #182
      0100CD7CH   LINE      CODE     ---       #184
      0100CD82H   LINE      CODE     ---       #185
      0100CD82H   LINE      CODE     ---       #188
      0100CD85H   LINE      CODE     ---       #189
      ---         BLOCKEND  ---      ---       LVL=0

      0100D096H   BLOCK     CODE     ---       LVL=0
      00000007H   SYMBOL    DATA     BYTE      interruptsMask
      0100D096H   LINE      CODE     ---       #237
      0100D096H   LINE      CODE     ---       #238
      0100D096H   LINE      CODE     ---       #239
      0100D09BH   LINE      CODE     ---       #240
      ---         BLOCKEND  ---      ---       LVL=0

      0100D09CH   BLOCK     CODE     ---       LVL=0
      0100D09CH   LINE      CODE     ---       #261
      0100D09CH   LINE      CODE     ---       #262
      0100D09CH   LINE      CODE     ---       #263
      0100D0A1H   LINE      CODE     ---       #264
      ---         BLOCKEND  ---      ---       LVL=0
      00000007H   SYMBOL    DATA     BYTE      control

      0100D0A2H   BLOCK     CODE     ---       LVL=0
      00000007H   SYMBOL    DATA     BYTE      counter
      0100D0A2H   LINE      CODE     ---       #326
      0100D0A2H   LINE      CODE     ---       #328
      0100D0A2H   LINE      CODE     ---       #337
      0100D0A7H   LINE      CODE     ---       #339
      ---         BLOCKEND  ---      ---       LVL=0

      0100D0A8H   BLOCK     CODE     ---       LVL=0
      0100D0A8H   LINE      CODE     ---       #390
      0100D0A8H   LINE      CODE     ---       #391
      0100D0A8H   LINE      CODE     ---       #395
      0100D0ADH   LINE      CODE     ---       #397
LX51 LINKER/LOCATER V4.64.0.0                                                         01/10/2017  17:59:18  PAGE 94


      ---         BLOCKEND  ---      ---       LVL=0

      0100D0AEH   BLOCK     CODE     ---       LVL=0
      00000007H   SYMBOL    DATA     BYTE      period
      0100D0AEH   LINE      CODE     ---       #415
      0100D0AEH   LINE      CODE     ---       #416
      0100D0AEH   LINE      CODE     ---       #420
      0100D0B3H   LINE      CODE     ---       #422
      ---         BLOCKEND  ---      ---       LVL=0

      0100D0B4H   BLOCK     CODE     ---       LVL=0
      00000007H   SYMBOL    DATA     BYTE      compare
      0100D0B4H   LINE      CODE     ---       #465
      0100D0B4H   LINE      CODE     ---       #467
      0100D0B4H   LINE      CODE     ---       #471
      0100D0B9H   LINE      CODE     ---       #473
      ---         BLOCKEND  ---      ---       LVL=0

      0100CF0CH   BLOCK     CODE     ---       LVL=0
      0100CF0CH   LINE      CODE     ---       #558
      0100CF0CH   LINE      CODE     ---       #559
      0100CF0CH   LINE      CODE     ---       #561
      0100CF13H   LINE      CODE     ---       #562
      0100CF13H   LINE      CODE     ---       #563
      0100CF16H   LINE      CODE     ---       #564
      0100CF18H   LINE      CODE     ---       #566
      ---         BLOCKEND  ---      ---       LVL=0

      ---         MODULE    ---      ---       SHIFTREG_ENC_3
      02000DA1H   PUBLIC    XDATA    BYTE      SHIFTREG_ENC_3_initVar
      0100CFA5H   PUBLIC    CODE     ---       SHIFTREG_ENC_3_ReadData
      0100CE2FH   PUBLIC    CODE     ---       _SHIFTREG_ENC_3_SetIntMode
      0100CEB9H   PUBLIC    CODE     ---       SHIFTREG_ENC_3_EnableInt
      0100D0BAH   PUBLIC    CODE     ---       SHIFTREG_ENC_3_Init
      0100CF70H   PUBLIC    CODE     ---       SHIFTREG_ENC_3_Enable
      0100CD86H   PUBLIC    CODE     ---       SHIFTREG_ENC_3_Start
      000000CAH   SFRSYM    DATA     BYTE      SFRPRT5SEL
      000000DAH   SFRSYM    DATA     BYTE      SFRPRT6SEL
      000000D0H.6 SFRSYM    DATA     BIT       AC
      000000A8H.7 SFRSYM    DATA     BIT       EA
      000000A8H   SFRSYM    DATA     BYTE      IE
      00000085H   SFRSYM    DATA     BYTE      DPH1
      00000084H   SFRSYM    DATA     BYTE      DPL1
      000000D0H.7 SFRSYM    DATA     BIT       CY
      000000A0H   SFRSYM    DATA     BYTE      P2AX
      00000095H   SFRSYM    DATA     BYTE      DPX1
      00000081H   SFRSYM    DATA     BYTE      SP
      000000D0H.2 SFRSYM    DATA     BIT       OV
      00000080H   SFRSYM    DATA     BYTE      SFRPRT0DR
      00000090H   SFRSYM    DATA     BYTE      SFRPRT1DR
      000000F2H   SFRSYM    DATA     BYTE      SFRPRT12SEL
      00000098H   SFRSYM    DATA     BYTE      SFRPRT2DR
      000000B0H   SFRSYM    DATA     BYTE      SFRPRT3DR
      000000C0H   SFRSYM    DATA     BYTE      SFRPRT4DR
      000000FAH   SFRSYM    DATA     BYTE      SFRPRT15SEL
      000000C8H   SFRSYM    DATA     BYTE      SFRPRT5DR
      000000D8H   SFRSYM    DATA     BYTE      SFRPRT6DR
      00000089H   SFRSYM    DATA     BYTE      SFRPRT0PS
      00000091H   SFRSYM    DATA     BYTE      SFRPRT1PS
      00000099H   SFRSYM    DATA     BYTE      SFRPRT2PS
      000000B1H   SFRSYM    DATA     BYTE      SFRPRT3PS
      000000C1H   SFRSYM    DATA     BYTE      SFRPRT4PS
      000000C9H   SFRSYM    DATA     BYTE      SFRPRT5PS
      000000D9H   SFRSYM    DATA     BYTE      SFRPRT6PS
      000000EAH   SFRSYM    DATA     BYTE      MXAX
LX51 LINKER/LOCATER V4.64.0.0                                                         01/10/2017  17:59:18  PAGE 95


      000000F0H   SFRSYM    DATA     BYTE      B
      000000E0H   SFRSYM    DATA     BYTE      ACC
      000000D0H   SFRSYM    DATA     BIT       P
      000000D0H.3 SFRSYM    DATA     BIT       RS0
      000000D0H.4 SFRSYM    DATA     BIT       RS1
      00000083H   SFRSYM    DATA     BYTE      DPH
      000000E8H   SFRSYM    DATA     BYTE      SFRPRT12DR
      00000082H   SFRSYM    DATA     BYTE      DPL
      000000F8H   SFRSYM    DATA     BYTE      SFRPRT15DR
      00000086H   SFRSYM    DATA     BYTE      DPS
      000000E9H   SFRSYM    DATA     BYTE      SFRPRT12PS
      00000093H   SFRSYM    DATA     BYTE      DPX
      000000F9H   SFRSYM    DATA     BYTE      SFRPRT15PS
      000000D0H.5 SFRSYM    DATA     BIT       F0
      000000D0H.1 SFRSYM    DATA     BIT       F1
      0000008AH   SFRSYM    DATA     BYTE      SFRPRT0SEL
      000000D0H   SFRSYM    DATA     BYTE      PSW
      000000A2H   SFRSYM    DATA     BYTE      SFRPRT1SEL
      0000009AH   SFRSYM    DATA     BYTE      SFRPRT2SEL
      000000B2H   SFRSYM    DATA     BYTE      SFRPRT3SEL
      000000C2H   SFRSYM    DATA     BYTE      SFRPRT4SEL

      0100CD86H   BLOCK     CODE     ---       LVL=0
      0100CD86H   LINE      CODE     ---       #43
      0100CD86H   LINE      CODE     ---       #44
      0100CD86H   LINE      CODE     ---       #45
      0100CD8CH   LINE      CODE     ---       #46
      0100CD8CH   LINE      CODE     ---       #47
      0100CD8FH   LINE      CODE     ---       #48
      0100CD95H   LINE      CODE     ---       #49
      0100CD95H   LINE      CODE     ---       #51
      0100CD98H   LINE      CODE     ---       #52
      ---         BLOCKEND  ---      ---       LVL=0

      0100CF70H   BLOCK     CODE     ---       LVL=0
      0100CF70H   LINE      CODE     ---       #69
      0100CF70H   LINE      CODE     ---       #70
      0100CF70H   LINE      CODE     ---       #73
      0100CF77H   LINE      CODE     ---       #75
      0100CF7AH   LINE      CODE     ---       #76
      ---         BLOCKEND  ---      ---       LVL=0

      0100D0BAH   BLOCK     CODE     ---       LVL=0
      0100D0BAH   LINE      CODE     ---       #93
      0100D0BAH   LINE      CODE     ---       #94
      0100D0BAH   LINE      CODE     ---       #95
      0100D0BFH   LINE      CODE     ---       #96
      ---         BLOCKEND  ---      ---       LVL=0

      0100CEB9H   BLOCK     CODE     ---       LVL=0
      0100CEB9H   BLOCK     CODE     NEAR LAB  LVL=1
      00000007H   SYMBOL    DATA     BYTE      interruptState
      ---         BLOCKEND  ---      ---       LVL=1
      0100CEB9H   LINE      CODE     ---       #135
      0100CEB9H   LINE      CODE     ---       #136
      0100CEB9H   LINE      CODE     ---       #139
      0100CEBCH   LINE      CODE     ---       #140
      0100CEC3H   LINE      CODE     ---       #141
      0100CEC6H   LINE      CODE     ---       #142
      ---         BLOCKEND  ---      ---       LVL=0
      00000007H   SYMBOL    DATA     BYTE      interruptState
      00000007H   SYMBOL    DATA     BYTE      fifoId
      00000005H   SYMBOL    DATA     BYTE      result

      0100CE2FH   BLOCK     CODE     ---       LVL=0
LX51 LINKER/LOCATER V4.64.0.0                                                         01/10/2017  17:59:18  PAGE 96


      00000007H   SYMBOL    DATA     BYTE      interruptSource
      0100CE2FH   LINE      CODE     ---       #261
      0100CE2FH   LINE      CODE     ---       #262
      0100CE2FH   LINE      CODE     ---       #263
      0100CE36H   LINE      CODE     ---       #264
      0100CE3FH   LINE      CODE     ---       #265
      ---         BLOCKEND  ---      ---       LVL=0
      00000004H   SYMBOL    DATA     DWORD     shiftData

      0100CFA5H   BLOCK     CODE     ---       LVL=0
      0100CFA5H   LINE      CODE     ---       #366
      0100CFA5H   LINE      CODE     ---       #367
      0100CFA5H   LINE      CODE     ---       #368
      0100CFAEH   LINE      CODE     ---       #369
      ---         BLOCKEND  ---      ---       LVL=0

      ---         MODULE    ---      ---       SHIFTREG_ENC_2
      02000DA2H   PUBLIC    XDATA    BYTE      SHIFTREG_ENC_2_initVar
      0100CFAFH   PUBLIC    CODE     ---       SHIFTREG_ENC_2_ReadData
      0100CE40H   PUBLIC    CODE     ---       _SHIFTREG_ENC_2_SetIntMode
      0100CEC7H   PUBLIC    CODE     ---       SHIFTREG_ENC_2_EnableInt
      0100D0C0H   PUBLIC    CODE     ---       SHIFTREG_ENC_2_Init
      0100CF7BH   PUBLIC    CODE     ---       SHIFTREG_ENC_2_Enable
      0100CD99H   PUBLIC    CODE     ---       SHIFTREG_ENC_2_Start
      000000CAH   SFRSYM    DATA     BYTE      SFRPRT5SEL
      000000DAH   SFRSYM    DATA     BYTE      SFRPRT6SEL
      000000D0H.6 SFRSYM    DATA     BIT       AC
      000000A8H.7 SFRSYM    DATA     BIT       EA
      000000A8H   SFRSYM    DATA     BYTE      IE
      00000085H   SFRSYM    DATA     BYTE      DPH1
      00000084H   SFRSYM    DATA     BYTE      DPL1
      000000D0H.7 SFRSYM    DATA     BIT       CY
      000000A0H   SFRSYM    DATA     BYTE      P2AX
      00000095H   SFRSYM    DATA     BYTE      DPX1
      00000081H   SFRSYM    DATA     BYTE      SP
      000000D0H.2 SFRSYM    DATA     BIT       OV
      00000080H   SFRSYM    DATA     BYTE      SFRPRT0DR
      00000090H   SFRSYM    DATA     BYTE      SFRPRT1DR
      000000F2H   SFRSYM    DATA     BYTE      SFRPRT12SEL
      00000098H   SFRSYM    DATA     BYTE      SFRPRT2DR
      000000B0H   SFRSYM    DATA     BYTE      SFRPRT3DR
      000000C0H   SFRSYM    DATA     BYTE      SFRPRT4DR
      000000FAH   SFRSYM    DATA     BYTE      SFRPRT15SEL
      000000C8H   SFRSYM    DATA     BYTE      SFRPRT5DR
      000000D8H   SFRSYM    DATA     BYTE      SFRPRT6DR
      00000089H   SFRSYM    DATA     BYTE      SFRPRT0PS
      00000091H   SFRSYM    DATA     BYTE      SFRPRT1PS
      00000099H   SFRSYM    DATA     BYTE      SFRPRT2PS
      000000B1H   SFRSYM    DATA     BYTE      SFRPRT3PS
      000000C1H   SFRSYM    DATA     BYTE      SFRPRT4PS
      000000C9H   SFRSYM    DATA     BYTE      SFRPRT5PS
      000000D9H   SFRSYM    DATA     BYTE      SFRPRT6PS
      000000EAH   SFRSYM    DATA     BYTE      MXAX
      000000F0H   SFRSYM    DATA     BYTE      B
      000000E0H   SFRSYM    DATA     BYTE      ACC
      000000D0H   SFRSYM    DATA     BIT       P
      000000D0H.3 SFRSYM    DATA     BIT       RS0
      000000D0H.4 SFRSYM    DATA     BIT       RS1
      00000083H   SFRSYM    DATA     BYTE      DPH
      000000E8H   SFRSYM    DATA     BYTE      SFRPRT12DR
      00000082H   SFRSYM    DATA     BYTE      DPL
      000000F8H   SFRSYM    DATA     BYTE      SFRPRT15DR
      00000086H   SFRSYM    DATA     BYTE      DPS
      000000E9H   SFRSYM    DATA     BYTE      SFRPRT12PS
      00000093H   SFRSYM    DATA     BYTE      DPX
LX51 LINKER/LOCATER V4.64.0.0                                                         01/10/2017  17:59:18  PAGE 97


      000000F9H   SFRSYM    DATA     BYTE      SFRPRT15PS
      000000D0H.5 SFRSYM    DATA     BIT       F0
      000000D0H.1 SFRSYM    DATA     BIT       F1
      0000008AH   SFRSYM    DATA     BYTE      SFRPRT0SEL
      000000D0H   SFRSYM    DATA     BYTE      PSW
      000000A2H   SFRSYM    DATA     BYTE      SFRPRT1SEL
      0000009AH   SFRSYM    DATA     BYTE      SFRPRT2SEL
      000000B2H   SFRSYM    DATA     BYTE      SFRPRT3SEL
      000000C2H   SFRSYM    DATA     BYTE      SFRPRT4SEL

      0100CD99H   BLOCK     CODE     ---       LVL=0
      0100CD99H   LINE      CODE     ---       #43
      0100CD99H   LINE      CODE     ---       #44
      0100CD99H   LINE      CODE     ---       #45
      0100CD9FH   LINE      CODE     ---       #46
      0100CD9FH   LINE      CODE     ---       #47
      0100CDA2H   LINE      CODE     ---       #48
      0100CDA8H   LINE      CODE     ---       #49
      0100CDA8H   LINE      CODE     ---       #51
      0100CDABH   LINE      CODE     ---       #52
      ---         BLOCKEND  ---      ---       LVL=0

      0100CF7BH   BLOCK     CODE     ---       LVL=0
      0100CF7BH   LINE      CODE     ---       #69
      0100CF7BH   LINE      CODE     ---       #70
      0100CF7BH   LINE      CODE     ---       #73
      0100CF82H   LINE      CODE     ---       #75
      0100CF85H   LINE      CODE     ---       #76
      ---         BLOCKEND  ---      ---       LVL=0

      0100D0C0H   BLOCK     CODE     ---       LVL=0
      0100D0C0H   LINE      CODE     ---       #93
      0100D0C0H   LINE      CODE     ---       #94
      0100D0C0H   LINE      CODE     ---       #95
      0100D0C5H   LINE      CODE     ---       #96
      ---         BLOCKEND  ---      ---       LVL=0

      0100CEC7H   BLOCK     CODE     ---       LVL=0
      0100CEC7H   BLOCK     CODE     NEAR LAB  LVL=1
      00000007H   SYMBOL    DATA     BYTE      interruptState
      ---         BLOCKEND  ---      ---       LVL=1
      0100CEC7H   LINE      CODE     ---       #135
      0100CEC7H   LINE      CODE     ---       #136
      0100CEC7H   LINE      CODE     ---       #139
      0100CECAH   LINE      CODE     ---       #140
      0100CED1H   LINE      CODE     ---       #141
      0100CED4H   LINE      CODE     ---       #142
      ---         BLOCKEND  ---      ---       LVL=0
      00000007H   SYMBOL    DATA     BYTE      interruptState
      00000007H   SYMBOL    DATA     BYTE      fifoId
      00000005H   SYMBOL    DATA     BYTE      result

      0100CE40H   BLOCK     CODE     ---       LVL=0
      00000007H   SYMBOL    DATA     BYTE      interruptSource
      0100CE40H   LINE      CODE     ---       #261
      0100CE40H   LINE      CODE     ---       #262
      0100CE40H   LINE      CODE     ---       #263
      0100CE47H   LINE      CODE     ---       #264
      0100CE50H   LINE      CODE     ---       #265
      ---         BLOCKEND  ---      ---       LVL=0
      00000004H   SYMBOL    DATA     DWORD     shiftData

      0100CFAFH   BLOCK     CODE     ---       LVL=0
      0100CFAFH   LINE      CODE     ---       #366
      0100CFAFH   LINE      CODE     ---       #367
LX51 LINKER/LOCATER V4.64.0.0                                                         01/10/2017  17:59:18  PAGE 98


      0100CFAFH   LINE      CODE     ---       #368
      0100CFB8H   LINE      CODE     ---       #369
      ---         BLOCKEND  ---      ---       LVL=0

      ---         MODULE    ---      ---       EEPROM
      0100AD1CH   PUBLIC    CODE     ---       _EEPROM_Write
      0100D138H   PUBLIC    CODE     ---       EEPROM_Start
      0100D057H   PUBLIC    CODE     ---       EEPROM_Enable
      000000CAH   SFRSYM    DATA     BYTE      SFRPRT5SEL
      000000DAH   SFRSYM    DATA     BYTE      SFRPRT6SEL
      000000D0H.6 SFRSYM    DATA     BIT       AC
      000000A8H.7 SFRSYM    DATA     BIT       EA
      000000A8H   SFRSYM    DATA     BYTE      IE
      00000085H   SFRSYM    DATA     BYTE      DPH1
      00000084H   SFRSYM    DATA     BYTE      DPL1
      000000D0H.7 SFRSYM    DATA     BIT       CY
      000000A0H   SFRSYM    DATA     BYTE      P2AX
      00000095H   SFRSYM    DATA     BYTE      DPX1
      00000081H   SFRSYM    DATA     BYTE      SP
      000000D0H.2 SFRSYM    DATA     BIT       OV
      00000080H   SFRSYM    DATA     BYTE      SFRPRT0DR
      00000090H   SFRSYM    DATA     BYTE      SFRPRT1DR
      000000F2H   SFRSYM    DATA     BYTE      SFRPRT12SEL
      00000098H   SFRSYM    DATA     BYTE      SFRPRT2DR
      000000B0H   SFRSYM    DATA     BYTE      SFRPRT3DR
      000000C0H   SFRSYM    DATA     BYTE      SFRPRT4DR
      000000FAH   SFRSYM    DATA     BYTE      SFRPRT15SEL
      000000C8H   SFRSYM    DATA     BYTE      SFRPRT5DR
      000000D8H   SFRSYM    DATA     BYTE      SFRPRT6DR
      00000089H   SFRSYM    DATA     BYTE      SFRPRT0PS
      00000091H   SFRSYM    DATA     BYTE      SFRPRT1PS
      00000099H   SFRSYM    DATA     BYTE      SFRPRT2PS
      000000B1H   SFRSYM    DATA     BYTE      SFRPRT3PS
      000000C1H   SFRSYM    DATA     BYTE      SFRPRT4PS
      000000C9H   SFRSYM    DATA     BYTE      SFRPRT5PS
      000000D9H   SFRSYM    DATA     BYTE      SFRPRT6PS
      000000EAH   SFRSYM    DATA     BYTE      MXAX
      000000F0H   SFRSYM    DATA     BYTE      B
      000000E0H   SFRSYM    DATA     BYTE      ACC
      000000D0H   SFRSYM    DATA     BIT       P
      000000D0H.3 SFRSYM    DATA     BIT       RS0
      000000D0H.4 SFRSYM    DATA     BIT       RS1
      00000083H   SFRSYM    DATA     BYTE      DPH
      000000E8H   SFRSYM    DATA     BYTE      SFRPRT12DR
      00000082H   SFRSYM    DATA     BYTE      DPL
      000000F8H   SFRSYM    DATA     BYTE      SFRPRT15DR
      00000086H   SFRSYM    DATA     BYTE      DPS
      000000E9H   SFRSYM    DATA     BYTE      SFRPRT12PS
      00000093H   SFRSYM    DATA     BYTE      DPX
      000000F9H   SFRSYM    DATA     BYTE      SFRPRT15PS
      000000D0H.5 SFRSYM    DATA     BIT       F0
      000000D0H.1 SFRSYM    DATA     BIT       F1
      0000008AH   SFRSYM    DATA     BYTE      SFRPRT0SEL
      000000D0H   SFRSYM    DATA     BYTE      PSW
      000000A2H   SFRSYM    DATA     BYTE      SFRPRT1SEL
      0000009AH   SFRSYM    DATA     BYTE      SFRPRT2SEL
      000000B2H   SFRSYM    DATA     BYTE      SFRPRT3SEL
      000000C2H   SFRSYM    DATA     BYTE      SFRPRT4SEL

      0100D057H   BLOCK     CODE     ---       LVL=0
      0100D057H   LINE      CODE     ---       #33
      0100D057H   LINE      CODE     ---       #34
      0100D057H   LINE      CODE     ---       #36
      0100D05AH   LINE      CODE     ---       #39
      0100D05DH   LINE      CODE     ---       #40
LX51 LINKER/LOCATER V4.64.0.0                                                         01/10/2017  17:59:18  PAGE 99


      ---         BLOCKEND  ---      ---       LVL=0

      0100D138H   BLOCK     CODE     ---       LVL=0
      0100D138H   LINE      CODE     ---       #57
      0100D138H   LINE      CODE     ---       #58
      0100D138H   LINE      CODE     ---       #59
      0100D13BH   LINE      CODE     ---       #60
      ---         BLOCKEND  ---      ---       LVL=0

      0100AD1CH   BLOCK     CODE     ---       LVL=0
      02000019H   SYMBOL    XDATA    ---       rowData
      0200001CH   SYMBOL    XDATA    BYTE      rowNumber
      0100AD2AH   BLOCK     CODE     NEAR LAB  LVL=1
      0200001DH   SYMBOL    XDATA    BYTE      status
      ---         BLOCKEND  ---      ---       LVL=1
      0100AD1CH   LINE      CODE     ---       #345
      0100AD2AH   LINE      CODE     ---       #346
      0100AD2AH   LINE      CODE     ---       #349
      0100AD2DH   LINE      CODE     ---       #351
      0100AD39H   LINE      CODE     ---       #352
      0100AD39H   LINE      CODE     ---       #354
      0100AD42H   LINE      CODE     ---       #355
      0100AD42H   LINE      CODE     ---       #357
      0100AD48H   LINE      CODE     ---       #360
      0100AD66H   LINE      CODE     ---       #361
      0100AD66H   LINE      CODE     ---       #362
      0100AD6EH   LINE      CODE     ---       #363
      0100AD6EH   LINE      CODE     ---       #365
      0100AD6EH   LINE      CODE     ---       #368
      0100AD84H   LINE      CODE     ---       #369
      0100AD84H   LINE      CODE     ---       #370
      0100AD88H   LINE      CODE     ---       #371
      0100AD88H   LINE      CODE     ---       #374
      0100AD8EH   LINE      CODE     ---       #375
      0100AD8EH   LINE      CODE     ---       #376
      0100ADAAH   LINE      CODE     ---       #378
      0100ADAAH   LINE      CODE     ---       #380
      0100ADB0H   LINE      CODE     ---       #382
      0100ADB8H   LINE      CODE     ---       #383
      0100ADB8H   LINE      CODE     ---       #385
      0100ADB8H   LINE      CODE     ---       #388
      0100ADCEH   LINE      CODE     ---       #389
      0100ADCEH   LINE      CODE     ---       #390
      0100ADD2H   LINE      CODE     ---       #391
      0100ADD2H   LINE      CODE     ---       #392
      0100ADD4H   LINE      CODE     ---       #394
      0100ADD4H   LINE      CODE     ---       #395
      0100ADDAH   LINE      CODE     ---       #396
      0100ADDAH   LINE      CODE     ---       #397
      0100ADDCH   LINE      CODE     ---       #399
      0100ADDCH   LINE      CODE     ---       #400
      0100ADE2H   LINE      CODE     ---       #401
      0100ADE2H   LINE      CODE     ---       #402
      0100ADE2H   LINE      CODE     ---       #405
      0100ADE5H   LINE      CODE     ---       #406
      0100ADE7H   LINE      CODE     ---       #408
      0100ADE7H   LINE      CODE     ---       #409
      0100ADEDH   LINE      CODE     ---       #410
      0100ADEDH   LINE      CODE     ---       #411
      0100ADEFH   LINE      CODE     ---       #413
      0100ADEFH   LINE      CODE     ---       #414
      0100ADF5H   LINE      CODE     ---       #415
      0100ADF5H   LINE      CODE     ---       #417
      0100ADFAH   LINE      CODE     ---       #418
      ---         BLOCKEND  ---      ---       LVL=0
LX51 LINKER/LOCATER V4.64.0.0                                                         01/10/2017  17:59:18  PAGE 100



      ---         MODULE    ---      ---       ADC
      02000D7AH   PUBLIC    XDATA    LONG      ADC_CountsPerVolt
      02000D79H   PUBLIC    XDATA    BYTE      ADC_convDone
      02000D75H   PUBLIC    XDATA    BYTE      ADC_started
      02000D74H   PUBLIC    XDATA    BYTE      ADC_stopConversion
      02000D70H   PUBLIC    XDATA    LONG      ADC_Offset
      02000D6FH   PUBLIC    XDATA    BYTE      ADC_initVar
      02000D6EH   PUBLIC    XDATA    BYTE      ADC_Config
      0100CC17H   PUBLIC    CODE     ---       ADC_Start
      0100B4A0H   PUBLIC    CODE     ---       ADC_Enable
      0100B041H   PUBLIC    CODE     ---       ADC_Init
      000000CAH   SFRSYM    DATA     BYTE      SFRPRT5SEL
      000000DAH   SFRSYM    DATA     BYTE      SFRPRT6SEL
      000000D0H.6 SFRSYM    DATA     BIT       AC
      000000A8H.7 SFRSYM    DATA     BIT       EA
      000000A8H   SFRSYM    DATA     BYTE      IE
      00000085H   SFRSYM    DATA     BYTE      DPH1
      00000084H   SFRSYM    DATA     BYTE      DPL1
      000000D0H.7 SFRSYM    DATA     BIT       CY
      000000A0H   SFRSYM    DATA     BYTE      P2AX
      00000095H   SFRSYM    DATA     BYTE      DPX1
      00000081H   SFRSYM    DATA     BYTE      SP
      000000D0H.2 SFRSYM    DATA     BIT       OV
      00000080H   SFRSYM    DATA     BYTE      SFRPRT0DR
      00000090H   SFRSYM    DATA     BYTE      SFRPRT1DR
      000000F2H   SFRSYM    DATA     BYTE      SFRPRT12SEL
      00000098H   SFRSYM    DATA     BYTE      SFRPRT2DR
      000000B0H   SFRSYM    DATA     BYTE      SFRPRT3DR
      000000C0H   SFRSYM    DATA     BYTE      SFRPRT4DR
      000000FAH   SFRSYM    DATA     BYTE      SFRPRT15SEL
      000000C8H   SFRSYM    DATA     BYTE      SFRPRT5DR
      000000D8H   SFRSYM    DATA     BYTE      SFRPRT6DR
      00000089H   SFRSYM    DATA     BYTE      SFRPRT0PS
      00000091H   SFRSYM    DATA     BYTE      SFRPRT1PS
      00000099H   SFRSYM    DATA     BYTE      SFRPRT2PS
      000000B1H   SFRSYM    DATA     BYTE      SFRPRT3PS
      000000C1H   SFRSYM    DATA     BYTE      SFRPRT4PS
      000000C9H   SFRSYM    DATA     BYTE      SFRPRT5PS
      000000D9H   SFRSYM    DATA     BYTE      SFRPRT6PS
      000000EAH   SFRSYM    DATA     BYTE      MXAX
      000000F0H   SFRSYM    DATA     BYTE      B
      000000E0H   SFRSYM    DATA     BYTE      ACC
      000000D0H   SFRSYM    DATA     BIT       P
      000000D0H.3 SFRSYM    DATA     BIT       RS0
      000000D0H.4 SFRSYM    DATA     BIT       RS1
      00000083H   SFRSYM    DATA     BYTE      DPH
      000000E8H   SFRSYM    DATA     BYTE      SFRPRT12DR
      00000082H   SFRSYM    DATA     BYTE      DPL
      000000F8H   SFRSYM    DATA     BYTE      SFRPRT15DR
      00000086H   SFRSYM    DATA     BYTE      DPS
      000000E9H   SFRSYM    DATA     BYTE      SFRPRT12PS
      00000093H   SFRSYM    DATA     BYTE      DPX
      000000F9H   SFRSYM    DATA     BYTE      SFRPRT15PS
      000000D0H.5 SFRSYM    DATA     BIT       F0
      000000D0H.1 SFRSYM    DATA     BIT       F1
      0000008AH   SFRSYM    DATA     BYTE      SFRPRT0SEL
      000000D0H   SFRSYM    DATA     BYTE      PSW
      000000A2H   SFRSYM    DATA     BYTE      SFRPRT1SEL
      0000009AH   SFRSYM    DATA     BYTE      SFRPRT2SEL
      000000B2H   SFRSYM    DATA     BYTE      SFRPRT3SEL
      000000C2H   SFRSYM    DATA     BYTE      SFRPRT4SEL
      0100B1A3H   SYMBOL    CODE     ---       _ADC_InitConfig
      01009C74H   SYMBOL    CODE     ---       _ADC_GainCompensation
      0100C63EH   SYMBOL    CODE     ---       _ADC_SetDSMRef0Reg
LX51 LINKER/LOCATER V4.64.0.0                                                         01/10/2017  17:59:18  PAGE 101


      02000D76H   SYMBOL    XDATA    ---       ADC_gcor

      0100B041H   BLOCK     CODE     ---       LVL=0
      0100B041H   LINE      CODE     ---       #91
      0100B041H   LINE      CODE     ---       #92
      0100B041H   LINE      CODE     ---       #94
      0100B047H   LINE      CODE     ---       #95
      0100B04CH   LINE      CODE     ---       #97
      0100B051H   LINE      CODE     ---       #101
      0100B056H   LINE      CODE     ---       #106
      0100B05DH   LINE      CODE     ---       #110
      0100B063H   LINE      CODE     ---       #111
      0100B066H   LINE      CODE     ---       #112
      0100B06AH   LINE      CODE     ---       #113
      0100B071H   LINE      CODE     ---       #114
      0100B076H   LINE      CODE     ---       #116
      0100B07AH   LINE      CODE     ---       #117
      0100B07CH   LINE      CODE     ---       #119
      0100B082H   LINE      CODE     ---       #120
      0100B085H   LINE      CODE     ---       #124
      0100B089H   LINE      CODE     ---       #126
      0100B08FH   LINE      CODE     ---       #127
      0100B092H   LINE      CODE     ---       #128
      0100B097H   LINE      CODE     ---       #130
      0100B09DH   LINE      CODE     ---       #133
      0100B0B4H   LINE      CODE     ---       #161
      0100B0CAH   LINE      CODE     ---       #162
      0100B0E9H   LINE      CODE     ---       #165
      0100B0F1H   LINE      CODE     ---       #166
      ---         BLOCKEND  ---      ---       LVL=0

      0100B4A0H   BLOCK     CODE     ---       LVL=0
      0100B4A0H   BLOCK     CODE     NEAR LAB  LVL=1
      02000002H   SYMBOL    XDATA    BYTE      config
      02000003H   SYMBOL    XDATA    BYTE      enableInterrupts
      ---         BLOCKEND  ---      ---       LVL=1
      0100B4A0H   LINE      CODE     ---       #184
      0100B4A0H   LINE      CODE     ---       #185
      0100B4A0H   LINE      CODE     ---       #188
      0100B4A8H   LINE      CODE     ---       #191
      0100B4B0H   LINE      CODE     ---       #194
      0100B4B7H   LINE      CODE     ---       #195
      0100B4BBH   LINE      CODE     ---       #198
      0100B4C2H   LINE      CODE     ---       #199
      0100B4C6H   LINE      CODE     ---       #202
      0100B4CDH   LINE      CODE     ---       #203
      0100B4D2H   LINE      CODE     ---       #205
      0100B4D9H   LINE      CODE     ---       #265
      0100B4D9H   LINE      CODE     ---       #266
      0100B4D9H   LINE      CODE     ---       #268
      0100B4D9H   LINE      CODE     ---       #271
      0100B4E0H   LINE      CODE     ---       #274
      0100B4E7H   LINE      CODE     ---       #275
      0100B4ECH   LINE      CODE     ---       #278
      0100B4F3H   LINE      CODE     ---       #281
      0100B4F9H   LINE      CODE     ---       #285
      0100B500H   LINE      CODE     ---       #286
      0100B507H   LINE      CODE     ---       #290
      0100B50EH   LINE      CODE     ---       #291
      0100B515H   LINE      CODE     ---       #295
      0100B51BH   LINE      CODE     ---       #297
      0100B51FH   LINE      CODE     ---       #300
      0100B527H   LINE      CODE     ---       #302
      ---         BLOCKEND  ---      ---       LVL=0

LX51 LINKER/LOCATER V4.64.0.0                                                         01/10/2017  17:59:18  PAGE 102


      0100CC17H   BLOCK     CODE     ---       LVL=0
      0100CC17H   LINE      CODE     ---       #329
      0100CC17H   LINE      CODE     ---       #330
      0100CC17H   LINE      CODE     ---       #331
      0100CC1DH   LINE      CODE     ---       #332
      0100CC1DH   LINE      CODE     ---       #333
      0100CC23H   LINE      CODE     ---       #334
      0100CC23H   LINE      CODE     ---       #335
      0100CC26H   LINE      CODE     ---       #336
      0100CC26H   LINE      CODE     ---       #337
      0100CC2CH   LINE      CODE     ---       #338
      0100CC2CH   LINE      CODE     ---       #341
      0100CC2FH   LINE      CODE     ---       #342
      ---         BLOCKEND  ---      ---       LVL=0
      00000007H   SYMBOL    DATA     BYTE      gain
      00000006H   SYMBOL    DATA     BYTE      tmpReg
      00000007H   SYMBOL    DATA     BYTE      coherency
      00000006H   SYMBOL    DATA     BYTE      tmpReg
      00000004H   SYMBOL    DATA     WORD      gcorValue
      00000007H   SYMBOL    DATA     BYTE      retMode
      00000006H   SYMBOL    DATA     BYTE      status
      00000006H   SYMBOL    DATA     CHAR      result
      00000007H   SYMBOL    DATA     BYTE      coherency
      00000004H   SYMBOL    DATA     LONG      offset
      00000004H   SYMBOL    DATA     LONG      adcGain
      00000006H   SYMBOL    DATA     INT       mVolts
      00000004H   SYMBOL    DATA     FLOAT     Volts
      00000004H   SYMBOL    DATA     LONG      uVolts

      0100B1A3H   BLOCK     CODE     ---       LVL=0
      00000007H   SYMBOL    DATA     BYTE      config
      0100B1A3H   LINE      CODE     ---       #1242
      0100B1A3H   LINE      CODE     ---       #1243
      0100B1A3H   LINE      CODE     ---       #1244
      0100B1A8H   LINE      CODE     ---       #1246
      0100B1B0H   LINE      CODE     ---       #1247
      0100B1B0H   LINE      CODE     ---       #1249
      0100B1B6H   LINE      CODE     ---       #1250
      0100B1BCH   LINE      CODE     ---       #1251
      0100B1C0H   LINE      CODE     ---       #1252
      0100B1C3H   LINE      CODE     ---       #1253
      0100B1C5H   LINE      CODE     ---       #1254
      0100B1C9H   LINE      CODE     ---       #1255
      0100B1CEH   LINE      CODE     ---       #1256
      0100B1D0H   LINE      CODE     ---       #1257
      0100B1D2H   LINE      CODE     ---       #1258
      0100B1D7H   LINE      CODE     ---       #1260
      0100B1DDH   LINE      CODE     ---       #1261
      0100B1E1H   LINE      CODE     ---       #1262
      0100B1E5H   LINE      CODE     ---       #1263
      0100B1E8H   LINE      CODE     ---       #1264
      0100B1EEH   LINE      CODE     ---       #1265
      0100B1F2H   LINE      CODE     ---       #1266
      0100B1F6H   LINE      CODE     ---       #1267
      0100B1FBH   LINE      CODE     ---       #1268
      0100B1FFH   LINE      CODE     ---       #1269
      0100B203H   LINE      CODE     ---       #1270
      0100B207H   LINE      CODE     ---       #1272
      0100B20CH   LINE      CODE     ---       #1273
      0100B212H   LINE      CODE     ---       #1274
      0100B215H   LINE      CODE     ---       #1276
      0100B21AH   LINE      CODE     ---       #1277
      0100B21CH   LINE      CODE     ---       #1278
      0100B21FH   LINE      CODE     ---       #1279
      0100B223H   LINE      CODE     ---       #1288
LX51 LINKER/LOCATER V4.64.0.0                                                         01/10/2017  17:59:18  PAGE 103


      0100B228H   LINE      CODE     ---       #1300
      0100B235H   LINE      CODE     ---       #1302
      0100B23EH   LINE      CODE     ---       #1306
      0100B247H   LINE      CODE     ---       #1311
      0100B250H   LINE      CODE     ---       #1313
      0100B250H   LINE      CODE     ---       #1526
      ---         BLOCKEND  ---      ---       LVL=0

      01009C74H   BLOCK     CODE     ---       LVL=0
      00000007H   SYMBOL    DATA     BYTE      inputRange
      02000003H   SYMBOL    XDATA    WORD      idealDecGain
      02000005H   SYMBOL    XDATA    WORD      idealOddDecGain
      02000007H   SYMBOL    XDATA    BYTE      resolution
      02000008H   SYMBOL    XDATA    BYTE      config
      01009C82H   BLOCK     CODE     NEAR LAB  LVL=1
      02000009H   SYMBOL    XDATA    CHAR      flash
      00000004H   SYMBOL    DATA     LONG      normalised
      00000004H   SYMBOL    DATA     WORD      gcorValue
      00000004H   SYMBOL    DATA     DWORD     gcorTmp
      ---         BLOCKEND  ---      ---       LVL=1
      01009C74H   LINE      CODE     ---       #1617
      01009C82H   LINE      CODE     ---       #1619
      01009C82H   LINE      CODE     ---       #1625
      01009C98H   LINE      CODE     ---       #1626
      01009C98H   LINE      CODE     ---       #1627
      01009CB2H   LINE      CODE     ---       #1628
      01009CB2H   LINE      CODE     ---       #1629
      01009CB2H   LINE      CODE     ---       #1630
      01009CB2H   LINE      CODE     ---       #1632
      01009CBBH   LINE      CODE     ---       #1633
      01009CBBH   LINE      CODE     ---       #1634
      01009CC9H   LINE      CODE     ---       #1635
      01009CCCH   LINE      CODE     ---       #1637
      01009CCCH   LINE      CODE     ---       #1638
      01009CDAH   LINE      CODE     ---       #1639
      01009CDAH   LINE      CODE     ---       #1640
      01009CDDH   LINE      CODE     ---       #1642
      01009CDDH   LINE      CODE     ---       #1644
      01009CE6H   LINE      CODE     ---       #1645
      01009CE6H   LINE      CODE     ---       #1646
      01009CF4H   LINE      CODE     ---       #1647
      01009CF6H   LINE      CODE     ---       #1649
      01009CF6H   LINE      CODE     ---       #1650
      01009D04H   LINE      CODE     ---       #1651
      01009D04H   LINE      CODE     ---       #1652
      01009D06H   LINE      CODE     ---       #1654
      01009D06H   LINE      CODE     ---       #1656
      01009D0FH   LINE      CODE     ---       #1657
      01009D0FH   LINE      CODE     ---       #1658
      01009D1DH   LINE      CODE     ---       #1659
      01009D1FH   LINE      CODE     ---       #1661
      01009D1FH   LINE      CODE     ---       #1662
      01009D2DH   LINE      CODE     ---       #1663
      01009D2DH   LINE      CODE     ---       #1664
      01009D2FH   LINE      CODE     ---       #1666
      01009D2FH   LINE      CODE     ---       #1668
      01009D38H   LINE      CODE     ---       #1669
      01009D38H   LINE      CODE     ---       #1670
      01009D46H   LINE      CODE     ---       #1671
      01009D48H   LINE      CODE     ---       #1673
      01009D48H   LINE      CODE     ---       #1674
      01009D56H   LINE      CODE     ---       #1675
      01009D56H   LINE      CODE     ---       #1676
      01009D58H   LINE      CODE     ---       #1678
      01009D58H   LINE      CODE     ---       #1679
LX51 LINKER/LOCATER V4.64.0.0                                                         01/10/2017  17:59:18  PAGE 104


      01009D5DH   LINE      CODE     ---       #1680
      01009D5DH   LINE      CODE     ---       #1681
      01009D5DH   LINE      CODE     ---       #1684
      01009D90H   LINE      CODE     ---       #1685
      01009DA3H   LINE      CODE     ---       #1686
      01009DB0H   LINE      CODE     ---       #1688
      01009DB9H   LINE      CODE     ---       #1689
      01009DB9H   LINE      CODE     ---       #1690
      01009DD0H   LINE      CODE     ---       #1691
      01009DE6H   LINE      CODE     ---       #1692
      01009DE8H   LINE      CODE     ---       #1694
      01009DE8H   LINE      CODE     ---       #1696
      01009DFCH   LINE      CODE     ---       #1697
      01009DFCH   LINE      CODE     ---       #1700
      01009E14H   LINE      CODE     ---       #1701
      01009E14H   LINE      CODE     ---       #1703
      01009E14H   LINE      CODE     ---       #1706
      01009E14H   LINE      CODE     ---       #1707
      ---         BLOCKEND  ---      ---       LVL=0

      0100C63EH   BLOCK     CODE     ---       LVL=0
      02000002H   SYMBOL    XDATA    BYTE      value
      0100C643H   BLOCK     CODE     NEAR LAB  LVL=1
      02000003H   SYMBOL    XDATA    BYTE      enableInterrupts
      ---         BLOCKEND  ---      ---       LVL=1
      0100C63EH   LINE      CODE     ---       #1724
      0100C643H   LINE      CODE     ---       #1725
      0100C643H   LINE      CODE     ---       #1727
      0100C64BH   LINE      CODE     ---       #1730
      0100C652H   LINE      CODE     ---       #1731
      0100C657H   LINE      CODE     ---       #1732
      0100C65FH   LINE      CODE     ---       #1735
      0100C666H   LINE      CODE     ---       #1737
      0100C66DH   LINE      CODE     ---       #1738
      0100C672H   LINE      CODE     ---       #1740
      0100C67AH   LINE      CODE     ---       #1741
      ---         BLOCKEND  ---      ---       LVL=0
      00000007H   SYMBOL    DATA     CHAR      result
      00000006H   SYMBOL    DATA     INT       result
      00000004H   SYMBOL    DATA     LONG      result

      ---         MODULE    ---      ---       RS485_CTS
      0100D0C6H   PUBLIC    CODE     ---       _RS485_CTS_Write

      0100D0C6H   BLOCK     CODE     ---       LVL=0
      00000007H   SYMBOL    DATA     BYTE      control
      0100D0C6H   LINE      CODE     ---       #37
      0100D0C6H   LINE      CODE     ---       #38
      0100D0C6H   LINE      CODE     ---       #39
      0100D0CBH   LINE      CODE     ---       #40
      ---         BLOCKEND  ---      ---       LVL=0

      ---         MODULE    ---      ---       BOOTLOADABLE
      0100CFB9H   PUBLIC    CODE     ---       Bootloadable_Load
      000000CAH   SFRSYM    DATA     BYTE      SFRPRT5SEL
      000000DAH   SFRSYM    DATA     BYTE      SFRPRT6SEL
      000000D0H.6 SFRSYM    DATA     BIT       AC
      000000A8H.7 SFRSYM    DATA     BIT       EA
      000000A8H   SFRSYM    DATA     BYTE      IE
      00000085H   SFRSYM    DATA     BYTE      DPH1
      00000084H   SFRSYM    DATA     BYTE      DPL1
      000000D0H.7 SFRSYM    DATA     BIT       CY
      000000A0H   SFRSYM    DATA     BYTE      P2AX
      00000095H   SFRSYM    DATA     BYTE      DPX1
      00000081H   SFRSYM    DATA     BYTE      SP
LX51 LINKER/LOCATER V4.64.0.0                                                         01/10/2017  17:59:18  PAGE 105


      000000D0H.2 SFRSYM    DATA     BIT       OV
      00000080H   SFRSYM    DATA     BYTE      SFRPRT0DR
      00000090H   SFRSYM    DATA     BYTE      SFRPRT1DR
      000000F2H   SFRSYM    DATA     BYTE      SFRPRT12SEL
      00000098H   SFRSYM    DATA     BYTE      SFRPRT2DR
      000000B0H   SFRSYM    DATA     BYTE      SFRPRT3DR
      000000C0H   SFRSYM    DATA     BYTE      SFRPRT4DR
      000000FAH   SFRSYM    DATA     BYTE      SFRPRT15SEL
      000000C8H   SFRSYM    DATA     BYTE      SFRPRT5DR
      000000D8H   SFRSYM    DATA     BYTE      SFRPRT6DR
      00000089H   SFRSYM    DATA     BYTE      SFRPRT0PS
      00000091H   SFRSYM    DATA     BYTE      SFRPRT1PS
      00000099H   SFRSYM    DATA     BYTE      SFRPRT2PS
      000000B1H   SFRSYM    DATA     BYTE      SFRPRT3PS
      000000C1H   SFRSYM    DATA     BYTE      SFRPRT4PS
      000000C9H   SFRSYM    DATA     BYTE      SFRPRT5PS
      000000D9H   SFRSYM    DATA     BYTE      SFRPRT6PS
      000000EAH   SFRSYM    DATA     BYTE      MXAX
      000000F0H   SFRSYM    DATA     BYTE      B
      000000E0H   SFRSYM    DATA     BYTE      ACC
      000000D0H   SFRSYM    DATA     BIT       P
      000000D0H.3 SFRSYM    DATA     BIT       RS0
      000000D0H.4 SFRSYM    DATA     BIT       RS1
      00000083H   SFRSYM    DATA     BYTE      DPH
      000000E8H   SFRSYM    DATA     BYTE      SFRPRT12DR
      00000082H   SFRSYM    DATA     BYTE      DPL
      000000F8H   SFRSYM    DATA     BYTE      SFRPRT15DR
      00000086H   SFRSYM    DATA     BYTE      DPS
      000000E9H   SFRSYM    DATA     BYTE      SFRPRT12PS
      00000093H   SFRSYM    DATA     BYTE      DPX
      000000F9H   SFRSYM    DATA     BYTE      SFRPRT15PS
      000000D0H.5 SFRSYM    DATA     BIT       F0
      000000D0H.1 SFRSYM    DATA     BIT       F1
      0000008AH   SFRSYM    DATA     BYTE      SFRPRT0SEL
      000000D0H   SFRSYM    DATA     BYTE      PSW
      000000A2H   SFRSYM    DATA     BYTE      SFRPRT1SEL
      0000009AH   SFRSYM    DATA     BYTE      SFRPRT2SEL
      000000B2H   SFRSYM    DATA     BYTE      SFRPRT3SEL
      000000C2H   SFRSYM    DATA     BYTE      SFRPRT4SEL

      0100CFB9H   BLOCK     CODE     ---       LVL=0
      0100CFB9H   LINE      CODE     ---       #41
      0100CFB9H   LINE      CODE     ---       #42
      0100CFB9H   LINE      CODE     ---       #44
      0100CFBFH   LINE      CODE     ---       #46
      0100CFC2H   LINE      CODE     ---       #47
      ---         BLOCKEND  ---      ---       LVL=0
      00000002H   SYMBOL    DATA     WORD      idx

      ---         MODULE    ---      ---       MOTOR_ON_OFF
      0100D0CCH   PUBLIC    CODE     ---       _MOTOR_ON_OFF_Write

      0100D0CCH   BLOCK     CODE     ---       LVL=0
      00000007H   SYMBOL    DATA     BYTE      control
      0100D0CCH   LINE      CODE     ---       #37
      0100D0CCH   LINE      CODE     ---       #38
      0100D0CCH   LINE      CODE     ---       #39
      0100D0D1H   LINE      CODE     ---       #40
      ---         BLOCKEND  ---      ---       LVL=0

      ---         MODULE    ---      ---       FTDI_ENABLE_REG
      0100D0D2H   PUBLIC    CODE     ---       _FTDI_ENABLE_REG_Write

      0100D0D2H   BLOCK     CODE     ---       LVL=0
      00000007H   SYMBOL    DATA     BYTE      control
LX51 LINKER/LOCATER V4.64.0.0                                                         01/10/2017  17:59:18  PAGE 106


      0100D0D2H   LINE      CODE     ---       #37
      0100D0D2H   LINE      CODE     ---       #38
      0100D0D2H   LINE      CODE     ---       #39
      0100D0D7H   LINE      CODE     ---       #40
      ---         BLOCKEND  ---      ---       LVL=0

      ---         MODULE    ---      ---       RESET_FF
      0100D0D8H   PUBLIC    CODE     ---       _RESET_FF_Write

      0100D0D8H   BLOCK     CODE     ---       LVL=0
      00000007H   SYMBOL    DATA     BYTE      control
      0100D0D8H   LINE      CODE     ---       #37
      0100D0D8H   LINE      CODE     ---       #38
      0100D0D8H   LINE      CODE     ---       #39
      0100D0DDH   LINE      CODE     ---       #40
      ---         BLOCKEND  ---      ---       LVL=0

      ---         MODULE    ---      ---       FF_STATUS
      0100D0DEH   PUBLIC    CODE     ---       FF_STATUS_Read
      000000CAH   SFRSYM    DATA     BYTE      SFRPRT5SEL
      000000DAH   SFRSYM    DATA     BYTE      SFRPRT6SEL
      000000D0H.6 SFRSYM    DATA     BIT       AC
      000000A8H.7 SFRSYM    DATA     BIT       EA
      000000A8H   SFRSYM    DATA     BYTE      IE
      00000085H   SFRSYM    DATA     BYTE      DPH1
      00000084H   SFRSYM    DATA     BYTE      DPL1
      000000D0H.7 SFRSYM    DATA     BIT       CY
      000000A0H   SFRSYM    DATA     BYTE      P2AX
      00000095H   SFRSYM    DATA     BYTE      DPX1
      00000081H   SFRSYM    DATA     BYTE      SP
      000000D0H.2 SFRSYM    DATA     BIT       OV
      00000080H   SFRSYM    DATA     BYTE      SFRPRT0DR
      00000090H   SFRSYM    DATA     BYTE      SFRPRT1DR
      000000F2H   SFRSYM    DATA     BYTE      SFRPRT12SEL
      00000098H   SFRSYM    DATA     BYTE      SFRPRT2DR
      000000B0H   SFRSYM    DATA     BYTE      SFRPRT3DR
      000000C0H   SFRSYM    DATA     BYTE      SFRPRT4DR
      000000FAH   SFRSYM    DATA     BYTE      SFRPRT15SEL
      000000C8H   SFRSYM    DATA     BYTE      SFRPRT5DR
      000000D8H   SFRSYM    DATA     BYTE      SFRPRT6DR
      00000089H   SFRSYM    DATA     BYTE      SFRPRT0PS
      00000091H   SFRSYM    DATA     BYTE      SFRPRT1PS
      00000099H   SFRSYM    DATA     BYTE      SFRPRT2PS
      000000B1H   SFRSYM    DATA     BYTE      SFRPRT3PS
      000000C1H   SFRSYM    DATA     BYTE      SFRPRT4PS
      000000C9H   SFRSYM    DATA     BYTE      SFRPRT5PS
      000000D9H   SFRSYM    DATA     BYTE      SFRPRT6PS
      000000EAH   SFRSYM    DATA     BYTE      MXAX
      000000F0H   SFRSYM    DATA     BYTE      B
      000000E0H   SFRSYM    DATA     BYTE      ACC
      000000D0H   SFRSYM    DATA     BIT       P
      000000D0H.3 SFRSYM    DATA     BIT       RS0
      000000D0H.4 SFRSYM    DATA     BIT       RS1
      00000083H   SFRSYM    DATA     BYTE      DPH
      000000E8H   SFRSYM    DATA     BYTE      SFRPRT12DR
      00000082H   SFRSYM    DATA     BYTE      DPL
      000000F8H   SFRSYM    DATA     BYTE      SFRPRT15DR
      00000086H   SFRSYM    DATA     BYTE      DPS
      000000E9H   SFRSYM    DATA     BYTE      SFRPRT12PS
      00000093H   SFRSYM    DATA     BYTE      DPX
      000000F9H   SFRSYM    DATA     BYTE      SFRPRT15PS
      000000D0H.5 SFRSYM    DATA     BIT       F0
      000000D0H.1 SFRSYM    DATA     BIT       F1
      0000008AH   SFRSYM    DATA     BYTE      SFRPRT0SEL
      000000D0H   SFRSYM    DATA     BYTE      PSW
LX51 LINKER/LOCATER V4.64.0.0                                                         01/10/2017  17:59:18  PAGE 107


      000000A2H   SFRSYM    DATA     BYTE      SFRPRT1SEL
      0000009AH   SFRSYM    DATA     BYTE      SFRPRT2SEL
      000000B2H   SFRSYM    DATA     BYTE      SFRPRT3SEL
      000000C2H   SFRSYM    DATA     BYTE      SFRPRT4SEL

      0100D0DEH   BLOCK     CODE     ---       LVL=0
      0100D0DEH   LINE      CODE     ---       #37
      0100D0DEH   LINE      CODE     ---       #38
      0100D0DEH   LINE      CODE     ---       #39
      0100D0E3H   LINE      CODE     ---       #40
      ---         BLOCKEND  ---      ---       LVL=0
      00000007H   SYMBOL    DATA     BYTE      interruptState
      00000007H   SYMBOL    DATA     BYTE      interruptState
      00000007H   SYMBOL    DATA     BYTE      mask

      ---         MODULE    ---      ---       MY_TIMER
      02000DA3H   PUBLIC    XDATA    BYTE      MY_TIMER_initVar
      0100CF19H   PUBLIC    CODE     ---       MY_TIMER_ClearFIFO
      0100CE62H   PUBLIC    CODE     ---       MY_TIMER_ReadCounter
      0100CFD7H   PUBLIC    CODE     ---       _MY_TIMER_WriteCounter
      0100CFCDH   PUBLIC    CODE     ---       MY_TIMER_ReadCapture
      0100CFC3H   PUBLIC    CODE     ---       _MY_TIMER_WritePeriod
      0100D0EAH   PUBLIC    CODE     ---       MY_TIMER_ReadStatusRegister
      0100D0E4H   PUBLIC    CODE     ---       _MY_TIMER_SetInterruptMode
      0100CDACH   PUBLIC    CODE     ---       MY_TIMER_Start
      0100D021H   PUBLIC    CODE     ---       MY_TIMER_Enable
      0100C9F5H   PUBLIC    CODE     ---       MY_TIMER_Init
      000000CAH   SFRSYM    DATA     BYTE      SFRPRT5SEL
      000000DAH   SFRSYM    DATA     BYTE      SFRPRT6SEL
      000000D0H.6 SFRSYM    DATA     BIT       AC
      000000A8H.7 SFRSYM    DATA     BIT       EA
      000000A8H   SFRSYM    DATA     BYTE      IE
      00000085H   SFRSYM    DATA     BYTE      DPH1
      00000084H   SFRSYM    DATA     BYTE      DPL1
      000000D0H.7 SFRSYM    DATA     BIT       CY
      000000A0H   SFRSYM    DATA     BYTE      P2AX
      00000095H   SFRSYM    DATA     BYTE      DPX1
      00000081H   SFRSYM    DATA     BYTE      SP
      000000D0H.2 SFRSYM    DATA     BIT       OV
      00000080H   SFRSYM    DATA     BYTE      SFRPRT0DR
      00000090H   SFRSYM    DATA     BYTE      SFRPRT1DR
      000000F2H   SFRSYM    DATA     BYTE      SFRPRT12SEL
      00000098H   SFRSYM    DATA     BYTE      SFRPRT2DR
      000000B0H   SFRSYM    DATA     BYTE      SFRPRT3DR
      000000C0H   SFRSYM    DATA     BYTE      SFRPRT4DR
      000000FAH   SFRSYM    DATA     BYTE      SFRPRT15SEL
      000000C8H   SFRSYM    DATA     BYTE      SFRPRT5DR
      000000D8H   SFRSYM    DATA     BYTE      SFRPRT6DR
      00000089H   SFRSYM    DATA     BYTE      SFRPRT0PS
      00000091H   SFRSYM    DATA     BYTE      SFRPRT1PS
      00000099H   SFRSYM    DATA     BYTE      SFRPRT2PS
      000000B1H   SFRSYM    DATA     BYTE      SFRPRT3PS
      000000C1H   SFRSYM    DATA     BYTE      SFRPRT4PS
      000000C9H   SFRSYM    DATA     BYTE      SFRPRT5PS
      000000D9H   SFRSYM    DATA     BYTE      SFRPRT6PS
      000000EAH   SFRSYM    DATA     BYTE      MXAX
      000000F0H   SFRSYM    DATA     BYTE      B
      000000E0H   SFRSYM    DATA     BYTE      ACC
      000000D0H   SFRSYM    DATA     BIT       P
      000000D0H.3 SFRSYM    DATA     BIT       RS0
      000000D0H.4 SFRSYM    DATA     BIT       RS1
      00000083H   SFRSYM    DATA     BYTE      DPH
      000000E8H   SFRSYM    DATA     BYTE      SFRPRT12DR
      00000082H   SFRSYM    DATA     BYTE      DPL
      000000F8H   SFRSYM    DATA     BYTE      SFRPRT15DR
LX51 LINKER/LOCATER V4.64.0.0                                                         01/10/2017  17:59:18  PAGE 108


      00000086H   SFRSYM    DATA     BYTE      DPS
      000000E9H   SFRSYM    DATA     BYTE      SFRPRT12PS
      00000093H   SFRSYM    DATA     BYTE      DPX
      000000F9H   SFRSYM    DATA     BYTE      SFRPRT15PS
      000000D0H.5 SFRSYM    DATA     BIT       F0
      000000D0H.1 SFRSYM    DATA     BIT       F1
      0000008AH   SFRSYM    DATA     BYTE      SFRPRT0SEL
      000000D0H   SFRSYM    DATA     BYTE      PSW
      000000A2H   SFRSYM    DATA     BYTE      SFRPRT1SEL
      0000009AH   SFRSYM    DATA     BYTE      SFRPRT2SEL
      000000B2H   SFRSYM    DATA     BYTE      SFRPRT3SEL
      000000C2H   SFRSYM    DATA     BYTE      SFRPRT4SEL

      0100C9F5H   BLOCK     CODE     ---       LVL=0
      0100C9F5H   BLOCK     CODE     NEAR LAB  LVL=1
      00000007H   SYMBOL    DATA     BYTE      MY_TIMER_interruptState
      ---         BLOCKEND  ---      ---       LVL=1
      0100C9F5H   LINE      CODE     ---       #43
      0100C9F5H   LINE      CODE     ---       #44
      0100C9F5H   LINE      CODE     ---       #118
      0100CA00H   LINE      CODE     ---       #119
      0100CA0BH   LINE      CODE     ---       #142
      0100CA0EH   LINE      CODE     ---       #145
      0100CA15H   LINE      CODE     ---       #148
      0100CA18H   LINE      CODE     ---       #159
      0100CA1BH   LINE      CODE     ---       #162
      0100CA20H   LINE      CODE     ---       #163
      ---         BLOCKEND  ---      ---       LVL=0

      0100D021H   BLOCK     CODE     ---       LVL=0
      0100D021H   LINE      CODE     ---       #180
      0100D021H   LINE      CODE     ---       #181
      0100D021H   LINE      CODE     ---       #190
      0100D028H   LINE      CODE     ---       #192
      ---         BLOCKEND  ---      ---       LVL=0

      0100CDACH   BLOCK     CODE     ---       LVL=0
      0100CDACH   LINE      CODE     ---       #215
      0100CDACH   LINE      CODE     ---       #216
      0100CDACH   LINE      CODE     ---       #217
      0100CDB2H   LINE      CODE     ---       #218
      0100CDB2H   LINE      CODE     ---       #219
      0100CDB5H   LINE      CODE     ---       #221
      0100CDBBH   LINE      CODE     ---       #222
      0100CDBBH   LINE      CODE     ---       #225
      0100CDBEH   LINE      CODE     ---       #226
      ---         BLOCKEND  ---      ---       LVL=0

      0100D0E4H   BLOCK     CODE     ---       LVL=0
      00000007H   SYMBOL    DATA     BYTE      interruptMode
      0100D0E4H   LINE      CODE     ---       #279
      0100D0E4H   LINE      CODE     ---       #280
      0100D0E4H   LINE      CODE     ---       #281
      0100D0E9H   LINE      CODE     ---       #282
      ---         BLOCKEND  ---      ---       LVL=0

      0100D0EAH   BLOCK     CODE     ---       LVL=0
      0100D0EAH   LINE      CODE     ---       #333
      0100D0EAH   LINE      CODE     ---       #334
      0100D0EAH   LINE      CODE     ---       #335
      0100D0EFH   LINE      CODE     ---       #336
      ---         BLOCKEND  ---      ---       LVL=0
      00000007H   SYMBOL    DATA     BYTE      control

      0100CFC3H   BLOCK     CODE     ---       LVL=0
LX51 LINKER/LOCATER V4.64.0.0                                                         01/10/2017  17:59:18  PAGE 109


      00000004H   SYMBOL    DATA     DWORD     period
      0100CFC3H   LINE      CODE     ---       #431
      0100CFC3H   LINE      CODE     ---       #432
      0100CFC3H   LINE      CODE     ---       #437
      0100CFCCH   LINE      CODE     ---       #439
      ---         BLOCKEND  ---      ---       LVL=0

      0100CFCDH   BLOCK     CODE     ---       LVL=0
      0100CFCDH   LINE      CODE     ---       #456
      0100CFCDH   LINE      CODE     ---       #457
      0100CFCDH   LINE      CODE     ---       #461
      0100CFD6H   LINE      CODE     ---       #463
      ---         BLOCKEND  ---      ---       LVL=0

      0100CFD7H   BLOCK     CODE     ---       LVL=0
      00000004H   SYMBOL    DATA     DWORD     counter
      0100CFD7H   LINE      CODE     ---       #480
      0100CFD7H   LINE      CODE     ---       #481
      0100CFD7H   LINE      CODE     ---       #489
      0100CFE0H   LINE      CODE     ---       #491
      ---         BLOCKEND  ---      ---       LVL=0

      0100CE62H   BLOCK     CODE     ---       LVL=0
      0100CE62H   LINE      CODE     ---       #508
      0100CE62H   LINE      CODE     ---       #509
      0100CE62H   LINE      CODE     ---       #516
      0100CE67H   LINE      CODE     ---       #523
      0100CE70H   LINE      CODE     ---       #525
      ---         BLOCKEND  ---      ---       LVL=0

      0100CF19H   BLOCK     CODE     ---       LVL=0
      0100CF19H   LINE      CODE     ---       #763
      0100CF19H   LINE      CODE     ---       #764
      0100CF19H   LINE      CODE     ---       #765
      0100CF20H   LINE      CODE     ---       #766
      0100CF20H   LINE      CODE     ---       #767
      0100CF23H   LINE      CODE     ---       #768
      0100CF25H   LINE      CODE     ---       #769
      ---         BLOCKEND  ---      ---       LVL=0

      ---         MODULE    ---      ---       SHIFTREG_ENC_1
      02000DA4H   PUBLIC    XDATA    BYTE      SHIFTREG_ENC_1_initVar
      0100CFE1H   PUBLIC    CODE     ---       SHIFTREG_ENC_1_ReadData
      0100CE51H   PUBLIC    CODE     ---       _SHIFTREG_ENC_1_SetIntMode
      0100CED5H   PUBLIC    CODE     ---       SHIFTREG_ENC_1_EnableInt
      0100D0F0H   PUBLIC    CODE     ---       SHIFTREG_ENC_1_Init
      0100CF86H   PUBLIC    CODE     ---       SHIFTREG_ENC_1_Enable
      0100CDBFH   PUBLIC    CODE     ---       SHIFTREG_ENC_1_Start
      000000CAH   SFRSYM    DATA     BYTE      SFRPRT5SEL
      000000DAH   SFRSYM    DATA     BYTE      SFRPRT6SEL
      000000D0H.6 SFRSYM    DATA     BIT       AC
      000000A8H.7 SFRSYM    DATA     BIT       EA
      000000A8H   SFRSYM    DATA     BYTE      IE
      00000085H   SFRSYM    DATA     BYTE      DPH1
      00000084H   SFRSYM    DATA     BYTE      DPL1
      000000D0H.7 SFRSYM    DATA     BIT       CY
      000000A0H   SFRSYM    DATA     BYTE      P2AX
      00000095H   SFRSYM    DATA     BYTE      DPX1
      00000081H   SFRSYM    DATA     BYTE      SP
      000000D0H.2 SFRSYM    DATA     BIT       OV
      00000080H   SFRSYM    DATA     BYTE      SFRPRT0DR
      00000090H   SFRSYM    DATA     BYTE      SFRPRT1DR
      000000F2H   SFRSYM    DATA     BYTE      SFRPRT12SEL
      00000098H   SFRSYM    DATA     BYTE      SFRPRT2DR
      000000B0H   SFRSYM    DATA     BYTE      SFRPRT3DR
LX51 LINKER/LOCATER V4.64.0.0                                                         01/10/2017  17:59:18  PAGE 110


      000000C0H   SFRSYM    DATA     BYTE      SFRPRT4DR
      000000FAH   SFRSYM    DATA     BYTE      SFRPRT15SEL
      000000C8H   SFRSYM    DATA     BYTE      SFRPRT5DR
      000000D8H   SFRSYM    DATA     BYTE      SFRPRT6DR
      00000089H   SFRSYM    DATA     BYTE      SFRPRT0PS
      00000091H   SFRSYM    DATA     BYTE      SFRPRT1PS
      00000099H   SFRSYM    DATA     BYTE      SFRPRT2PS
      000000B1H   SFRSYM    DATA     BYTE      SFRPRT3PS
      000000C1H   SFRSYM    DATA     BYTE      SFRPRT4PS
      000000C9H   SFRSYM    DATA     BYTE      SFRPRT5PS
      000000D9H   SFRSYM    DATA     BYTE      SFRPRT6PS
      000000EAH   SFRSYM    DATA     BYTE      MXAX
      000000F0H   SFRSYM    DATA     BYTE      B
      000000E0H   SFRSYM    DATA     BYTE      ACC
      000000D0H   SFRSYM    DATA     BIT       P
      000000D0H.3 SFRSYM    DATA     BIT       RS0
      000000D0H.4 SFRSYM    DATA     BIT       RS1
      00000083H   SFRSYM    DATA     BYTE      DPH
      000000E8H   SFRSYM    DATA     BYTE      SFRPRT12DR
      00000082H   SFRSYM    DATA     BYTE      DPL
      000000F8H   SFRSYM    DATA     BYTE      SFRPRT15DR
      00000086H   SFRSYM    DATA     BYTE      DPS
      000000E9H   SFRSYM    DATA     BYTE      SFRPRT12PS
      00000093H   SFRSYM    DATA     BYTE      DPX
      000000F9H   SFRSYM    DATA     BYTE      SFRPRT15PS
      000000D0H.5 SFRSYM    DATA     BIT       F0
      000000D0H.1 SFRSYM    DATA     BIT       F1
      0000008AH   SFRSYM    DATA     BYTE      SFRPRT0SEL
      000000D0H   SFRSYM    DATA     BYTE      PSW
      000000A2H   SFRSYM    DATA     BYTE      SFRPRT1SEL
      0000009AH   SFRSYM    DATA     BYTE      SFRPRT2SEL
      000000B2H   SFRSYM    DATA     BYTE      SFRPRT3SEL
      000000C2H   SFRSYM    DATA     BYTE      SFRPRT4SEL

      0100CDBFH   BLOCK     CODE     ---       LVL=0
      0100CDBFH   LINE      CODE     ---       #43
      0100CDBFH   LINE      CODE     ---       #44
      0100CDBFH   LINE      CODE     ---       #45
      0100CDC5H   LINE      CODE     ---       #46
      0100CDC5H   LINE      CODE     ---       #47
      0100CDC8H   LINE      CODE     ---       #48
      0100CDCEH   LINE      CODE     ---       #49
      0100CDCEH   LINE      CODE     ---       #51
      0100CDD1H   LINE      CODE     ---       #52
      ---         BLOCKEND  ---      ---       LVL=0

      0100CF86H   BLOCK     CODE     ---       LVL=0
      0100CF86H   LINE      CODE     ---       #69
      0100CF86H   LINE      CODE     ---       #70
      0100CF86H   LINE      CODE     ---       #73
      0100CF8DH   LINE      CODE     ---       #75
      0100CF90H   LINE      CODE     ---       #76
      ---         BLOCKEND  ---      ---       LVL=0

      0100D0F0H   BLOCK     CODE     ---       LVL=0
      0100D0F0H   LINE      CODE     ---       #93
      0100D0F0H   LINE      CODE     ---       #94
      0100D0F0H   LINE      CODE     ---       #95
      0100D0F5H   LINE      CODE     ---       #96
      ---         BLOCKEND  ---      ---       LVL=0

      0100CED5H   BLOCK     CODE     ---       LVL=0
      0100CED5H   BLOCK     CODE     NEAR LAB  LVL=1
      00000007H   SYMBOL    DATA     BYTE      interruptState
      ---         BLOCKEND  ---      ---       LVL=1
LX51 LINKER/LOCATER V4.64.0.0                                                         01/10/2017  17:59:18  PAGE 111


      0100CED5H   LINE      CODE     ---       #135
      0100CED5H   LINE      CODE     ---       #136
      0100CED5H   LINE      CODE     ---       #139
      0100CED8H   LINE      CODE     ---       #140
      0100CEDFH   LINE      CODE     ---       #141
      0100CEE2H   LINE      CODE     ---       #142
      ---         BLOCKEND  ---      ---       LVL=0
      00000007H   SYMBOL    DATA     BYTE      interruptState
      00000007H   SYMBOL    DATA     BYTE      fifoId
      00000005H   SYMBOL    DATA     BYTE      result

      0100CE51H   BLOCK     CODE     ---       LVL=0
      00000007H   SYMBOL    DATA     BYTE      interruptSource
      0100CE51H   LINE      CODE     ---       #261
      0100CE51H   LINE      CODE     ---       #262
      0100CE51H   LINE      CODE     ---       #263
      0100CE58H   LINE      CODE     ---       #264
      0100CE61H   LINE      CODE     ---       #265
      ---         BLOCKEND  ---      ---       LVL=0
      00000004H   SYMBOL    DATA     DWORD     shiftData

      0100CFE1H   BLOCK     CODE     ---       LVL=0
      0100CFE1H   LINE      CODE     ---       #366
      0100CFE1H   LINE      CODE     ---       #367
      0100CFE1H   LINE      CODE     ---       #368
      0100CFEAH   LINE      CODE     ---       #369
      ---         BLOCKEND  ---      ---       LVL=0

      ---         MODULE    ---      ---       RESET_COUNTERS
      0100D0F6H   PUBLIC    CODE     ---       _RESET_COUNTERS_Write

      0100D0F6H   BLOCK     CODE     ---       LVL=0
      00000007H   SYMBOL    DATA     BYTE      control
      0100D0F6H   LINE      CODE     ---       #37
      0100D0F6H   LINE      CODE     ---       #38
      0100D0F6H   LINE      CODE     ---       #39
      0100D0FBH   LINE      CODE     ---       #40
      ---         BLOCKEND  ---      ---       LVL=0

      ---         MODULE    ---      ---       ADC_STATUS
      0100D0FCH   PUBLIC    CODE     ---       ADC_STATUS_Read
      000000CAH   SFRSYM    DATA     BYTE      SFRPRT5SEL
      000000DAH   SFRSYM    DATA     BYTE      SFRPRT6SEL
      000000D0H.6 SFRSYM    DATA     BIT       AC
      000000A8H.7 SFRSYM    DATA     BIT       EA
      000000A8H   SFRSYM    DATA     BYTE      IE
      00000085H   SFRSYM    DATA     BYTE      DPH1
      00000084H   SFRSYM    DATA     BYTE      DPL1
      000000D0H.7 SFRSYM    DATA     BIT       CY
      000000A0H   SFRSYM    DATA     BYTE      P2AX
      00000095H   SFRSYM    DATA     BYTE      DPX1
      00000081H   SFRSYM    DATA     BYTE      SP
      000000D0H.2 SFRSYM    DATA     BIT       OV
      00000080H   SFRSYM    DATA     BYTE      SFRPRT0DR
      00000090H   SFRSYM    DATA     BYTE      SFRPRT1DR
      000000F2H   SFRSYM    DATA     BYTE      SFRPRT12SEL
      00000098H   SFRSYM    DATA     BYTE      SFRPRT2DR
      000000B0H   SFRSYM    DATA     BYTE      SFRPRT3DR
      000000C0H   SFRSYM    DATA     BYTE      SFRPRT4DR
      000000FAH   SFRSYM    DATA     BYTE      SFRPRT15SEL
      000000C8H   SFRSYM    DATA     BYTE      SFRPRT5DR
      000000D8H   SFRSYM    DATA     BYTE      SFRPRT6DR
      00000089H   SFRSYM    DATA     BYTE      SFRPRT0PS
      00000091H   SFRSYM    DATA     BYTE      SFRPRT1PS
      00000099H   SFRSYM    DATA     BYTE      SFRPRT2PS
LX51 LINKER/LOCATER V4.64.0.0                                                         01/10/2017  17:59:18  PAGE 112


      000000B1H   SFRSYM    DATA     BYTE      SFRPRT3PS
      000000C1H   SFRSYM    DATA     BYTE      SFRPRT4PS
      000000C9H   SFRSYM    DATA     BYTE      SFRPRT5PS
      000000D9H   SFRSYM    DATA     BYTE      SFRPRT6PS
      000000EAH   SFRSYM    DATA     BYTE      MXAX
      000000F0H   SFRSYM    DATA     BYTE      B
      000000E0H   SFRSYM    DATA     BYTE      ACC
      000000D0H   SFRSYM    DATA     BIT       P
      000000D0H.3 SFRSYM    DATA     BIT       RS0
      000000D0H.4 SFRSYM    DATA     BIT       RS1
      00000083H   SFRSYM    DATA     BYTE      DPH
      000000E8H   SFRSYM    DATA     BYTE      SFRPRT12DR
      00000082H   SFRSYM    DATA     BYTE      DPL
      000000F8H   SFRSYM    DATA     BYTE      SFRPRT15DR
      00000086H   SFRSYM    DATA     BYTE      DPS
      000000E9H   SFRSYM    DATA     BYTE      SFRPRT12PS
      00000093H   SFRSYM    DATA     BYTE      DPX
      000000F9H   SFRSYM    DATA     BYTE      SFRPRT15PS
      000000D0H.5 SFRSYM    DATA     BIT       F0
      000000D0H.1 SFRSYM    DATA     BIT       F1
      0000008AH   SFRSYM    DATA     BYTE      SFRPRT0SEL
      000000D0H   SFRSYM    DATA     BYTE      PSW
      000000A2H   SFRSYM    DATA     BYTE      SFRPRT1SEL
      0000009AH   SFRSYM    DATA     BYTE      SFRPRT2SEL
      000000B2H   SFRSYM    DATA     BYTE      SFRPRT3SEL
      000000C2H   SFRSYM    DATA     BYTE      SFRPRT4SEL

      0100D0FCH   BLOCK     CODE     ---       LVL=0
      0100D0FCH   LINE      CODE     ---       #37
      0100D0FCH   LINE      CODE     ---       #38
      0100D0FCH   LINE      CODE     ---       #39
      0100D101H   LINE      CODE     ---       #40
      ---         BLOCKEND  ---      ---       LVL=0
      00000007H   SYMBOL    DATA     BYTE      interruptState
      00000007H   SYMBOL    DATA     BYTE      interruptState
      00000007H   SYMBOL    DATA     BYTE      mask

      ---         MODULE    ---      ---       DMA_DMA
      02000DA5H   PUBLIC    XDATA    BYTE      DMA_DmaHandle
      02000002H   PUBLIC    XDATA    BYTE      ?_DMA_DmaInitialize?BYTE
      0100C41EH   PUBLIC    CODE     ---       _DMA_DmaInitialize
      000000CAH   SFRSYM    DATA     BYTE      SFRPRT5SEL
      000000DAH   SFRSYM    DATA     BYTE      SFRPRT6SEL
      000000D0H.6 SFRSYM    DATA     BIT       AC
      000000A8H.7 SFRSYM    DATA     BIT       EA
      000000A8H   SFRSYM    DATA     BYTE      IE
      00000085H   SFRSYM    DATA     BYTE      DPH1
      00000084H   SFRSYM    DATA     BYTE      DPL1
      000000D0H.7 SFRSYM    DATA     BIT       CY
      000000A0H   SFRSYM    DATA     BYTE      P2AX
      00000095H   SFRSYM    DATA     BYTE      DPX1
      00000081H   SFRSYM    DATA     BYTE      SP
      000000D0H.2 SFRSYM    DATA     BIT       OV
      00000080H   SFRSYM    DATA     BYTE      SFRPRT0DR
      00000090H   SFRSYM    DATA     BYTE      SFRPRT1DR
      000000F2H   SFRSYM    DATA     BYTE      SFRPRT12SEL
      00000098H   SFRSYM    DATA     BYTE      SFRPRT2DR
      000000B0H   SFRSYM    DATA     BYTE      SFRPRT3DR
      000000C0H   SFRSYM    DATA     BYTE      SFRPRT4DR
      000000FAH   SFRSYM    DATA     BYTE      SFRPRT15SEL
      000000C8H   SFRSYM    DATA     BYTE      SFRPRT5DR
      000000D8H   SFRSYM    DATA     BYTE      SFRPRT6DR
      00000089H   SFRSYM    DATA     BYTE      SFRPRT0PS
      00000091H   SFRSYM    DATA     BYTE      SFRPRT1PS
      00000099H   SFRSYM    DATA     BYTE      SFRPRT2PS
LX51 LINKER/LOCATER V4.64.0.0                                                         01/10/2017  17:59:18  PAGE 113


      000000B1H   SFRSYM    DATA     BYTE      SFRPRT3PS
      000000C1H   SFRSYM    DATA     BYTE      SFRPRT4PS
      000000C9H   SFRSYM    DATA     BYTE      SFRPRT5PS
      000000D9H   SFRSYM    DATA     BYTE      SFRPRT6PS
      000000EAH   SFRSYM    DATA     BYTE      MXAX
      000000F0H   SFRSYM    DATA     BYTE      B
      000000E0H   SFRSYM    DATA     BYTE      ACC
      000000D0H   SFRSYM    DATA     BIT       P
      000000D0H.3 SFRSYM    DATA     BIT       RS0
      000000D0H.4 SFRSYM    DATA     BIT       RS1
      00000083H   SFRSYM    DATA     BYTE      DPH
      000000E8H   SFRSYM    DATA     BYTE      SFRPRT12DR
      00000082H   SFRSYM    DATA     BYTE      DPL
      000000F8H   SFRSYM    DATA     BYTE      SFRPRT15DR
      00000086H   SFRSYM    DATA     BYTE      DPS
      000000E9H   SFRSYM    DATA     BYTE      SFRPRT12PS
      00000093H   SFRSYM    DATA     BYTE      DPX
      000000F9H   SFRSYM    DATA     BYTE      SFRPRT15PS
      000000D0H.5 SFRSYM    DATA     BIT       F0
      000000D0H.1 SFRSYM    DATA     BIT       F1
      0000008AH   SFRSYM    DATA     BYTE      SFRPRT0SEL
      000000D0H   SFRSYM    DATA     BYTE      PSW
      000000A2H   SFRSYM    DATA     BYTE      SFRPRT1SEL
      0000009AH   SFRSYM    DATA     BYTE      SFRPRT2SEL
      000000B2H   SFRSYM    DATA     BYTE      SFRPRT3SEL
      000000C2H   SFRSYM    DATA     BYTE      SFRPRT4SEL

      0100C41EH   BLOCK     CODE     ---       LVL=0
      00000007H   SYMBOL    DATA     BYTE      BurstCount
      00000006H   SYMBOL    DATA     BYTE      ReqestPerBurst
      02000004H   SYMBOL    XDATA    WORD      UpperSrcAddress
      02000006H   SYMBOL    XDATA    WORD      UpperDestAddress
      0100C41EH   LINE      CODE     ---       #97
      0100C428H   LINE      CODE     ---       #98
      0100C428H   LINE      CODE     ---       #101
      0100C42EH   LINE      CODE     ---       #109
      0100C442H   LINE      CODE     ---       #112
      0100C458H   LINE      CODE     ---       #115
      0100C462H   LINE      CODE     ---       #117
      0100C467H   LINE      CODE     ---       #118
      ---         BLOCKEND  ---      ---       LVL=0

      ---         MODULE    ---      ---       ADC_SOC
      0100D102H   PUBLIC    CODE     ---       _ADC_SOC_Write

      0100D102H   BLOCK     CODE     ---       LVL=0
      00000007H   SYMBOL    DATA     BYTE      control
      0100D102H   LINE      CODE     ---       #37
      0100D102H   LINE      CODE     ---       #38
      0100D102H   LINE      CODE     ---       #39
      0100D107H   LINE      CODE     ---       #40
      ---         BLOCKEND  ---      ---       LVL=0

      ---         MODULE    ---      ---       ISR_WATCHDOG
      0100D065H   PUBLIC    CODE     ---       ISR_WATCHDOG_Disable
      0100D05EH   PUBLIC    CODE     ---       ISR_WATCHDOG_Enable
      0100CFEBH   PUBLIC    CODE     ---       _ISR_WATCHDOG_SetPriority
      0100CEE3H   PUBLIC    CODE     ---       _ISR_WATCHDOG_SetVector
      0100D145H   PUBLIC    CODE     ---       ISR_WATCHDOG_Interrupt
      0100CB84H   PUBLIC    CODE     ---       _ISR_WATCHDOG_StartEx
      000000CAH   SFRSYM    DATA     BYTE      SFRPRT5SEL
      000000DAH   SFRSYM    DATA     BYTE      SFRPRT6SEL
      000000D0H.6 SFRSYM    DATA     BIT       AC
      000000A8H.7 SFRSYM    DATA     BIT       EA
      000000A8H   SFRSYM    DATA     BYTE      IE
LX51 LINKER/LOCATER V4.64.0.0                                                         01/10/2017  17:59:18  PAGE 114


      00000085H   SFRSYM    DATA     BYTE      DPH1
      00000084H   SFRSYM    DATA     BYTE      DPL1
      000000D0H.7 SFRSYM    DATA     BIT       CY
      000000A0H   SFRSYM    DATA     BYTE      P2AX
      00000095H   SFRSYM    DATA     BYTE      DPX1
      00000081H   SFRSYM    DATA     BYTE      SP
      000000D0H.2 SFRSYM    DATA     BIT       OV
      00000080H   SFRSYM    DATA     BYTE      SFRPRT0DR
      00000090H   SFRSYM    DATA     BYTE      SFRPRT1DR
      000000F2H   SFRSYM    DATA     BYTE      SFRPRT12SEL
      00000098H   SFRSYM    DATA     BYTE      SFRPRT2DR
      000000B0H   SFRSYM    DATA     BYTE      SFRPRT3DR
      000000C0H   SFRSYM    DATA     BYTE      SFRPRT4DR
      000000FAH   SFRSYM    DATA     BYTE      SFRPRT15SEL
      000000C8H   SFRSYM    DATA     BYTE      SFRPRT5DR
      000000D8H   SFRSYM    DATA     BYTE      SFRPRT6DR
      00000089H   SFRSYM    DATA     BYTE      SFRPRT0PS
      00000091H   SFRSYM    DATA     BYTE      SFRPRT1PS
      00000099H   SFRSYM    DATA     BYTE      SFRPRT2PS
      000000B1H   SFRSYM    DATA     BYTE      SFRPRT3PS
      000000C1H   SFRSYM    DATA     BYTE      SFRPRT4PS
      000000C9H   SFRSYM    DATA     BYTE      SFRPRT5PS
      000000D9H   SFRSYM    DATA     BYTE      SFRPRT6PS
      000000EAH   SFRSYM    DATA     BYTE      MXAX
      000000F0H   SFRSYM    DATA     BYTE      B
      000000E0H   SFRSYM    DATA     BYTE      ACC
      000000D0H   SFRSYM    DATA     BIT       P
      000000D0H.3 SFRSYM    DATA     BIT       RS0
      000000D0H.4 SFRSYM    DATA     BIT       RS1
      00000083H   SFRSYM    DATA     BYTE      DPH
      000000E8H   SFRSYM    DATA     BYTE      SFRPRT12DR
      00000082H   SFRSYM    DATA     BYTE      DPL
      000000F8H   SFRSYM    DATA     BYTE      SFRPRT15DR
      00000086H   SFRSYM    DATA     BYTE      DPS
      000000E9H   SFRSYM    DATA     BYTE      SFRPRT12PS
      00000093H   SFRSYM    DATA     BYTE      DPX
      000000F9H   SFRSYM    DATA     BYTE      SFRPRT15PS
      000000D0H.5 SFRSYM    DATA     BIT       F0
      000000D0H.1 SFRSYM    DATA     BIT       F1
      0000008AH   SFRSYM    DATA     BYTE      SFRPRT0SEL
      000000D0H   SFRSYM    DATA     BYTE      PSW
      000000A2H   SFRSYM    DATA     BYTE      SFRPRT1SEL
      0000009AH   SFRSYM    DATA     BYTE      SFRPRT2SEL
      000000B2H   SFRSYM    DATA     BYTE      SFRPRT3SEL
      000000C2H   SFRSYM    DATA     BYTE      SFRPRT4SEL

      0100CB84H   BLOCK     CODE     ---       LVL=0
      02000002H   SYMBOL    XDATA    ---       address
      0100CB84H   LINE      CODE     ---       #94
      0100CB8CH   LINE      CODE     ---       #95
      0100CB8CH   LINE      CODE     ---       #97
      0100CB8FH   LINE      CODE     ---       #100
      0100CB9AH   LINE      CODE     ---       #103
      0100CB9FH   LINE      CODE     ---       #106
      0100CBA2H   LINE      CODE     ---       #107
      ---         BLOCKEND  ---      ---       LVL=0

      0100D145H   BLOCK     CODE     ---       LVL=0
      0100D145H   LINE      CODE     ---       #151
      0100D145H   LINE      CODE     ---       #168
      ---         BLOCKEND  ---      ---       LVL=0

      0100CEE3H   BLOCK     CODE     ---       LVL=0
      00000006H   SYMBOL    DATA     ---       address
      0100CEE3H   LINE      CODE     ---       #198
LX51 LINKER/LOCATER V4.64.0.0                                                         01/10/2017  17:59:18  PAGE 115


      0100CEE3H   LINE      CODE     ---       #199
      0100CEE3H   LINE      CODE     ---       #200
      0100CEF0H   LINE      CODE     ---       #201
      ---         BLOCKEND  ---      ---       LVL=0

      0100CFEBH   BLOCK     CODE     ---       LVL=0
      00000007H   SYMBOL    DATA     BYTE      priority
      0100CFEBH   LINE      CODE     ---       #248
      0100CFEBH   LINE      CODE     ---       #249
      0100CFEBH   LINE      CODE     ---       #250
      0100CFF4H   LINE      CODE     ---       #251
      ---         BLOCKEND  ---      ---       LVL=0
      00000007H   SYMBOL    DATA     BYTE      priority

      0100D05EH   BLOCK     CODE     ---       LVL=0
      0100D05EH   LINE      CODE     ---       #297
      0100D05EH   LINE      CODE     ---       #298
      0100D05EH   LINE      CODE     ---       #300
      0100D064H   LINE      CODE     ---       #301
      ---         BLOCKEND  ---      ---       LVL=0

      0100D065H   BLOCK     CODE     ---       LVL=0
      0100D065H   LINE      CODE     ---       #339
      0100D065H   LINE      CODE     ---       #340
      0100D065H   LINE      CODE     ---       #342
      0100D06BH   LINE      CODE     ---       #343
      ---         BLOCKEND  ---      ---       LVL=0

      ---         MODULE    ---      ---       WATCHDOG_COUNTER
      02000DA6H   PUBLIC    XDATA    BYTE      WATCHDOG_COUNTER_initVar
      0100CEF1H   PUBLIC    CODE     ---       _WATCHDOG_COUNTER_WritePeriod
      0100CBE0H   PUBLIC    CODE     ---       _WATCHDOG_COUNTER_WriteCounter
      0100D108H   PUBLIC    CODE     ---       _WATCHDOG_COUNTER_SetInterruptMode
      0100CDD2H   PUBLIC    CODE     ---       WATCHDOG_COUNTER_Start
      0100CCA8H   PUBLIC    CODE     ---       WATCHDOG_COUNTER_Enable
      0100C72DH   PUBLIC    CODE     ---       WATCHDOG_COUNTER_Init
      000000CAH   SFRSYM    DATA     BYTE      SFRPRT5SEL
      000000DAH   SFRSYM    DATA     BYTE      SFRPRT6SEL
      000000D0H.6 SFRSYM    DATA     BIT       AC
      000000A8H.7 SFRSYM    DATA     BIT       EA
      000000A8H   SFRSYM    DATA     BYTE      IE
      00000085H   SFRSYM    DATA     BYTE      DPH1
      00000084H   SFRSYM    DATA     BYTE      DPL1
      000000D0H.7 SFRSYM    DATA     BIT       CY
      000000A0H   SFRSYM    DATA     BYTE      P2AX
      00000095H   SFRSYM    DATA     BYTE      DPX1
      00000081H   SFRSYM    DATA     BYTE      SP
      000000D0H.2 SFRSYM    DATA     BIT       OV
      00000080H   SFRSYM    DATA     BYTE      SFRPRT0DR
      00000090H   SFRSYM    DATA     BYTE      SFRPRT1DR
      000000F2H   SFRSYM    DATA     BYTE      SFRPRT12SEL
      00000098H   SFRSYM    DATA     BYTE      SFRPRT2DR
      000000B0H   SFRSYM    DATA     BYTE      SFRPRT3DR
      000000C0H   SFRSYM    DATA     BYTE      SFRPRT4DR
      000000FAH   SFRSYM    DATA     BYTE      SFRPRT15SEL
      000000C8H   SFRSYM    DATA     BYTE      SFRPRT5DR
      000000D8H   SFRSYM    DATA     BYTE      SFRPRT6DR
      00000089H   SFRSYM    DATA     BYTE      SFRPRT0PS
      00000091H   SFRSYM    DATA     BYTE      SFRPRT1PS
      00000099H   SFRSYM    DATA     BYTE      SFRPRT2PS
      000000B1H   SFRSYM    DATA     BYTE      SFRPRT3PS
      000000C1H   SFRSYM    DATA     BYTE      SFRPRT4PS
      000000C9H   SFRSYM    DATA     BYTE      SFRPRT5PS
      000000D9H   SFRSYM    DATA     BYTE      SFRPRT6PS
      000000EAH   SFRSYM    DATA     BYTE      MXAX
LX51 LINKER/LOCATER V4.64.0.0                                                         01/10/2017  17:59:18  PAGE 116


      000000F0H   SFRSYM    DATA     BYTE      B
      000000E0H   SFRSYM    DATA     BYTE      ACC
      000000D0H   SFRSYM    DATA     BIT       P
      000000D0H.3 SFRSYM    DATA     BIT       RS0
      000000D0H.4 SFRSYM    DATA     BIT       RS1
      00000083H   SFRSYM    DATA     BYTE      DPH
      000000E8H   SFRSYM    DATA     BYTE      SFRPRT12DR
      00000082H   SFRSYM    DATA     BYTE      DPL
      000000F8H   SFRSYM    DATA     BYTE      SFRPRT15DR
      00000086H   SFRSYM    DATA     BYTE      DPS
      000000E9H   SFRSYM    DATA     BYTE      SFRPRT12PS
      00000093H   SFRSYM    DATA     BYTE      DPX
      000000F9H   SFRSYM    DATA     BYTE      SFRPRT15PS
      000000D0H.5 SFRSYM    DATA     BIT       F0
      000000D0H.1 SFRSYM    DATA     BIT       F1
      0000008AH   SFRSYM    DATA     BYTE      SFRPRT0SEL
      000000D0H   SFRSYM    DATA     BYTE      PSW
      000000A2H   SFRSYM    DATA     BYTE      SFRPRT1SEL
      0000009AH   SFRSYM    DATA     BYTE      SFRPRT2SEL
      000000B2H   SFRSYM    DATA     BYTE      SFRPRT3SEL
      000000C2H   SFRSYM    DATA     BYTE      SFRPRT4SEL

      0100C72DH   BLOCK     CODE     ---       LVL=0
      0100C72DH   LINE      CODE     ---       #37
      0100C72DH   LINE      CODE     ---       #38
      0100C72DH   LINE      CODE     ---       #50
      0100C734H   LINE      CODE     ---       #57
      0100C73BH   LINE      CODE     ---       #66
      0100C742H   LINE      CODE     ---       #69
      0100C749H   LINE      CODE     ---       #70
      0100C74DH   LINE      CODE     ---       #73
      0100C751H   LINE      CODE     ---       #74
      0100C755H   LINE      CODE     ---       #100
      0100C75AH   LINE      CODE     ---       #102
      0100C75FH   LINE      CODE     ---       #104
      0100C764H   LINE      CODE     ---       #123
      ---         BLOCKEND  ---      ---       LVL=0

      0100CCA8H   BLOCK     CODE     ---       LVL=0
      0100CCA8H   LINE      CODE     ---       #143
      0100CCA8H   LINE      CODE     ---       #144
      0100CCA8H   LINE      CODE     ---       #147
      0100CCAFH   LINE      CODE     ---       #148
      0100CCB6H   LINE      CODE     ---       #155
      0100CCBDH   LINE      CODE     ---       #158
      ---         BLOCKEND  ---      ---       LVL=0

      0100CDD2H   BLOCK     CODE     ---       LVL=0
      0100CDD2H   LINE      CODE     ---       #178
      0100CDD2H   LINE      CODE     ---       #179
      0100CDD2H   LINE      CODE     ---       #180
      0100CDD8H   LINE      CODE     ---       #181
      0100CDD8H   LINE      CODE     ---       #182
      0100CDDBH   LINE      CODE     ---       #184
      0100CDE1H   LINE      CODE     ---       #185
      0100CDE1H   LINE      CODE     ---       #188
      0100CDE4H   LINE      CODE     ---       #189
      ---         BLOCKEND  ---      ---       LVL=0

      0100D108H   BLOCK     CODE     ---       LVL=0
      00000007H   SYMBOL    DATA     BYTE      interruptsMask
      0100D108H   LINE      CODE     ---       #237
      0100D108H   LINE      CODE     ---       #238
      0100D108H   LINE      CODE     ---       #239
      0100D10DH   LINE      CODE     ---       #240
LX51 LINKER/LOCATER V4.64.0.0                                                         01/10/2017  17:59:18  PAGE 117


      ---         BLOCKEND  ---      ---       LVL=0
      00000007H   SYMBOL    DATA     BYTE      control

      0100CBE0H   BLOCK     CODE     ---       LVL=0
      00000007H   SYMBOL    DATA     BYTE      counter
      0100CBE0H   LINE      CODE     ---       #326
      0100CBE0H   LINE      CODE     ---       #328
      0100CBE0H   LINE      CODE     ---       #333
      0100CBE7H   LINE      CODE     ---       #334
      0100CBF4H   LINE      CODE     ---       #335
      0100CBFBH   LINE      CODE     ---       #339
      ---         BLOCKEND  ---      ---       LVL=0

      0100CEF1H   BLOCK     CODE     ---       LVL=0
      00000007H   SYMBOL    DATA     BYTE      period
      0100CEF1H   LINE      CODE     ---       #415
      0100CEF1H   LINE      CODE     ---       #416
      0100CEF1H   LINE      CODE     ---       #418
      0100CEFEH   LINE      CODE     ---       #422
      ---         BLOCKEND  ---      ---       LVL=0

      ---         MODULE    ---      ---       WATCHDOG_ENABLER
      0100D10EH   PUBLIC    CODE     ---       _WATCHDOG_ENABLER_Write

      0100D10EH   BLOCK     CODE     ---       LVL=0
      00000007H   SYMBOL    DATA     BYTE      control
      0100D10EH   LINE      CODE     ---       #37
      0100D10EH   LINE      CODE     ---       #38
      0100D10EH   LINE      CODE     ---       #39
      0100D113H   LINE      CODE     ---       #40
      ---         BLOCKEND  ---      ---       LVL=0

      ---         MODULE    ---      ---       WATCHDOG_REFRESH
      0100D114H   PUBLIC    CODE     ---       _WATCHDOG_REFRESH_Write

      0100D114H   BLOCK     CODE     ---       LVL=0
      00000007H   SYMBOL    DATA     BYTE      control
      0100D114H   LINE      CODE     ---       #37
      0100D114H   LINE      CODE     ---       #38
      0100D114H   LINE      CODE     ---       #39
      0100D119H   LINE      CODE     ---       #40
      ---         BLOCKEND  ---      ---       LVL=0

      ---         MODULE    ---      ---       CYDMAC
      0100BD41H   PUBLIC    CODE     ---       _CyDmaTdSetAddress
      02000002H   PUBLIC    XDATA    BYTE      ?_CyDmaTdSetConfiguration?BYTE
      0100B5B0H   PUBLIC    CODE     ---       _CyDmaTdSetConfiguration
      0100C600H   PUBLIC    CODE     ---       CyDmaTdAllocate
      02000008H   PUBLIC    XDATA    BYTE      ?_CyDmaChSetConfiguration?BYTE
      0100BC50H   PUBLIC    CODE     ---       _CyDmaChSetConfiguration
      0100CBC2H   PUBLIC    CODE     ---       _CyDmaChSetInitialTd
      0100BCC9H   PUBLIC    CODE     ---       _CyDmaChSetExtendedAddress
      0100C5C0H   PUBLIC    CODE     ---       _CyDmaChPriority
      0100C3D3H   PUBLIC    CODE     ---       _CyDmaChEnable
      0100C765H   PUBLIC    CODE     ---       CyDmacConfigure
      000000CAH   SFRSYM    DATA     BYTE      SFRPRT5SEL
      000000DAH   SFRSYM    DATA     BYTE      SFRPRT6SEL
      000000D0H.6 SFRSYM    DATA     BIT       AC
      000000A8H.7 SFRSYM    DATA     BIT       EA
      000000A8H   SFRSYM    DATA     BYTE      IE
      00000085H   SFRSYM    DATA     BYTE      DPH1
      00000084H   SFRSYM    DATA     BYTE      DPL1
      000000D0H.7 SFRSYM    DATA     BIT       CY
      000000A0H   SFRSYM    DATA     BYTE      P2AX
      00000095H   SFRSYM    DATA     BYTE      DPX1
LX51 LINKER/LOCATER V4.64.0.0                                                         01/10/2017  17:59:18  PAGE 118


      00000081H   SFRSYM    DATA     BYTE      SP
      000000D0H.2 SFRSYM    DATA     BIT       OV
      00000080H   SFRSYM    DATA     BYTE      SFRPRT0DR
      00000090H   SFRSYM    DATA     BYTE      SFRPRT1DR
      000000F2H   SFRSYM    DATA     BYTE      SFRPRT12SEL
      00000098H   SFRSYM    DATA     BYTE      SFRPRT2DR
      000000B0H   SFRSYM    DATA     BYTE      SFRPRT3DR
      000000C0H   SFRSYM    DATA     BYTE      SFRPRT4DR
      000000FAH   SFRSYM    DATA     BYTE      SFRPRT15SEL
      000000C8H   SFRSYM    DATA     BYTE      SFRPRT5DR
      000000D8H   SFRSYM    DATA     BYTE      SFRPRT6DR
      00000089H   SFRSYM    DATA     BYTE      SFRPRT0PS
      00000091H   SFRSYM    DATA     BYTE      SFRPRT1PS
      00000099H   SFRSYM    DATA     BYTE      SFRPRT2PS
      000000B1H   SFRSYM    DATA     BYTE      SFRPRT3PS
      000000C1H   SFRSYM    DATA     BYTE      SFRPRT4PS
      000000C9H   SFRSYM    DATA     BYTE      SFRPRT5PS
      000000D9H   SFRSYM    DATA     BYTE      SFRPRT6PS
      000000EAH   SFRSYM    DATA     BYTE      MXAX
      000000F0H   SFRSYM    DATA     BYTE      B
      000000E0H   SFRSYM    DATA     BYTE      ACC
      000000D0H   SFRSYM    DATA     BIT       P
      000000D0H.3 SFRSYM    DATA     BIT       RS0
      000000D0H.4 SFRSYM    DATA     BIT       RS1
      00000083H   SFRSYM    DATA     BYTE      DPH
      000000E8H   SFRSYM    DATA     BYTE      SFRPRT12DR
      00000082H   SFRSYM    DATA     BYTE      DPL
      000000F8H   SFRSYM    DATA     BYTE      SFRPRT15DR
      00000086H   SFRSYM    DATA     BYTE      DPS
      000000E9H   SFRSYM    DATA     BYTE      SFRPRT12PS
      00000093H   SFRSYM    DATA     BYTE      DPX
      000000F9H   SFRSYM    DATA     BYTE      SFRPRT15PS
      000000D0H.5 SFRSYM    DATA     BIT       F0
      000000D0H.1 SFRSYM    DATA     BIT       F1
      0000008AH   SFRSYM    DATA     BYTE      SFRPRT0SEL
      000000D0H   SFRSYM    DATA     BYTE      PSW
      000000A2H   SFRSYM    DATA     BYTE      SFRPRT1SEL
      0000009AH   SFRSYM    DATA     BYTE      SFRPRT2SEL
      000000B2H   SFRSYM    DATA     BYTE      SFRPRT3SEL
      000000C2H   SFRSYM    DATA     BYTE      SFRPRT4SEL
      02000D8DH   SYMBOL    XDATA    DWORD     CyDmaChannels
      02000D91H   SYMBOL    XDATA    BYTE      CyDmaTdFreeIndex
      02000D92H   SYMBOL    XDATA    BYTE      CyDmaTdCurrentNumber

      0100C765H   BLOCK     CODE     ---       LVL=0
      0100C765H   BLOCK     CODE     NEAR LAB  LVL=1
      00000007H   SYMBOL    DATA     BYTE      dmaIndex
      ---         BLOCKEND  ---      ---       LVL=1
      0100C765H   LINE      CODE     ---       #61
      0100C765H   LINE      CODE     ---       #62
      0100C765H   LINE      CODE     ---       #66
      0100C76BH   LINE      CODE     ---       #67
      0100C76EH   LINE      CODE     ---       #70
      0100C773H   LINE      CODE     ---       #71
      0100C773H   LINE      CODE     ---       #72
      0100C786H   LINE      CODE     ---       #73
      0100C789H   LINE      CODE     ---       #76
      0100C79AH   LINE      CODE     ---       #77
      ---         BLOCKEND  ---      ---       LVL=0
      00000007H   SYMBOL    DATA     BYTE      error

      0100C3D3H   BLOCK     CODE     ---       LVL=0
      00000007H   SYMBOL    DATA     BYTE      chHandle
      00000005H   SYMBOL    DATA     BYTE      preserveTds
      0100C3D3H   BLOCK     CODE     NEAR LAB  LVL=1
LX51 LINKER/LOCATER V4.64.0.0                                                         01/10/2017  17:59:18  PAGE 119


      00000006H   SYMBOL    DATA     BYTE      status
      ---         BLOCKEND  ---      ---       LVL=1
      0100C3D3H   LINE      CODE     ---       #304
      0100C3D3H   LINE      CODE     ---       #305
      0100C3D3H   LINE      CODE     ---       #306
      0100C3D5H   LINE      CODE     ---       #308
      0100C3DBH   LINE      CODE     ---       #309
      0100C3DBH   LINE      CODE     ---       #310
      0100C3DEH   LINE      CODE     ---       #311
      0100C3DEH   LINE      CODE     ---       #315
      0100C3F1H   LINE      CODE     ---       #316
      0100C3F3H   LINE      CODE     ---       #318
      0100C3F3H   LINE      CODE     ---       #320
      0100C406H   LINE      CODE     ---       #321
      0100C406H   LINE      CODE     ---       #324
      0100C419H   LINE      CODE     ---       #326
      0100C41BH   LINE      CODE     ---       #327
      0100C41BH   LINE      CODE     ---       #329
      0100C41DH   LINE      CODE     ---       #330
      ---         BLOCKEND  ---      ---       LVL=0
      00000007H   SYMBOL    DATA     BYTE      chHandle
      00000006H   SYMBOL    DATA     BYTE      status
      00000007H   SYMBOL    DATA     BYTE      chHandle
      00000006H   SYMBOL    DATA     BYTE      status

      0100C5C0H   BLOCK     CODE     ---       LVL=0
      00000004H   SYMBOL    DATA     BYTE      chHandle
      00000005H   SYMBOL    DATA     BYTE      priority
      0100C5C2H   BLOCK     CODE     NEAR LAB  LVL=1
      00000002H   SYMBOL    DATA     BYTE      value
      00000003H   SYMBOL    DATA     BYTE      status
      ---         BLOCKEND  ---      ---       LVL=1
      0100C5C0H   LINE      CODE     ---       #429
      0100C5C2H   LINE      CODE     ---       #430
      0100C5C2H   LINE      CODE     ---       #432
      0100C5C4H   LINE      CODE     ---       #434
      0100C5CAH   LINE      CODE     ---       #435
      0100C5CAH   LINE      CODE     ---       #436
      0100C5DDH   LINE      CODE     ---       #438
      0100C5FBH   LINE      CODE     ---       #440
      0100C5FDH   LINE      CODE     ---       #441
      0100C5FDH   LINE      CODE     ---       #443
      0100C5FFH   LINE      CODE     ---       #444
      ---         BLOCKEND  ---      ---       LVL=0

      0100BCC9H   BLOCK     CODE     ---       LVL=0
      02000008H   SYMBOL    XDATA    BYTE      chHandle
      02000009H   SYMBOL    XDATA    WORD      source
      0200000BH   SYMBOL    XDATA    WORD      destination
      0100BCDCH   BLOCK     CODE     NEAR LAB  LVL=1
      0200000DH   SYMBOL    XDATA    BYTE      status
      0200000EH   SYMBOL    XDATA    ---       convert
      ---         BLOCKEND  ---      ---       LVL=1
      0100BCC9H   LINE      CODE     ---       #470
      0100BCDCH   LINE      CODE     ---       #472
      0100BCDCH   LINE      CODE     ---       #473
      0100BCE2H   LINE      CODE     ---       #492
      0100BCE8H   LINE      CODE     ---       #493
      0100BCE8H   LINE      CODE     ---       #495
      0100BCFFH   LINE      CODE     ---       #496
      0100BD0FH   LINE      CODE     ---       #499
      0100BD26H   LINE      CODE     ---       #500
      0100BD36H   LINE      CODE     ---       #501
      0100BD3BH   LINE      CODE     ---       #502
      0100BD3BH   LINE      CODE     ---       #504
LX51 LINKER/LOCATER V4.64.0.0                                                         01/10/2017  17:59:18  PAGE 120


      0100BD40H   LINE      CODE     ---       #505
      ---         BLOCKEND  ---      ---       LVL=0

      0100CBC2H   BLOCK     CODE     ---       LVL=0
      00000007H   SYMBOL    DATA     BYTE      chHandle
      00000005H   SYMBOL    DATA     BYTE      startTd
      0100CBC2H   BLOCK     CODE     NEAR LAB  LVL=1
      00000006H   SYMBOL    DATA     BYTE      status
      ---         BLOCKEND  ---      ---       LVL=1
      0100CBC2H   LINE      CODE     ---       #529
      0100CBC2H   LINE      CODE     ---       #530
      0100CBC2H   LINE      CODE     ---       #531
      0100CBC4H   LINE      CODE     ---       #533
      0100CBCAH   LINE      CODE     ---       #534
      0100CBCAH   LINE      CODE     ---       #535
      0100CBDBH   LINE      CODE     ---       #536
      0100CBDDH   LINE      CODE     ---       #537
      0100CBDDH   LINE      CODE     ---       #539
      0100CBDFH   LINE      CODE     ---       #540
      ---         BLOCKEND  ---      ---       LVL=0
      00000007H   SYMBOL    DATA     BYTE      chHandle
      00000005H   SYMBOL    DATA     BYTE      request
      00000006H   SYMBOL    DATA     BYTE      status
      00000007H   SYMBOL    DATA     BYTE      chHandle
      00000003H   SYMBOL    DATA     BYTE      status
      00000007H   SYMBOL    DATA     BYTE      chHandle
      00000006H   SYMBOL    DATA     BYTE      status

      0100BC50H   BLOCK     CODE     ---       LVL=0
      00000004H   SYMBOL    DATA     BYTE      chHandle
      00000005H   SYMBOL    DATA     BYTE      burstCount
      00000003H   SYMBOL    DATA     BYTE      requestPerBurst
      0200000BH   SYMBOL    XDATA    BYTE      tdDone0
      0200000CH   SYMBOL    XDATA    BYTE      tdDone1
      0200000DH   SYMBOL    XDATA    BYTE      tdStop
      0100BC52H   BLOCK     CODE     NEAR LAB  LVL=1
      00000002H   SYMBOL    DATA     BYTE      status
      ---         BLOCKEND  ---      ---       LVL=1
      0100BC50H   LINE      CODE     ---       #716
      0100BC52H   LINE      CODE     ---       #718
      0100BC52H   LINE      CODE     ---       #719
      0100BC54H   LINE      CODE     ---       #721
      0100BC5AH   LINE      CODE     ---       #722
      0100BC5AH   LINE      CODE     ---       #723
      0100BC78H   LINE      CODE     ---       #724
      0100BC9CH   LINE      CODE     ---       #725
      0100BCB4H   LINE      CODE     ---       #726
      0100BCC5H   LINE      CODE     ---       #728
      0100BCC6H   LINE      CODE     ---       #729
      0100BCC6H   LINE      CODE     ---       #731
      0100BCC8H   LINE      CODE     ---       #732
      ---         BLOCKEND  ---      ---       LVL=0

      0100C600H   BLOCK     CODE     ---       LVL=0
      0100C600H   BLOCK     CODE     NEAR LAB  LVL=1
      00000007H   SYMBOL    DATA     BYTE      interruptState
      02000002H   SYMBOL    XDATA    BYTE      element
      ---         BLOCKEND  ---      ---       LVL=1
      0100C600H   LINE      CODE     ---       #752
      0100C600H   LINE      CODE     ---       #753
      0100C600H   LINE      CODE     ---       #755
      0100C606H   LINE      CODE     ---       #758
      0100C609H   LINE      CODE     ---       #760
      0100C612H   LINE      CODE     ---       #761
      0100C612H   LINE      CODE     ---       #763
LX51 LINKER/LOCATER V4.64.0.0                                                         01/10/2017  17:59:18  PAGE 121


      0100C61BH   LINE      CODE     ---       #766
      0100C621H   LINE      CODE     ---       #769
      0100C635H   LINE      CODE     ---       #770
      0100C635H   LINE      CODE     ---       #773
      0100C638H   LINE      CODE     ---       #775
      0100C63DH   LINE      CODE     ---       #776
      ---         BLOCKEND  ---      ---       LVL=0

      0100B5B0H   BLOCK     CODE     ---       LVL=0
      02000002H   SYMBOL    XDATA    BYTE      tdHandle
      02000003H   SYMBOL    XDATA    WORD      transferCount
      02000005H   SYMBOL    XDATA    BYTE      nextTd
      02000006H   SYMBOL    XDATA    BYTE      configuration
      0100B5C0H   BLOCK     CODE     NEAR LAB  LVL=1
      02000007H   SYMBOL    XDATA    BYTE      status
      0100B5D5H   BLOCK     CODE     NEAR LAB  LVL=2
      02000008H   SYMBOL    XDATA    ---       convert
      ---         BLOCKEND  ---      ---       LVL=2
      ---         BLOCKEND  ---      ---       LVL=1
      0100B5B0H   LINE      CODE     ---       #891
      0100B5C0H   LINE      CODE     ---       #893
      0100B5C0H   LINE      CODE     ---       #894
      0100B5C6H   LINE      CODE     ---       #896
      0100B5D5H   LINE      CODE     ---       #897
      0100B5D5H   LINE      CODE     ---       #899
      0100B5ECH   LINE      CODE     ---       #900
      0100B5FCH   LINE      CODE     ---       #903
      0100B616H   LINE      CODE     ---       #906
      0100B62CH   LINE      CODE     ---       #908
      0100B631H   LINE      CODE     ---       #909
      0100B631H   LINE      CODE     ---       #911
      0100B636H   LINE      CODE     ---       #912
      ---         BLOCKEND  ---      ---       LVL=0

      0100BD41H   BLOCK     CODE     ---       LVL=0
      02000002H   SYMBOL    XDATA    BYTE      tdHandle
      02000003H   SYMBOL    XDATA    WORD      source
      02000005H   SYMBOL    XDATA    WORD      destination
      0100BD54H   BLOCK     CODE     NEAR LAB  LVL=1
      02000007H   SYMBOL    XDATA    BYTE      status
      02000008H   SYMBOL    XDATA    ---       convert
      ---         BLOCKEND  ---      ---       LVL=1
      0100BD41H   LINE      CODE     ---       #1010
      0100BD54H   LINE      CODE     ---       #1011
      0100BD54H   LINE      CODE     ---       #1012
      0100BD5AH   LINE      CODE     ---       #1015
      0100BD60H   LINE      CODE     ---       #1016
      0100BD60H   LINE      CODE     ---       #1018
      0100BD77H   LINE      CODE     ---       #1019
      0100BD87H   LINE      CODE     ---       #1022
      0100BD9EH   LINE      CODE     ---       #1023
      0100BDAEH   LINE      CODE     ---       #1025
      0100BDB3H   LINE      CODE     ---       #1026
      0100BDB3H   LINE      CODE     ---       #1028
      0100BDB8H   LINE      CODE     ---       #1029
      ---         BLOCKEND  ---      ---       LVL=0
      00000007H   SYMBOL    DATA     BYTE      chHandle
      00000005H   SYMBOL    DATA     BYTE      enableRR
      00000006H   SYMBOL    DATA     BYTE      status

      ---         MODULE    ---      ---       CYFLASH
      02000D96H   PUBLIC    XDATA    ---       dieTemperature
      0100C908H   PUBLIC    CODE     ---       CyEEPROM_Start
      0100CC62H   PUBLIC    CODE     ---       CySetTemp
      000000CAH   SFRSYM    DATA     BYTE      SFRPRT5SEL
LX51 LINKER/LOCATER V4.64.0.0                                                         01/10/2017  17:59:18  PAGE 122


      000000DAH   SFRSYM    DATA     BYTE      SFRPRT6SEL
      000000D0H.6 SFRSYM    DATA     BIT       AC
      000000A8H.7 SFRSYM    DATA     BIT       EA
      000000A8H   SFRSYM    DATA     BYTE      IE
      00000085H   SFRSYM    DATA     BYTE      DPH1
      00000084H   SFRSYM    DATA     BYTE      DPL1
      000000D0H.7 SFRSYM    DATA     BIT       CY
      000000A0H   SFRSYM    DATA     BYTE      P2AX
      00000095H   SFRSYM    DATA     BYTE      DPX1
      00000081H   SFRSYM    DATA     BYTE      SP
      000000D0H.2 SFRSYM    DATA     BIT       OV
      00000080H   SFRSYM    DATA     BYTE      SFRPRT0DR
      00000090H   SFRSYM    DATA     BYTE      SFRPRT1DR
      000000F2H   SFRSYM    DATA     BYTE      SFRPRT12SEL
      00000098H   SFRSYM    DATA     BYTE      SFRPRT2DR
      000000B0H   SFRSYM    DATA     BYTE      SFRPRT3DR
      000000C0H   SFRSYM    DATA     BYTE      SFRPRT4DR
      000000FAH   SFRSYM    DATA     BYTE      SFRPRT15SEL
      000000C8H   SFRSYM    DATA     BYTE      SFRPRT5DR
      000000D8H   SFRSYM    DATA     BYTE      SFRPRT6DR
      00000089H   SFRSYM    DATA     BYTE      SFRPRT0PS
      00000091H   SFRSYM    DATA     BYTE      SFRPRT1PS
      00000099H   SFRSYM    DATA     BYTE      SFRPRT2PS
      000000B1H   SFRSYM    DATA     BYTE      SFRPRT3PS
      000000C1H   SFRSYM    DATA     BYTE      SFRPRT4PS
      000000C9H   SFRSYM    DATA     BYTE      SFRPRT5PS
      000000D9H   SFRSYM    DATA     BYTE      SFRPRT6PS
      000000EAH   SFRSYM    DATA     BYTE      MXAX
      000000F0H   SFRSYM    DATA     BYTE      B
      000000E0H   SFRSYM    DATA     BYTE      ACC
      000000D0H   SFRSYM    DATA     BIT       P
      000000D0H.3 SFRSYM    DATA     BIT       RS0
      000000D0H.4 SFRSYM    DATA     BIT       RS1
      00000083H   SFRSYM    DATA     BYTE      DPH
      000000E8H   SFRSYM    DATA     BYTE      SFRPRT12DR
      00000082H   SFRSYM    DATA     BYTE      DPL
      000000F8H   SFRSYM    DATA     BYTE      SFRPRT15DR
      00000086H   SFRSYM    DATA     BYTE      DPS
      000000E9H   SFRSYM    DATA     BYTE      SFRPRT12PS
      00000093H   SFRSYM    DATA     BYTE      DPX
      000000F9H   SFRSYM    DATA     BYTE      SFRPRT15PS
      000000D0H.5 SFRSYM    DATA     BIT       F0
      000000D0H.1 SFRSYM    DATA     BIT       F1
      0000008AH   SFRSYM    DATA     BYTE      SFRPRT0SEL
      000000D0H   SFRSYM    DATA     BYTE      PSW
      000000A2H   SFRSYM    DATA     BYTE      SFRPRT1SEL
      0000009AH   SFRSYM    DATA     BYTE      SFRPRT2SEL
      000000B2H   SFRSYM    DATA     BYTE      SFRPRT3SEL
      000000C2H   SFRSYM    DATA     BYTE      SFRPRT4SEL
      0100C2E7H   SYMBOL    CODE     ---       CyFlashGetSpcAlgorithm
      0100C1E9H   SYMBOL    CODE     ---       CySetTempInt
      02000D93H   SYMBOL    XDATA    ---       rowBuffer
      00000007H   SYMBOL    DATA     BYTE      interruptState
      00000007H   SYMBOL    DATA     BYTE      interruptState

      0100C1E9H   BLOCK     CODE     ---       LVL=0
      0100C1E9H   BLOCK     CODE     NEAR LAB  LVL=1
      0200001AH   SYMBOL    XDATA    BYTE      status
      ---         BLOCKEND  ---      ---       LVL=1
      0100C1E9H   LINE      CODE     ---       #155
      0100C1E9H   LINE      CODE     ---       #156
      0100C1E9H   LINE      CODE     ---       #160
      0100C1ECH   LINE      CODE     ---       #163
      0100C1F2H   LINE      CODE     ---       #165
      0100C1F8H   LINE      CODE     ---       #166
LX51 LINKER/LOCATER V4.64.0.0                                                         01/10/2017  17:59:18  PAGE 123


      0100C1F8H   LINE      CODE     ---       #168
      0100C202H   LINE      CODE     ---       #169
      0100C202H   LINE      CODE     ---       #171
      0100C202H   LINE      CODE     ---       #172
      0100C211H   LINE      CODE     ---       #173
      0100C211H   LINE      CODE     ---       #174
      0100C216H   LINE      CODE     ---       #176
      0100C21EH   LINE      CODE     ---       #177
      0100C21EH   LINE      CODE     ---       #179
      0100C224H   LINE      CODE     ---       #180
      0100C226H   LINE      CODE     ---       #181
      0100C226H   LINE      CODE     ---       #182
      0100C226H   LINE      CODE     ---       #184
      0100C22EH   LINE      CODE     ---       #185
      0100C22EH   LINE      CODE     ---       #187
      0100C231H   LINE      CODE     ---       #188
      0100C233H   LINE      CODE     ---       #190
      0100C233H   LINE      CODE     ---       #191
      0100C239H   LINE      CODE     ---       #192
      0100C239H   LINE      CODE     ---       #194
      0100C23EH   LINE      CODE     ---       #195
      ---         BLOCKEND  ---      ---       LVL=0

      0100C2E7H   BLOCK     CODE     ---       LVL=0
      0100C2E7H   BLOCK     CODE     NEAR LAB  LVL=1
      0200001AH   SYMBOL    XDATA    BYTE      status
      ---         BLOCKEND  ---      ---       LVL=1
      0100C2E7H   LINE      CODE     ---       #215
      0100C2E7H   LINE      CODE     ---       #216
      0100C2E7H   LINE      CODE     ---       #220
      0100C2EAH   LINE      CODE     ---       #222
      0100C2F0H   LINE      CODE     ---       #223
      0100C2F0H   LINE      CODE     ---       #224
      0100C2F8H   LINE      CODE     ---       #226
      0100C2FCH   LINE      CODE     ---       #227
      0100C2FCH   LINE      CODE     ---       #228
      0100C304H   LINE      CODE     ---       #229
      0100C304H   LINE      CODE     ---       #231
      0100C30AH   LINE      CODE     ---       #232
      0100C30CH   LINE      CODE     ---       #234
      0100C322H   LINE      CODE     ---       #235
      0100C322H   LINE      CODE     ---       #236
      0100C326H   LINE      CODE     ---       #237
      0100C326H   LINE      CODE     ---       #238
      0100C326H   LINE      CODE     ---       #239
      0100C329H   LINE      CODE     ---       #240
      0100C32BH   LINE      CODE     ---       #242
      0100C32BH   LINE      CODE     ---       #243
      0100C331H   LINE      CODE     ---       #244
      0100C331H   LINE      CODE     ---       #246
      0100C336H   LINE      CODE     ---       #247
      ---         BLOCKEND  ---      ---       LVL=0

      0100CC62H   BLOCK     CODE     ---       LVL=0
      0100CC62H   BLOCK     CODE     NEAR LAB  LVL=1
      02000019H   SYMBOL    XDATA    BYTE      status
      ---         BLOCKEND  ---      ---       LVL=1
      0100CC62H   LINE      CODE     ---       #273
      0100CC62H   LINE      CODE     ---       #274
      0100CC62H   LINE      CODE     ---       #275
      0100CC6AH   LINE      CODE     ---       #277
      0100CC6CH   LINE      CODE     ---       #278
      0100CC6CH   LINE      CODE     ---       #279
      0100CC74H   LINE      CODE     ---       #280
      0100CC74H   LINE      CODE     ---       #282
LX51 LINKER/LOCATER V4.64.0.0                                                         01/10/2017  17:59:18  PAGE 124


      0100CC79H   LINE      CODE     ---       #283
      ---         BLOCKEND  ---      ---       LVL=0
      00000004H   SYMBOL    DATA     WORD      rowAddress
      00000001H   SYMBOL    DATA     ---       rowData
      00000007H   SYMBOL    DATA     BYTE      status
      00000007H   SYMBOL    DATA     BYTE      interruptState

      0100C908H   BLOCK     CODE     ---       LVL=0
      0100C908H   BLOCK     CODE     NEAR LAB  LVL=1
      00000007H   SYMBOL    DATA     BYTE      interruptState
      ---         BLOCKEND  ---      ---       LVL=1
      0100C908H   LINE      CODE     ---       #636
      0100C908H   LINE      CODE     ---       #637
      0100C908H   LINE      CODE     ---       #640
      0100C90BH   LINE      CODE     ---       #647
      0100C912H   LINE      CODE     ---       #648
      0100C919H   LINE      CODE     ---       #661
      0100C91FH   LINE      CODE     ---       #668
      0100C926H   LINE      CODE     ---       #669
      0100C92DH   LINE      CODE     ---       #671
      0100C935H   LINE      CODE     ---       #672
      0100C935H   LINE      CODE     ---       #674
      0100C935H   LINE      CODE     ---       #676
      0100C938H   LINE      CODE     ---       #677
      ---         BLOCKEND  ---      ---       LVL=0
      00000007H   SYMBOL    DATA     BYTE      interruptState

      ---         MODULE    ---      ---       CYLIB
      02000D89H   PUBLIC    XDATA    DWORD     cydelay_32k_ms
      02000D88H   PUBLIC    XDATA    BYTE      CyResetStatus
      02000D84H   PUBLIC    XDATA    DWORD     cydelay_freq_hz
      02000D83H   PUBLIC    XDATA    BYTE      cydelay_freq_mhz
      02000D7FH   PUBLIC    XDATA    DWORD     cydelay_freq_khz
      0100CC30H   PUBLIC    CODE     ---       _CyIntSetPriority
      0100C23FH   PUBLIC    CODE     ---       _CyIntSetVector
      0100B528H   PUBLIC    CODE     ---       _?CyDelay
      0100D029H   PUBLIC    CODE     ---       CySoftwareReset
      000000CAH   SFRSYM    DATA     BYTE      SFRPRT5SEL
      000000DAH   SFRSYM    DATA     BYTE      SFRPRT6SEL
      000000D0H.6 SFRSYM    DATA     BIT       AC
      000000A8H.7 SFRSYM    DATA     BIT       EA
      000000A8H   SFRSYM    DATA     BYTE      IE
      00000085H   SFRSYM    DATA     BYTE      DPH1
      00000084H   SFRSYM    DATA     BYTE      DPL1
      000000D0H.7 SFRSYM    DATA     BIT       CY
      000000A0H   SFRSYM    DATA     BYTE      P2AX
      00000095H   SFRSYM    DATA     BYTE      DPX1
      00000081H   SFRSYM    DATA     BYTE      SP
      000000D0H.2 SFRSYM    DATA     BIT       OV
      00000080H   SFRSYM    DATA     BYTE      SFRPRT0DR
      00000090H   SFRSYM    DATA     BYTE      SFRPRT1DR
      000000F2H   SFRSYM    DATA     BYTE      SFRPRT12SEL
      00000098H   SFRSYM    DATA     BYTE      SFRPRT2DR
      000000B0H   SFRSYM    DATA     BYTE      SFRPRT3DR
      000000C0H   SFRSYM    DATA     BYTE      SFRPRT4DR
      000000FAH   SFRSYM    DATA     BYTE      SFRPRT15SEL
      000000C8H   SFRSYM    DATA     BYTE      SFRPRT5DR
      000000D8H   SFRSYM    DATA     BYTE      SFRPRT6DR
      00000089H   SFRSYM    DATA     BYTE      SFRPRT0PS
      00000091H   SFRSYM    DATA     BYTE      SFRPRT1PS
      00000099H   SFRSYM    DATA     BYTE      SFRPRT2PS
      000000B1H   SFRSYM    DATA     BYTE      SFRPRT3PS
      000000C1H   SFRSYM    DATA     BYTE      SFRPRT4PS
      000000C9H   SFRSYM    DATA     BYTE      SFRPRT5PS
      000000D9H   SFRSYM    DATA     BYTE      SFRPRT6PS
LX51 LINKER/LOCATER V4.64.0.0                                                         01/10/2017  17:59:18  PAGE 125


      000000EAH   SFRSYM    DATA     BYTE      MXAX
      000000F0H   SFRSYM    DATA     BYTE      B
      000000E0H   SFRSYM    DATA     BYTE      ACC
      000000D0H   SFRSYM    DATA     BIT       P
      000000D0H.3 SFRSYM    DATA     BIT       RS0
      000000D0H.4 SFRSYM    DATA     BIT       RS1
      00000083H   SFRSYM    DATA     BYTE      DPH
      000000E8H   SFRSYM    DATA     BYTE      SFRPRT12DR
      00000082H   SFRSYM    DATA     BYTE      DPL
      000000F8H   SFRSYM    DATA     BYTE      SFRPRT15DR
      00000086H   SFRSYM    DATA     BYTE      DPS
      000000E9H   SFRSYM    DATA     BYTE      SFRPRT12PS
      00000093H   SFRSYM    DATA     BYTE      DPX
      000000F9H   SFRSYM    DATA     BYTE      SFRPRT15PS
      000000D0H.5 SFRSYM    DATA     BIT       F0
      000000D0H.1 SFRSYM    DATA     BIT       F1
      0000008AH   SFRSYM    DATA     BYTE      SFRPRT0SEL
      000000D0H   SFRSYM    DATA     BYTE      PSW
      000000A2H   SFRSYM    DATA     BYTE      SFRPRT1SEL
      0000009AH   SFRSYM    DATA     BYTE      SFRPRT2SEL
      000000B2H   SFRSYM    DATA     BYTE      SFRPRT3SEL
      000000C2H   SFRSYM    DATA     BYTE      SFRPRT4SEL
      00000007H   SYMBOL    DATA     BYTE      wait
      00000007H   SYMBOL    DATA     BYTE      pDiv
      00000005H   SYMBOL    DATA     BYTE      qDiv
      00000003H   SYMBOL    DATA     BYTE      current
      00000007H   SYMBOL    DATA     BYTE      source
      00000007H   SYMBOL    DATA     BYTE      wait
      00000007H   SYMBOL    DATA     BYTE      poweredOn
      00000006H   SYMBOL    DATA     BYTE      freq
      00000007H   SYMBOL    DATA     BYTE      source
      00000007H   SYMBOL    DATA     BYTE      source
      00000007H   SYMBOL    DATA     BYTE      divider
      00000006H   SYMBOL    DATA     WORD      divider
      00000005H   SYMBOL    DATA     BYTE      masterClkDiv
      00000006H   SYMBOL    DATA     WORD      busClkDiv
      00000001H   SYMBOL    DATA     BYTE      interruptState
      00000007H   SYMBOL    DATA     BYTE      divider
      00000007H   SYMBOL    DATA     BYTE      source
      00000007H   SYMBOL    DATA     BYTE      source
      00000007H   SYMBOL    DATA     BYTE      mode
      00000006H   SYMBOL    DATA     BYTE      state
      00000007H   SYMBOL    DATA     BYTE      mode
      00000007H   SYMBOL    DATA     BYTE      wait
      00000007H   SYMBOL    DATA     BYTE      setting
      00000007H   SYMBOL    DATA     BYTE      setting
      00000007H   SYMBOL    DATA     BYTE      setting
      00000000H   SYMBOL    XSTK     BYTE      reason

      0100D029H   BLOCK     CODE     ---       LVL=0
      0100D029H   LINE      CODE     ---       #1666
      0100D029H   LINE      CODE     ---       #1667
      0100D029H   LINE      CODE     ---       #1668
      0100D030H   LINE      CODE     ---       #1669
      ---         BLOCKEND  ---      ---       LVL=0

      0100B528H   BLOCK     CODE     ---       LVL=0
      00000000H   SYMBOL    XSTK     DWORD     milliseconds
      0100B528H   LINE      CODE     ---       #1692
      0100B531H   LINE      CODE     ---       #1694
      0100B547H   LINE      CODE     ---       #1695
      0100B547H   LINE      CODE     ---       #1700
      0100B558H   LINE      CODE     ---       #1701
      0100B582H   LINE      CODE     ---       #1702
      0100B584H   LINE      CODE     ---       #1704
LX51 LINKER/LOCATER V4.64.0.0                                                         01/10/2017  17:59:18  PAGE 126


      0100B5A9H   LINE      CODE     ---       #1705
      ---         BLOCKEND  ---      ---       LVL=0
      00000000H   SYMBOL    XSTK     DWORD     freq
      00000007H   SYMBOL    DATA     BYTE      ticks
      00000005H   SYMBOL    DATA     BYTE      lpMode
      02000D7EH   SYMBOL    XDATA    BYTE      interruptStatus
      00000005H   SYMBOL    DATA     BYTE      interruptState
      00000005H   SYMBOL    DATA     BYTE      interruptState
      00000003H   SYMBOL    DATA     BYTE      interruptState

      0100C23FH   BLOCK     CODE     ---       LVL=0
      02000002H   SYMBOL    XDATA    BYTE      number
      02000003H   SYMBOL    XDATA    ---       address
      0100C24CH   BLOCK     CODE     NEAR LAB  LVL=1
      02000005H   SYMBOL    XDATA    ---       oldIsr
      ---         BLOCKEND  ---      ---       LVL=1
      0100C23FH   LINE      CODE     ---       #2641
      0100C24CH   LINE      CODE     ---       #2642
      0100C24CH   LINE      CODE     ---       #2648
      0100C26AH   LINE      CODE     ---       #2652
      0100C28AH   LINE      CODE     ---       #2654
      0100C292H   LINE      CODE     ---       #2655
      ---         BLOCKEND  ---      ---       LVL=0
      00000007H   SYMBOL    DATA     BYTE      number

      0100CC30H   BLOCK     CODE     ---       LVL=0
      00000004H   SYMBOL    DATA     BYTE      number
      00000005H   SYMBOL    DATA     BYTE      priority
      0100CC30H   LINE      CODE     ---       #2696
      0100CC32H   LINE      CODE     ---       #2697
      0100CC32H   LINE      CODE     ---       #2702
      0100CC48H   LINE      CODE     ---       #2704
      ---         BLOCKEND  ---      ---       LVL=0
      00000007H   SYMBOL    DATA     BYTE      number
      00000007H   SYMBOL    DATA     BYTE      priority
      00000005H   SYMBOL    DATA     BYTE      number
      00000006H   SYMBOL    DATA     ---       stateReg

      ---         MODULE    ---      ---       ?C_STARTUP
      00000000H   PUBLIC    NUMBER   ---       ?C?XPAGE1RST
      00000093H   PUBLIC    DATA     BYTE      ?C?XPAGE1SFR
      01002600H   PUBLIC    CODE     NEAR LAB  ?C_STARTUP
      0100A824H   PUBLIC    CODE     NEAR LAB  STARTUP1
      01002604H   PUBLIC    CODE     NEAR LAB  _dma_wait

      ---         MODULE    ---      ---       LED_BLINK
      02000DA7H   PUBLIC    XDATA    BYTE      LED_BLINK_initVar
      0100D126H   PUBLIC    CODE     ---       _LED_BLINK_WriteCompare
      0100D120H   PUBLIC    CODE     ---       _LED_BLINK_WritePeriod
      0100D11AH   PUBLIC    CODE     ---       _LED_BLINK_WriteCounter
      0100D031H   PUBLIC    CODE     ---       LED_BLINK_Enable
      0100CB03H   PUBLIC    CODE     ---       LED_BLINK_Init
      0100CDE5H   PUBLIC    CODE     ---       LED_BLINK_Start
      000000CAH   SFRSYM    DATA     BYTE      SFRPRT5SEL
      000000DAH   SFRSYM    DATA     BYTE      SFRPRT6SEL
      000000D0H.6 SFRSYM    DATA     BIT       AC
      000000A8H.7 SFRSYM    DATA     BIT       EA
      000000A8H   SFRSYM    DATA     BYTE      IE
      00000085H   SFRSYM    DATA     BYTE      DPH1
      00000084H   SFRSYM    DATA     BYTE      DPL1
      000000D0H.7 SFRSYM    DATA     BIT       CY
      000000A0H   SFRSYM    DATA     BYTE      P2AX
      00000095H   SFRSYM    DATA     BYTE      DPX1
      00000081H   SFRSYM    DATA     BYTE      SP
      000000D0H.2 SFRSYM    DATA     BIT       OV
LX51 LINKER/LOCATER V4.64.0.0                                                         01/10/2017  17:59:18  PAGE 127


      00000080H   SFRSYM    DATA     BYTE      SFRPRT0DR
      00000090H   SFRSYM    DATA     BYTE      SFRPRT1DR
      000000F2H   SFRSYM    DATA     BYTE      SFRPRT12SEL
      00000098H   SFRSYM    DATA     BYTE      SFRPRT2DR
      000000B0H   SFRSYM    DATA     BYTE      SFRPRT3DR
      000000C0H   SFRSYM    DATA     BYTE      SFRPRT4DR
      000000FAH   SFRSYM    DATA     BYTE      SFRPRT15SEL
      000000C8H   SFRSYM    DATA     BYTE      SFRPRT5DR
      000000D8H   SFRSYM    DATA     BYTE      SFRPRT6DR
      00000089H   SFRSYM    DATA     BYTE      SFRPRT0PS
      00000091H   SFRSYM    DATA     BYTE      SFRPRT1PS
      00000099H   SFRSYM    DATA     BYTE      SFRPRT2PS
      000000B1H   SFRSYM    DATA     BYTE      SFRPRT3PS
      000000C1H   SFRSYM    DATA     BYTE      SFRPRT4PS
      000000C9H   SFRSYM    DATA     BYTE      SFRPRT5PS
      000000D9H   SFRSYM    DATA     BYTE      SFRPRT6PS
      000000EAH   SFRSYM    DATA     BYTE      MXAX
      000000F0H   SFRSYM    DATA     BYTE      B
      000000E0H   SFRSYM    DATA     BYTE      ACC
      000000D0H   SFRSYM    DATA     BIT       P
      000000D0H.3 SFRSYM    DATA     BIT       RS0
      000000D0H.4 SFRSYM    DATA     BIT       RS1
      00000083H   SFRSYM    DATA     BYTE      DPH
      000000E8H   SFRSYM    DATA     BYTE      SFRPRT12DR
      00000082H   SFRSYM    DATA     BYTE      DPL
      000000F8H   SFRSYM    DATA     BYTE      SFRPRT15DR
      00000086H   SFRSYM    DATA     BYTE      DPS
      000000E9H   SFRSYM    DATA     BYTE      SFRPRT12PS
      00000093H   SFRSYM    DATA     BYTE      DPX
      000000F9H   SFRSYM    DATA     BYTE      SFRPRT15PS
      000000D0H.5 SFRSYM    DATA     BIT       F0
      000000D0H.1 SFRSYM    DATA     BIT       F1
      0000008AH   SFRSYM    DATA     BYTE      SFRPRT0SEL
      000000D0H   SFRSYM    DATA     BYTE      PSW
      000000A2H   SFRSYM    DATA     BYTE      SFRPRT1SEL
      0000009AH   SFRSYM    DATA     BYTE      SFRPRT2SEL
      000000B2H   SFRSYM    DATA     BYTE      SFRPRT3SEL
      000000C2H   SFRSYM    DATA     BYTE      SFRPRT4SEL

      0100CDE5H   BLOCK     CODE     ---       LVL=0
      0100CDE5H   LINE      CODE     ---       #55
      0100CDE5H   LINE      CODE     ---       #56
      0100CDE5H   LINE      CODE     ---       #58
      0100CDEBH   LINE      CODE     ---       #59
      0100CDEBH   LINE      CODE     ---       #60
      0100CDEEH   LINE      CODE     ---       #61
      0100CDF4H   LINE      CODE     ---       #62
      0100CDF4H   LINE      CODE     ---       #63
      0100CDF7H   LINE      CODE     ---       #65
      ---         BLOCKEND  ---      ---       LVL=0

      0100CB03H   BLOCK     CODE     ---       LVL=0
      0100CB03H   BLOCK     CODE     NEAR LAB  LVL=1
      00000007H   SYMBOL    DATA     BYTE      ctrl
      ---         BLOCKEND  ---      ---       LVL=1
      0100CB03H   LINE      CODE     ---       #84
      0100CB03H   LINE      CODE     ---       #85
      0100CB03H   LINE      CODE     ---       #118
      0100CB0AH   LINE      CODE     ---       #120
      0100CB0DH   LINE      CODE     ---       #126
      0100CB14H   LINE      CODE     ---       #133
      0100CB19H   LINE      CODE     ---       #136
      0100CB1EH   LINE      CODE     ---       #139
      0100CB23H   LINE      CODE     ---       #179
      ---         BLOCKEND  ---      ---       LVL=0
LX51 LINKER/LOCATER V4.64.0.0                                                         01/10/2017  17:59:18  PAGE 128



      0100D031H   BLOCK     CODE     ---       LVL=0
      0100D031H   LINE      CODE     ---       #199
      0100D031H   LINE      CODE     ---       #200
      0100D031H   LINE      CODE     ---       #209
      0100D038H   LINE      CODE     ---       #211
      ---         BLOCKEND  ---      ---       LVL=0

      0100D11AH   BLOCK     CODE     ---       LVL=0
      00000007H   SYMBOL    DATA     BYTE      counter
      0100D11AH   LINE      CODE     ---       #403
      0100D11AH   LINE      CODE     ---       #405
      0100D11AH   LINE      CODE     ---       #406
      0100D11FH   LINE      CODE     ---       #407
      ---         BLOCKEND  ---      ---       LVL=0

      0100D120H   BLOCK     CODE     ---       LVL=0
      00000007H   SYMBOL    DATA     BYTE      period
      0100D120H   LINE      CODE     ---       #482
      0100D120H   LINE      CODE     ---       #483
      0100D120H   LINE      CODE     ---       #487
      0100D125H   LINE      CODE     ---       #489
      ---         BLOCKEND  ---      ---       LVL=0

      0100D126H   BLOCK     CODE     ---       LVL=0
      00000007H   SYMBOL    DATA     BYTE      compare
      0100D126H   LINE      CODE     ---       #516
      0100D126H   LINE      CODE     ---       #518
      0100D126H   LINE      CODE     ---       #522
      0100D12BH   LINE      CODE     ---       #532
      ---         BLOCKEND  ---      ---       LVL=0
      00000007H   SYMBOL    DATA     BYTE      result
      00000007H   SYMBOL    DATA     BYTE      control

      ---         MODULE    ---      ---       LED_CTRL
      0100D12CH   PUBLIC    CODE     ---       _LED_CTRL_Write

      0100D12CH   BLOCK     CODE     ---       LVL=0
      00000007H   SYMBOL    DATA     BYTE      control
      0100D12CH   LINE      CODE     ---       #37
      0100D12CH   LINE      CODE     ---       #38
      0100D12CH   LINE      CODE     ---       #39
      0100D131H   LINE      CODE     ---       #40
      ---         BLOCKEND  ---      ---       LVL=0

      ---         MODULE    ---      ---       LED_BLINK_EN
      0100D132H   PUBLIC    CODE     ---       _LED_BLINK_EN_Write

      0100D132H   BLOCK     CODE     ---       LVL=0
      00000007H   SYMBOL    DATA     BYTE      control
      0100D132H   LINE      CODE     ---       #37
      0100D132H   LINE      CODE     ---       #38
      0100D132H   LINE      CODE     ---       #39
      0100D137H   LINE      CODE     ---       #40
      ---         BLOCKEND  ---      ---       LVL=0

      ---         MODULE    ---      ---       CYFITTER_CFG
      0100DCF3H   PUBLIC    CONST    ---       ADC_AMux__maskTable
      0100DCEFH   PUBLIC    CONST    ---       ADC_AMux__addrTable
      0100A941H   PUBLIC    CODE     ---       cyfitter_cfg
      0100C939H   PUBLIC    CODE     ---       _ADC_AMux_Unset
      0100C7D0H   PUBLIC    CODE     ---       _ADC_AMux_Set
      000000CAH   SFRSYM    DATA     BYTE      SFRPRT5SEL
      000000DAH   SFRSYM    DATA     BYTE      SFRPRT6SEL
      000000D0H.6 SFRSYM    DATA     BIT       AC
LX51 LINKER/LOCATER V4.64.0.0                                                         01/10/2017  17:59:18  PAGE 129


      000000A8H.7 SFRSYM    DATA     BIT       EA
      000000A8H   SFRSYM    DATA     BYTE      IE
      00000085H   SFRSYM    DATA     BYTE      DPH1
      00000084H   SFRSYM    DATA     BYTE      DPL1
      000000D0H.7 SFRSYM    DATA     BIT       CY
      000000A0H   SFRSYM    DATA     BYTE      P2AX
      00000095H   SFRSYM    DATA     BYTE      DPX1
      00000081H   SFRSYM    DATA     BYTE      SP
      000000D0H.2 SFRSYM    DATA     BIT       OV
      00000080H   SFRSYM    DATA     BYTE      SFRPRT0DR
      00000090H   SFRSYM    DATA     BYTE      SFRPRT1DR
      000000F2H   SFRSYM    DATA     BYTE      SFRPRT12SEL
      00000098H   SFRSYM    DATA     BYTE      SFRPRT2DR
      000000B0H   SFRSYM    DATA     BYTE      SFRPRT3DR
      000000C0H   SFRSYM    DATA     BYTE      SFRPRT4DR
      000000FAH   SFRSYM    DATA     BYTE      SFRPRT15SEL
      000000C8H   SFRSYM    DATA     BYTE      SFRPRT5DR
      000000D8H   SFRSYM    DATA     BYTE      SFRPRT6DR
      00000089H   SFRSYM    DATA     BYTE      SFRPRT0PS
      00000091H   SFRSYM    DATA     BYTE      SFRPRT1PS
      00000099H   SFRSYM    DATA     BYTE      SFRPRT2PS
      000000B1H   SFRSYM    DATA     BYTE      SFRPRT3PS
      000000C1H   SFRSYM    DATA     BYTE      SFRPRT4PS
      000000C9H   SFRSYM    DATA     BYTE      SFRPRT5PS
      000000D9H   SFRSYM    DATA     BYTE      SFRPRT6PS
      000000EAH   SFRSYM    DATA     BYTE      MXAX
      000000F0H   SFRSYM    DATA     BYTE      B
      000000E0H   SFRSYM    DATA     BYTE      ACC
      000000D0H   SFRSYM    DATA     BIT       P
      000000D0H.3 SFRSYM    DATA     BIT       RS0
      000000D0H.4 SFRSYM    DATA     BIT       RS1
      00000083H   SFRSYM    DATA     BYTE      DPH
      000000E8H   SFRSYM    DATA     BYTE      SFRPRT12DR
      00000082H   SFRSYM    DATA     BYTE      DPL
      000000F8H   SFRSYM    DATA     BYTE      SFRPRT15DR
      00000086H   SFRSYM    DATA     BYTE      DPS
      000000E9H   SFRSYM    DATA     BYTE      SFRPRT12PS
      00000093H   SFRSYM    DATA     BYTE      DPX
      000000F9H   SFRSYM    DATA     BYTE      SFRPRT15PS
      000000D0H.5 SFRSYM    DATA     BIT       F0
      000000D0H.1 SFRSYM    DATA     BIT       F1
      0000008AH   SFRSYM    DATA     BYTE      SFRPRT0SEL
      000000D0H   SFRSYM    DATA     BYTE      PSW
      000000A2H   SFRSYM    DATA     BYTE      SFRPRT1SEL
      0000009AH   SFRSYM    DATA     BYTE      SFRPRT2SEL
      000000B2H   SFRSYM    DATA     BYTE      SFRPRT3SEL
      000000C2H   SFRSYM    DATA     BYTE      SFRPRT4SEL
      01009E15H   SYMBOL    CODE     ---       ClockSetup
      0100D142H   SYMBOL    CODE     ---       _CyClockStartupError
      0100C6F2H   SYMBOL    CODE     ---       AnalogSetDefault
      0100AB52H   SYMBOL    CODE     ---       cfg_dma_init

      0100D142H   BLOCK     CODE     ---       LVL=0
      02000000H   SYMBOL    XDATA    BYTE      errorCode
      0100D142H   LINE      CODE     ---       #72
      0100D142H   LINE      CODE     ---       #73
      0100D142H   LINE      CODE     ---       #75
      0100D142H   LINE      CODE     ---       #87
      ---         BLOCKEND  ---      ---       LVL=0

      0100AB52H   BLOCK     CODE     ---       LVL=0
      0100AB52H   BLOCK     CODE     NEAR LAB  LVL=1
      0100D14AH   SYMBOL    CONST    ---       BS_UDB_2_4_HV_ROUTING_VAL
      0100D1CAH   SYMBOL    CONST    ---       BS_UDBSWITCH_0_5_VAL
      0100D24AH   SYMBOL    CONST    ---       BS_UDB_1_5_HV_ROUTING_VAL
LX51 LINKER/LOCATER V4.64.0.0                                                         01/10/2017  17:59:18  PAGE 130


      0100D2CAH   SYMBOL    CONST    ---       BS_UDBSWITCH_1_5_VAL
      0100D34AH   SYMBOL    CONST    ---       BS_UDB_2_5_HV_ROUTING_VAL
      0100D3CAH   SYMBOL    CONST    ---       BS_DSISWITCH_1_0_VAL
      0100D44AH   SYMBOL    CONST    ---       BS_DSI3_0_HV_ROUTING_VAL
      0100D4CAH   SYMBOL    CONST    ---       BS_DSISWITCH_1_1_VAL
      0100D54AH   SYMBOL    CONST    ---       BS_DSI3_1_HV_ROUTING_VAL
      0100D5CAH   SYMBOL    CONST    ---       BS_DSISWITCH_1_2_VAL
      0100D64AH   SYMBOL    CONST    ---       BS_DSI3_2_HV_ROUTING_VAL
      0100D6CAH   SYMBOL    CONST    ---       BS_DSISWITCH_1_3_VAL
      0100D74AH   SYMBOL    CONST    ---       BS_DSI3_3_HV_ROUTING_VAL
      0100D7CAH   SYMBOL    CONST    ---       BS_DSISWITCH_1_4_VAL
      0100D84AH   SYMBOL    CONST    ---       BS_DSI3_4_HV_ROUTING_VAL
      0100D8CAH   SYMBOL    CONST    ---       BS_DSISWITCH_1_5_VAL
      0100D94AH   SYMBOL    CONST    ---       BS_DSI3_5_HV_ROUTING_VAL
      0100D9CAH   SYMBOL    CONST    ---       CH1_ADDR_DATA0
      0100D9D2H   SYMBOL    CONST    ---       CH2_ADDR_DATA0
      0100D9DAH   SYMBOL    CONST    ---       CH4_ADDR_DATA0
      0100D9E2H   SYMBOL    CONST    ---       CH5_ADDR_DATA0
      0100D9EAH   SYMBOL    CONST    ---       CH6_ADDR_DATA0
      0100D9F2H   SYMBOL    CONST    ---       DMA_TD_START_CMD
      02000D98H   SYMBOL    XDATA    DWORD     DMA_ZERO_VAL
      0100D9F7H   SYMBOL    CONST    ---       CFG_TD_LIST0
      ---         BLOCKEND  ---      ---       LVL=1
      0100AB52H   LINE      CODE     ---       #312
      0100AB52H   LINE      CODE     ---       #313
      0100AB52H   LINE      CODE     ---       #631
      0100AB5DH   LINE      CODE     ---       #632
      0100AB63H   LINE      CODE     ---       #633
      0100AB69H   LINE      CODE     ---       #634
      0100AB6EH   LINE      CODE     ---       #635
      0100AB7AH   LINE      CODE     ---       #636
      0100AB80H   LINE      CODE     ---       #637
      0100AB84H   LINE      CODE     ---       #638
      0100ABA6H   LINE      CODE     ---       #639
      0100ABB3H   LINE      CODE     ---       #640
      0100ABC0H   LINE      CODE     ---       #641
      0100ABCCH   LINE      CODE     ---       #642
      0100ABD2H   LINE      CODE     ---       #643
      0100ABD7H   LINE      CODE     ---       #644
      0100ABDDH   LINE      CODE     ---       #645
      0100ABE3H   LINE      CODE     ---       #646
      0100ABE9H   LINE      CODE     ---       #648
      0100ABE9H   LINE      CODE     ---       #649
      0100ABEFH   LINE      CODE     ---       #650
      0100ABEFH   LINE      CODE     ---       #653
      0100ABF7H   LINE      CODE     ---       #654
      0100ABFFH   LINE      CODE     ---       #655
      0100AC07H   LINE      CODE     ---       #656
      0100AC0FH   LINE      CODE     ---       #657
      0100AC17H   LINE      CODE     ---       #658
      0100AC1FH   LINE      CODE     ---       #661
      0100AC3AH   LINE      CODE     ---       #663
      ---         BLOCKEND  ---      ---       LVL=0

      01009E15H   BLOCK     CODE     ---       LVL=0
      01009E15H   BLOCK     CODE     NEAR LAB  LVL=1
      02000000H   SYMBOL    XDATA    DWORD     timeout
      02000004H   SYMBOL    XDATA    BYTE      pllLock
      ---         BLOCKEND  ---      ---       LVL=1
      01009E15H   LINE      CODE     ---       #681
      01009E15H   LINE      CODE     ---       #682
      01009E15H   LINE      CODE     ---       #688
      01009E22H   LINE      CODE     ---       #689
      01009E28H   LINE      CODE     ---       #690
      01009E34H   LINE      CODE     ---       #691
LX51 LINKER/LOCATER V4.64.0.0                                                         01/10/2017  17:59:18  PAGE 131


      01009E3AH   LINE      CODE     ---       #692
      01009E47H   LINE      CODE     ---       #693
      01009E4DH   LINE      CODE     ---       #694
      01009E5AH   LINE      CODE     ---       #695
      01009E60H   LINE      CODE     ---       #696
      01009E6DH   LINE      CODE     ---       #697
      01009E73H   LINE      CODE     ---       #698
      01009E80H   LINE      CODE     ---       #699
      01009E86H   LINE      CODE     ---       #700
      01009E93H   LINE      CODE     ---       #701
      01009E99H   LINE      CODE     ---       #704
      01009EB1H   LINE      CODE     ---       #707
      01009EB7H   LINE      CODE     ---       #710
      01009EBDH   LINE      CODE     ---       #711
      01009ECBH   LINE      CODE     ---       #714
      01009ED8H   LINE      CODE     ---       #715
      01009EE5H   LINE      CODE     ---       #717
      01009EEAH   LINE      CODE     ---       #718
      01009F0FH   LINE      CODE     ---       #719
      01009F0FH   LINE      CODE     ---       #720
      01009F20H   LINE      CODE     ---       #721
      01009F2AH   LINE      CODE     ---       #722
      01009F52H   LINE      CODE     ---       #724
      01009F60H   LINE      CODE     ---       #725
      01009F60H   LINE      CODE     ---       #726
      01009F65H   LINE      CODE     ---       #727
      01009F65H   LINE      CODE     ---       #730
      01009F72H   LINE      CODE     ---       #731
      01009F78H   LINE      CODE     ---       #732
      01009F7DH   LINE      CODE     ---       #733
      01009F83H   LINE      CODE     ---       #734
      01009F88H   LINE      CODE     ---       #737
      01009F8CH   LINE      CODE     ---       #738
      01009F92H   LINE      CODE     ---       #739
      01009F98H   LINE      CODE     ---       #741
      01009F9FH   LINE      CODE     ---       #742
      01009FA6H   LINE      CODE     ---       #743
      01009FADH   LINE      CODE     ---       #744
      ---         BLOCKEND  ---      ---       LVL=0

      0100C6F2H   BLOCK     CODE     ---       LVL=0
      0100C6F2H   BLOCK     CODE     NEAR LAB  LVL=1
      00000007H   SYMBOL    DATA     BYTE      bg_xover_inl_trim
      ---         BLOCKEND  ---      ---       LVL=1
      0100C6F2H   LINE      CODE     ---       #766
      0100C6F2H   LINE      CODE     ---       #767
      0100C6F2H   LINE      CODE     ---       #768
      0100C6FBH   LINE      CODE     ---       #769
      0100C702H   LINE      CODE     ---       #770
      0100C708H   LINE      CODE     ---       #771
      0100C70EH   LINE      CODE     ---       #772
      0100C714H   LINE      CODE     ---       #773
      0100C71AH   LINE      CODE     ---       #774
      0100C720H   LINE      CODE     ---       #775
      0100C726H   LINE      CODE     ---       #776
      0100C72CH   LINE      CODE     ---       #777
      ---         BLOCKEND  ---      ---       LVL=0
      00000007H   SYMBOL    DATA     BYTE      enabled
      00000006H   SYMBOL    DATA     BYTE      regValue

      0100C7D0H   BLOCK     CODE     ---       LVL=0
      00000007H   SYMBOL    DATA     BYTE      channel
      0100C7D0H   LINE      CODE     ---       #839
      0100C7D0H   LINE      CODE     ---       #840
      0100C7D0H   LINE      CODE     ---       #841
LX51 LINKER/LOCATER V4.64.0.0                                                         01/10/2017  17:59:18  PAGE 132


      0100C7D6H   LINE      CODE     ---       #842
      0100C7D6H   LINE      CODE     ---       #843
      0100C7FFH   LINE      CODE     ---       #844
      0100C7FFH   LINE      CODE     ---       #845
      ---         BLOCKEND  ---      ---       LVL=0

      0100C939H   BLOCK     CODE     ---       LVL=0
      00000007H   SYMBOL    DATA     BYTE      channel
      0100C939H   LINE      CODE     ---       #861
      0100C939H   LINE      CODE     ---       #862
      0100C939H   LINE      CODE     ---       #863
      0100C93FH   LINE      CODE     ---       #864
      0100C93FH   LINE      CODE     ---       #865
      0100C969H   LINE      CODE     ---       #866
      0100C969H   LINE      CODE     ---       #867
      ---         BLOCKEND  ---      ---       LVL=0

      0100A941H   BLOCK     CODE     ---       LVL=0
      0100A941H   BLOCK     CODE     NEAR LAB  LVL=1
      0100DCF5H   SYMBOL    CONST    ---       BS_IOPINS0_7_VAL
      0100DCFDH   SYMBOL    CONST    ---       BS_IOPINS0_8_VAL
      0100DD07H   SYMBOL    CONST    ---       BS_IOPINS0_1_VAL
      0100DD11H   SYMBOL    CONST    ---       BS_IOPINS0_2_VAL
      0100DD19H   SYMBOL    CONST    ---       BS_PHUB_CFGMEM10_VAL
      ---         BLOCKEND  ---      ---       LVL=1
      0100A941H   LINE      CODE     ---       #888
      0100A941H   LINE      CODE     ---       #889
      0100A941H   LINE      CODE     ---       #911
      0100A957H   LINE      CODE     ---       #913
      0100A957H   LINE      CODE     ---       #914
      0100A95AH   LINE      CODE     ---       #917
      0100A960H   LINE      CODE     ---       #918
      0100A971H   LINE      CODE     ---       #921
      0100A987H   LINE      CODE     ---       #922
      0100A99DH   LINE      CODE     ---       #925
      0100A9A4H   LINE      CODE     ---       #926
      0100A9ABH   LINE      CODE     ---       #927
      0100A9ABH   LINE      CODE     ---       #931
      0100A9C5H   LINE      CODE     ---       #932
      0100A9D6H   LINE      CODE     ---       #933
      0100A9E7H   LINE      CODE     ---       #934
      0100A9F8H   LINE      CODE     ---       #935
      0100AA09H   LINE      CODE     ---       #936
      0100AA0FH   LINE      CODE     ---       #938
      0100AA16H   LINE      CODE     ---       #939
      0100AA1FH   LINE      CODE     ---       #940
      0100AA1FH   LINE      CODE     ---       #941
      0100AA25H   LINE      CODE     ---       #942
      0100AA25H   LINE      CODE     ---       #946
      0100AA2BH   LINE      CODE     ---       #948
      0100AA2EH   LINE      CODE     ---       #951
      0100AA31H   LINE      CODE     ---       #954
      0100AA52H   LINE      CODE     ---       #955
      0100AA59H   LINE      CODE     ---       #956
      ---         BLOCKEND  ---      ---       LVL=0

      ---         MODULE    ---      ---       UART_RS485_INT
      0100B0F2H   PUBLIC    CODE     ---       UART_RS485_RXISR
      000000CAH   SFRSYM    DATA     BYTE      SFRPRT5SEL
      000000DAH   SFRSYM    DATA     BYTE      SFRPRT6SEL
      000000D0H.6 SFRSYM    DATA     BIT       AC
      000000A8H.7 SFRSYM    DATA     BIT       EA
      000000A8H   SFRSYM    DATA     BYTE      IE
      00000085H   SFRSYM    DATA     BYTE      DPH1
      00000084H   SFRSYM    DATA     BYTE      DPL1
LX51 LINKER/LOCATER V4.64.0.0                                                         01/10/2017  17:59:18  PAGE 133


      000000D0H.7 SFRSYM    DATA     BIT       CY
      000000A0H   SFRSYM    DATA     BYTE      P2AX
      00000095H   SFRSYM    DATA     BYTE      DPX1
      00000081H   SFRSYM    DATA     BYTE      SP
      000000D0H.2 SFRSYM    DATA     BIT       OV
      00000080H   SFRSYM    DATA     BYTE      SFRPRT0DR
      00000090H   SFRSYM    DATA     BYTE      SFRPRT1DR
      000000F2H   SFRSYM    DATA     BYTE      SFRPRT12SEL
      00000098H   SFRSYM    DATA     BYTE      SFRPRT2DR
      000000B0H   SFRSYM    DATA     BYTE      SFRPRT3DR
      000000C0H   SFRSYM    DATA     BYTE      SFRPRT4DR
      000000FAH   SFRSYM    DATA     BYTE      SFRPRT15SEL
      000000C8H   SFRSYM    DATA     BYTE      SFRPRT5DR
      000000D8H   SFRSYM    DATA     BYTE      SFRPRT6DR
      00000089H   SFRSYM    DATA     BYTE      SFRPRT0PS
      00000091H   SFRSYM    DATA     BYTE      SFRPRT1PS
      00000099H   SFRSYM    DATA     BYTE      SFRPRT2PS
      000000B1H   SFRSYM    DATA     BYTE      SFRPRT3PS
      000000C1H   SFRSYM    DATA     BYTE      SFRPRT4PS
      000000C9H   SFRSYM    DATA     BYTE      SFRPRT5PS
      000000D9H   SFRSYM    DATA     BYTE      SFRPRT6PS
      000000EAH   SFRSYM    DATA     BYTE      MXAX
      000000F0H   SFRSYM    DATA     BYTE      B
      000000E0H   SFRSYM    DATA     BYTE      ACC
      000000D0H   SFRSYM    DATA     BIT       P
      000000D0H.3 SFRSYM    DATA     BIT       RS0
      000000D0H.4 SFRSYM    DATA     BIT       RS1
      00000083H   SFRSYM    DATA     BYTE      DPH
      000000E8H   SFRSYM    DATA     BYTE      SFRPRT12DR
      00000082H   SFRSYM    DATA     BYTE      DPL
      000000F8H   SFRSYM    DATA     BYTE      SFRPRT15DR
      00000086H   SFRSYM    DATA     BYTE      DPS
      000000E9H   SFRSYM    DATA     BYTE      SFRPRT12PS
      00000093H   SFRSYM    DATA     BYTE      DPX
      000000F9H   SFRSYM    DATA     BYTE      SFRPRT15PS
      000000D0H.5 SFRSYM    DATA     BIT       F0
      000000D0H.1 SFRSYM    DATA     BIT       F1
      0000008AH   SFRSYM    DATA     BYTE      SFRPRT0SEL
      000000D0H   SFRSYM    DATA     BYTE      PSW
      000000A2H   SFRSYM    DATA     BYTE      SFRPRT1SEL
      0000009AH   SFRSYM    DATA     BYTE      SFRPRT2SEL
      000000B2H   SFRSYM    DATA     BYTE      SFRPRT3SEL
      000000C2H   SFRSYM    DATA     BYTE      SFRPRT4SEL

      0100B0F2H   BLOCK     CODE     ---       LVL=0
      0100B115H   BLOCK     CODE     NEAR LAB  LVL=1
      00000006H   SYMBOL    DATA     BYTE      readData
      00000007H   SYMBOL    DATA     BYTE      readStatus
      00000003H   SYMBOL    DATA     BYTE      increment_pointer
      00000002H   SYMBOL    DATA     BYTE      int_en
      ---         BLOCKEND  ---      ---       LVL=1
      0100B0F2H   LINE      CODE     ---       #59
      0100B115H   LINE      CODE     ---       #63
      0100B117H   LINE      CODE     ---       #79
      0100B11BH   LINE      CODE     ---       #80
      0100B123H   LINE      CODE     ---       #84
      0100B123H   LINE      CODE     ---       #86
      0100B128H   LINE      CODE     ---       #90
      0100B129H   LINE      CODE     ---       #95
      0100B12EH   LINE      CODE     ---       #96
      0100B12EH   LINE      CODE     ---       #101
      0100B134H   LINE      CODE     ---       #109
      0100B134H   LINE      CODE     ---       #111
      0100B138H   LINE      CODE     ---       #112
      0100B138H   LINE      CODE     ---       #114
LX51 LINKER/LOCATER V4.64.0.0                                                         01/10/2017  17:59:18  PAGE 134


      0100B13DH   LINE      CODE     ---       #141
      0100B14CH   LINE      CODE     ---       #142
      0100B14EH   LINE      CODE     ---       #146
      0100B151H   LINE      CODE     ---       #147
      0100B151H   LINE      CODE     ---       #148
      0100B157H   LINE      CODE     ---       #149
      0100B157H   LINE      CODE     ---       #150
      0100B15DH   LINE      CODE     ---       #151
      0100B15DH   LINE      CODE     ---       #153
      0100B163H   LINE      CODE     ---       #156
      0100B169H   LINE      CODE     ---       #157
      0100B169H   LINE      CODE     ---       #158
      0100B16BH   LINE      CODE     ---       #159
      0100B16BH   LINE      CODE     ---       #162
      0100B177H   LINE      CODE     ---       #163
      0100B177H   LINE      CODE     ---       #164
      0100B17DH   LINE      CODE     ---       #172
      0100B17DH   LINE      CODE     ---       #173
      0100B17DH   LINE      CODE     ---       #174
      0100B17DH   LINE      CODE     ---       #175
      0100B181H   LINE      CODE     ---       #187
      0100B188H   LINE      CODE     ---       #189
      ---         BLOCKEND  ---      ---       LVL=0

      ---         MODULE    ---      ---       ADC_INT
      0100D149H   PUBLIC    CODE     ---       ADC_ISR4
      0100D148H   PUBLIC    CODE     ---       ADC_ISR3
      0100D147H   PUBLIC    CODE     ---       ADC_ISR2
      0100D146H   PUBLIC    CODE     ---       ADC_ISR1
      000000CAH   SFRSYM    DATA     BYTE      SFRPRT5SEL
      000000DAH   SFRSYM    DATA     BYTE      SFRPRT6SEL
      000000D0H.6 SFRSYM    DATA     BIT       AC
      000000A8H.7 SFRSYM    DATA     BIT       EA
      000000A8H   SFRSYM    DATA     BYTE      IE
      00000085H   SFRSYM    DATA     BYTE      DPH1
      00000084H   SFRSYM    DATA     BYTE      DPL1
      000000D0H.7 SFRSYM    DATA     BIT       CY
      000000A0H   SFRSYM    DATA     BYTE      P2AX
      00000095H   SFRSYM    DATA     BYTE      DPX1
      00000081H   SFRSYM    DATA     BYTE      SP
      000000D0H.2 SFRSYM    DATA     BIT       OV
      00000080H   SFRSYM    DATA     BYTE      SFRPRT0DR
      00000090H   SFRSYM    DATA     BYTE      SFRPRT1DR
      000000F2H   SFRSYM    DATA     BYTE      SFRPRT12SEL
      00000098H   SFRSYM    DATA     BYTE      SFRPRT2DR
      000000B0H   SFRSYM    DATA     BYTE      SFRPRT3DR
      000000C0H   SFRSYM    DATA     BYTE      SFRPRT4DR
      000000FAH   SFRSYM    DATA     BYTE      SFRPRT15SEL
      000000C8H   SFRSYM    DATA     BYTE      SFRPRT5DR
      000000D8H   SFRSYM    DATA     BYTE      SFRPRT6DR
      00000089H   SFRSYM    DATA     BYTE      SFRPRT0PS
      00000091H   SFRSYM    DATA     BYTE      SFRPRT1PS
      00000099H   SFRSYM    DATA     BYTE      SFRPRT2PS
      000000B1H   SFRSYM    DATA     BYTE      SFRPRT3PS
      000000C1H   SFRSYM    DATA     BYTE      SFRPRT4PS
      000000C9H   SFRSYM    DATA     BYTE      SFRPRT5PS
      000000D9H   SFRSYM    DATA     BYTE      SFRPRT6PS
      000000EAH   SFRSYM    DATA     BYTE      MXAX
      000000F0H   SFRSYM    DATA     BYTE      B
      000000E0H   SFRSYM    DATA     BYTE      ACC
      000000D0H   SFRSYM    DATA     BIT       P
      000000D0H.3 SFRSYM    DATA     BIT       RS0
      000000D0H.4 SFRSYM    DATA     BIT       RS1
      00000083H   SFRSYM    DATA     BYTE      DPH
      000000E8H   SFRSYM    DATA     BYTE      SFRPRT12DR
LX51 LINKER/LOCATER V4.64.0.0                                                         01/10/2017  17:59:18  PAGE 135


      00000082H   SFRSYM    DATA     BYTE      DPL
      000000F8H   SFRSYM    DATA     BYTE      SFRPRT15DR
      00000086H   SFRSYM    DATA     BYTE      DPS
      000000E9H   SFRSYM    DATA     BYTE      SFRPRT12PS
      00000093H   SFRSYM    DATA     BYTE      DPX
      000000F9H   SFRSYM    DATA     BYTE      SFRPRT15PS
      000000D0H.5 SFRSYM    DATA     BIT       F0
      000000D0H.1 SFRSYM    DATA     BIT       F1
      0000008AH   SFRSYM    DATA     BYTE      SFRPRT0SEL
      000000D0H   SFRSYM    DATA     BYTE      PSW
      000000A2H   SFRSYM    DATA     BYTE      SFRPRT1SEL
      0000009AH   SFRSYM    DATA     BYTE      SFRPRT2SEL
      000000B2H   SFRSYM    DATA     BYTE      SFRPRT3SEL
      000000C2H   SFRSYM    DATA     BYTE      SFRPRT4SEL

      0100D146H   BLOCK     CODE     ---       LVL=0
      0100D146H   LINE      CODE     ---       #51
      0100D146H   LINE      CODE     ---       #81
      ---         BLOCKEND  ---      ---       LVL=0

      0100D147H   BLOCK     CODE     ---       LVL=0
      0100D147H   LINE      CODE     ---       #101
      0100D147H   LINE      CODE     ---       #131
      ---         BLOCKEND  ---      ---       LVL=0

      0100D148H   BLOCK     CODE     ---       LVL=0
      0100D148H   LINE      CODE     ---       #151
      0100D148H   LINE      CODE     ---       #181
      ---         BLOCKEND  ---      ---       LVL=0

      0100D149H   BLOCK     CODE     ---       LVL=0
      0100D149H   LINE      CODE     ---       #201
      0100D149H   LINE      CODE     ---       #231
      ---         BLOCKEND  ---      ---       LVL=0

      ---         MODULE    ---      ---       ADC_AMUX
      0100CC49H   PUBLIC    CODE     ---       _ADC_AMux_Select
      0100CB24H   PUBLIC    CODE     ---       ADC_AMux_Start
      02000DA8H   SYMBOL    XDATA    BYTE      ADC_AMux_lastChannel

      0100CB24H   BLOCK     CODE     ---       LVL=0
      0100CB24H   BLOCK     CODE     NEAR LAB  LVL=1
      02000003H   SYMBOL    XDATA    BYTE      chan
      ---         BLOCKEND  ---      ---       LVL=1
      0100CB24H   LINE      CODE     ---       #36
      0100CB24H   LINE      CODE     ---       #37
      0100CB24H   LINE      CODE     ---       #40
      0100CB33H   LINE      CODE     ---       #41
      0100CB33H   LINE      CODE     ---       #43
      0100CB36H   LINE      CODE     ---       #48
      0100CB3EH   LINE      CODE     ---       #50
      0100CB44H   LINE      CODE     ---       #51
      ---         BLOCKEND  ---      ---       LVL=0

      0100CC49H   BLOCK     CODE     ---       LVL=0
      02000002H   SYMBOL    XDATA    BYTE      channel
      0100CC49H   LINE      CODE     ---       #69
      0100CC4EH   LINE      CODE     ---       #70
      0100CC4EH   LINE      CODE     ---       #71
      0100CC51H   LINE      CODE     ---       #72
      0100CC59H   LINE      CODE     ---       #73
      0100CC61H   LINE      CODE     ---       #74
      ---         BLOCKEND  ---      ---       LVL=0

      ---         MODULE    ---      ---       ADC_EXT_CP_CLK
LX51 LINKER/LOCATER V4.64.0.0                                                         01/10/2017  17:59:18  PAGE 136


      0100D039H   PUBLIC    CODE     ---       ADC_Ext_CP_Clk_GetSourceRegister
      0100CF26H   PUBLIC    CODE     ---       _ADC_Ext_CP_Clk_SetModeRegister
      0100CFF5H   PUBLIC    CODE     ---       ADC_Ext_CP_Clk_GetDividerRegister
      0100A114H   PUBLIC    CODE     ---       _ADC_Ext_CP_Clk_SetDividerRegister
      00000007H   SYMBOL    DATA     BYTE      state

      0100A114H   BLOCK     CODE     ---       LVL=0
      02000002H   SYMBOL    XDATA    WORD      clkDivider
      02000004H   SYMBOL    XDATA    BYTE      restart
      0100A11FH   BLOCK     CODE     NEAR LAB  LVL=1
      02000005H   SYMBOL    XDATA    BYTE      enabled
      02000006H   SYMBOL    XDATA    BYTE      currSrc
      02000007H   SYMBOL    XDATA    WORD      oldDivider
      ---         BLOCKEND  ---      ---       LVL=1
      0100A114H   LINE      CODE     ---       #193
      0100A11FH   LINE      CODE     ---       #195
      0100A11FH   LINE      CODE     ---       #198
      0100A127H   LINE      CODE     ---       #199
      0100A132H   LINE      CODE     ---       #201
      0100A144H   LINE      CODE     ---       #202
      0100A144H   LINE      CODE     ---       #203
      0100A14EH   LINE      CODE     ---       #205
      0100A15FH   LINE      CODE     ---       #206
      0100A15FH   LINE      CODE     ---       #208
      0100A163H   LINE      CODE     ---       #209
      0100A163H   LINE      CODE     ---       #213
      0100A16CH   LINE      CODE     ---       #214
      0100A173H   LINE      CODE     ---       #215
      0100A174H   LINE      CODE     ---       #217
      0100A174H   LINE      CODE     ---       #220
      0100A17BH   LINE      CODE     ---       #221
      0100A18CH   LINE      CODE     ---       #222
      0100A18CH   LINE      CODE     ---       #223
      0100A18DH   LINE      CODE     ---       #225
      0100A18DH   LINE      CODE     ---       #227
      0100A193H   LINE      CODE     ---       #228
      0100A193H   LINE      CODE     ---       #229
      0100A198H   LINE      CODE     ---       #236
      0100A19EH   LINE      CODE     ---       #237
      0100A1A3H   LINE      CODE     ---       #240
      0100A1AAH   LINE      CODE     ---       #243
      0100A1BCH   LINE      CODE     ---       #244
      0100A1BCH   LINE      CODE     ---       #246
      0100A1CDH   LINE      CODE     ---       #247
      0100A1D3H   LINE      CODE     ---       #250
      0100A1DBH   LINE      CODE     ---       #253
      0100A1E2H   LINE      CODE     ---       #257
      0100A1E7H   LINE      CODE     ---       #259
      0100A1E7H   LINE      CODE     ---       #260
      0100A1E7H   LINE      CODE     ---       #263
      0100A1EFH   LINE      CODE     ---       #264
      0100A1EFH   LINE      CODE     ---       #266
      0100A200H   LINE      CODE     ---       #268
      0100A213H   LINE      CODE     ---       #269
      0100A21DH   LINE      CODE     ---       #270
      0100A21EH   LINE      CODE     ---       #272
      0100A21EH   LINE      CODE     ---       #274
      0100A22FH   LINE      CODE     ---       #275
      0100A244H   LINE      CODE     ---       #276
      0100A244H   LINE      CODE     ---       #277
      0100A244H   LINE      CODE     ---       #278
      0100A244H   LINE      CODE     ---       #279
      ---         BLOCKEND  ---      ---       LVL=0

      0100CFF5H   BLOCK     CODE     ---       LVL=0
LX51 LINKER/LOCATER V4.64.0.0                                                         01/10/2017  17:59:18  PAGE 137


      0100CFF5H   LINE      CODE     ---       #297
      0100CFF5H   LINE      CODE     ---       #298
      0100CFF5H   LINE      CODE     ---       #299
      0100CFFEH   LINE      CODE     ---       #300
      ---         BLOCKEND  ---      ---       LVL=0

      0100CF26H   BLOCK     CODE     ---       LVL=0
      00000007H   SYMBOL    DATA     BYTE      modeBitMask
      0100CF26H   LINE      CODE     ---       #332
      0100CF26H   LINE      CODE     ---       #333
      0100CF26H   LINE      CODE     ---       #334
      0100CF32H   LINE      CODE     ---       #335
      ---         BLOCKEND  ---      ---       LVL=0
      00000007H   SYMBOL    DATA     BYTE      modeBitMask
      00000007H   SYMBOL    DATA     BYTE      oldSrc

      0100D039H   BLOCK     CODE     ---       LVL=0
      0100D039H   LINE      CODE     ---       #464
      0100D039H   LINE      CODE     ---       #465
      0100D039H   LINE      CODE     ---       #466
      0100D040H   LINE      CODE     ---       #467
      ---         BLOCKEND  ---      ---       LVL=0

      ---         MODULE    ---      ---       ADC_THEACLK
      0100D041H   PUBLIC    CODE     ---       ADC_theACLK_GetSourceRegister
      0100CF33H   PUBLIC    CODE     ---       _ADC_theACLK_SetModeRegister
      0100CFFFH   PUBLIC    CODE     ---       ADC_theACLK_GetDividerRegister
      0100A4A5H   PUBLIC    CODE     ---       _ADC_theACLK_SetDividerRegister
      00000007H   SYMBOL    DATA     BYTE      state

      0100A4A5H   BLOCK     CODE     ---       LVL=0
      02000002H   SYMBOL    XDATA    WORD      clkDivider
      02000004H   SYMBOL    XDATA    BYTE      restart
      0100A4B0H   BLOCK     CODE     NEAR LAB  LVL=1
      02000005H   SYMBOL    XDATA    BYTE      enabled
      02000006H   SYMBOL    XDATA    BYTE      currSrc
      02000007H   SYMBOL    XDATA    WORD      oldDivider
      ---         BLOCKEND  ---      ---       LVL=1
      0100A4A5H   LINE      CODE     ---       #193
      0100A4B0H   LINE      CODE     ---       #195
      0100A4B0H   LINE      CODE     ---       #198
      0100A4B8H   LINE      CODE     ---       #199
      0100A4C3H   LINE      CODE     ---       #201
      0100A4D5H   LINE      CODE     ---       #202
      0100A4D5H   LINE      CODE     ---       #203
      0100A4DFH   LINE      CODE     ---       #205
      0100A4F0H   LINE      CODE     ---       #206
      0100A4F0H   LINE      CODE     ---       #208
      0100A4F4H   LINE      CODE     ---       #209
      0100A4F4H   LINE      CODE     ---       #213
      0100A4FCH   LINE      CODE     ---       #214
      0100A503H   LINE      CODE     ---       #215
      0100A504H   LINE      CODE     ---       #217
      0100A504H   LINE      CODE     ---       #220
      0100A50BH   LINE      CODE     ---       #221
      0100A51CH   LINE      CODE     ---       #222
      0100A51CH   LINE      CODE     ---       #223
      0100A51DH   LINE      CODE     ---       #225
      0100A51DH   LINE      CODE     ---       #227
      0100A523H   LINE      CODE     ---       #228
      0100A523H   LINE      CODE     ---       #229
      0100A528H   LINE      CODE     ---       #233
      0100A52DH   LINE      CODE     ---       #234
      0100A532H   LINE      CODE     ---       #240
      0100A539H   LINE      CODE     ---       #243
LX51 LINKER/LOCATER V4.64.0.0                                                         01/10/2017  17:59:18  PAGE 138


      0100A54BH   LINE      CODE     ---       #244
      0100A54BH   LINE      CODE     ---       #246
      0100A55CH   LINE      CODE     ---       #247
      0100A562H   LINE      CODE     ---       #250
      0100A56AH   LINE      CODE     ---       #253
      0100A571H   LINE      CODE     ---       #257
      0100A576H   LINE      CODE     ---       #259
      0100A576H   LINE      CODE     ---       #260
      0100A576H   LINE      CODE     ---       #263
      0100A57EH   LINE      CODE     ---       #264
      0100A57EH   LINE      CODE     ---       #266
      0100A58FH   LINE      CODE     ---       #268
      0100A5A2H   LINE      CODE     ---       #269
      0100A5ACH   LINE      CODE     ---       #270
      0100A5ADH   LINE      CODE     ---       #272
      0100A5ADH   LINE      CODE     ---       #274
      0100A5BEH   LINE      CODE     ---       #275
      0100A5D3H   LINE      CODE     ---       #276
      0100A5D3H   LINE      CODE     ---       #277
      0100A5D3H   LINE      CODE     ---       #278
      0100A5D3H   LINE      CODE     ---       #279
      ---         BLOCKEND  ---      ---       LVL=0

      0100CFFFH   BLOCK     CODE     ---       LVL=0
      0100CFFFH   LINE      CODE     ---       #297
      0100CFFFH   LINE      CODE     ---       #298
      0100CFFFH   LINE      CODE     ---       #299
      0100D008H   LINE      CODE     ---       #300
      ---         BLOCKEND  ---      ---       LVL=0

      0100CF33H   BLOCK     CODE     ---       LVL=0
      00000007H   SYMBOL    DATA     BYTE      modeBitMask
      0100CF33H   LINE      CODE     ---       #332
      0100CF33H   LINE      CODE     ---       #333
      0100CF33H   LINE      CODE     ---       #334
      0100CF3FH   LINE      CODE     ---       #335
      ---         BLOCKEND  ---      ---       LVL=0
      00000007H   SYMBOL    DATA     BYTE      modeBitMask
      00000007H   SYMBOL    DATA     BYTE      oldSrc

      0100D041H   BLOCK     CODE     ---       LVL=0
      0100D041H   LINE      CODE     ---       #464
      0100D041H   LINE      CODE     ---       #465
      0100D041H   LINE      CODE     ---       #466
      0100D048H   LINE      CODE     ---       #467
      ---         BLOCKEND  ---      ---       LVL=0
      00000007H   SYMBOL    DATA     BYTE      clkPhase

      ---         MODULE    ---      ---       CYBOOTASMKEIL
      0100CCD3H   PUBLIC    CODE     NEAR LAB  CyEnterCriticalSection
      0100C800H   PUBLIC    CODE     NEAR LAB  _CyDelayCycles
      0100C9C8H   PUBLIC    CODE     NEAR LAB  _CyDelayUs
      0100CC7AH   PUBLIC    CODE     NEAR LAB  _CyExitCriticalSection

      ---         MODULE    ---      ---       CYMEM
      02000005H   PUBLIC    XDATA    BYTE      ?_cyconfigcpy?BYTE
      0100C86FH   PUBLIC    CODE     NEAR LAB  _cyconfigcpy
      0100CA99H   PUBLIC    CODE     NEAR LAB  _cyconfigcpycode
      0100CE71H   PUBLIC    CODE     NEAR LAB  _cyread16
      0100CE73H   PUBLIC    CODE     NEAR LAB  _cyread16_nodpx
      0100CDF8H   PUBLIC    CODE     NEAR LAB  _cyread24
      0100CDFAH   PUBLIC    CODE     NEAR LAB  _cyread24_nodpx
      0100CF40H   PUBLIC    CODE     NEAR LAB  _cyread8
      0100CF42H   PUBLIC    CODE     NEAR LAB  _cyread8_nodpx
      0100CE80H   PUBLIC    CODE     NEAR LAB  _cywrite16
LX51 LINKER/LOCATER V4.64.0.0                                                         01/10/2017  17:59:18  PAGE 139


      0100CE82H   PUBLIC    CODE     NEAR LAB  _cywrite16_nodpx
      0100CE1DH   PUBLIC    CODE     NEAR LAB  _cywrite24
      0100CE1FH   PUBLIC    CODE     NEAR LAB  _cywrite24_nodpx
      0100CF4CH   PUBLIC    CODE     NEAR LAB  _cywrite8
      0100CF4EH   PUBLIC    CODE     NEAR LAB  _cywrite8_nodpx

      ---         MODULE    ---      ---       CYPM
      000000CAH   SFRSYM    DATA     BYTE      SFRPRT5SEL
      000000DAH   SFRSYM    DATA     BYTE      SFRPRT6SEL
      000000D0H.6 SFRSYM    DATA     BIT       AC
      000000A8H.7 SFRSYM    DATA     BIT       EA
      000000A8H   SFRSYM    DATA     BYTE      IE
      00000085H   SFRSYM    DATA     BYTE      DPH1
      00000084H   SFRSYM    DATA     BYTE      DPL1
      000000D0H.7 SFRSYM    DATA     BIT       CY
      000000A0H   SFRSYM    DATA     BYTE      P2AX
      00000095H   SFRSYM    DATA     BYTE      DPX1
      00000081H   SFRSYM    DATA     BYTE      SP
      000000D0H.2 SFRSYM    DATA     BIT       OV
      00000080H   SFRSYM    DATA     BYTE      SFRPRT0DR
      00000090H   SFRSYM    DATA     BYTE      SFRPRT1DR
      000000F2H   SFRSYM    DATA     BYTE      SFRPRT12SEL
      00000098H   SFRSYM    DATA     BYTE      SFRPRT2DR
      000000B0H   SFRSYM    DATA     BYTE      SFRPRT3DR
      000000C0H   SFRSYM    DATA     BYTE      SFRPRT4DR
      000000FAH   SFRSYM    DATA     BYTE      SFRPRT15SEL
      000000C8H   SFRSYM    DATA     BYTE      SFRPRT5DR
      000000D8H   SFRSYM    DATA     BYTE      SFRPRT6DR
      00000089H   SFRSYM    DATA     BYTE      SFRPRT0PS
      00000091H   SFRSYM    DATA     BYTE      SFRPRT1PS
      00000099H   SFRSYM    DATA     BYTE      SFRPRT2PS
      000000B1H   SFRSYM    DATA     BYTE      SFRPRT3PS
      000000C1H   SFRSYM    DATA     BYTE      SFRPRT4PS
      000000C9H   SFRSYM    DATA     BYTE      SFRPRT5PS
      000000D9H   SFRSYM    DATA     BYTE      SFRPRT6PS
      000000EAH   SFRSYM    DATA     BYTE      MXAX
      000000F0H   SFRSYM    DATA     BYTE      B
      000000E0H   SFRSYM    DATA     BYTE      ACC
      000000D0H   SFRSYM    DATA     BIT       P
      000000D0H.3 SFRSYM    DATA     BIT       RS0
      000000D0H.4 SFRSYM    DATA     BIT       RS1
      00000083H   SFRSYM    DATA     BYTE      DPH
      000000E8H   SFRSYM    DATA     BYTE      SFRPRT12DR
      00000082H   SFRSYM    DATA     BYTE      DPL
      000000F8H   SFRSYM    DATA     BYTE      SFRPRT15DR
      00000086H   SFRSYM    DATA     BYTE      DPS
      000000E9H   SFRSYM    DATA     BYTE      SFRPRT12PS
      00000093H   SFRSYM    DATA     BYTE      DPX
      000000F9H   SFRSYM    DATA     BYTE      SFRPRT15PS
      000000D0H.5 SFRSYM    DATA     BIT       F0
      000000D0H.1 SFRSYM    DATA     BIT       F1
      0000008AH   SFRSYM    DATA     BYTE      SFRPRT0SEL
      000000D0H   SFRSYM    DATA     BYTE      PSW
      000000A2H   SFRSYM    DATA     BYTE      SFRPRT1SEL
      0000009AH   SFRSYM    DATA     BYTE      SFRPRT2SEL
      000000B2H   SFRSYM    DATA     BYTE      SFRPRT3SEL
      000000C2H   SFRSYM    DATA     BYTE      SFRPRT4SEL
      02000D05H   SYMBOL    XDATA    ---       cyPmClockBackup
      02000D15H   SYMBOL    XDATA    ---       cyPmBackup
      00000006H   SYMBOL    DATA     WORD      clkBusDivTmp
      02000D04H   SYMBOL    XDATA    BYTE      interruptStatus
      00000005H   SYMBOL    DATA     BYTE      interruptState

      ---         MODULE    ---      ---       CYSPC
      02000DA9H   PUBLIC    XDATA    BYTE      SpcLockState
LX51 LINKER/LOCATER V4.64.0.0                                                         01/10/2017  17:59:18  PAGE 140


      0100CBFCH   PUBLIC    CODE     ---       CySpcGetAlgorithm
      0100CF58H   PUBLIC    CODE     ---       CySpcUnlock
      0100CBA3H   PUBLIC    CODE     ---       CySpcLock
      0100C999H   PUBLIC    CODE     ---       _CySpcGetTemp
      0200001EH   PUBLIC    XDATA    BYTE      ?_CySpcWriteRow?BYTE
      0100C293H   PUBLIC    CODE     ---       _CySpcWriteRow
      0200001EH   PUBLIC    XDATA    BYTE      ?_CySpcLoadRow?BYTE
      0100BF18H   PUBLIC    CODE     ---       _CySpcLoadRow
      0100C12EH   PUBLIC    CODE     ---       _CySpcReadData
      0100CCE8H   PUBLIC    CODE     ---       CySpcStart
      000000CAH   SFRSYM    DATA     BYTE      SFRPRT5SEL
      000000DAH   SFRSYM    DATA     BYTE      SFRPRT6SEL
      000000D0H.6 SFRSYM    DATA     BIT       AC
      000000A8H.7 SFRSYM    DATA     BIT       EA
      000000A8H   SFRSYM    DATA     BYTE      IE
      00000085H   SFRSYM    DATA     BYTE      DPH1
      00000084H   SFRSYM    DATA     BYTE      DPL1
      000000D0H.7 SFRSYM    DATA     BIT       CY
      000000A0H   SFRSYM    DATA     BYTE      P2AX
      00000095H   SFRSYM    DATA     BYTE      DPX1
      00000081H   SFRSYM    DATA     BYTE      SP
      000000D0H.2 SFRSYM    DATA     BIT       OV
      00000080H   SFRSYM    DATA     BYTE      SFRPRT0DR
      00000090H   SFRSYM    DATA     BYTE      SFRPRT1DR
      000000F2H   SFRSYM    DATA     BYTE      SFRPRT12SEL
      00000098H   SFRSYM    DATA     BYTE      SFRPRT2DR
      000000B0H   SFRSYM    DATA     BYTE      SFRPRT3DR
      000000C0H   SFRSYM    DATA     BYTE      SFRPRT4DR
      000000FAH   SFRSYM    DATA     BYTE      SFRPRT15SEL
      000000C8H   SFRSYM    DATA     BYTE      SFRPRT5DR
      000000D8H   SFRSYM    DATA     BYTE      SFRPRT6DR
      00000089H   SFRSYM    DATA     BYTE      SFRPRT0PS
      00000091H   SFRSYM    DATA     BYTE      SFRPRT1PS
      00000099H   SFRSYM    DATA     BYTE      SFRPRT2PS
      000000B1H   SFRSYM    DATA     BYTE      SFRPRT3PS
      000000C1H   SFRSYM    DATA     BYTE      SFRPRT4PS
      000000C9H   SFRSYM    DATA     BYTE      SFRPRT5PS
      000000D9H   SFRSYM    DATA     BYTE      SFRPRT6PS
      000000EAH   SFRSYM    DATA     BYTE      MXAX
      000000F0H   SFRSYM    DATA     BYTE      B
      000000E0H   SFRSYM    DATA     BYTE      ACC
      000000D0H   SFRSYM    DATA     BIT       P
      000000D0H.3 SFRSYM    DATA     BIT       RS0
      000000D0H.4 SFRSYM    DATA     BIT       RS1
      00000083H   SFRSYM    DATA     BYTE      DPH
      000000E8H   SFRSYM    DATA     BYTE      SFRPRT12DR
      00000082H   SFRSYM    DATA     BYTE      DPL
      000000F8H   SFRSYM    DATA     BYTE      SFRPRT15DR
      00000086H   SFRSYM    DATA     BYTE      DPS
      000000E9H   SFRSYM    DATA     BYTE      SFRPRT12PS
      00000093H   SFRSYM    DATA     BYTE      DPX
      000000F9H   SFRSYM    DATA     BYTE      SFRPRT15PS
      000000D0H.5 SFRSYM    DATA     BIT       F0
      000000D0H.1 SFRSYM    DATA     BIT       F1
      0000008AH   SFRSYM    DATA     BYTE      SFRPRT0SEL
      000000D0H   SFRSYM    DATA     BYTE      PSW
      000000A2H   SFRSYM    DATA     BYTE      SFRPRT1SEL
      0000009AH   SFRSYM    DATA     BYTE      SFRPRT2SEL
      000000B2H   SFRSYM    DATA     BYTE      SFRPRT3SEL
      000000C2H   SFRSYM    DATA     BYTE      SFRPRT4SEL

      0100CCE8H   BLOCK     CODE     ---       LVL=0
      0100CCE8H   BLOCK     CODE     NEAR LAB  LVL=1
      00000007H   SYMBOL    DATA     BYTE      interruptState
      ---         BLOCKEND  ---      ---       LVL=1
LX51 LINKER/LOCATER V4.64.0.0                                                         01/10/2017  17:59:18  PAGE 141


      0100CCE8H   LINE      CODE     ---       #78
      0100CCE8H   LINE      CODE     ---       #79
      0100CCE8H   LINE      CODE     ---       #81
      0100CCEBH   LINE      CODE     ---       #83
      0100CCF2H   LINE      CODE     ---       #84
      0100CCF9H   LINE      CODE     ---       #87
      0100CCFCH   LINE      CODE     ---       #88
      ---         BLOCKEND  ---      ---       LVL=0
      00000007H   SYMBOL    DATA     BYTE      interruptState

      0100C12EH   BLOCK     CODE     ---       LVL=0
      0200001BH   SYMBOL    XDATA    ---       buffer
      0200001EH   SYMBOL    XDATA    BYTE      size
      0100C13CH   BLOCK     CODE     NEAR LAB  LVL=1
      0200001FH   SYMBOL    XDATA    BYTE      i
      ---         BLOCKEND  ---      ---       LVL=1
      0100C12EH   LINE      CODE     ---       #135
      0100C13CH   LINE      CODE     ---       #136
      0100C13CH   LINE      CODE     ---       #139
      0100C14AH   LINE      CODE     ---       #140
      0100C14AH   LINE      CODE     ---       #141
      0100C158H   LINE      CODE     ---       #142
      0100C158H   LINE      CODE     ---       #143
      0100C15FH   LINE      CODE     ---       #144
      0100C161H   LINE      CODE     ---       #145
      0100C180H   LINE      CODE     ---       #146
      0100C188H   LINE      CODE     ---       #148
      0100C18DH   LINE      CODE     ---       #149
      ---         BLOCKEND  ---      ---       LVL=0
      00000005H   SYMBOL    DATA     BYTE      status
      00000007H   SYMBOL    DATA     BYTE      i

      0100BF18H   BLOCK     CODE     ---       LVL=0
      00000007H   SYMBOL    DATA     BYTE      array
      0200001FH   SYMBOL    XDATA    ---       buffer
      02000022H   SYMBOL    XDATA    WORD      size
      0100BF23H   BLOCK     CODE     NEAR LAB  LVL=1
      02000024H   SYMBOL    XDATA    BYTE      status
      00000006H   SYMBOL    DATA     WORD      i
      ---         BLOCKEND  ---      ---       LVL=1
      0100BF18H   LINE      CODE     ---       #258
      0100BF23H   LINE      CODE     ---       #259
      0100BF23H   LINE      CODE     ---       #260
      0100BF29H   LINE      CODE     ---       #264
      0100BF31H   LINE      CODE     ---       #265
      0100BF31H   LINE      CODE     ---       #266
      0100BF37H   LINE      CODE     ---       #267
      0100BF3AH   LINE      CODE     ---       #268
      0100BF3DH   LINE      CODE     ---       #271
      0100BF45H   LINE      CODE     ---       #272
      0100BF45H   LINE      CODE     ---       #273
      0100BF4AH   LINE      CODE     ---       #275
      0100BF5AH   LINE      CODE     ---       #276
      0100BF5AH   LINE      CODE     ---       #277
      0100BF70H   LINE      CODE     ---       #278
      0100BF77H   LINE      CODE     ---       #279
      0100BF77H   LINE      CODE     ---       #281
      0100BF77H   LINE      CODE     ---       #282
      0100BF7DH   LINE      CODE     ---       #283
      0100BF7DH   LINE      CODE     ---       #284
      0100BF7FH   LINE      CODE     ---       #286
      0100BF7FH   LINE      CODE     ---       #287
      0100BF85H   LINE      CODE     ---       #288
      0100BF85H   LINE      CODE     ---       #290
      0100BF8AH   LINE      CODE     ---       #291
LX51 LINKER/LOCATER V4.64.0.0                                                         01/10/2017  17:59:18  PAGE 142


      ---         BLOCKEND  ---      ---       LVL=0

      0100C293H   BLOCK     CODE     ---       LVL=0
      00000004H   SYMBOL    DATA     BYTE      array
      0200001FH   SYMBOL    XDATA    WORD      address
      00000003H   SYMBOL    DATA     BYTE      tempPolarity
      02000022H   SYMBOL    XDATA    BYTE      tempMagnitude
      0100C29DH   BLOCK     CODE     NEAR LAB  LVL=1
      00000005H   SYMBOL    DATA     BYTE      status
      ---         BLOCKEND  ---      ---       LVL=1
      0100C293H   LINE      CODE     ---       #464
      0100C29DH   LINE      CODE     ---       #466
      0100C29DH   LINE      CODE     ---       #467
      0100C29FH   LINE      CODE     ---       #470
      0100C2A7H   LINE      CODE     ---       #471
      0100C2A7H   LINE      CODE     ---       #472
      0100C2ADH   LINE      CODE     ---       #473
      0100C2B0H   LINE      CODE     ---       #474
      0100C2B3H   LINE      CODE     ---       #477
      0100C2BBH   LINE      CODE     ---       #478
      0100C2BBH   LINE      CODE     ---       #479
      0100C2C0H   LINE      CODE     ---       #480
      0100C2C8H   LINE      CODE     ---       #481
      0100C2D2H   LINE      CODE     ---       #482
      0100C2D4H   LINE      CODE     ---       #483
      0100C2DCH   LINE      CODE     ---       #484
      0100C2DEH   LINE      CODE     ---       #486
      0100C2DEH   LINE      CODE     ---       #487
      0100C2E0H   LINE      CODE     ---       #488
      0100C2E0H   LINE      CODE     ---       #489
      0100C2E2H   LINE      CODE     ---       #491
      0100C2E2H   LINE      CODE     ---       #492
      0100C2E4H   LINE      CODE     ---       #493
      0100C2E4H   LINE      CODE     ---       #495
      0100C2E6H   LINE      CODE     ---       #496
      ---         BLOCKEND  ---      ---       LVL=0
      00000007H   SYMBOL    DATA     BYTE      array
      00000005H   SYMBOL    DATA     BYTE      sectorNumber
      00000006H   SYMBOL    DATA     BYTE      status

      0100C999H   BLOCK     CODE     ---       LVL=0
      00000007H   SYMBOL    DATA     BYTE      numSamples
      0100C999H   BLOCK     CODE     NEAR LAB  LVL=1
      00000006H   SYMBOL    DATA     BYTE      status
      ---         BLOCKEND  ---      ---       LVL=1
      0100C999H   LINE      CODE     ---       #573
      0100C999H   LINE      CODE     ---       #574
      0100C999H   LINE      CODE     ---       #575
      0100C99BH   LINE      CODE     ---       #578
      0100C9A3H   LINE      CODE     ---       #579
      0100C9A3H   LINE      CODE     ---       #580
      0100C9A9H   LINE      CODE     ---       #581
      0100C9ACH   LINE      CODE     ---       #582
      0100C9AFH   LINE      CODE     ---       #585
      0100C9B7H   LINE      CODE     ---       #586
      0100C9B7H   LINE      CODE     ---       #587
      0100C9BCH   LINE      CODE     ---       #588
      0100C9BEH   LINE      CODE     ---       #590
      0100C9BEH   LINE      CODE     ---       #591
      0100C9C0H   LINE      CODE     ---       #592
      0100C9C0H   LINE      CODE     ---       #593
      0100C9C2H   LINE      CODE     ---       #595
      0100C9C2H   LINE      CODE     ---       #596
      0100C9C4H   LINE      CODE     ---       #597
      0100C9C4H   LINE      CODE     ---       #599
LX51 LINKER/LOCATER V4.64.0.0                                                         01/10/2017  17:59:18  PAGE 143


      0100C9C6H   LINE      CODE     ---       #600
      ---         BLOCKEND  ---      ---       LVL=0

      0100CBA3H   BLOCK     CODE     ---       LVL=0
      0100CBA3H   BLOCK     CODE     NEAR LAB  LVL=1
      0200001EH   SYMBOL    XDATA    BYTE      status
      00000007H   SYMBOL    DATA     BYTE      interruptState
      ---         BLOCKEND  ---      ---       LVL=1
      0100CBA3H   LINE      CODE     ---       #618
      0100CBA3H   LINE      CODE     ---       #619
      0100CBA3H   LINE      CODE     ---       #620
      0100CBA9H   LINE      CODE     ---       #624
      0100CBACH   LINE      CODE     ---       #626
      0100CBB2H   LINE      CODE     ---       #627
      0100CBB2H   LINE      CODE     ---       #628
      0100CBB4H   LINE      CODE     ---       #629
      0100CBB9H   LINE      CODE     ---       #647
      0100CBB9H   LINE      CODE     ---       #650
      0100CBBCH   LINE      CODE     ---       #652
      0100CBC1H   LINE      CODE     ---       #653
      ---         BLOCKEND  ---      ---       LVL=0

      0100CF58H   BLOCK     CODE     ---       LVL=0
      0100CF58H   BLOCK     CODE     NEAR LAB  LVL=1
      00000007H   SYMBOL    DATA     BYTE      interruptState
      ---         BLOCKEND  ---      ---       LVL=1
      0100CF58H   LINE      CODE     ---       #670
      0100CF58H   LINE      CODE     ---       #671
      0100CF58H   LINE      CODE     ---       #675
      0100CF5BH   LINE      CODE     ---       #678
      0100CF60H   LINE      CODE     ---       #698
      0100CF63H   LINE      CODE     ---       #699
      ---         BLOCKEND  ---      ---       LVL=0

      0100CBFCH   BLOCK     CODE     ---       LVL=0
      0100CBFCH   BLOCK     CODE     NEAR LAB  LVL=1
      00000007H   SYMBOL    DATA     BYTE      status
      ---         BLOCKEND  ---      ---       LVL=1
      0100CBFCH   LINE      CODE     ---       #716
      0100CBFCH   LINE      CODE     ---       #717
      0100CBFCH   LINE      CODE     ---       #718
      0100CBFEH   LINE      CODE     ---       #721
      0100CC06H   LINE      CODE     ---       #722
      0100CC06H   LINE      CODE     ---       #723
      0100CC0CH   LINE      CODE     ---       #724
      0100CC0FH   LINE      CODE     ---       #725
      0100CC12H   LINE      CODE     ---       #726
      0100CC14H   LINE      CODE     ---       #728
      0100CC14H   LINE      CODE     ---       #729
      0100CC16H   LINE      CODE     ---       #730
      0100CC16H   LINE      CODE     ---       #732
      0100CC16H   LINE      CODE     ---       #733
      ---         BLOCKEND  ---      ---       LVL=0

      ---         MODULE    ---      ---       ?C?FPADD
      01007294H   PUBLIC    CODE     ---       ?C?FPADD
      01007290H   PUBLIC    CODE     ---       ?C?FPSUB

      ---         MODULE    ---      ---       ?C?FPMUL
      01007385H   PUBLIC    CODE     ---       ?C?FPMUL

      ---         MODULE    ---      ---       ?C?FPDIV
      0100748EH   PUBLIC    CODE     ---       ?C?FPDIV

      ---         MODULE    ---      ---       ?C?FPCMP
LX51 LINKER/LOCATER V4.64.0.0                                                         01/10/2017  17:59:18  PAGE 144


      0100752DH   PUBLIC    CODE     ---       ?C?FPCMP
      0100752BH   PUBLIC    CODE     ---       ?C?FPCMP3

      ---         MODULE    ---      ---       ?C?FCAST
      010075AEH   PUBLIC    CODE     ---       ?C?FCASTC
      010075A9H   PUBLIC    CODE     ---       ?C?FCASTI
      010075A4H   PUBLIC    CODE     ---       ?C?FCASTL

      ---         MODULE    ---      ---       ?C?CASTF
      010075E2H   PUBLIC    CODE     ---       ?C?CASTF

      ---         MODULE    ---      ---       PRINTF
      020004B9H   PUBLIC    XDATA    ---       ?_PRINTF?BYTE
      020004B9H   PUBLIC    XDATA    ---       ?_SPRINTF?BYTE
      01008CA2H   PUBLIC    CODE     ---       _PRINTF
      01008C9CH   PUBLIC    CODE     ---       _SPRINTF

      ---         MODULE    ---      ---       POW
      02000014H   PUBLIC    XDATA    ---       ?_POW?BYTE
      01009FAEH   PUBLIC    CODE     ---       _POW

      ---         MODULE    ---      ---       ?C?FPGETOPN
      01007619H   PUBLIC    CODE     ---       ?C?FPGETOPN2
      0100764EH   PUBLIC    CODE     ---       ?C?FPNANRESULT
      01007658H   PUBLIC    CODE     ---       ?C?FPOVERFLOW
      01007630H   PUBLIC    CODE     ---       ?C?FPRESULT
      01007644H   PUBLIC    CODE     ---       ?C?FPRESULT2
      01007655H   PUBLIC    CODE     ---       ?C?FPUNDERFLOW

      ---         MODULE    ---      ---       ?C?CHKFLOAT
      01007663H   PUBLIC    CODE     ---       ?C?CHKFLOAT

      ---         MODULE    ---      ---       ?C?FPNEG
      0100767DH   PUBLIC    CODE     ---       ?C?FPNEG

      ---         MODULE    ---      ---       ?C?FPROUND
      0100768EH   PUBLIC    CODE     ---       ?C?FPROUND

      ---         MODULE    ---      ---       ?C?FPCONVERT
      010076CBH   PUBLIC    CODE     ---       ?C?FPCONVERT

      ---         MODULE    ---      ---       EXP
      0100B324H   PUBLIC    CODE     ---       _EXP

      ---         MODULE    ---      ---       LOG
      0100A608H   PUBLIC    CODE     ---       _LOG
      0100A604H   PUBLIC    CODE     ---       _LOG10

      ---         MODULE    ---      ---       ?C?FTNPWR
      01007800H   PUBLIC    CODE     ---       ?C?FTNPWR

      ---         MODULE    ---      ---       ?C?FPSERIES
      01007840H   PUBLIC    CODE     ---       ?C?FP2SERIES
      0100784FH   PUBLIC    CODE     ---       ?C?FPSERIES

      ---         MODULE    ---      ---       ?C_INIT
      0100A8FCH   PUBLIC    CODE     ---       ?C_START

      ---         MODULE    ---      ---       ?C?CLDPTR
      0100788DH   PUBLIC    CODE     ---       ?C?CLDPTR

      ---         MODULE    ---      ---       ?C?CLDOPTR
      010078A6H   PUBLIC    CODE     ---       ?C?CLDOPTR

      ---         MODULE    ---      ---       ?C?CSTPTR
LX51 LINKER/LOCATER V4.64.0.0                                                         01/10/2017  17:59:18  PAGE 145


      010078D3H   PUBLIC    CODE     ---       ?C?CSTPTR

      ---         MODULE    ---      ---       ?C?IMUL
      010078E5H   PUBLIC    CODE     ---       ?C?IMUL

      ---         MODULE    ---      ---       ?C?ISTPTR
      010078F7H   PUBLIC    CODE     ---       ?C?ISTPTR

      ---         MODULE    ---      ---       ?C?LMUL
      01007916H   PUBLIC    CODE     ---       ?C?LMUL

      ---         MODULE    ---      ---       ?C?ULDIV
      010079A1H   PUBLIC    CODE     ---       ?C?ULDIV

      ---         MODULE    ---      ---       ?C?SLDIV
      0100C4F8H   PUBLIC    CODE     ---       ?C?SLDIV

      ---         MODULE    ---      ---       ?C?LNOT
      01007A33H   PUBLIC    CODE     ---       ?C?LNOT

      ---         MODULE    ---      ---       ?C?LNEG
      01007A40H   PUBLIC    CODE     ---       ?C?LNEG

      ---         MODULE    ---      ---       ?C?SLCMP
      01007A4EH   PUBLIC    CODE     ---       ?C?SLCMP

      ---         MODULE    ---      ---       ?C?ULCMP
      01007A64H   PUBLIC    CODE     ---       ?C?ULCMP

      ---         MODULE    ---      ---       ?C?ULSHR
      01007A75H   PUBLIC    CODE     ---       ?C?ULSHR

      ---         MODULE    ---      ---       ?C?SLSHR
      01007A88H   PUBLIC    CODE     ---       ?C?SLSHR

      ---         MODULE    ---      ---       ?C?LSHL
      01007A9CH   PUBLIC    CODE     ---       ?C?LSHL

      ---         MODULE    ---      ---       ?C?LLDPTR
      01007AAFH   PUBLIC    CODE     ---       ?C?LLDPTR

      ---         MODULE    ---      ---       ?C?LSTPTR
      01007ACFH   PUBLIC    CODE     ---       ?C?LSTPTR

      ---         MODULE    ---      ---       ?C?LLDCODE
      01007AE9H   PUBLIC    CODE     ---       ?C?LLDCODE

      ---         MODULE    ---      ---       ?C?LLDXDATA0
      01007AF9H   PUBLIC    CODE     ---       ?C?LLDXDATA0

      ---         MODULE    ---      ---       ?C?LLDCODE0
      01007B05H   PUBLIC    CODE     ---       ?C?LLDCODE0

      ---         MODULE    ---      ---       ?C?LSTXDATA
      01007B15H   PUBLIC    CODE     ---       ?C?LSTXDATA

      ---         MODULE    ---      ---       ?C?LSTKXDATA
      01007B21H   PUBLIC    CODE     ---       ?C?LSTKXDATA

      ---         MODULE    ---      ---       ?C?PLDIXDATA
      01007B52H   PUBLIC    CODE     ---       ?C?PLDIXDATA

      ---         MODULE    ---      ---       ?C?PSTXDATA
      01007B69H   PUBLIC    CODE     ---       ?C?PSTXDATA

LX51 LINKER/LOCATER V4.64.0.0                                                         01/10/2017  17:59:18  PAGE 146


      ---         MODULE    ---      ---       ?C?CCASE
      01007B72H   PUBLIC    CODE     ---       ?C?CCASE

      ---         MODULE    ---      ---       ?C_XBP
      00000012H   PUBLIC    DATA     ---       ?C_XBP

      ---         MODULE    ---      ---       ?C?ADDXBP
      01007B98H   PUBLIC    CODE     ---       ?C?ADDXBP

      ---         MODULE    ---      ---       ?C?LIMUL
      01007BBCH   PUBLIC    CODE     ---       ?C?LIMUL

      ---         MODULE    ---      ---       PUTCHAR
      0100CA4CH   PUBLIC    CODE     ---       _PUTCHAR

      ---         MODULE    ---      ---       ABS
      0100CF64H   PUBLIC    CODE     ---       _ABS

      ---         MODULE    ---      ---       STRCAT
      02000900H   PUBLIC    XDATA    ---       ?_STRCAT?BYTE
      0100C062H   PUBLIC    CODE     ---       _STRCAT

      ---         MODULE    ---      ---       STRLEN
      0100CCFDH   PUBLIC    CODE     ---       _STRLEN

      ---         MODULE    ---      ---       ?C?COPYAMD
      01007CA5H   PUBLIC    CODE     ---       ?C?COPYAMD

      ---         MODULE    ---      ---       ?C?STRCPYAMD
      01007D83H   PUBLIC    CODE     ---       ?C?STRCPYAMD

      ---         MODULE    ---      ---       ?C?IILDX
      01007DA0H   PUBLIC    CODE     ---       ?C?IILDX

      ---         MODULE    ---      ---       ?C?ILDIX
      01007DB6H   PUBLIC    CODE     ---       ?C?ILDIX

      ---         MODULE    ---      ---       ?C?LLDIDATA
      01007DCCH   PUBLIC    CODE     ---       ?C?LLDIDATA

      ---         MODULE    ---      ---       ?C?LLDXDATA
      01007DD8H   PUBLIC    CODE     ---       ?C?LLDXDATA

      ---         MODULE    ---      ---       ?C?LLDPDATA
      01007DE4H   PUBLIC    CODE     ---       ?C?LLDPDATA

      ---         MODULE    ---      ---       ?C?LSTIDATA
      01007DF0H   PUBLIC    CODE     ---       ?C?LSTIDATA

      ---         MODULE    ---      ---       ?C?LSTPDATA
      01007DFCH   PUBLIC    CODE     ---       ?C?LSTPDATA



INTER-MODULE CROSS-REFERENCE LISTING


NAME . . . . . . . . . . . . . . . . . . CLASS    MODULE NAMES
==============================================================

?_Bootloadable_SetFlashByte?BYTE . . . . XDATA    BOOTLOADABLE  
?_calc_turns_fcn?BYTE. . . . . . . . . . XDATA    UTILS  INTERRUPTIONS  
?_commWrite_old_id?BYTE. . . . . . . . . XDATA    COMMAND_PROCESSING  
?_curr_estim?BYTE. . . . . . . . . . . . XDATA    UTILS  COMMAND_PROCESSING  
?_cyconfigcpy?BYTE . . . . . . . . . . . XDATA    CYMEM  CYFITTER_CFG  
LX51 LINKER/LOCATER V4.64.0.0                                                         01/10/2017  17:59:18  PAGE 147


?_CyDmaChSetConfiguration?BYTE . . . . . XDATA    CYDMAC  DMA_DMA  
?_CyDmaChStatus?BYTE . . . . . . . . . . XDATA    CYDMAC  
?_CyDmaTdGetAddress?BYTE . . . . . . . . XDATA    CYDMAC  
?_CyDmaTdGetConfiguration?BYTE . . . . . XDATA    CYDMAC  
?_CyDmaTdSetConfiguration?BYTE . . . . . XDATA    CYDMAC  MAIN  
?_CySpcLoadMultiByte?BYTE. . . . . . . . XDATA    CYSPC  EEPROM  
?_CySpcLoadRow?BYTE. . . . . . . . . . . XDATA    CYSPC  EEPROM  
?_CySpcLoadRowFull?BYTE. . . . . . . . . XDATA    CYSPC  CYFLASH  
?_CySpcWriteRow?BYTE . . . . . . . . . . XDATA    CYSPC  CYFLASH  EEPROM  
?_CyWriteRowFull?BYTE. . . . . . . . . . XDATA    CYFLASH  
?_DMA_DmaInitialize?BYTE . . . . . . . . XDATA    DMA_DMA  MAIN  
?_my_mod?BYTE. . . . . . . . . . . . . . XDATA    UTILS  
?_pow?BYTE . . . . . . . . . . . . . . . XDATA    POW  UTILS  
?_PRINTF?BYTE. . . . . . . . . . . . . . XDATA    PRINTF  
?_SPRINTF?BYTE . . . . . . . . . . . . . XDATA    PRINTF  COMMAND_PROCESSING  
?_strcat?BYTE. . . . . . . . . . . . . . XDATA    STRCAT  COMMAND_PROCESSING  
?C?ADDXBP. . . . . . . . . . . . . . . . CODE     ?C?ADDXBP  CYLIB  
?C?CASTF . . . . . . . . . . . . . . . . CODE     ?C?CASTF  ADC  COMMAND_PROCESSING  EXP  INTERRUPTIONS  POW  UTILS  
?C?CCASE . . . . . . . . . . . . . . . . CODE     ?C?CCASE  COMMAND_PROCESSING  PRINTF  
?C?CHKFLOAT. . . . . . . . . . . . . . . CODE     ?C?CHKFLOAT  POW  
?C?CLDOPTR . . . . . . . . . . . . . . . CODE     ?C?CLDOPTR  PRINTF  
?C?CLDPTR. . . . . . . . . . . . . . . . CODE     ?C?CLDPTR  COMMAND_PROCESSING  CYSPC  PRINTF  STRCAT  STRLEN  UART_RS4
                                                  85  UTILS  
?C?CODESEG . . . . . . . . . . . . . . . NUMBER   ** LX51 GENERATED **  
?C?COPYAMD . . . . . . . . . . . . . . . CODE     ?C?COPYAMD  COMMAND_PROCESSING  INTERRUPTIONS  MAIN  
?C?CSTPTR. . . . . . . . . . . . . . . . CODE     ?C?CSTPTR  CYDMAC  CYSPC  PRINTF  STRCAT  
?C?FCASTC. . . . . . . . . . . . . . . . CODE     ?C?FCAST  EXP  
?C?FCASTI. . . . . . . . . . . . . . . . CODE     ?C?FCAST  ADC  LOG  POW  
?C?FCASTL. . . . . . . . . . . . . . . . CODE     ?C?FCAST  ADC  COMMAND_PROCESSING  INTERRUPTIONS  UTILS  
?C?FP2SERIES . . . . . . . . . . . . . . CODE     ?C?FPSERIES  LOG  
?C?FPADD . . . . . . . . . . . . . . . . CODE     ?C?FPADD  ?C?FPCONVERT  ?C?FPSERIES  EXP  LOG  UTILS  
?C?FPCMP . . . . . . . . . . . . . . . . CODE     ?C?FPCMP  
?C?FPCMP3. . . . . . . . . . . . . . . . CODE     ?C?FPCMP  ADC  INTERRUPTIONS  POW  UTILS  
?C?FPCONVERT . . . . . . . . . . . . . . CODE     ?C?FPCONVERT  PRINTF  
?C?FPDIV . . . . . . . . . . . . . . . . CODE     ?C?FPDIV  ?C?FPCONVERT  ADC  COMMAND_PROCESSING  LOG  UTILS  
?C?FPGETOPN2 . . . . . . . . . . . . . . CODE     ?C?FPGETOPN  ?C?FPADD  ?C?FPDIV  ?C?FPMUL  
?C?FPMUL . . . . . . . . . . . . . . . . CODE     ?C?FPMUL  ?C?FPCONVERT  ?C?FPSERIES  ?C?FTNPWR  ADC  COMMAND_PROCESSIN
                                                  G  EXP  INTERRUPTIONS  LOG  POW  UTILS  
?C?FPNANRESULT . . . . . . . . . . . . . CODE     ?C?FPGETOPN  ?C?FPADD  ?C?FPDIV  ?C?FPMUL  EXP  LOG  
?C?FPNEG . . . . . . . . . . . . . . . . CODE     ?C?FPNEG  POW  
?C?FPOVERFLOW. . . . . . . . . . . . . . CODE     ?C?FPGETOPN  ?C?FPADD  ?C?FPDIV  ?C?FPMUL  EXP  LOG  
?C?FPRESULT. . . . . . . . . . . . . . . CODE     ?C?FPGETOPN  ?C?FPADD  ?C?FPDIV  ?C?FPMUL  
?C?FPRESULT2 . . . . . . . . . . . . . . CODE     ?C?FPGETOPN  ?C?FPDIV  ?C?FPMUL  
?C?FPROUND . . . . . . . . . . . . . . . CODE     ?C?FPROUND  PRINTF  
?C?FPSERIES. . . . . . . . . . . . . . . CODE     ?C?FPSERIES  EXP  
?C?FPSUB . . . . . . . . . . . . . . . . CODE     ?C?FPADD  LOG  POW  
?C?FPUNDERFLOW . . . . . . . . . . . . . CODE     ?C?FPGETOPN  ?C?FPADD  ?C?FPDIV  ?C?FPMUL  EXP  LOG  
?C?FTNPWR. . . . . . . . . . . . . . . . CODE     ?C?FTNPWR  ?C?FPCONVERT  
?C?IILDX . . . . . . . . . . . . . . . . CODE     ?C?IILDX  STRCAT  
?C?ILDIX . . . . . . . . . . . . . . . . CODE     ?C?ILDIX  STRCAT  
?C?IMUL. . . . . . . . . . . . . . . . . CODE     ?C?IMUL  INTERRUPTIONS  
?C?ISTPTR. . . . . . . . . . . . . . . . CODE     ?C?ISTPTR  CYDMAC  
?C?LIMUL . . . . . . . . . . . . . . . . CODE     ?C?LIMUL  COMMAND_PROCESSING  CYSPC  
?C?LLDCODE . . . . . . . . . . . . . . . CODE     ?C?LLDCODE  ?C?FPSERIES  ?C?LLDPTR  LOG  
?C?LLDCODE0. . . . . . . . . . . . . . . CODE     ?C?LLDCODE0  ?C?FPSERIES  LOG  
?C?LLDIDATA. . . . . . . . . . . . . . . CODE     ?C?LLDIDATA  ?C?LLDPTR  
?C?LLDPDATA. . . . . . . . . . . . . . . CODE     ?C?LLDPDATA  ?C?LLDPTR  
?C?LLDPTR. . . . . . . . . . . . . . . . CODE     ?C?LLDPTR  CYLIB  
?C?LLDXDATA. . . . . . . . . . . . . . . CODE     ?C?LLDXDATA  ?C?LLDPTR  
?C?LLDXDATA0 . . . . . . . . . . . . . . CODE     ?C?LLDXDATA0  LOG  
?C?LMUL. . . . . . . . . . . . . . . . . CODE     ?C?LMUL  ADC  CYLIB  CYPM  INTERRUPTIONS  UTILS  
?C?LNEG. . . . . . . . . . . . . . . . . CODE     ?C?LNEG  ?C?CASTF  ?C?FCAST  UTILS  
?C?LNOT. . . . . . . . . . . . . . . . . CODE     ?C?LNOT  CYDMAC  
?C?LSHL. . . . . . . . . . . . . . . . . CODE     ?C?LSHL  ADC  COMMAND_PROCESSING  CYDMAC  CYLIB  INTERRUPTIONS  UTILS 
                                                   
LX51 LINKER/LOCATER V4.64.0.0                                                         01/10/2017  17:59:18  PAGE 148


?C?LSTIDATA. . . . . . . . . . . . . . . CODE     ?C?LSTIDATA  ?C?LSTPTR  
?C?LSTKXDATA . . . . . . . . . . . . . . CODE     ?C?LSTKXDATA  POW  
?C?LSTPDATA. . . . . . . . . . . . . . . CODE     ?C?LSTPDATA  ?C?LSTPTR  
?C?LSTPTR. . . . . . . . . . . . . . . . CODE     ?C?LSTPTR  CYLIB  
?C?LSTXDATA. . . . . . . . . . . . . . . CODE     ?C?LSTXDATA  ?C?LSTPTR  ADC  BOOTLOADABLE  COMMAND_PROCESSING  CYDMAC 
                                                   CYFITTER_CFG  CYLIB  CYSPC  INTERRUPTIONS  LOG  MAIN  POW  SHIFTREG_E
                                                  NC_1  SHIFTREG_ENC_2  SHIFTREG_ENC_3  UTILS  
?C?PLDIXDATA . . . . . . . . . . . . . . CODE     ?C?PLDIXDATA  PRINTF  
?C?PSTXDATA. . . . . . . . . . . . . . . CODE     ?C?PSTXDATA  PRINTF  
?C?SLCMP . . . . . . . . . . . . . . . . CODE     ?C?SLCMP  COMMAND_PROCESSING  INTERRUPTIONS  UTILS  
?C?SLDIV . . . . . . . . . . . . . . . . CODE     ?C?SLDIV  ADC  INTERRUPTIONS  UTILS  
?C?SLSHR . . . . . . . . . . . . . . . . CODE     ?C?SLSHR  COMMAND_PROCESSING  INTERRUPTIONS  UTILS  
?C?STRCPYAMD . . . . . . . . . . . . . . CODE     ?C?STRCPYAMD  COMMAND_PROCESSING  
?C?ULCMP . . . . . . . . . . . . . . . . CODE     ?C?ULCMP  CYDMAC  CYFLASH  
?C?ULDIV . . . . . . . . . . . . . . . . CODE     ?C?ULDIV  ?C?SLDIV  ADC  BOOTLOADABLE  CYLIB  CYPM  INTERRUPTIONS  UTI
                                                  LS  
?C?ULSHR . . . . . . . . . . . . . . . . CODE     ?C?ULSHR  COMMAND_PROCESSING  CYLIB  INTERRUPTIONS  
?C?XDATASEG. . . . . . . . . . . . . . . NUMBER   ** LX51 GENERATED **  
?C?XPAGE1RST . . . . . . . . . . . . . . NUMBER   ?C_STARTUP  ADC_INT  INTERRUPTIONS  ISR_RS485_RX  ISR_WATCHDOG  UART_R
                                                  S485_INT  
?C?XPAGE1SFR . . . . . . . . . . . . . . DATA     ?C_STARTUP  ADC_INT  INTERRUPTIONS  ISR_RS485_RX  ISR_WATCHDOG  UART_R
                                                  S485_INT  
?C_START . . . . . . . . . . . . . . . . CODE     ?C_INIT  ?C_STARTUP  
?C_STARTUP . . . . . . . . . . . . . . . CODE     ?C_STARTUP  MAIN  
?C_XBP . . . . . . . . . . . . . . . . . DATA     ?C_XBP  ?C?ADDXBP  ?C_STARTUP  CYLIB  
_?CyDelay. . . . . . . . . . . . . . . . CODE     CYLIB  COMMAND_PROCESSING  CYBOOTASMKEIL  MAIN  
_?CyDelayFreq. . . . . . . . . . . . . . CODE     CYLIB  
_?CyHalt . . . . . . . . . . . . . . . . CODE     CYLIB  
_ABS . . . . . . . . . . . . . . . . . . CODE     ABS  INTERRUPTIONS  UTILS  
_ADC_AMux_FastSelect . . . . . . . . . . CODE     ADC_AMUX  
_ADC_AMux_Select . . . . . . . . . . . . CODE     ADC_AMUX  ADC  
_ADC_AMux_Set. . . . . . . . . . . . . . CODE     CYFITTER_CFG  ADC_AMUX  
_ADC_AMux_Unset. . . . . . . . . . . . . CODE     CYFITTER_CFG  ADC_AMUX  
_ADC_CountsTo_mVolts . . . . . . . . . . CODE     ADC  
_ADC_CountsTo_uVolts . . . . . . . . . . CODE     ADC  
_ADC_CountsTo_Volts. . . . . . . . . . . CODE     ADC  
_ADC_Ext_CP_Clk_ClearModeRegister. . . . CODE     ADC_EXT_CP_CLK  
_ADC_Ext_CP_Clk_SetDividerRegister . . . CODE     ADC_EXT_CP_CLK  ADC  
_ADC_Ext_CP_Clk_SetModeRegister. . . . . CODE     ADC_EXT_CP_CLK  ADC  
_ADC_Ext_CP_Clk_SetSourceRegister. . . . CODE     ADC_EXT_CP_CLK  
_ADC_Ext_CP_Clk_StandbyPower . . . . . . CODE     ADC_EXT_CP_CLK  
_ADC_IsEndConversion . . . . . . . . . . CODE     ADC  
_ADC_SelectConfiguration . . . . . . . . CODE     ADC  
_ADC_SetBufferGain . . . . . . . . . . . CODE     ADC  
_ADC_SetCoherency. . . . . . . . . . . . CODE     ADC  
_ADC_SetGain . . . . . . . . . . . . . . CODE     ADC  
_ADC_SetGCOR . . . . . . . . . . . . . . CODE     ADC  
_ADC_SetOffset . . . . . . . . . . . . . CODE     ADC  
_ADC_SOC_Write . . . . . . . . . . . . . CODE     ADC_SOC  INTERRUPTIONS  MAIN  
_ADC_STATUS_WriteMask. . . . . . . . . . CODE     ADC_STATUS  
_ADC_theACLK_ClearModeRegister . . . . . CODE     ADC_THEACLK  
_ADC_theACLK_SetDividerRegister. . . . . CODE     ADC_THEACLK  ADC  
_ADC_theACLK_SetModeRegister . . . . . . CODE     ADC_THEACLK  ADC  
_ADC_theACLK_SetPhaseRegister. . . . . . CODE     ADC_THEACLK  
_ADC_theACLK_SetSourceRegister . . . . . CODE     ADC_THEACLK  
_ADC_theACLK_StandbyPower. . . . . . . . CODE     ADC_THEACLK  
_Bootloadable_SetFlashByte . . . . . . . CODE     BOOTLOADABLE  
_calc_turns_fcn. . . . . . . . . . . . . CODE     UTILS  INTERRUPTIONS  
_cfg_write_bytes . . . . . . . . . . . . CODE     CYMEM  
_cfg_write_bytes_code. . . . . . . . . . CODE     CYMEM  
_check_enc_data. . . . . . . . . . . . . CODE     UTILS  INTERRUPTIONS  
_CLOCK_UART_ClearModeRegister. . . . . . CODE     CLOCK_UART  
_CLOCK_UART_SetDividerRegister . . . . . CODE     CLOCK_UART  COMMAND_PROCESSING  
_CLOCK_UART_SetModeRegister. . . . . . . CODE     CLOCK_UART  
_CLOCK_UART_SetSourceRegister. . . . . . CODE     CLOCK_UART  
LX51 LINKER/LOCATER V4.64.0.0                                                         01/10/2017  17:59:18  PAGE 149


_CLOCK_UART_StandbyPower . . . . . . . . CODE     CLOCK_UART  
_commWrite . . . . . . . . . . . . . . . CODE     COMMAND_PROCESSING  
_commWrite_old_id. . . . . . . . . . . . CODE     COMMAND_PROCESSING  
_commWriteAnother. . . . . . . . . . . . CODE     COMMAND_PROCESSING  INTERRUPTIONS  
_COUNTER_ENC_SetInterruptMode. . . . . . CODE     COUNTER_ENC  
_COUNTER_ENC_WriteCompare. . . . . . . . CODE     COUNTER_ENC  
_COUNTER_ENC_WriteControlRegister. . . . CODE     COUNTER_ENC  
_COUNTER_ENC_WriteCounter. . . . . . . . CODE     COUNTER_ENC  
_COUNTER_ENC_WritePeriod . . . . . . . . CODE     COUNTER_ENC  
_curr_estim. . . . . . . . . . . . . . . CODE     UTILS  COMMAND_PROCESSING  
_CyBusClk_SetDivider . . . . . . . . . . CODE     CYLIB  CYPM  
_cyconfigcpy . . . . . . . . . . . . . . CODE     CYMEM  CYFITTER_CFG  
_cyconfigcpycode . . . . . . . . . . . . CODE     CYMEM  CYFITTER_CFG  
_CyCpuClk_SetDivider . . . . . . . . . . CODE     CYLIB  
_CyDelay . . . . . . . . . . . . . . . . CODE     CYBOOTASMKEIL  
_CyDelayCycles . . . . . . . . . . . . . CODE     CYBOOTASMKEIL  CYFITTER_CFG  CYLIB  CYPM  
_CyDelayUs . . . . . . . . . . . . . . . CODE     CYBOOTASMKEIL  ADC  CYFLASH  CYLIB  CYPM  CYSPC  
_CyDmacClearError. . . . . . . . . . . . CODE     CYDMAC  
_CyDmaChDisable. . . . . . . . . . . . . CODE     CYDMAC  DMA_DMA  
_CyDmaChEnable . . . . . . . . . . . . . CODE     CYDMAC  MAIN  
_CyDmaChFree . . . . . . . . . . . . . . CODE     CYDMAC  
_CyDmaChGetRequest . . . . . . . . . . . CODE     CYDMAC  
_CyDmaChPriority . . . . . . . . . . . . CODE     CYDMAC  DMA_DMA  
_CyDmaChRoundRobin . . . . . . . . . . . CODE     CYDMAC  
_CyDmaChSetConfiguration . . . . . . . . CODE     CYDMAC  DMA_DMA  
_CyDmaChSetExtendedAddress . . . . . . . CODE     CYDMAC  DMA_DMA  
_CyDmaChSetInitialTd . . . . . . . . . . CODE     CYDMAC  MAIN  
_CyDmaChSetRequest . . . . . . . . . . . CODE     CYDMAC  
_CyDmaChStatus . . . . . . . . . . . . . CODE     CYDMAC  
_CyDmaClearPendingDrq. . . . . . . . . . CODE     CYDMAC  
_CyDmaTdFree . . . . . . . . . . . . . . CODE     CYDMAC  
_CyDmaTdGetAddress . . . . . . . . . . . CODE     CYDMAC  
_CyDmaTdGetConfiguration . . . . . . . . CODE     CYDMAC  
_CyDmaTdSetAddress . . . . . . . . . . . CODE     CYDMAC  MAIN  
_CyDmaTdSetConfiguration . . . . . . . . CODE     CYDMAC  MAIN  
_CyEnableInts. . . . . . . . . . . . . . CODE     CYLIB  
_CyExitCriticalSection . . . . . . . . . CODE     CYBOOTASMKEIL  ADC  ADC_STATUS  COUNTER_ENC  CYDMAC  CYFLASH  CYLIB  C
                                                  YPM  CYSPC  EEPROM  FF_STATUS  MY_TIMER  SHIFTREG_ENC_1  SHIFTREG_ENC_
                                                  2  SHIFTREG_ENC_3  UART_RS485  
_CyFlash_SetWaitCycles . . . . . . . . . CODE     CYFLASH  CYPM  
_CyGetUniqueId . . . . . . . . . . . . . CODE     CYLIB  
_CyILO_SetPowerMode. . . . . . . . . . . CODE     CYLIB  CYPM  
_CyILO_SetSource . . . . . . . . . . . . CODE     CYLIB  
_CyIMO_SetFreq . . . . . . . . . . . . . CODE     CYLIB  CYPM  
_CyIMO_SetSource . . . . . . . . . . . . CODE     CYLIB  CYPM  
_CyIMO_Start . . . . . . . . . . . . . . CODE     CYLIB  CYPM  
_CyIntGetPriority. . . . . . . . . . . . CODE     CYLIB  
_CyIntGetState . . . . . . . . . . . . . CODE     CYLIB  
_CyIntGetVector. . . . . . . . . . . . . CODE     CYLIB  
_CyIntSetPriority. . . . . . . . . . . . CODE     CYLIB  ADC  UART_RS485  
_CyIntSetVector. . . . . . . . . . . . . CODE     CYLIB  ADC  UART_RS485  
_CyMasterClk_SetDivider. . . . . . . . . CODE     CYLIB  CYPM  
_CyMasterClk_SetSource . . . . . . . . . CODE     CYLIB  CYPM  
_cymemzero . . . . . . . . . . . . . . . CODE     CYMEM  
_CyPLL_OUT_SetPQ . . . . . . . . . . . . CODE     CYLIB  
_CyPLL_OUT_SetSource . . . . . . . . . . CODE     CYLIB  
_CyPLL_OUT_Start . . . . . . . . . . . . CODE     CYLIB  CYPM  
_CyPmAltAct. . . . . . . . . . . . . . . CODE     CYPM  
_CyPmCtwSetInterval. . . . . . . . . . . CODE     CYPM  
_CyPmFtwSetInterval. . . . . . . . . . . CODE     CYPM  CYLIB  
_CyPmHibernateEx . . . . . . . . . . . . CODE     CYPM  
_CyPmReadStatus. . . . . . . . . . . . . CODE     CYPM  CYLIB  
_CyPmSleep . . . . . . . . . . . . . . . CODE     CYPM  
_cyread16. . . . . . . . . . . . . . . . CODE     CYMEM  
_cyread16_nodpx. . . . . . . . . . . . . CODE     CYMEM  ADC  ADC_EXT_CP_CLK  ADC_THEACLK  CLOCK_UART  CYDMAC  CYLIB  IS
LX51 LINKER/LOCATER V4.64.0.0                                                         01/10/2017  17:59:18  PAGE 150


                                                  R_RS485_RX  ISR_WATCHDOG  PACER_TIMER  WATCHDOG_COUNTER  
_cyread24. . . . . . . . . . . . . . . . CODE     CYMEM  
_cyread24_nodpx. . . . . . . . . . . . . CODE     CYMEM  MY_TIMER  SHIFTREG_ENC_1  SHIFTREG_ENC_2  SHIFTREG_ENC_3  
_cyread32. . . . . . . . . . . . . . . . CODE     CYMEM  
_cyread32_nodpx. . . . . . . . . . . . . CODE     CYMEM  CYDMAC  
_cyread8 . . . . . . . . . . . . . . . . CODE     CYMEM  ADC  CYFITTER_CFG  CYLIB  CYSPC  
_cyread8_nodpx . . . . . . . . . . . . . CODE     CYMEM  
_CySetFlashEEBuffer. . . . . . . . . . . CODE     CYFLASH  
_CySpcEraseSector. . . . . . . . . . . . CODE     CYSPC  EEPROM  
_CySpcGetTemp. . . . . . . . . . . . . . CODE     CYSPC  CYFLASH  
_CySpcLoadMultiByte. . . . . . . . . . . CODE     CYSPC  EEPROM  
_CySpcLoadRow. . . . . . . . . . . . . . CODE     CYSPC  EEPROM  
_CySpcLoadRowFull. . . . . . . . . . . . CODE     CYSPC  CYFLASH  
_CySpcReadData . . . . . . . . . . . . . CODE     CYSPC  CYFLASH  
_CySpcWriteRow . . . . . . . . . . . . . CODE     CYSPC  CYFLASH  EEPROM  
_CyUsbClk_SetSource. . . . . . . . . . . CODE     CYLIB  
_CyVdLvAnalogEnable. . . . . . . . . . . CODE     CYLIB  CYPM  
_CyVdLvDigitEnable . . . . . . . . . . . CODE     CYLIB  CYPM  
_CyVdStickyStatus. . . . . . . . . . . . CODE     CYLIB  
_CyWdtStart. . . . . . . . . . . . . . . CODE     CYLIB  
_cywrite16 . . . . . . . . . . . . . . . CODE     CYMEM  CYFITTER_CFG  
_cywrite16_nodpx . . . . . . . . . . . . CODE     CYMEM  ADC  ADC_EXT_CP_CLK  ADC_THEACLK  CLOCK_UART  CYDMAC  CYFITTER_
                                                  CFG  CYLIB  ISR_RS485_RX  ISR_WATCHDOG  PACER_TIMER  WATCHDOG_COUNTER 
                                                   
_cywrite24 . . . . . . . . . . . . . . . CODE     CYMEM  
_cywrite24_nodpx . . . . . . . . . . . . CODE     CYMEM  MY_TIMER  SHIFTREG_ENC_1  SHIFTREG_ENC_2  SHIFTREG_ENC_3  
_cywrite32 . . . . . . . . . . . . . . . CODE     CYMEM  
_cywrite32_nodpx . . . . . . . . . . . . CODE     CYMEM  
_cywrite8. . . . . . . . . . . . . . . . CODE     CYMEM  CYFITTER_CFG  
_cywrite8_nodpx. . . . . . . . . . . . . CODE     CYMEM  
_CyWriteRowData. . . . . . . . . . . . . CODE     CYFLASH  BOOTLOADABLE  
_CyWriteRowFull. . . . . . . . . . . . . CODE     CYFLASH  
_CyXTAL_32KHZ_SetPowerMode . . . . . . . CODE     CYLIB  
_CyXTAL_SetFbVoltage . . . . . . . . . . CODE     CYLIB  
_CyXTAL_SetStartup . . . . . . . . . . . CODE     CYLIB  
_CyXTAL_SetWdVoltage . . . . . . . . . . CODE     CYLIB  
_CyXTAL_Start. . . . . . . . . . . . . . CODE     CYLIB  CYPM  
_DMA_DmaInitialize . . . . . . . . . . . CODE     DMA_DMA  MAIN  
_dma_wait. . . . . . . . . . . . . . . . CODE     ?C_STARTUP  
_EEPROM_ByteWritePos . . . . . . . . . . CODE     EEPROM  
_EEPROM_EraseSector. . . . . . . . . . . CODE     EEPROM  
_EEPROM_ReadByte . . . . . . . . . . . . CODE     EEPROM  
_EEPROM_StartErase . . . . . . . . . . . CODE     EEPROM  
_EEPROM_StartWrite . . . . . . . . . . . CODE     EEPROM  
_EEPROM_Write. . . . . . . . . . . . . . CODE     EEPROM  COMMAND_PROCESSING  
_EEPROM_WriteByte. . . . . . . . . . . . CODE     EEPROM  
_encoder_reading . . . . . . . . . . . . CODE     INTERRUPTIONS  
_EXP . . . . . . . . . . . . . . . . . . CODE     EXP  POW  
_FF_STATUS_WriteMask . . . . . . . . . . CODE     FF_STATUS  
_filter_acc_1. . . . . . . . . . . . . . CODE     UTILS  INTERRUPTIONS  
_filter_acc_2. . . . . . . . . . . . . . CODE     UTILS  INTERRUPTIONS  
_filter_acc_3. . . . . . . . . . . . . . CODE     UTILS  INTERRUPTIONS  
_filter_ch1. . . . . . . . . . . . . . . CODE     UTILS  INTERRUPTIONS  
_filter_ch2. . . . . . . . . . . . . . . CODE     UTILS  INTERRUPTIONS  
_filter_curr_diff. . . . . . . . . . . . CODE     UTILS  COMMAND_PROCESSING  
_filter_i1 . . . . . . . . . . . . . . . CODE     UTILS  INTERRUPTIONS  
_filter_v. . . . . . . . . . . . . . . . CODE     UTILS  
_filter_vel_1. . . . . . . . . . . . . . CODE     UTILS  INTERRUPTIONS  
_filter_vel_2. . . . . . . . . . . . . . CODE     UTILS  INTERRUPTIONS  
_filter_vel_3. . . . . . . . . . . . . . CODE     UTILS  INTERRUPTIONS  
_FTDI_ENABLE_REG_Write . . . . . . . . . CODE     FTDI_ENABLE_REG  COMMAND_PROCESSING  MAIN  
_get_param_list. . . . . . . . . . . . . CODE     COMMAND_PROCESSING  
_infoGet . . . . . . . . . . . . . . . . CODE     COMMAND_PROCESSING  INTERRUPTIONS  
_infoPrepare . . . . . . . . . . . . . . CODE     COMMAND_PROCESSING  
_ISR_RS485_RX_SetPriority. . . . . . . . CODE     ISR_RS485_RX  
LX51 LINKER/LOCATER V4.64.0.0                                                         01/10/2017  17:59:18  PAGE 151


_ISR_RS485_RX_SetVector. . . . . . . . . CODE     ISR_RS485_RX  
_ISR_RS485_RX_StartEx. . . . . . . . . . CODE     ISR_RS485_RX  MAIN  
_ISR_WATCHDOG_SetPriority. . . . . . . . CODE     ISR_WATCHDOG  
_ISR_WATCHDOG_SetVector. . . . . . . . . CODE     ISR_WATCHDOG  
_ISR_WATCHDOG_StartEx. . . . . . . . . . CODE     ISR_WATCHDOG  MAIN  
_LCRChecksum . . . . . . . . . . . . . . CODE     COMMAND_PROCESSING  INTERRUPTIONS  
_LED_BLINK_EN_Write. . . . . . . . . . . CODE     LED_BLINK_EN  INTERRUPTIONS  MAIN  
_LED_BLINK_WriteCompare. . . . . . . . . CODE     LED_BLINK  MAIN  
_LED_BLINK_WriteControlRegister. . . . . CODE     LED_BLINK  
_LED_BLINK_WriteCounter. . . . . . . . . CODE     LED_BLINK  
_LED_BLINK_WritePeriod . . . . . . . . . CODE     LED_BLINK  
_LED_CTRL_Write. . . . . . . . . . . . . CODE     LED_CTRL  INTERRUPTIONS  MAIN  
_LOG . . . . . . . . . . . . . . . . . . CODE     LOG  POW  
_LOG10 . . . . . . . . . . . . . . . . . CODE     LOG  
_memStore. . . . . . . . . . . . . . . . CODE     COMMAND_PROCESSING  
_MOTOR_DIR_Write . . . . . . . . . . . . CODE     MOTOR_DIR  INTERRUPTIONS  MAIN  
_MOTOR_ON_OFF_Write. . . . . . . . . . . CODE     MOTOR_ON_OFF  COMMAND_PROCESSING  INTERRUPTIONS  MAIN  
_my_mod. . . . . . . . . . . . . . . . . CODE     UTILS  
_my_round. . . . . . . . . . . . . . . . CODE     UTILS  
_MY_TIMER_SetInterruptMode . . . . . . . CODE     MY_TIMER  
_MY_TIMER_WriteControlRegister . . . . . CODE     MY_TIMER  
_MY_TIMER_WriteCounter . . . . . . . . . CODE     MY_TIMER  INTERRUPTIONS  
_MY_TIMER_WritePeriod. . . . . . . . . . CODE     MY_TIMER  
_PACER_TIMER_SetInterruptMode. . . . . . CODE     PACER_TIMER  
_PACER_TIMER_WriteControlRegister. . . . CODE     PACER_TIMER  
_PACER_TIMER_WriteCounter. . . . . . . . CODE     PACER_TIMER  
_PACER_TIMER_WritePeriod . . . . . . . . CODE     PACER_TIMER  
_pow . . . . . . . . . . . . . . . . . . CODE     POW  UTILS  
_PRINTF. . . . . . . . . . . . . . . . . CODE     PRINTF  
_PUTCHAR . . . . . . . . . . . . . . . . CODE     PUTCHAR  PRINTF  
_PWM_MOTORS_WriteCompare1. . . . . . . . CODE     PWM_MOTORS  COMMAND_PROCESSING  INTERRUPTIONS  MAIN  
_PWM_MOTORS_WriteCompare2. . . . . . . . CODE     PWM_MOTORS  COMMAND_PROCESSING  MAIN  
_PWM_MOTORS_WriteControlRegister . . . . CODE     PWM_MOTORS  
_PWM_MOTORS_WriteCounter . . . . . . . . CODE     PWM_MOTORS  
_PWM_MOTORS_WritePeriod. . . . . . . . . CODE     PWM_MOTORS  
_RESET_COUNTERS_Write. . . . . . . . . . CODE     RESET_COUNTERS  MAIN  
_RESET_FF_Write. . . . . . . . . . . . . CODE     RESET_FF  MAIN  
_RS485_CTS_Write . . . . . . . . . . . . CODE     RS485_CTS  COMMAND_PROCESSING  INTERRUPTIONS  MAIN  
_sendAcknowledgment. . . . . . . . . . . CODE     COMMAND_PROCESSING  
_SetAnalogRoutingPumps . . . . . . . . . CODE     CYFITTER_CFG  
_SHIFTREG_ENC_1_GetFIFOStatus. . . . . . CODE     SHIFTREG_ENC_1  
_SHIFTREG_ENC_1_SetIntMode . . . . . . . CODE     SHIFTREG_ENC_1  
_SHIFTREG_ENC_1_WriteRegValue. . . . . . CODE     SHIFTREG_ENC_1  
_SHIFTREG_ENC_2_GetFIFOStatus. . . . . . CODE     SHIFTREG_ENC_2  
_SHIFTREG_ENC_2_SetIntMode . . . . . . . CODE     SHIFTREG_ENC_2  
_SHIFTREG_ENC_2_WriteRegValue. . . . . . CODE     SHIFTREG_ENC_2  
_SHIFTREG_ENC_3_GetFIFOStatus. . . . . . CODE     SHIFTREG_ENC_3  
_SHIFTREG_ENC_3_SetIntMode . . . . . . . CODE     SHIFTREG_ENC_3  
_SHIFTREG_ENC_3_WriteRegValue. . . . . . CODE     SHIFTREG_ENC_3  
_SPRINTF . . . . . . . . . . . . . . . . CODE     PRINTF  COMMAND_PROCESSING  
_strcat. . . . . . . . . . . . . . . . . CODE     STRCAT  COMMAND_PROCESSING  
_STRLEN. . . . . . . . . . . . . . . . . CODE     STRLEN  COMMAND_PROCESSING  
_UART_RS485_PutArray . . . . . . . . . . CODE     UART_RS485  
_UART_RS485_PutChar. . . . . . . . . . . CODE     UART_RS485  COMMAND_PROCESSING  
_UART_RS485_PutCRLF. . . . . . . . . . . CODE     UART_RS485  
_UART_RS485_PutString. . . . . . . . . . CODE     UART_RS485  COMMAND_PROCESSING  
_UART_RS485_SendBreak. . . . . . . . . . CODE     UART_RS485  
_UART_RS485_SetRxAddress1. . . . . . . . CODE     UART_RS485  
_UART_RS485_SetRxAddress2. . . . . . . . CODE     UART_RS485  
_UART_RS485_SetRxAddressMode . . . . . . CODE     UART_RS485  
_UART_RS485_SetRxInterruptMode . . . . . CODE     UART_RS485  
_UART_RS485_SetTxAddressMode . . . . . . CODE     UART_RS485  
_UART_RS485_SetTxInterruptMode . . . . . CODE     UART_RS485  
_UART_RS485_WriteControlRegister . . . . CODE     UART_RS485  
_UART_RS485_WriteTxData. . . . . . . . . CODE     UART_RS485  
LX51 LINKER/LOCATER V4.64.0.0                                                         01/10/2017  17:59:18  PAGE 152


_WATCHDOG_COUNTER_SetInterruptMode . . . CODE     WATCHDOG_COUNTER  
_WATCHDOG_COUNTER_WriteControlRegister . CODE     WATCHDOG_COUNTER  
_WATCHDOG_COUNTER_WriteCounter . . . . . CODE     WATCHDOG_COUNTER  
_WATCHDOG_COUNTER_WritePeriod. . . . . . CODE     WATCHDOG_COUNTER  COMMAND_PROCESSING  
_WATCHDOG_ENABLER_Write. . . . . . . . . CODE     WATCHDOG_ENABLER  COMMAND_PROCESSING  
_WATCHDOG_REFRESH_Write. . . . . . . . . CODE     WATCHDOG_REFRESH  MAIN  
AC . . . . . . . . . . . . . . . . . . . DATA     COMMAND_PROCESSING  
ACC. . . . . . . . . . . . . . . . . . . DATA     COMMAND_PROCESSING  
ADC_AMux__addrTable. . . . . . . . . . . CONST    CYFITTER_CFG  
ADC_AMux__maskTable. . . . . . . . . . . CONST    CYFITTER_CFG  
ADC_AMux_Start . . . . . . . . . . . . . CODE     ADC_AMUX  
ADC_buf. . . . . . . . . . . . . . . . . XDATA    GLOBALS  INTERRUPTIONS  MAIN  
ADC_Config . . . . . . . . . . . . . . . XDATA    ADC  
ADC_convDone . . . . . . . . . . . . . . XDATA    ADC  
ADC_CountsPerVolt. . . . . . . . . . . . XDATA    ADC  
ADC_Enable . . . . . . . . . . . . . . . CODE     ADC  
ADC_Ext_CP_Clk_GetDividerRegister. . . . CODE     ADC_EXT_CP_CLK  
ADC_Ext_CP_Clk_GetModeRegister . . . . . CODE     ADC_EXT_CP_CLK  
ADC_Ext_CP_Clk_GetSourceRegister . . . . CODE     ADC_EXT_CP_CLK  
ADC_Ext_CP_Clk_Start . . . . . . . . . . CODE     ADC_EXT_CP_CLK  
ADC_Ext_CP_Clk_Stop. . . . . . . . . . . CODE     ADC_EXT_CP_CLK  
ADC_Ext_CP_Clk_StopBlock . . . . . . . . CODE     ADC_EXT_CP_CLK  
ADC_GetResult16. . . . . . . . . . . . . CODE     ADC  
ADC_GetResult32. . . . . . . . . . . . . CODE     ADC  
ADC_GetResult8 . . . . . . . . . . . . . CODE     ADC  
ADC_Init . . . . . . . . . . . . . . . . CODE     ADC  
ADC_initVar. . . . . . . . . . . . . . . XDATA    ADC  
ADC_ISR1 . . . . . . . . . . . . . . . . CODE     ADC_INT  ADC  
ADC_ISR2 . . . . . . . . . . . . . . . . CODE     ADC_INT  
ADC_ISR3 . . . . . . . . . . . . . . . . CODE     ADC_INT  
ADC_ISR4 . . . . . . . . . . . . . . . . CODE     ADC_INT  
ADC_Offset . . . . . . . . . . . . . . . XDATA    ADC  
ADC_Read16 . . . . . . . . . . . . . . . CODE     ADC  
ADC_Read32 . . . . . . . . . . . . . . . CODE     ADC  
ADC_Read8. . . . . . . . . . . . . . . . CODE     ADC  
ADC_ReadGCOR . . . . . . . . . . . . . . CODE     ADC  
ADC_SOC_Read . . . . . . . . . . . . . . CODE     ADC_SOC  
ADC_Start. . . . . . . . . . . . . . . . CODE     ADC  MAIN  
ADC_StartConvert . . . . . . . . . . . . CODE     ADC  
ADC_started. . . . . . . . . . . . . . . XDATA    ADC  
ADC_STATUS_InterruptDisable. . . . . . . CODE     ADC_STATUS  
ADC_STATUS_InterruptEnable . . . . . . . CODE     ADC_STATUS  
ADC_STATUS_Read. . . . . . . . . . . . . CODE     ADC_STATUS  INTERRUPTIONS  
ADC_STATUS_ReadMask. . . . . . . . . . . CODE     ADC_STATUS  
ADC_Stop . . . . . . . . . . . . . . . . CODE     ADC  
ADC_stopConversion . . . . . . . . . . . XDATA    ADC  
ADC_StopConvert. . . . . . . . . . . . . CODE     ADC  
ADC_theACLK_GetDividerRegister . . . . . CODE     ADC_THEACLK  
ADC_theACLK_GetModeRegister. . . . . . . CODE     ADC_THEACLK  
ADC_theACLK_GetPhaseRegister . . . . . . CODE     ADC_THEACLK  
ADC_theACLK_GetSourceRegister. . . . . . CODE     ADC_THEACLK  
ADC_theACLK_Start. . . . . . . . . . . . CODE     ADC_THEACLK  
ADC_theACLK_Stop . . . . . . . . . . . . CODE     ADC_THEACLK  
ADC_theACLK_StopBlock. . . . . . . . . . CODE     ADC_THEACLK  
analog_read_end. . . . . . . . . . . . . CODE     INTERRUPTIONS  
B. . . . . . . . . . . . . . . . . . . . DATA     COMMAND_PROCESSING  
Bootloadable_Load. . . . . . . . . . . . CODE     BOOTLOADABLE  COMMAND_PROCESSING  
c_mem. . . . . . . . . . . . . . . . . . XDATA    GLOBALS  COMMAND_PROCESSING  INTERRUPTIONS  MAIN  
calib. . . . . . . . . . . . . . . . . . XDATA    GLOBALS  COMMAND_PROCESSING  INTERRUPTIONS  UTILS  
calibration. . . . . . . . . . . . . . . CODE     UTILS  INTERRUPTIONS  
CLOCK_UART_GetDividerRegister. . . . . . CODE     CLOCK_UART  
CLOCK_UART_GetModeRegister . . . . . . . CODE     CLOCK_UART  
CLOCK_UART_GetSourceRegister . . . . . . CODE     CLOCK_UART  
CLOCK_UART_Start . . . . . . . . . . . . CODE     CLOCK_UART  
CLOCK_UART_Stop. . . . . . . . . . . . . CODE     CLOCK_UART  
LX51 LINKER/LOCATER V4.64.0.0                                                         01/10/2017  17:59:18  PAGE 153


CLOCK_UART_StopBlock . . . . . . . . . . CODE     CLOCK_UART  
cmd_activate . . . . . . . . . . . . . . CODE     COMMAND_PROCESSING  
cmd_get_activate . . . . . . . . . . . . CODE     COMMAND_PROCESSING  
cmd_get_curr_and_meas. . . . . . . . . . CODE     COMMAND_PROCESSING  
cmd_get_currents . . . . . . . . . . . . CODE     COMMAND_PROCESSING  
cmd_get_emg. . . . . . . . . . . . . . . CODE     COMMAND_PROCESSING  
cmd_get_inputs . . . . . . . . . . . . . CODE     COMMAND_PROCESSING  
cmd_get_measurements . . . . . . . . . . CODE     COMMAND_PROCESSING  
cmd_ping . . . . . . . . . . . . . . . . CODE     COMMAND_PROCESSING  
cmd_set_baudrate . . . . . . . . . . . . CODE     COMMAND_PROCESSING  
cmd_set_inputs . . . . . . . . . . . . . CODE     COMMAND_PROCESSING  
cmd_set_watchdog . . . . . . . . . . . . CODE     COMMAND_PROCESSING  
cmd_store_params . . . . . . . . . . . . CODE     COMMAND_PROCESSING  
command_slave. . . . . . . . . . . . . . CODE     INTERRUPTIONS  
commProcess. . . . . . . . . . . . . . . CODE     COMMAND_PROCESSING  INTERRUPTIONS  
COUNTER_ENC_ClearFIFO. . . . . . . . . . CODE     COUNTER_ENC  
COUNTER_ENC_Enable . . . . . . . . . . . CODE     COUNTER_ENC  
COUNTER_ENC_Init . . . . . . . . . . . . CODE     COUNTER_ENC  
COUNTER_ENC_initVar. . . . . . . . . . . XDATA    COUNTER_ENC  
COUNTER_ENC_ReadCapture. . . . . . . . . CODE     COUNTER_ENC  
COUNTER_ENC_ReadCompare. . . . . . . . . CODE     COUNTER_ENC  
COUNTER_ENC_ReadControlRegister. . . . . CODE     COUNTER_ENC  
COUNTER_ENC_ReadCounter. . . . . . . . . CODE     COUNTER_ENC  
COUNTER_ENC_ReadPeriod . . . . . . . . . CODE     COUNTER_ENC  
COUNTER_ENC_ReadStatusRegister . . . . . CODE     COUNTER_ENC  
COUNTER_ENC_Start. . . . . . . . . . . . CODE     COUNTER_ENC  MAIN  
COUNTER_ENC_Stop . . . . . . . . . . . . CODE     COUNTER_ENC  
CY . . . . . . . . . . . . . . . . . . . DATA     COMMAND_PROCESSING  
cydelay_32k_ms . . . . . . . . . . . . . XDATA    CYLIB  
cydelay_freq_hz. . . . . . . . . . . . . XDATA    CYLIB  
cydelay_freq_khz . . . . . . . . . . . . XDATA    CYLIB  
cydelay_freq_mhz . . . . . . . . . . . . XDATA    CYLIB  CYBOOTASMKEIL  
CyDisableInts. . . . . . . . . . . . . . CODE     CYLIB  
CyDmacConfigure. . . . . . . . . . . . . CODE     CYDMAC  ?C_STARTUP  
CyDmacError. . . . . . . . . . . . . . . CODE     CYDMAC  
CyDmacErrorAddress . . . . . . . . . . . CODE     CYDMAC  
CyDmaChAlloc . . . . . . . . . . . . . . CODE     CYDMAC  
CyDmaTdAllocate. . . . . . . . . . . . . CODE     CYDMAC  MAIN  
CyDmaTdFreeCount . . . . . . . . . . . . CODE     CYDMAC  
CyEEPROM_ReadRelease . . . . . . . . . . CODE     CYFLASH  EEPROM  
CyEEPROM_ReadReserve . . . . . . . . . . CODE     CYFLASH  EEPROM  
CyEEPROM_Start . . . . . . . . . . . . . CODE     CYFLASH  EEPROM  
CyEEPROM_Stop. . . . . . . . . . . . . . CODE     CYFLASH  EEPROM  
CyEnterCriticalSection . . . . . . . . . CODE     CYBOOTASMKEIL  ADC  ADC_STATUS  COUNTER_ENC  CYDMAC  CYFLASH  CYLIB  C
                                                  YPM  CYSPC  EEPROM  FF_STATUS  MY_TIMER  SHIFTREG_ENC_1  SHIFTREG_ENC_
                                                  2  SHIFTREG_ENC_3  UART_RS485  
cyfitter_cfg . . . . . . . . . . . . . . CODE     CYFITTER_CFG  ?C_STARTUP  
CyFlash_Start. . . . . . . . . . . . . . CODE     CYFLASH  
CyFlash_Stop . . . . . . . . . . . . . . CODE     CYFLASH  
CyILO_Disable33K . . . . . . . . . . . . CODE     CYLIB  
CyILO_Enable33K. . . . . . . . . . . . . CODE     CYLIB  
CyILO_Start100K. . . . . . . . . . . . . CODE     CYLIB  CYPM  
CyILO_Start1K. . . . . . . . . . . . . . CODE     CYLIB  CYPM  
CyILO_Stop100K . . . . . . . . . . . . . CODE     CYLIB  
CyILO_Stop1K . . . . . . . . . . . . . . CODE     CYLIB  
CyIMO_DisableDoubler . . . . . . . . . . CODE     CYLIB  CYPM  
CyIMO_EnableDoubler. . . . . . . . . . . CODE     CYLIB  CYPM  
CyIMO_Stop . . . . . . . . . . . . . . . CODE     CYLIB  CYPM  
CyPLL_OUT_Stop . . . . . . . . . . . . . CODE     CYLIB  CYPM  
CyPmHibernate. . . . . . . . . . . . . . CODE     CYPM  
CyPmOppsSet. . . . . . . . . . . . . . . CODE     CYPM  
CyPmRestoreClocks. . . . . . . . . . . . CODE     CYPM  
CyPmSaveClocks . . . . . . . . . . . . . CODE     CYPM  
CyResetStatus. . . . . . . . . . . . . . XDATA    CYLIB  ?C_STARTUP  
CySetTemp. . . . . . . . . . . . . . . . CODE     CYFLASH  COMMAND_PROCESSING  EEPROM  
LX51 LINKER/LOCATER V4.64.0.0                                                         01/10/2017  17:59:18  PAGE 154


CySoftwareReset. . . . . . . . . . . . . CODE     CYLIB  BOOTLOADABLE  
CySpcGetAlgorithm. . . . . . . . . . . . CODE     CYSPC  CYFLASH  
CySpcLock. . . . . . . . . . . . . . . . CODE     CYSPC  CYFLASH  EEPROM  
CySpcStart . . . . . . . . . . . . . . . CODE     CYSPC  CYFLASH  EEPROM  
CySpcStop. . . . . . . . . . . . . . . . CODE     CYSPC  
CySpcUnlock. . . . . . . . . . . . . . . CODE     CYSPC  CYFLASH  EEPROM  
CyVdHvAnalogDisable. . . . . . . . . . . CODE     CYLIB  CYPM  
CyVdHvAnalogEnable . . . . . . . . . . . CODE     CYLIB  CYPM  
CyVdLvAnalogDisable. . . . . . . . . . . CODE     CYLIB  CYPM  
CyVdLvDigitDisable . . . . . . . . . . . CODE     CYLIB  CYPM  
CyVdRealTimeStatus . . . . . . . . . . . CODE     CYLIB  
CyWdtClear . . . . . . . . . . . . . . . CODE     CYLIB  
CyXTAL_32KHZ_ReadStatus. . . . . . . . . CODE     CYLIB  
CyXTAL_32KHZ_Start . . . . . . . . . . . CODE     CYLIB  CYPM  
CyXTAL_32KHZ_Stop. . . . . . . . . . . . CODE     CYLIB  
CyXTAL_DisableErrStatus. . . . . . . . . CODE     CYLIB  
CyXTAL_DisableFaultRecovery. . . . . . . CODE     CYLIB  
CyXTAL_EnableErrStatus . . . . . . . . . CODE     CYLIB  
CyXTAL_EnableFaultRecovery . . . . . . . CODE     CYLIB  
CyXTAL_ReadStatus. . . . . . . . . . . . CODE     CYLIB  
CyXTAL_Stop. . . . . . . . . . . . . . . CODE     CYLIB  CYPM  
dev_pwm_limit. . . . . . . . . . . . . . XDATA    GLOBALS  COMMAND_PROCESSING  INTERRUPTIONS  MAIN  
dev_tension. . . . . . . . . . . . . . . XDATA    GLOBALS  COMMAND_PROCESSING  INTERRUPTIONS  
dieTemperature . . . . . . . . . . . . . XDATA    CYFLASH  EEPROM  
DMA_DmaHandle. . . . . . . . . . . . . . XDATA    DMA_DMA  
DMA_DmaRelease . . . . . . . . . . . . . CODE     DMA_DMA  
DPH. . . . . . . . . . . . . . . . . . . DATA     COMMAND_PROCESSING  
DPH1 . . . . . . . . . . . . . . . . . . DATA     COMMAND_PROCESSING  
DPL. . . . . . . . . . . . . . . . . . . DATA     COMMAND_PROCESSING  
DPL1 . . . . . . . . . . . . . . . . . . DATA     COMMAND_PROCESSING  
DPS. . . . . . . . . . . . . . . . . . . DATA     COMMAND_PROCESSING  
DPX. . . . . . . . . . . . . . . . . . . DATA     COMMAND_PROCESSING  
DPX1 . . . . . . . . . . . . . . . . . . DATA     COMMAND_PROCESSING  
EA . . . . . . . . . . . . . . . . . . . DATA     COMMAND_PROCESSING  
EEPROM_ADDR. . . . . . . . . . . . . . . XDATA    COMMAND_PROCESSING  
EEPROM_Enable. . . . . . . . . . . . . . CODE     EEPROM  
EEPROM_Query . . . . . . . . . . . . . . CODE     EEPROM  
EEPROM_Start . . . . . . . . . . . . . . CODE     EEPROM  MAIN  
EEPROM_Stop. . . . . . . . . . . . . . . CODE     EEPROM  
EEPROM_UpdateTemperature . . . . . . . . CODE     EEPROM  
F0 . . . . . . . . . . . . . . . . . . . DATA     COMMAND_PROCESSING  
F1 . . . . . . . . . . . . . . . . . . . DATA     COMMAND_PROCESSING  
FF_STATUS_InterruptDisable . . . . . . . CODE     FF_STATUS  
FF_STATUS_InterruptEnable. . . . . . . . CODE     FF_STATUS  
FF_STATUS_Read . . . . . . . . . . . . . CODE     FF_STATUS  MAIN  
FF_STATUS_ReadMask . . . . . . . . . . . CODE     FF_STATUS  
FTDI_ENABLE_REG_Read . . . . . . . . . . CODE     FTDI_ENABLE_REG  
function_scheduler . . . . . . . . . . . CODE     INTERRUPTIONS  MAIN  
g_meas . . . . . . . . . . . . . . . . . XDATA    GLOBALS  COMMAND_PROCESSING  INTERRUPTIONS  MAIN  
g_measOld. . . . . . . . . . . . . . . . XDATA    GLOBALS  COMMAND_PROCESSING  INTERRUPTIONS  
g_mem. . . . . . . . . . . . . . . . . . XDATA    GLOBALS  COMMAND_PROCESSING  INTERRUPTIONS  UTILS  
g_ref. . . . . . . . . . . . . . . . . . XDATA    GLOBALS  COMMAND_PROCESSING  INTERRUPTIONS  MAIN  UTILS  
g_refNew . . . . . . . . . . . . . . . . XDATA    GLOBALS  COMMAND_PROCESSING  INTERRUPTIONS  MAIN  
g_refOld . . . . . . . . . . . . . . . . XDATA    GLOBALS  COMMAND_PROCESSING  INTERRUPTIONS  
g_rx . . . . . . . . . . . . . . . . . . XDATA    GLOBALS  COMMAND_PROCESSING  INTERRUPTIONS  MAIN  
IE . . . . . . . . . . . . . . . . . . . DATA     COMMAND_PROCESSING  
infoSend . . . . . . . . . . . . . . . . CODE     COMMAND_PROCESSING  
interrupt_flag . . . . . . . . . . . . . BIT      GLOBALS  INTERRUPTIONS  MAIN  
interrupt_manager. . . . . . . . . . . . CODE     INTERRUPTIONS  MAIN  
ISR_RS485_RX_ClearPending. . . . . . . . CODE     ISR_RS485_RX  
ISR_RS485_RX_Disable . . . . . . . . . . CODE     ISR_RS485_RX  COMMAND_PROCESSING  
ISR_RS485_RX_Enable. . . . . . . . . . . CODE     ISR_RS485_RX  COMMAND_PROCESSING  
ISR_RS485_RX_ExInterrupt . . . . . . . . CODE     INTERRUPTIONS  MAIN  
ISR_RS485_RX_GetPriority . . . . . . . . CODE     ISR_RS485_RX  
ISR_RS485_RX_GetState. . . . . . . . . . CODE     ISR_RS485_RX  
LX51 LINKER/LOCATER V4.64.0.0                                                         01/10/2017  17:59:18  PAGE 155


ISR_RS485_RX_GetVector . . . . . . . . . CODE     ISR_RS485_RX  
ISR_RS485_RX_Interrupt . . . . . . . . . CODE     ISR_RS485_RX  
ISR_RS485_RX_SetPending. . . . . . . . . CODE     ISR_RS485_RX  
ISR_RS485_RX_Start . . . . . . . . . . . CODE     ISR_RS485_RX  
ISR_RS485_RX_Stop. . . . . . . . . . . . CODE     ISR_RS485_RX  
ISR_WATCHDOG_ClearPending. . . . . . . . CODE     ISR_WATCHDOG  
ISR_WATCHDOG_Disable . . . . . . . . . . CODE     ISR_WATCHDOG  
ISR_WATCHDOG_Enable. . . . . . . . . . . CODE     ISR_WATCHDOG  
ISR_WATCHDOG_GetPriority . . . . . . . . CODE     ISR_WATCHDOG  
ISR_WATCHDOG_GetState. . . . . . . . . . CODE     ISR_WATCHDOG  
ISR_WATCHDOG_GetVector . . . . . . . . . CODE     ISR_WATCHDOG  
ISR_WATCHDOG_Handler . . . . . . . . . . CODE     INTERRUPTIONS  MAIN  
ISR_WATCHDOG_Interrupt . . . . . . . . . CODE     ISR_WATCHDOG  
ISR_WATCHDOG_SetPending. . . . . . . . . CODE     ISR_WATCHDOG  
ISR_WATCHDOG_Start . . . . . . . . . . . CODE     ISR_WATCHDOG  
ISR_WATCHDOG_Stop. . . . . . . . . . . . CODE     ISR_WATCHDOG  
LED_BLINK_EN_Read. . . . . . . . . . . . CODE     LED_BLINK_EN  
LED_BLINK_Enable . . . . . . . . . . . . CODE     LED_BLINK  
LED_BLINK_Init . . . . . . . . . . . . . CODE     LED_BLINK  
LED_BLINK_initVar. . . . . . . . . . . . XDATA    LED_BLINK  
LED_BLINK_ReadCapture. . . . . . . . . . CODE     LED_BLINK  
LED_BLINK_ReadCompare. . . . . . . . . . CODE     LED_BLINK  
LED_BLINK_ReadControlRegister. . . . . . CODE     LED_BLINK  
LED_BLINK_ReadCounter. . . . . . . . . . CODE     LED_BLINK  
LED_BLINK_ReadPeriod . . . . . . . . . . CODE     LED_BLINK  
LED_BLINK_Start. . . . . . . . . . . . . CODE     LED_BLINK  MAIN  
LED_BLINK_Stop . . . . . . . . . . . . . CODE     LED_BLINK  
LED_CTRL_Read. . . . . . . . . . . . . . CODE     LED_CTRL  
main . . . . . . . . . . . . . . . . . . CODE     MAIN  ?C_INIT  
master_mode. . . . . . . . . . . . . . . XDATA    GLOBALS  INTERRUPTIONS  MAIN  
memInit. . . . . . . . . . . . . . . . . CODE     COMMAND_PROCESSING  
memRecall. . . . . . . . . . . . . . . . CODE     COMMAND_PROCESSING  MAIN  
memRestore . . . . . . . . . . . . . . . CODE     COMMAND_PROCESSING  
motor_control. . . . . . . . . . . . . . CODE     INTERRUPTIONS  
MOTOR_DIR_Read . . . . . . . . . . . . . CODE     MOTOR_DIR  
MOTOR_ON_OFF_Read. . . . . . . . . . . . CODE     MOTOR_ON_OFF  
MXAX . . . . . . . . . . . . . . . . . . DATA     COMMAND_PROCESSING  
MY_TIMER_ClearFIFO . . . . . . . . . . . CODE     MY_TIMER  
MY_TIMER_Enable. . . . . . . . . . . . . CODE     MY_TIMER  
MY_TIMER_Init. . . . . . . . . . . . . . CODE     MY_TIMER  
MY_TIMER_initVar . . . . . . . . . . . . XDATA    MY_TIMER  
MY_TIMER_ReadCapture . . . . . . . . . . CODE     MY_TIMER  
MY_TIMER_ReadControlRegister . . . . . . CODE     MY_TIMER  
MY_TIMER_ReadCounter . . . . . . . . . . CODE     MY_TIMER  INTERRUPTIONS  
MY_TIMER_ReadPeriod. . . . . . . . . . . CODE     MY_TIMER  
MY_TIMER_ReadStatusRegister. . . . . . . CODE     MY_TIMER  
MY_TIMER_SoftwareCapture . . . . . . . . CODE     MY_TIMER  
MY_TIMER_Start . . . . . . . . . . . . . CODE     MY_TIMER  MAIN  
MY_TIMER_Stop. . . . . . . . . . . . . . CODE     MY_TIMER  
OV . . . . . . . . . . . . . . . . . . . DATA     COMMAND_PROCESSING  
overcurrent_control. . . . . . . . . . . CODE     INTERRUPTIONS  
P. . . . . . . . . . . . . . . . . . . . DATA     COMMAND_PROCESSING  
P2AX . . . . . . . . . . . . . . . . . . DATA     COMMAND_PROCESSING  
PACER_TIMER_Enable . . . . . . . . . . . CODE     PACER_TIMER  
PACER_TIMER_Init . . . . . . . . . . . . CODE     PACER_TIMER  
PACER_TIMER_initVar. . . . . . . . . . . XDATA    PACER_TIMER  
PACER_TIMER_ReadCapture. . . . . . . . . CODE     PACER_TIMER  
PACER_TIMER_ReadControlRegister. . . . . CODE     PACER_TIMER  
PACER_TIMER_ReadCounter. . . . . . . . . CODE     PACER_TIMER  
PACER_TIMER_ReadPeriod . . . . . . . . . CODE     PACER_TIMER  
PACER_TIMER_ReadStatusRegister . . . . . CODE     PACER_TIMER  
PACER_TIMER_SoftwareCapture. . . . . . . CODE     PACER_TIMER  
PACER_TIMER_Start. . . . . . . . . . . . CODE     PACER_TIMER  MAIN  
PACER_TIMER_Stop . . . . . . . . . . . . CODE     PACER_TIMER  
PSW. . . . . . . . . . . . . . . . . . . DATA     COMMAND_PROCESSING  
LX51 LINKER/LOCATER V4.64.0.0                                                         01/10/2017  17:59:18  PAGE 156


pwm_limit_search . . . . . . . . . . . . CODE     INTERRUPTIONS  
PWM_MOTORS_Enable. . . . . . . . . . . . CODE     PWM_MOTORS  
PWM_MOTORS_Init. . . . . . . . . . . . . CODE     PWM_MOTORS  
PWM_MOTORS_initVar . . . . . . . . . . . XDATA    PWM_MOTORS  
PWM_MOTORS_ReadCapture . . . . . . . . . CODE     PWM_MOTORS  
PWM_MOTORS_ReadCompare1. . . . . . . . . CODE     PWM_MOTORS  
PWM_MOTORS_ReadCompare2. . . . . . . . . CODE     PWM_MOTORS  
PWM_MOTORS_ReadControlRegister . . . . . CODE     PWM_MOTORS  
PWM_MOTORS_ReadCounter . . . . . . . . . CODE     PWM_MOTORS  
PWM_MOTORS_ReadPeriod. . . . . . . . . . CODE     PWM_MOTORS  
PWM_MOTORS_Start . . . . . . . . . . . . CODE     PWM_MOTORS  MAIN  
PWM_MOTORS_Stop. . . . . . . . . . . . . CODE     PWM_MOTORS  
pwm_sign . . . . . . . . . . . . . . . . XDATA    GLOBALS  INTERRUPTIONS  
RESET_COUNTERS_Read. . . . . . . . . . . CODE     RESET_COUNTERS  
RESET_FF_Read. . . . . . . . . . . . . . CODE     RESET_FF  
reset_last_value_flag. . . . . . . . . . BIT      GLOBALS  COMMAND_PROCESSING  INTERRUPTIONS  MAIN  
RS0. . . . . . . . . . . . . . . . . . . DATA     COMMAND_PROCESSING  
RS1. . . . . . . . . . . . . . . . . . . DATA     COMMAND_PROCESSING  
RS485_CTS_Read . . . . . . . . . . . . . CODE     RS485_CTS  
setZeros . . . . . . . . . . . . . . . . CODE     COMMAND_PROCESSING  
SFRPRT0DR. . . . . . . . . . . . . . . . DATA     COMMAND_PROCESSING  
SFRPRT0PS. . . . . . . . . . . . . . . . DATA     COMMAND_PROCESSING  
SFRPRT0SEL . . . . . . . . . . . . . . . DATA     COMMAND_PROCESSING  
SFRPRT12DR . . . . . . . . . . . . . . . DATA     COMMAND_PROCESSING  
SFRPRT12PS . . . . . . . . . . . . . . . DATA     COMMAND_PROCESSING  
SFRPRT12SEL. . . . . . . . . . . . . . . DATA     COMMAND_PROCESSING  
SFRPRT15DR . . . . . . . . . . . . . . . DATA     COMMAND_PROCESSING  
SFRPRT15PS . . . . . . . . . . . . . . . DATA     COMMAND_PROCESSING  
SFRPRT15SEL. . . . . . . . . . . . . . . DATA     COMMAND_PROCESSING  
SFRPRT1DR. . . . . . . . . . . . . . . . DATA     COMMAND_PROCESSING  
SFRPRT1PS. . . . . . . . . . . . . . . . DATA     COMMAND_PROCESSING  
SFRPRT1SEL . . . . . . . . . . . . . . . DATA     COMMAND_PROCESSING  
SFRPRT2DR. . . . . . . . . . . . . . . . DATA     COMMAND_PROCESSING  
SFRPRT2PS. . . . . . . . . . . . . . . . DATA     COMMAND_PROCESSING  
SFRPRT2SEL . . . . . . . . . . . . . . . DATA     COMMAND_PROCESSING  
SFRPRT3DR. . . . . . . . . . . . . . . . DATA     COMMAND_PROCESSING  
SFRPRT3PS. . . . . . . . . . . . . . . . DATA     COMMAND_PROCESSING  
SFRPRT3SEL . . . . . . . . . . . . . . . DATA     COMMAND_PROCESSING  
SFRPRT4DR. . . . . . . . . . . . . . . . DATA     COMMAND_PROCESSING  
SFRPRT4PS. . . . . . . . . . . . . . . . DATA     COMMAND_PROCESSING  
SFRPRT4SEL . . . . . . . . . . . . . . . DATA     COMMAND_PROCESSING  
SFRPRT5DR. . . . . . . . . . . . . . . . DATA     COMMAND_PROCESSING  
SFRPRT5PS. . . . . . . . . . . . . . . . DATA     COMMAND_PROCESSING  
SFRPRT5SEL . . . . . . . . . . . . . . . DATA     COMMAND_PROCESSING  
SFRPRT6DR. . . . . . . . . . . . . . . . DATA     COMMAND_PROCESSING  
SFRPRT6PS. . . . . . . . . . . . . . . . DATA     COMMAND_PROCESSING  
SFRPRT6SEL . . . . . . . . . . . . . . . DATA     COMMAND_PROCESSING  
SHIFTREG_ENC_1_DisableInt. . . . . . . . CODE     SHIFTREG_ENC_1  
SHIFTREG_ENC_1_Enable. . . . . . . . . . CODE     SHIFTREG_ENC_1  
SHIFTREG_ENC_1_EnableInt . . . . . . . . CODE     SHIFTREG_ENC_1  
SHIFTREG_ENC_1_GetIntStatus. . . . . . . CODE     SHIFTREG_ENC_1  
SHIFTREG_ENC_1_Init. . . . . . . . . . . CODE     SHIFTREG_ENC_1  
SHIFTREG_ENC_1_initVar . . . . . . . . . XDATA    SHIFTREG_ENC_1  
SHIFTREG_ENC_1_ReadData. . . . . . . . . CODE     SHIFTREG_ENC_1  INTERRUPTIONS  
SHIFTREG_ENC_1_ReadRegValue. . . . . . . CODE     SHIFTREG_ENC_1  
SHIFTREG_ENC_1_Start . . . . . . . . . . CODE     SHIFTREG_ENC_1  MAIN  
SHIFTREG_ENC_1_Stop. . . . . . . . . . . CODE     SHIFTREG_ENC_1  
SHIFTREG_ENC_2_DisableInt. . . . . . . . CODE     SHIFTREG_ENC_2  
SHIFTREG_ENC_2_Enable. . . . . . . . . . CODE     SHIFTREG_ENC_2  
SHIFTREG_ENC_2_EnableInt . . . . . . . . CODE     SHIFTREG_ENC_2  
SHIFTREG_ENC_2_GetIntStatus. . . . . . . CODE     SHIFTREG_ENC_2  
SHIFTREG_ENC_2_Init. . . . . . . . . . . CODE     SHIFTREG_ENC_2  
SHIFTREG_ENC_2_initVar . . . . . . . . . XDATA    SHIFTREG_ENC_2  
SHIFTREG_ENC_2_ReadData. . . . . . . . . CODE     SHIFTREG_ENC_2  INTERRUPTIONS  
SHIFTREG_ENC_2_ReadRegValue. . . . . . . CODE     SHIFTREG_ENC_2  
LX51 LINKER/LOCATER V4.64.0.0                                                         01/10/2017  17:59:18  PAGE 157


SHIFTREG_ENC_2_Start . . . . . . . . . . CODE     SHIFTREG_ENC_2  MAIN  
SHIFTREG_ENC_2_Stop. . . . . . . . . . . CODE     SHIFTREG_ENC_2  
SHIFTREG_ENC_3_DisableInt. . . . . . . . CODE     SHIFTREG_ENC_3  
SHIFTREG_ENC_3_Enable. . . . . . . . . . CODE     SHIFTREG_ENC_3  
SHIFTREG_ENC_3_EnableInt . . . . . . . . CODE     SHIFTREG_ENC_3  
SHIFTREG_ENC_3_GetIntStatus. . . . . . . CODE     SHIFTREG_ENC_3  
SHIFTREG_ENC_3_Init. . . . . . . . . . . CODE     SHIFTREG_ENC_3  
SHIFTREG_ENC_3_initVar . . . . . . . . . XDATA    SHIFTREG_ENC_3  
SHIFTREG_ENC_3_ReadData. . . . . . . . . CODE     SHIFTREG_ENC_3  INTERRUPTIONS  
SHIFTREG_ENC_3_ReadRegValue. . . . . . . CODE     SHIFTREG_ENC_3  
SHIFTREG_ENC_3_Start . . . . . . . . . . CODE     SHIFTREG_ENC_3  MAIN  
SHIFTREG_ENC_3_Stop. . . . . . . . . . . CODE     SHIFTREG_ENC_3  
SP . . . . . . . . . . . . . . . . . . . DATA     COMMAND_PROCESSING  
SpcLockState . . . . . . . . . . . . . . XDATA    CYSPC  
STARTUP1 . . . . . . . . . . . . . . . . CODE     ?C_STARTUP  
tau_feedback . . . . . . . . . . . . . . XDATA    GLOBALS  
tension_valid. . . . . . . . . . . . . . BIT      GLOBALS  INTERRUPTIONS  MAIN  
timer_value. . . . . . . . . . . . . . . XDATA    GLOBALS  COMMAND_PROCESSING  INTERRUPTIONS  
timer_value0 . . . . . . . . . . . . . . XDATA    GLOBALS  COMMAND_PROCESSING  INTERRUPTIONS  
UART_RS485_ClearRxBuffer . . . . . . . . CODE     UART_RS485  MAIN  
UART_RS485_ClearTxBuffer . . . . . . . . CODE     UART_RS485  MAIN  
UART_RS485_Enable. . . . . . . . . . . . CODE     UART_RS485  
UART_RS485_errorStatus . . . . . . . . . XDATA    UART_RS485  UART_RS485_INT  
UART_RS485_GetByte . . . . . . . . . . . CODE     UART_RS485  
UART_RS485_GetChar . . . . . . . . . . . CODE     UART_RS485  INTERRUPTIONS  
UART_RS485_GetRxBufferSize . . . . . . . CODE     UART_RS485  INTERRUPTIONS  
UART_RS485_GetTxBufferSize . . . . . . . CODE     UART_RS485  
UART_RS485_Init. . . . . . . . . . . . . CODE     UART_RS485  MAIN  
UART_RS485_initVar . . . . . . . . . . . XDATA    UART_RS485  
UART_RS485_ReadControlRegister . . . . . CODE     UART_RS485  
UART_RS485_ReadRxData. . . . . . . . . . CODE     UART_RS485  
UART_RS485_ReadRxStatus. . . . . . . . . CODE     UART_RS485  MAIN  
UART_RS485_ReadTxStatus. . . . . . . . . CODE     UART_RS485  COMMAND_PROCESSING  
UART_RS485_rxBuffer. . . . . . . . . . . XDATA    UART_RS485  UART_RS485_INT  
UART_RS485_rxBufferLoopDetect. . . . . . XDATA    UART_RS485  UART_RS485_INT  
UART_RS485_rxBufferOverflow. . . . . . . XDATA    UART_RS485  UART_RS485_INT  
UART_RS485_rxBufferRead. . . . . . . . . XDATA    UART_RS485  UART_RS485_INT  
UART_RS485_rxBufferWrite . . . . . . . . XDATA    UART_RS485  UART_RS485_INT  
UART_RS485_RXISR . . . . . . . . . . . . CODE     UART_RS485_INT  UART_RS485  
UART_RS485_Start . . . . . . . . . . . . CODE     UART_RS485  MAIN  
UART_RS485_Stop. . . . . . . . . . . . . CODE     UART_RS485  MAIN  
WATCHDOG_COUNTER_Enable. . . . . . . . . CODE     WATCHDOG_COUNTER  
WATCHDOG_COUNTER_Init. . . . . . . . . . CODE     WATCHDOG_COUNTER  
WATCHDOG_COUNTER_initVar . . . . . . . . XDATA    WATCHDOG_COUNTER  
WATCHDOG_COUNTER_ReadCapture . . . . . . CODE     WATCHDOG_COUNTER  
WATCHDOG_COUNTER_ReadControlRegister . . CODE     WATCHDOG_COUNTER  
WATCHDOG_COUNTER_ReadCounter . . . . . . CODE     WATCHDOG_COUNTER  
WATCHDOG_COUNTER_ReadPeriod. . . . . . . CODE     WATCHDOG_COUNTER  
WATCHDOG_COUNTER_ReadStatusRegister. . . CODE     WATCHDOG_COUNTER  
WATCHDOG_COUNTER_Start . . . . . . . . . CODE     WATCHDOG_COUNTER  MAIN  
WATCHDOG_COUNTER_Stop. . . . . . . . . . CODE     WATCHDOG_COUNTER  
WATCHDOG_ENABLER_Read. . . . . . . . . . CODE     WATCHDOG_ENABLER  
watchdog_flag. . . . . . . . . . . . . . BIT      GLOBALS  INTERRUPTIONS  MAIN  
WATCHDOG_REFRESH_Read. . . . . . . . . . CODE     WATCHDOG_REFRESH  

Program Size: data=102.1 xdata=3498 const=3027 code=43850
LX51 RUN COMPLETE.  0 WARNING(S),  0 ERROR(S)
