LX51 LINKER/LOCATER V4.64.0.0                                                           04/06/2018  15:41:10  PAGE 1


LX51 LINKER/LOCATER V4.64.0.0, INVOKED BY:
C:\PROGRAM FILES (X86)\CYPRESS\PSOC CREATOR\4.1\PSOC CREATOR\IMPORT\KEIL\PK51\9.51\C51\BIN\LX51.EXE .\DP8051_Keil_951\Re
>> lease\command_processing.obj, .\DP8051_Keil_951\Release\globals.obj, .\DP8051_Keil_951\Release\interruptions.obj, .\D
>> P8051_Keil_951\Release\main.obj, .\DP8051_Keil_951\Release\utils.obj, .\DP8051_Keil_951\Release\cyfitter_cfg.obj, .\D
>> P8051_Keil_951\Release\hand_firmware_micro.lib, C:\Program Files (x86)\Cypress\PSoC Creator\4.1\PSoC Creator\psoc\con
>> tent\cycomponentlibrary\CyComponentLibrary.cylib\DP8051\DP8051_Keil_951\Release\CyComponentLibrary.lib TO .\DP8051_Ke
>> il_951\Release\hand_firmware_micro.omf CODE RU RC (10) DW (16) WL (2) PR (.\DP8051_Keil_951\Release/hand_firmware_mic
>> ro.map) IX CL (XDATA (X:0X0000-X:0X1FFF)) CL (CODE (C:0X2600-C:0XFFBF)) CL (CONST (C:0X2600-C:0XFFBF))


CPU MODE:     8051 MODE
MEMORY MODEL: LARGE WITH FLOATING POINT ARITHMETIC


INPUT MODULES INCLUDED:
  .\DP8051_Keil_951\Release\command_processing.obj (COMMAND_PROCESSING)
         COMMENT TYPE 0: C51 V9.51
  .\DP8051_Keil_951\Release\globals.obj (GLOBALS)
         COMMENT TYPE 0: C51 V9.51
  .\DP8051_Keil_951\Release\interruptions.obj (INTERRUPTIONS)
         COMMENT TYPE 0: C51 V9.51
  .\DP8051_Keil_951\Release\main.obj (MAIN)
         COMMENT TYPE 0: C51 V9.51
  .\DP8051_Keil_951\Release\utils.obj (UTILS)
         COMMENT TYPE 0: C51 V9.51
  .\DP8051_Keil_951\Release\cyfitter_cfg.obj (CYFITTER_CFG)
         COMMENT TYPE 0: C51 V9.51
  .\DP8051_Keil_951\Release\hand_firmware_micro.lib (CLOCK_UART)
         COMMENT TYPE 0: C51 V9.51
  .\DP8051_Keil_951\Release\hand_firmware_micro.lib (ISR_RS485_RX)
         COMMENT TYPE 0: C51 V9.51
  .\DP8051_Keil_951\Release\hand_firmware_micro.lib (PWM_MOTORS)
         COMMENT TYPE 0: C51 V9.51
  .\DP8051_Keil_951\Release\hand_firmware_micro.lib (PACER_TIMER)
         COMMENT TYPE 0: C51 V9.51
  .\DP8051_Keil_951\Release\hand_firmware_micro.lib (UART_RS485)
         COMMENT TYPE 0: C51 V9.51
  .\DP8051_Keil_951\Release\hand_firmware_micro.lib (MOTOR_DIR)
         COMMENT TYPE 0: C51 V9.51
  .\DP8051_Keil_951\Release\hand_firmware_micro.lib (COUNTER_ENC)
         COMMENT TYPE 0: C51 V9.51
  .\DP8051_Keil_951\Release\hand_firmware_micro.lib (SHIFTREG_ENC_3)
         COMMENT TYPE 0: C51 V9.51
  .\DP8051_Keil_951\Release\hand_firmware_micro.lib (SHIFTREG_ENC_2)
         COMMENT TYPE 0: C51 V9.51
  .\DP8051_Keil_951\Release\hand_firmware_micro.lib (EEPROM)
         COMMENT TYPE 0: C51 V9.51
  .\DP8051_Keil_951\Release\hand_firmware_micro.lib (ADC)
         COMMENT TYPE 0: C51 V9.51
  .\DP8051_Keil_951\Release\hand_firmware_micro.lib (RS485_CTS)
         COMMENT TYPE 0: C51 V9.51
  .\DP8051_Keil_951\Release\hand_firmware_micro.lib (BOOTLOADABLE)
         COMMENT TYPE 0: C51 V9.51
  .\DP8051_Keil_951\Release\hand_firmware_micro.lib (MOTOR_ON_OFF)
         COMMENT TYPE 0: C51 V9.51
  .\DP8051_Keil_951\Release\hand_firmware_micro.lib (FTDI_ENABLE_REG)
         COMMENT TYPE 0: C51 V9.51
  .\DP8051_Keil_951\Release\hand_firmware_micro.lib (RESET_FF)
         COMMENT TYPE 0: C51 V9.51
  .\DP8051_Keil_951\Release\hand_firmware_micro.lib (FF_STATUS)
         COMMENT TYPE 0: C51 V9.51
  .\DP8051_Keil_951\Release\hand_firmware_micro.lib (MY_TIMER)
         COMMENT TYPE 0: C51 V9.51
  .\DP8051_Keil_951\Release\hand_firmware_micro.lib (SHIFTREG_ENC_1)
         COMMENT TYPE 0: C51 V9.51
  .\DP8051_Keil_951\Release\hand_firmware_micro.lib (RESET_COUNTERS)
LX51 LINKER/LOCATER V4.64.0.0                                                         04/06/2018  15:41:10  PAGE 2


         COMMENT TYPE 0: C51 V9.51
  .\DP8051_Keil_951\Release\hand_firmware_micro.lib (ADC_STATUS)
         COMMENT TYPE 0: C51 V9.51
  .\DP8051_Keil_951\Release\hand_firmware_micro.lib (DMA_DMA)
         COMMENT TYPE 0: C51 V9.51
  .\DP8051_Keil_951\Release\hand_firmware_micro.lib (ADC_SOC)
         COMMENT TYPE 0: C51 V9.51
  .\DP8051_Keil_951\Release\hand_firmware_micro.lib (ISR_WATCHDOG)
         COMMENT TYPE 0: C51 V9.51
  .\DP8051_Keil_951\Release\hand_firmware_micro.lib (WATCHDOG_COUNTER)
         COMMENT TYPE 0: C51 V9.51
  .\DP8051_Keil_951\Release\hand_firmware_micro.lib (WATCHDOG_ENABLER)
         COMMENT TYPE 0: C51 V9.51
  .\DP8051_Keil_951\Release\hand_firmware_micro.lib (WATCHDOG_REFRESH)
         COMMENT TYPE 0: C51 V9.51
  .\DP8051_Keil_951\Release\hand_firmware_micro.lib (CYDMAC)
         COMMENT TYPE 0: C51 V9.51
  .\DP8051_Keil_951\Release\hand_firmware_micro.lib (CYFLASH)
         COMMENT TYPE 0: C51 V9.51
  .\DP8051_Keil_951\Release\hand_firmware_micro.lib (CYLIB)
         COMMENT TYPE 0: C51 V9.51
  .\DP8051_Keil_951\Release\hand_firmware_micro.lib (LED_BLINK)
         COMMENT TYPE 0: C51 V9.51
  .\DP8051_Keil_951\Release\hand_firmware_micro.lib (LED_CTRL)
         COMMENT TYPE 0: C51 V9.51
  .\DP8051_Keil_951\Release\hand_firmware_micro.lib (LED_BLINK_EN)
         COMMENT TYPE 0: C51 V9.51
  .\DP8051_Keil_951\Release\hand_firmware_micro.lib (CYBOOTASMKEIL)
         COMMENT TYPE 0: AX51 V3.07d
  .\DP8051_Keil_951\Release\hand_firmware_micro.lib (CYMEM)
         COMMENT TYPE 0: AX51 V3.07d
  .\DP8051_Keil_951\Release\hand_firmware_micro.lib (?C_STARTUP)
         COMMENT TYPE 0: AX51 V3.07d
  .\DP8051_Keil_951\Release\hand_firmware_micro.lib (UART_RS485_INT)
         COMMENT TYPE 0: C51 V9.51
  .\DP8051_Keil_951\Release\hand_firmware_micro.lib (ADC_INT)
         COMMENT TYPE 0: C51 V9.51
  .\DP8051_Keil_951\Release\hand_firmware_micro.lib (ADC_AMUX)
         COMMENT TYPE 0: C51 V9.51
  .\DP8051_Keil_951\Release\hand_firmware_micro.lib (ADC_EXT_CP_CLK)
         COMMENT TYPE 0: C51 V9.51
  .\DP8051_Keil_951\Release\hand_firmware_micro.lib (ADC_THEACLK)
         COMMENT TYPE 0: C51 V9.51
  .\DP8051_Keil_951\Release\hand_firmware_micro.lib (CYPM)
         COMMENT TYPE 0: C51 V9.51
  .\DP8051_Keil_951\Release\hand_firmware_micro.lib (CYSPC)
         COMMENT TYPE 0: C51 V9.51
  C:\PROGRAM FILES (X86)\CYPRESS\PSOC CREATOR\4.1\PSOC CREATOR\IMPORT\KEIL\PK51\9.51\C51\LIB\C51FPL.LIB (?C?FPADD)
         COMMENT TYPE 1: A51 / ASM51 Assembler
  C:\PROGRAM FILES (X86)\CYPRESS\PSOC CREATOR\4.1\PSOC CREATOR\IMPORT\KEIL\PK51\9.51\C51\LIB\C51FPL.LIB (?C?FPMUL)
         COMMENT TYPE 1: A51 / ASM51 Assembler
  C:\PROGRAM FILES (X86)\CYPRESS\PSOC CREATOR\4.1\PSOC CREATOR\IMPORT\KEIL\PK51\9.51\C51\LIB\C51FPL.LIB (?C?FPDIV)
         COMMENT TYPE 1: A51 / ASM51 Assembler
  C:\PROGRAM FILES (X86)\CYPRESS\PSOC CREATOR\4.1\PSOC CREATOR\IMPORT\KEIL\PK51\9.51\C51\LIB\C51FPL.LIB (?C?FPCMP)
         COMMENT TYPE 1: A51 / ASM51 Assembler
  C:\PROGRAM FILES (X86)\CYPRESS\PSOC CREATOR\4.1\PSOC CREATOR\IMPORT\KEIL\PK51\9.51\C51\LIB\C51FPL.LIB (?C?FCAST)
         COMMENT TYPE 1: A51 / ASM51 Assembler
  C:\PROGRAM FILES (X86)\CYPRESS\PSOC CREATOR\4.1\PSOC CREATOR\IMPORT\KEIL\PK51\9.51\C51\LIB\C51FPL.LIB (?C?CASTF)
         COMMENT TYPE 1: A51 / ASM51 Assembler
  C:\PROGRAM FILES (X86)\CYPRESS\PSOC CREATOR\4.1\PSOC CREATOR\IMPORT\KEIL\PK51\9.51\C51\LIB\C51FPL.LIB (PRINTF)
         COMMENT TYPE 1: A51 / ASM51 Assembler
  C:\PROGRAM FILES (X86)\CYPRESS\PSOC CREATOR\4.1\PSOC CREATOR\IMPORT\KEIL\PK51\9.51\C51\LIB\C51FPL.LIB (?C?FPGETOPN)
         COMMENT TYPE 1: A51 / ASM51 Assembler
  C:\PROGRAM FILES (X86)\CYPRESS\PSOC CREATOR\4.1\PSOC CREATOR\IMPORT\KEIL\PK51\9.51\C51\LIB\C51FPL.LIB (?C?FPROUND)
         COMMENT TYPE 1: A51 / ASM51 Assembler
LX51 LINKER/LOCATER V4.64.0.0                                                         04/06/2018  15:41:10  PAGE 3


  C:\PROGRAM FILES (X86)\CYPRESS\PSOC CREATOR\4.1\PSOC CREATOR\IMPORT\KEIL\PK51\9.51\C51\LIB\C51FPL.LIB (?C?FPCONVERT)
         COMMENT TYPE 1: A51 / ASM51 Assembler
  C:\PROGRAM FILES (X86)\CYPRESS\PSOC CREATOR\4.1\PSOC CREATOR\IMPORT\KEIL\PK51\9.51\C51\LIB\C51FPL.LIB (?C?FTNPWR)
         COMMENT TYPE 1: A51 / ASM51 Assembler
  C:\PROGRAM FILES (X86)\CYPRESS\PSOC CREATOR\4.1\PSOC CREATOR\IMPORT\KEIL\PK51\9.51\C51\LIB\C51L.LIB (?C_INIT)
         COMMENT TYPE 1: A51 / ASM51 Assembler
  C:\PROGRAM FILES (X86)\CYPRESS\PSOC CREATOR\4.1\PSOC CREATOR\IMPORT\KEIL\PK51\9.51\C51\LIB\C51L.LIB (?C?CLDPTR)
         COMMENT TYPE 1: A51 / ASM51 Assembler
  C:\PROGRAM FILES (X86)\CYPRESS\PSOC CREATOR\4.1\PSOC CREATOR\IMPORT\KEIL\PK51\9.51\C51\LIB\C51L.LIB (?C?CLDOPTR)
         COMMENT TYPE 1: A51 / ASM51 Assembler
  C:\PROGRAM FILES (X86)\CYPRESS\PSOC CREATOR\4.1\PSOC CREATOR\IMPORT\KEIL\PK51\9.51\C51\LIB\C51L.LIB (?C?CSTPTR)
         COMMENT TYPE 1: A51 / ASM51 Assembler
  C:\PROGRAM FILES (X86)\CYPRESS\PSOC CREATOR\4.1\PSOC CREATOR\IMPORT\KEIL\PK51\9.51\C51\LIB\C51L.LIB (?C?IMUL)
         COMMENT TYPE 1: A51 / ASM51 Assembler
  C:\PROGRAM FILES (X86)\CYPRESS\PSOC CREATOR\4.1\PSOC CREATOR\IMPORT\KEIL\PK51\9.51\C51\LIB\C51L.LIB (?C?ISTPTR)
         COMMENT TYPE 1: A51 / ASM51 Assembler
  C:\PROGRAM FILES (X86)\CYPRESS\PSOC CREATOR\4.1\PSOC CREATOR\IMPORT\KEIL\PK51\9.51\C51\LIB\C51L.LIB (?C?LMUL)
         COMMENT TYPE 1: A51 / ASM51 Assembler
  C:\PROGRAM FILES (X86)\CYPRESS\PSOC CREATOR\4.1\PSOC CREATOR\IMPORT\KEIL\PK51\9.51\C51\LIB\C51L.LIB (?C?ULDIV)
         COMMENT TYPE 1: A51 / ASM51 Assembler
  C:\PROGRAM FILES (X86)\CYPRESS\PSOC CREATOR\4.1\PSOC CREATOR\IMPORT\KEIL\PK51\9.51\C51\LIB\C51L.LIB (?C?SLDIV)
         COMMENT TYPE 1: A51 / ASM51 Assembler
  C:\PROGRAM FILES (X86)\CYPRESS\PSOC CREATOR\4.1\PSOC CREATOR\IMPORT\KEIL\PK51\9.51\C51\LIB\C51L.LIB (?C?LNOT)
         COMMENT TYPE 1: A51 / ASM51 Assembler
  C:\PROGRAM FILES (X86)\CYPRESS\PSOC CREATOR\4.1\PSOC CREATOR\IMPORT\KEIL\PK51\9.51\C51\LIB\C51L.LIB (?C?LNEG)
         COMMENT TYPE 1: A51 / ASM51 Assembler
  C:\PROGRAM FILES (X86)\CYPRESS\PSOC CREATOR\4.1\PSOC CREATOR\IMPORT\KEIL\PK51\9.51\C51\LIB\C51L.LIB (?C?SLCMP)
         COMMENT TYPE 1: A51 / ASM51 Assembler
  C:\PROGRAM FILES (X86)\CYPRESS\PSOC CREATOR\4.1\PSOC CREATOR\IMPORT\KEIL\PK51\9.51\C51\LIB\C51L.LIB (?C?ULCMP)
         COMMENT TYPE 1: A51 / ASM51 Assembler
  C:\PROGRAM FILES (X86)\CYPRESS\PSOC CREATOR\4.1\PSOC CREATOR\IMPORT\KEIL\PK51\9.51\C51\LIB\C51L.LIB (?C?ULSHR)
         COMMENT TYPE 1: A51 / ASM51 Assembler
  C:\PROGRAM FILES (X86)\CYPRESS\PSOC CREATOR\4.1\PSOC CREATOR\IMPORT\KEIL\PK51\9.51\C51\LIB\C51L.LIB (?C?SLSHR)
         COMMENT TYPE 1: A51 / ASM51 Assembler
  C:\PROGRAM FILES (X86)\CYPRESS\PSOC CREATOR\4.1\PSOC CREATOR\IMPORT\KEIL\PK51\9.51\C51\LIB\C51L.LIB (?C?LSHL)
         COMMENT TYPE 1: A51 / ASM51 Assembler
  C:\PROGRAM FILES (X86)\CYPRESS\PSOC CREATOR\4.1\PSOC CREATOR\IMPORT\KEIL\PK51\9.51\C51\LIB\C51L.LIB (?C?LLDPTR)
         COMMENT TYPE 1: A51 / ASM51 Assembler
  C:\PROGRAM FILES (X86)\CYPRESS\PSOC CREATOR\4.1\PSOC CREATOR\IMPORT\KEIL\PK51\9.51\C51\LIB\C51L.LIB (?C?LSTPTR)
         COMMENT TYPE 1: A51 / ASM51 Assembler
  C:\PROGRAM FILES (X86)\CYPRESS\PSOC CREATOR\4.1\PSOC CREATOR\IMPORT\KEIL\PK51\9.51\C51\LIB\C51L.LIB (?C?LSTXDATA)
         COMMENT TYPE 1: A51 / ASM51 Assembler
  C:\PROGRAM FILES (X86)\CYPRESS\PSOC CREATOR\4.1\PSOC CREATOR\IMPORT\KEIL\PK51\9.51\C51\LIB\C51L.LIB (?C?PLDIXDATA)
         COMMENT TYPE 1: A51 / ASM51 Assembler
  C:\PROGRAM FILES (X86)\CYPRESS\PSOC CREATOR\4.1\PSOC CREATOR\IMPORT\KEIL\PK51\9.51\C51\LIB\C51L.LIB (?C?PSTXDATA)
         COMMENT TYPE 1: A51 / ASM51 Assembler
  C:\PROGRAM FILES (X86)\CYPRESS\PSOC CREATOR\4.1\PSOC CREATOR\IMPORT\KEIL\PK51\9.51\C51\LIB\C51L.LIB (?C?CCASE)
         COMMENT TYPE 1: A51 / ASM51 Assembler
  C:\PROGRAM FILES (X86)\CYPRESS\PSOC CREATOR\4.1\PSOC CREATOR\IMPORT\KEIL\PK51\9.51\C51\LIB\C51L.LIB (?C_XBP)
         COMMENT TYPE 1: A51 / ASM51 Assembler
  C:\PROGRAM FILES (X86)\CYPRESS\PSOC CREATOR\4.1\PSOC CREATOR\IMPORT\KEIL\PK51\9.51\C51\LIB\C51L.LIB (?C?ADDXBP)
         COMMENT TYPE 1: A51 / ASM51 Assembler
  C:\PROGRAM FILES (X86)\CYPRESS\PSOC CREATOR\4.1\PSOC CREATOR\IMPORT\KEIL\PK51\9.51\C51\LIB\C51L.LIB (?C?LIMUL)
         COMMENT TYPE 1: A51 / ASM51 Assembler
  C:\PROGRAM FILES (X86)\CYPRESS\PSOC CREATOR\4.1\PSOC CREATOR\IMPORT\KEIL\PK51\9.51\C51\LIB\C51L.LIB (PUTCHAR)
         COMMENT TYPE 1: A51 / ASM51 Assembler
  C:\PROGRAM FILES (X86)\CYPRESS\PSOC CREATOR\4.1\PSOC CREATOR\IMPORT\KEIL\PK51\9.51\C51\LIB\C51L.LIB (ABS)
         COMMENT TYPE 1: A51 / ASM51 Assembler
  C:\PROGRAM FILES (X86)\CYPRESS\PSOC CREATOR\4.1\PSOC CREATOR\IMPORT\KEIL\PK51\9.51\C51\LIB\C51L.LIB (STRCAT)
         COMMENT TYPE 1: C51 Compiler
  C:\PROGRAM FILES (X86)\CYPRESS\PSOC CREATOR\4.1\PSOC CREATOR\IMPORT\KEIL\PK51\9.51\C51\LIB\C51L.LIB (STRLEN)
         COMMENT TYPE 1: A51 / ASM51 Assembler
  C:\PROGRAM FILES (X86)\CYPRESS\PSOC CREATOR\4.1\PSOC CREATOR\IMPORT\KEIL\PK51\9.51\C51\LIB\C51L.LIB (?C?COPYAMD)
         COMMENT TYPE 1: A51 / ASM51 Assembler
  C:\PROGRAM FILES (X86)\CYPRESS\PSOC CREATOR\4.1\PSOC CREATOR\IMPORT\KEIL\PK51\9.51\C51\LIB\C51L.LIB (?C?STRCPYAMD)
LX51 LINKER/LOCATER V4.64.0.0                                                         04/06/2018  15:41:10  PAGE 4


         COMMENT TYPE 1: A51 / ASM51 Assembler
  C:\PROGRAM FILES (X86)\CYPRESS\PSOC CREATOR\4.1\PSOC CREATOR\IMPORT\KEIL\PK51\9.51\C51\LIB\C51L.LIB (?C?IILDX)
         COMMENT TYPE 1: A51 / ASM51 Assembler
  C:\PROGRAM FILES (X86)\CYPRESS\PSOC CREATOR\4.1\PSOC CREATOR\IMPORT\KEIL\PK51\9.51\C51\LIB\C51L.LIB (?C?ILDIX)
         COMMENT TYPE 1: A51 / ASM51 Assembler
  C:\PROGRAM FILES (X86)\CYPRESS\PSOC CREATOR\4.1\PSOC CREATOR\IMPORT\KEIL\PK51\9.51\C51\LIB\C51L.LIB (?C?LLDIDATA)
         COMMENT TYPE 1: A51 / ASM51 Assembler
  C:\PROGRAM FILES (X86)\CYPRESS\PSOC CREATOR\4.1\PSOC CREATOR\IMPORT\KEIL\PK51\9.51\C51\LIB\C51L.LIB (?C?LLDXDATA)
         COMMENT TYPE 1: A51 / ASM51 Assembler
  C:\PROGRAM FILES (X86)\CYPRESS\PSOC CREATOR\4.1\PSOC CREATOR\IMPORT\KEIL\PK51\9.51\C51\LIB\C51L.LIB (?C?LLDPDATA)
         COMMENT TYPE 1: A51 / ASM51 Assembler
  C:\PROGRAM FILES (X86)\CYPRESS\PSOC CREATOR\4.1\PSOC CREATOR\IMPORT\KEIL\PK51\9.51\C51\LIB\C51L.LIB (?C?LLDCODE)
         COMMENT TYPE 1: A51 / ASM51 Assembler
  C:\PROGRAM FILES (X86)\CYPRESS\PSOC CREATOR\4.1\PSOC CREATOR\IMPORT\KEIL\PK51\9.51\C51\LIB\C51L.LIB (?C?LSTIDATA)
         COMMENT TYPE 1: A51 / ASM51 Assembler
  C:\PROGRAM FILES (X86)\CYPRESS\PSOC CREATOR\4.1\PSOC CREATOR\IMPORT\KEIL\PK51\9.51\C51\LIB\C51L.LIB (?C?LSTPDATA)
         COMMENT TYPE 1: A51 / ASM51 Assembler


ACTIVE MEMORY CLASSES OF MODULE:  .\DP8051_Keil_951\Release\hand_firmware_micro.omf (COMMAND_PROCESSING)

BASE        START       END         USED      MEMORY CLASS
==========================================================
X:000000H   X:000000H   X:001FFFH   001402H   XDATA
C:000000H   C:002600H   C:00FFBFH   00CEC9H   CODE
C:000000H   C:002600H   C:00FFBFH   0007A3H   CONST
I:000000H   I:000000H   I:00007FH   000072H   DATA
I:000020H.0 I:000020H.0 I:00002FH.7 000002H.1 BIT
I:000000H   I:000000H   I:0000FFH   000004H   IDATA


MEMORY MAP OF MODULE:  .\DP8051_Keil_951\Release\hand_firmware_micro.omf (COMMAND_PROCESSING)


START     STOP      LENGTH    ALIGN  RELOC    MEMORY CLASS   SEGMENT NAME
=========================================================================

* * * * * * * * * * *   D A T A   M E M O R Y   * * * * * * * * * * * * *
000000H   000007H   000008H   ---    AT..     DATA           "REG BANK 0"
000008H   00001DH   000016H   BYTE   UNIT     DATA           ?DT?INTERRUPTIONS
00001EH   00001FH   000002H   BYTE   UNIT     DATA           ?DT?COMMAND_PROCESSING
000020H.0 000021H.1 000001H.2 BIT    UNIT     BIT            _BIT_GROUP_
000021H.2 000021H.5 000000H.4 BIT    UNIT     BIT            ?BI?GLOBALS
000021H.6 000022H.0 000000H.3 BIT    UNIT     BIT            ?BI?INTERRUPTIONS
000022H.1 000022H   000000H.7 ---    ---      **GAP**
000023H   000072H   000050H   BYTE   UNIT     DATA           _DATA_GROUP_
000073H   000074H   000002H   BYTE   UNIT     DATA           ?C?LIB_DATA
000075H   000077H   000003H   BYTE   UNIT     IDATA          _IDATA_GROUP_
000078H   000078H   000001H   BYTE   UNIT     IDATA          ?STACK

* * * * * * * * * * *   C O D E   M E M O R Y   * * * * * * * * * * * * *
002600H   002619H   00001AH   ---    OFFS..   CODE           ?CO?KEILSTART?3
00261AH   0045B7H   001F9EH   BYTE   UNIT     CODE           ?PR?_GET_PARAM_LIST?COMMAND_PROCESSING
0045B8H   006233H   001C7CH   BYTE   UNIT     CODE           ?CO?COMMAND_PROCESSING
006234H   007A81H   00184EH   BYTE   UNIT     CODE           ?PR?_INFOPREPARE?COMMAND_PROCESSING
007A82H   008C31H   0011B0H   BYTE   UNIT     CODE           ?PR?MOTOR_CONTROL?INTERRUPTIONS
008C32H   0096E7H   000AB6H   BYTE   UNIT     CODE           ?C?LIB_CODE
0096E8H   00A15EH   000A77H   BYTE   UNIT     CODE           ?PR?ANALOG_READ_END?INTERRUPTIONS
00A15FH   00A9D0H   000872H   BYTE   UNIT     CODE           ?PR?_ENCODER_READING?INTERRUPTIONS
00A9D1H   00AED4H   000504H   BYTE   UNIT     CODE           ?PR?CHECK_REST_POSITION?UTILS
00AED5H   00B357H   000483H   BYTE   UNIT     CODE           ?PR?PRINTF?PRINTF
00B358H   00B65FH   000308H   BYTE   UNIT     CODE           ?PR?CMD_STORE_PARAMS?COMMAND_PROCESSING
00B660H   00B8D2H   000273H   BYTE   UNIT     CODE           ?PR?MEMINIT?COMMAND_PROCESSING
00B8D3H   00BAFFH   00022DH   BYTE   UNIT     CODE           ?PR?MAIN?MAIN
00BB00H   00BCB5H   0001B6H   BYTE   UNIT     CODE           ?PR?COMMPROCESS?COMMAND_PROCESSING
LX51 LINKER/LOCATER V4.64.0.0                                                         04/06/2018  15:41:10  PAGE 5


00BCB6H   00BE69H   0001B4H   BYTE   UNIT     CODE           ?PR?CMD_SET_INPUTS?COMMAND_PROCESSING
00BE6AH   00C00AH   0001A1H   BYTE   UNIT     CODE           ?PR?_ADC_GAINCOMPENSATION?ADC
00C00BH   00C1A3H   000199H   BYTE   UNIT     CODE           ?PR?CLOCKSETUP?CYFITTER_CFG
00C1A4H   00C329H   000186H   BYTE   UNIT     CODE           ?PR?DRIVE_FORCE_FB?COMMAND_PROCESSING
00C32AH   00C475H   00014CH   BYTE   UNIT     CODE           ?PR?FUNCTION_SCHEDULER?INTERRUPTIONS
00C476H   00C5A6H   000131H   BYTE   UNIT     CODE           ?PR?_ADC_EXT_CP_CLK_SETDIVIDERREGISTER?ADC_EXT_CP_CLK
00C5A7H   00C6D6H   000130H   BYTE   UNIT     CODE           ?PR?CALIBRATION?UTILS
00C6D7H   00C806H   000130H   BYTE   UNIT     CODE           ?PR?_CLOCK_UART_SETDIVIDERREGISTER?CLOCK_UART
00C807H   00C935H   00012FH   BYTE   UNIT     CODE           ?PR?INTERRUPT_MANAGER?INTERRUPTIONS
00C936H   00CA64H   00012FH   BYTE   UNIT     CODE           ?PR?_ADC_THEACLK_SETDIVIDERREGISTER?ADC_THEACLK
00CA65H   00CB84H   000120H   BYTE   UNIT     CODE           ?C_C51STARTUP
00CB85H   00CCA0H   00011CH   BYTE   UNIT     CODE           ?C_INITSEG
00CCA1H   00CDB9H   000119H   BYTE   UNIT     CODE           ?PR?CYFITTER_CFG?CYFITTER_CFG
00CDBAH   00CEA2H   0000E9H   BYTE   UNIT     CODE           ?PR?CFG_DMA_INIT?CYFITTER_CFG
00CEA3H   00CF81H   0000DFH   BYTE   UNIT     CODE           ?PR?_EEPROM_WRITE?EEPROM
00CF82H   00D05CH   0000DBH   BYTE   UNIT     CODE           ?PR?_CALC_TURNS_FCN?UTILS
00D05DH   00D128H   0000CCH   BYTE   UNIT     CODE           ?PR?COMMREADMEASFROMSH?COMMAND_PROCESSING
00D129H   00D1E0H   0000B8H   BYTE   UNIT     CODE           ?PR?_MEMSTORE?COMMAND_PROCESSING
00D1E1H   00D295H   0000B5H   BYTE   UNIT     CODE           ?PR?_FILTER_CH1?UTILS
00D296H   00D34AH   0000B5H   BYTE   UNIT     CODE           ?PR?_FILTER_CH2?UTILS
00D34BH   00D3FBH   0000B1H   BYTE   UNIT     CODE           ?PR?ADC_INIT?ADC
00D3FCH   00D4ACH   0000B1H   BYTE   UNIT     CODE           ?PR?UART_RS485_RXISR?UART_RS485_INT
00D4ADH   00D55AH   0000AEH   BYTE   UNIT     CODE           ?PR?_ADC_INITCONFIG?ADC
00D55BH   00D604H   0000AAH   BYTE   UNIT     CODE           ?PR?DRIVE_SH?COMMAND_PROCESSING
00D605H   00D691H   00008DH   BYTE   UNIT     CODE           ?PR?_COMMWRITE_OLD_ID?COMMAND_PROCESSING
00D692H   00D71EH   00008DH   BYTE   UNIT     CODE           ?PR?_COMMWRITE?COMMAND_PROCESSING
00D71FH   00D7A6H   000088H   BYTE   UNIT     CODE           ?PR?ADC_ENABLE?ADC
00D7A7H   00D82EH   000088H   BYTE   UNIT     CODE           ?PR?_?CYDELAY?CYLIB
00D82FH   00D8B5H   000087H   BYTE   UNIT     CODE           ?PR?_CYDMATDSETCONFIGURATION?CYDMAC
00D8B6H   00D939H   000084H   BYTE   UNIT     CODE           ?PR?CMD_GET_CURR_AND_MEAS?COMMAND_PROCESSING
00D93AH   00D9BCH   000083H   BYTE   UNIT     CODE           ?PR?SETZEROS?COMMAND_PROCESSING
00D9BDH   00DA3FH   000083H   BYTE   UNIT     CODE           ?PR?_COMMWRITEID?COMMAND_PROCESSING
00DA40H   00DAC2H   000083H   BYTE   UNIT     CODE           ?PR?_FILTER_VEL_1?UTILS
00DAC3H   00DB45H   000083H   BYTE   UNIT     CODE           ?PR?_FILTER_VEL_2?UTILS
00DB46H   00DBC8H   000083H   BYTE   UNIT     CODE           ?PR?_FILTER_VEL_3?UTILS
00DBC9H   00DC4BH   000083H   BYTE   UNIT     CODE           ?PR?_FILTER_ACC_1?UTILS
00DC4CH   00DCCEH   000083H   BYTE   UNIT     CODE           ?PR?_FILTER_ACC_2?UTILS
00DCCFH   00DD51H   000083H   BYTE   UNIT     CODE           ?PR?_FILTER_ACC_3?UTILS
00DD52H   00DDD2H   000081H   BYTE   UNIT     CODE           ?PR?_MY_MOD?UTILS
00DDD3H   00DE4FH   00007DH   BYTE   UNIT     CODE           ?PR?_FILTER_VOLTAGE?UTILS
00DE50H   00DEC8H   000079H   BYTE   UNIT     CODE           ?PR?_CYDMACHSETCONFIGURATION?CYDMAC
00DEC9H   00DF40H   000078H   BYTE   UNIT     CODE           ?PR?_CYDMACHSETEXTENDEDADDRESS?CYDMAC
00DF41H   00DFB8H   000078H   BYTE   UNIT     CODE           ?PR?_CYDMATDSETADDRESS?CYDMAC
00DFB9H   00E02FH   000077H   BYTE   UNIT     CODE           ?PR?DRIVE_PROPRIO_FB?COMMAND_PROCESSING
00E030H   00E0A5H   000076H   BYTE   UNIT     CODE           ?PR?PWM_LIMIT_SEARCH?INTERRUPTIONS
00E0A6H   00E11AH   000075H   BYTE   UNIT     CODE           ?PR?_FILTER_I1?UTILS
00E11BH   00E18EH   000074H   BYTE   UNIT     CODE           ?PR?OVERCURRENT_CONTROL?INTERRUPTIONS
00E18FH   00E201H   000073H   BYTE   UNIT     CODE           ?PR?_CYSPCLOADROW?CYSPC
00E202H   00E26DH   00006CH   BYTE   UNIT     CODE           ?PR?CMD_GET_MEASUREMENTS?COMMAND_PROCESSING
00E26EH   00E2D8H   00006BH   BYTE   UNIT     CODE           ?PR?_CHECK_ENC_DATA?UTILS
00E2D9H   00E343H   00006BH   BYTE   UNIT     CODE           ?PR?_STRCAT?STRCAT
00E344H   00E3A4H   000061H   BYTE   UNIT     CODE           ?PR?CMD_GET_INPUTS?COMMAND_PROCESSING
00E3A5H   00E404H   000060H   BYTE   UNIT     CODE           ?PR?_CYSPCREADDATA?CYSPC
00E405H   00E45FH   00005BH   BYTE   UNIT     CODE           ?PR?UART_RS485_GETCHAR?UART_RS485
00E460H   00E4B7H   000058H   BYTE   UNIT     CODE           ?PR?DEACTIVATE_SLAVES?COMMAND_PROCESSING
00E4B8H   00E50DH   000056H   BYTE   UNIT     CODE           ?PR?CYSETTEMPINT?CYFLASH
00E50EH   00E561H   000054H   BYTE   UNIT     CODE           ?PR?_CYINTSETVECTOR?CYLIB
00E562H   00E5B5H   000054H   BYTE   UNIT     CODE           ?PR?_CYSPCWRITEROW?CYSPC
00E5B6H   00E605H   000050H   BYTE   UNIT     CODE           ?PR?CYFLASHGETSPCALGORITHM?CYFLASH
00E606H   00E654H   00004FH   BYTE   UNIT     CODE           ?PR?UART_RS485_GETRXBUFFERSIZE?UART_RS485
00E655H   00E6A1H   00004DH   BYTE   UNIT     CODE           ?PR?MEMRECALL?COMMAND_PROCESSING
00E6A2H   00E6ECH   00004BH   BYTE   UNIT     CODE           ?PR?_CYDMACHENABLE?CYDMAC
00E6EDH   00E736H   00004AH   BYTE   UNIT     CODE           ?PR?_DMA_DMAINITIALIZE?DMA_DMA
00E737H   00E77FH   000049H   BYTE   UNIT     CODE           ?PR?CMD_GET_EMG?COMMAND_PROCESSING
00E780H   00E7C7H   000048H   BYTE   UNIT     CODE           ?PR?MEMRESTORE?COMMAND_PROCESSING
LX51 LINKER/LOCATER V4.64.0.0                                                         04/06/2018  15:41:10  PAGE 6


00E7C8H   00E80BH   000044H   BYTE   UNIT     CODE           ?C?LDIV
00E80CH   00E84EH   000043H   BYTE   UNIT     CODE           ?PR?CMD_ACTIVATE?COMMAND_PROCESSING
00E84FH   00E88FH   000041H   BYTE   UNIT     CODE           ?PR?CMD_GET_JOYSTICK?COMMAND_PROCESSING
00E890H   00E8D0H   000041H   BYTE   UNIT     CODE           ?PR?CMD_SET_WATCHDOG?COMMAND_PROCESSING
00E8D1H   00E910H   000040H   BYTE   UNIT     CODE           ?PR?_CYDMACHPRIORITY?CYDMAC
00E911H   00E94EH   00003EH   BYTE   UNIT     CODE           ?PR?CYDMATDALLOCATE?CYDMAC
00E94FH   00E98BH   00003DH   BYTE   UNIT     CODE           ?PR?_ADC_SETDSMREF0REG?ADC
00E98CH   00E9C7H   00003CH   BYTE   UNIT     CODE           ?PR?PACER_TIMER_INIT?PACER_TIMER
00E9C8H   00EA02H   00003BH   BYTE   UNIT     CODE           ?PR?_INFOGET?COMMAND_PROCESSING
00EA03H   00EA3DH   00003BH   BYTE   UNIT     CODE           ?PR?CMD_GET_CURRENTS?COMMAND_PROCESSING
00EA3EH   00EA78H   00003BH   BYTE   UNIT     CODE           ?PR?ANALOGSETDEFAULT?CYFITTER_CFG
00EA79H   00EAB0H   000038H   BYTE   UNIT     CODE           ?PR?WATCHDOG_COUNTER_INIT?WATCHDOG_COUNTER
00EAB1H   00EAE6H   000036H   BYTE   UNIT     CODE           ?PR?CYDMACCONFIGURE?CYDMAC
00EAE7H   00EAFFH   000019H   BYTE   UNIT     CODE           ?PR?ADC_START?ADC
00EB00H   00EB3AH   00003BH   PAGE   UNIT     CODE           ?PR?CYDELAYCYCLES?CYBOOTASMKEIL
00EB3BH   00EB6FH   000035H   BYTE   UNIT     CODE           ?PR?COUNTER_ENC_INIT?COUNTER_ENC
00EB70H   00EBA3H   000034H   BYTE   UNIT     CODE           ?PR?_UART_RS485_PUTSTRING?UART_RS485
00EBA4H   00EBD7H   000034H   BYTE   UNIT     CODE           ?PR?_CYCONFIGCPY?CYMEM
00EBD8H   00EC0AH   000033H   BYTE   UNIT     CODE           ?PR?UART_RS485_INIT?UART_RS485
00EC0BH   00EC3CH   000032H   BYTE   UNIT     CODE           ?PR?_LCRCHECKSUM?COMMAND_PROCESSING
00EC3DH   00EC6DH   000031H   BYTE   UNIT     CODE           ?PR?_ADC_AMUX_UNSET?CYFITTER_CFG
00EC6EH   00EC9EH   000031H   BYTE   UNIT     CODE           ?PR?CYEEPROM_START?CYFLASH
00EC9FH   00ECCEH   000030H   BYTE   UNIT     CODE           ?PR?_ADC_AMUX_SET?CYFITTER_CFG
00ECCFH   00ECFEH   000030H   BYTE   UNIT     CODE           ?PR?CYINTINITVECTORS?CYLIB
00ECFFH   00ED2DH   00002FH   BYTE   UNIT     CODE           ?PR?UART_RS485_CLEARRXBUFFER?UART_RS485
00ED2EH   00ED5BH   00002EH   BYTE   UNIT     CODE           ?PR?_CYSPCGETTEMP?CYSPC
00ED5CH   00ED88H   00002DH   DWORD  UNIT     CODE           ?PR?CYDELAYUS?CYBOOTASMKEIL
00ED89H   00EDB4H   00002CH   BYTE   UNIT     CODE           ?PR?MY_TIMER_INIT?MY_TIMER
00EDB5H   00EDDFH   00002BH   BYTE   UNIT     CODE           ?PR?CMD_GET_ACTIVATE?COMMAND_PROCESSING
00EDE0H   00EE06H   000027H   BYTE   UNIT     CODE           ?PR?PUTCHAR?PUTCHAR
00EE07H   00EE2CH   000026H   BYTE   UNIT     CODE           ?PR?PWM_MOTORS_INIT?PWM_MOTORS
00EE2DH   00EE52H   000026H   BYTE   UNIT     CODE           ?PR?CYCONFIGCPYCODE?CYMEM
00EE53H   00EE74H   000022H   BYTE   UNIT     CODE           ?PR?UART_RS485_ENABLE?UART_RS485
00EE75H   00EE96H   000022H   BYTE   UNIT     CODE           ?PR?UART_RS485_STOP?UART_RS485
00EE97H   00EEB7H   000021H   BYTE   UNIT     CODE           ?PR?LED_BLINK_INIT?LED_BLINK
00EEB8H   00EED8H   000021H   BYTE   UNIT     CODE           ?PR?ADC_AMUX_START?ADC_AMUX
00EED9H   00EEF8H   000020H   BYTE   UNIT     CODE           ?PR?CMD_SET_BAUDRATE?COMMAND_PROCESSING
00EEF9H   00EF17H   00001FH   BYTE   UNIT     CODE           ?PR?_ISR_RS485_RX_STARTEX?ISR_RS485_RX
00EF18H   00EF36H   00001FH   BYTE   UNIT     CODE           ?PR?_ISR_WATCHDOG_STARTEX?ISR_WATCHDOG
00EF37H   00EF55H   00001FH   BYTE   UNIT     CODE           ?PR?CYSPCLOCK?CYSPC
00EF56H   00EF73H   00001EH   BYTE   UNIT     CODE           ?PR?_CYDMACHSETINITIALTD?CYDMAC
00EF74H   00EF8FH   00001CH   BYTE   UNIT     CODE           ?PR?_WATCHDOG_COUNTER_WRITECOUNTER?WATCHDOG_COUNTER
00EF90H   00EFAAH   00001BH   BYTE   UNIT     CODE           ?PR?CYSPCGETALGORITHM?CYSPC
00EFABH   00EFC3H   000019H   BYTE   UNIT     CODE           ?PR?_CYINTSETPRIORITY?CYLIB
00EFC4H   00EFDCH   000019H   BYTE   UNIT     CODE           ?PR?_ADC_AMUX_SELECT?ADC_AMUX
00EFDDH   00EFF4H   000018H   BYTE   UNIT     CODE           ?PR?CYSETTEMP?CYFLASH
00EFF5H   00F00CH   000018H   BYTE   UNIT     CODE           ?PR?CYEXITCRITICALSECTION?CYBOOTASMKEIL
00F00DH   00F022H   000016H   BYTE   UNIT     CODE           ?PR?PACER_TIMER_ENABLE?PACER_TIMER
00F023H   00F038H   000016H   BYTE   UNIT     CODE           ?PR?WATCHDOG_COUNTER_ENABLE?WATCHDOG_COUNTER
00F039H   00F04DH   000015H   BYTE   UNIT     CODE           ?PR?_SENDACKNOWLEDGMENT?COMMAND_PROCESSING
00F04EH   00F062H   000015H   BYTE   UNIT     CODE           ?PR?CYENTERCRITICALSECTION?CYBOOTASMKEIL
00F063H   00F077H   000015H   BYTE   UNIT     CODE           ?PR?CYSPCSTART?CYSPC
00F078H   00F08CH   000015H   BYTE   UNIT     CODE           ?PR?_STRLEN?STRLEN
00F08DH   00F0A0H   000014H   BYTE   UNIT     CODE           ?PR?CMD_PING?COMMAND_PROCESSING
00F0A1H   00F0B4H   000014H   BYTE   UNIT     CODE           ?PR?UART_RS485_READRXSTATUS?UART_RS485
00F0B5H   00F0C7H   000013H   BYTE   UNIT     CODE           ?PR?PWM_MOTORS_START?PWM_MOTORS
00F0C8H   00F0DAH   000013H   BYTE   UNIT     CODE           ?PR?PACER_TIMER_START?PACER_TIMER
00F0DBH   00F0EDH   000013H   BYTE   UNIT     CODE           ?PR?UART_RS485_START?UART_RS485
00F0EEH   00F100H   000013H   BYTE   UNIT     CODE           ?PR?COUNTER_ENC_START?COUNTER_ENC
00F101H   00F113H   000013H   BYTE   UNIT     CODE           ?PR?SHIFTREG_ENC_3_START?SHIFTREG_ENC_3
00F114H   00F126H   000013H   BYTE   UNIT     CODE           ?PR?SHIFTREG_ENC_2_START?SHIFTREG_ENC_2
00F127H   00F139H   000013H   BYTE   UNIT     CODE           ?PR?MY_TIMER_START?MY_TIMER
00F13AH   00F14CH   000013H   BYTE   UNIT     CODE           ?PR?SHIFTREG_ENC_1_START?SHIFTREG_ENC_1
00F14DH   00F15FH   000013H   BYTE   UNIT     CODE           ?PR?WATCHDOG_COUNTER_START?WATCHDOG_COUNTER
00F160H   00F172H   000013H   BYTE   UNIT     CODE           ?PR?LED_BLINK_START?LED_BLINK
LX51 LINKER/LOCATER V4.64.0.0                                                         04/06/2018  15:41:10  PAGE 7


00F173H   00F185H   000013H   BYTE   UNIT     CODE           ?PR?CYREAD24?CYMEM
00F186H   00F197H   000012H   BYTE   UNIT     CODE           ?PR?UART_RS485_CLEARTXBUFFER?UART_RS485
00F198H   00F1A9H   000012H   BYTE   UNIT     CODE           ?PR?CYWRITE24?CYMEM
00F1AAH   00F1BAH   000011H   BYTE   UNIT     CODE           ?PR?_SHIFTREG_ENC_3_SETINTMODE?SHIFTREG_ENC_3
00F1BBH   00F1CBH   000011H   BYTE   UNIT     CODE           ?PR?_SHIFTREG_ENC_2_SETINTMODE?SHIFTREG_ENC_2
00F1CCH   00F1DCH   000011H   BYTE   UNIT     CODE           ?PR?_SHIFTREG_ENC_1_SETINTMODE?SHIFTREG_ENC_1
00F1DDH   00F1EBH   00000FH   BYTE   UNIT     CODE           ?PR?MY_TIMER_READCOUNTER?MY_TIMER
00F1ECH   00F1FAH   00000FH   BYTE   UNIT     CODE           ?PR?CYREAD16?CYMEM
00F1FBH   00F209H   00000FH   BYTE   UNIT     CODE           ?PR?CYWRITE16?CYMEM
00F20AH   00F217H   00000EH   BYTE   UNIT     CODE           ?PR?_ISR_RS485_RX_SETVECTOR?ISR_RS485_RX
00F218H   00F225H   00000EH   BYTE   UNIT     CODE           ?PR?_PACER_TIMER_WRITEPERIOD?PACER_TIMER
00F226H   00F233H   00000EH   BYTE   UNIT     CODE           ?PR?_PACER_TIMER_WRITECOUNTER?PACER_TIMER
00F234H   00F241H   00000EH   BYTE   UNIT     CODE           ?PR?SHIFTREG_ENC_3_ENABLEINT?SHIFTREG_ENC_3
00F242H   00F24FH   00000EH   BYTE   UNIT     CODE           ?PR?SHIFTREG_ENC_2_ENABLEINT?SHIFTREG_ENC_2
00F250H   00F25DH   00000EH   BYTE   UNIT     CODE           ?PR?SHIFTREG_ENC_1_ENABLEINT?SHIFTREG_ENC_1
00F25EH   00F26BH   00000EH   BYTE   UNIT     CODE           ?PR?_ISR_WATCHDOG_SETVECTOR?ISR_WATCHDOG
00F26CH   00F279H   00000EH   BYTE   UNIT     CODE           ?PR?_WATCHDOG_COUNTER_WRITEPERIOD?WATCHDOG_COUNTER
00F27AH   00F286H   00000DH   BYTE   UNIT     CODE           ?PR?_UART_RS485_PUTCHAR?UART_RS485
00F287H   00F293H   00000DH   BYTE   UNIT     CODE           ?PR?COUNTER_ENC_CLEARFIFO?COUNTER_ENC
00F294H   00F2A0H   00000DH   BYTE   UNIT     CODE           ?PR?MY_TIMER_CLEARFIFO?MY_TIMER
00F2A1H   00F2ADH   00000DH   BYTE   UNIT     CODE           ?PR?_ADC_EXT_CP_CLK_SETMODEREGISTER?ADC_EXT_CP_CLK
00F2AEH   00F2BAH   00000DH   BYTE   UNIT     CODE           ?PR?_ADC_THEACLK_SETMODEREGISTER?ADC_THEACLK
00F2BBH   00F2C6H   00000CH   BYTE   UNIT     CODE           ?PR?CYREAD8?CYMEM
00F2C7H   00F2D2H   00000CH   BYTE   UNIT     CODE           ?PR?CYWRITE8?CYMEM
00F2D3H   00F2DEH   00000CH   BYTE   UNIT     CODE           ?PR?CYSPCUNLOCK?CYSPC
00F2DFH   00F2EAH   00000CH   BYTE   UNIT     CODE           ?PR?_ABS?ABS
00F2EBH   00F2F5H   00000BH   BYTE   UNIT     CODE           ?PR?SHIFTREG_ENC_3_ENABLE?SHIFTREG_ENC_3
00F2F6H   00F300H   00000BH   BYTE   UNIT     CODE           ?PR?SHIFTREG_ENC_2_ENABLE?SHIFTREG_ENC_2
00F301H   00F30BH   00000BH   BYTE   UNIT     CODE           ?PR?SHIFTREG_ENC_1_ENABLE?SHIFTREG_ENC_1
00F30CH   00F315H   00000AH   BYTE   UNIT     CODE           ?PR?CLOCK_UART_GETDIVIDERREGISTER?CLOCK_UART
00F316H   00F31FH   00000AH   BYTE   UNIT     CODE           ?PR?_ISR_RS485_RX_SETPRIORITY?ISR_RS485_RX
00F320H   00F329H   00000AH   BYTE   UNIT     CODE           ?PR?SHIFTREG_ENC_3_READDATA?SHIFTREG_ENC_3
00F32AH   00F333H   00000AH   BYTE   UNIT     CODE           ?PR?SHIFTREG_ENC_2_READDATA?SHIFTREG_ENC_2
00F334H   00F33DH   00000AH   BYTE   UNIT     CODE           ?PR?BOOTLOADABLE_LOAD?BOOTLOADABLE
00F33EH   00F347H   00000AH   BYTE   UNIT     CODE           ?PR?_MY_TIMER_WRITEPERIOD?MY_TIMER
00F348H   00F351H   00000AH   BYTE   UNIT     CODE           ?PR?MY_TIMER_READCAPTURE?MY_TIMER
00F352H   00F35BH   00000AH   BYTE   UNIT     CODE           ?PR?_MY_TIMER_WRITECOUNTER?MY_TIMER
00F35CH   00F365H   00000AH   BYTE   UNIT     CODE           ?PR?SHIFTREG_ENC_1_READDATA?SHIFTREG_ENC_1
00F366H   00F36FH   00000AH   BYTE   UNIT     CODE           ?PR?_ISR_WATCHDOG_SETPRIORITY?ISR_WATCHDOG
00F370H   00F379H   00000AH   BYTE   UNIT     CODE           ?PR?ADC_EXT_CP_CLK_GETDIVIDERREGISTER?ADC_EXT_CP_CLK
00F37AH   00F383H   00000AH   BYTE   UNIT     CODE           ?PR?ADC_THEACLK_GETDIVIDERREGISTER?ADC_THEACLK
00F384H   00F38BH   000008H   BYTE   UNIT     CODE           ?PR?CLOCK_UART_GETSOURCEREGISTER?CLOCK_UART
00F38CH   00F393H   000008H   BYTE   UNIT     CODE           ?PR?PWM_MOTORS_ENABLE?PWM_MOTORS
00F394H   00F39BH   000008H   BYTE   UNIT     CODE           ?PR?COUNTER_ENC_ENABLE?COUNTER_ENC
00F39CH   00F3A3H   000008H   BYTE   UNIT     CODE           ?PR?MY_TIMER_ENABLE?MY_TIMER
00F3A4H   00F3ABH   000008H   BYTE   UNIT     CODE           ?PR?CYSOFTWARERESET?CYLIB
00F3ACH   00F3B3H   000008H   BYTE   UNIT     CODE           ?PR?LED_BLINK_ENABLE?LED_BLINK
00F3B4H   00F3BBH   000008H   BYTE   UNIT     CODE           ?PR?ADC_EXT_CP_CLK_GETSOURCEREGISTER?ADC_EXT_CP_CLK
00F3BCH   00F3C3H   000008H   BYTE   UNIT     CODE           ?PR?ADC_THEACLK_GETSOURCEREGISTER?ADC_THEACLK
00F3C4H   00F3CAH   000007H   BYTE   UNIT     CODE           ?PR?ISR_RS485_RX_ENABLE?ISR_RS485_RX
00F3CBH   00F3D1H   000007H   BYTE   UNIT     CODE           ?PR?ISR_RS485_RX_DISABLE?ISR_RS485_RX
00F3D2H   00F3D8H   000007H   BYTE   UNIT     CODE           ?PR?EEPROM_ENABLE?EEPROM
00F3D9H   00F3DFH   000007H   BYTE   UNIT     CODE           ?PR?ISR_WATCHDOG_ENABLE?ISR_WATCHDOG
00F3E0H   00F3E6H   000007H   BYTE   UNIT     CODE           ?PR?ISR_WATCHDOG_DISABLE?ISR_WATCHDOG
00F3E7H   00F3ECH   000006H   BYTE   UNIT     CODE           ?PR?_PWM_MOTORS_WRITECOUNTER?PWM_MOTORS
00F3EDH   00F3F2H   000006H   BYTE   UNIT     CODE           ?PR?_PWM_MOTORS_WRITEPERIOD?PWM_MOTORS
00F3F3H   00F3F8H   000006H   BYTE   UNIT     CODE           ?PR?_PWM_MOTORS_WRITECOMPARE1?PWM_MOTORS
00F3F9H   00F3FEH   000006H   BYTE   UNIT     CODE           ?PR?_PWM_MOTORS_WRITECOMPARE2?PWM_MOTORS
00F3FFH   00F404H   000006H   BYTE   UNIT     CODE           ?PR?_PACER_TIMER_SETINTERRUPTMODE?PACER_TIMER
00F405H   00F40AH   000006H   BYTE   UNIT     CODE           ?PR?UART_RS485_READTXSTATUS?UART_RS485
00F40BH   00F410H   000006H   BYTE   UNIT     CODE           ?PR?_MOTOR_DIR_WRITE?MOTOR_DIR
00F411H   00F416H   000006H   BYTE   UNIT     CODE           ?PR?_COUNTER_ENC_SETINTERRUPTMODE?COUNTER_ENC
00F417H   00F41CH   000006H   BYTE   UNIT     CODE           ?PR?COUNTER_ENC_READSTATUSREGISTER?COUNTER_ENC
00F41DH   00F422H   000006H   BYTE   UNIT     CODE           ?PR?_COUNTER_ENC_WRITECOUNTER?COUNTER_ENC
00F423H   00F428H   000006H   BYTE   UNIT     CODE           ?PR?COUNTER_ENC_READCAPTURE?COUNTER_ENC
LX51 LINKER/LOCATER V4.64.0.0                                                         04/06/2018  15:41:10  PAGE 8


00F429H   00F42EH   000006H   BYTE   UNIT     CODE           ?PR?_COUNTER_ENC_WRITEPERIOD?COUNTER_ENC
00F42FH   00F434H   000006H   BYTE   UNIT     CODE           ?PR?_COUNTER_ENC_WRITECOMPARE?COUNTER_ENC
00F435H   00F43AH   000006H   BYTE   UNIT     CODE           ?PR?SHIFTREG_ENC_3_INIT?SHIFTREG_ENC_3
00F43BH   00F440H   000006H   BYTE   UNIT     CODE           ?PR?SHIFTREG_ENC_2_INIT?SHIFTREG_ENC_2
00F441H   00F446H   000006H   BYTE   UNIT     CODE           ?PR?_RS485_CTS_WRITE?RS485_CTS
00F447H   00F44CH   000006H   BYTE   UNIT     CODE           ?PR?_MOTOR_ON_OFF_WRITE?MOTOR_ON_OFF
00F44DH   00F452H   000006H   BYTE   UNIT     CODE           ?PR?_FTDI_ENABLE_REG_WRITE?FTDI_ENABLE_REG
00F453H   00F458H   000006H   BYTE   UNIT     CODE           ?PR?_RESET_FF_WRITE?RESET_FF
00F459H   00F45EH   000006H   BYTE   UNIT     CODE           ?PR?FF_STATUS_READ?FF_STATUS
00F45FH   00F464H   000006H   BYTE   UNIT     CODE           ?PR?_MY_TIMER_SETINTERRUPTMODE?MY_TIMER
00F465H   00F46AH   000006H   BYTE   UNIT     CODE           ?PR?MY_TIMER_READSTATUSREGISTER?MY_TIMER
00F46BH   00F470H   000006H   BYTE   UNIT     CODE           ?PR?SHIFTREG_ENC_1_INIT?SHIFTREG_ENC_1
00F471H   00F476H   000006H   BYTE   UNIT     CODE           ?PR?_RESET_COUNTERS_WRITE?RESET_COUNTERS
00F477H   00F47CH   000006H   BYTE   UNIT     CODE           ?PR?ADC_STATUS_READ?ADC_STATUS
00F47DH   00F482H   000006H   BYTE   UNIT     CODE           ?PR?_ADC_SOC_WRITE?ADC_SOC
00F483H   00F488H   000006H   BYTE   UNIT     CODE           ?PR?_WATCHDOG_COUNTER_SETINTERRUPTMODE?WATCHDOG_COUNTER
00F489H   00F48EH   000006H   BYTE   UNIT     CODE           ?PR?_WATCHDOG_ENABLER_WRITE?WATCHDOG_ENABLER
00F48FH   00F494H   000006H   BYTE   UNIT     CODE           ?PR?_WATCHDOG_REFRESH_WRITE?WATCHDOG_REFRESH
00F495H   00F49AH   000006H   BYTE   UNIT     CODE           ?PR?_LED_BLINK_WRITECOUNTER?LED_BLINK
00F49BH   00F4A0H   000006H   BYTE   UNIT     CODE           ?PR?_LED_BLINK_WRITEPERIOD?LED_BLINK
00F4A1H   00F4A6H   000006H   BYTE   UNIT     CODE           ?PR?_LED_BLINK_WRITECOMPARE?LED_BLINK
00F4A7H   00F4ACH   000006H   BYTE   UNIT     CODE           ?PR?_LED_CTRL_WRITE?LED_CTRL
00F4ADH   00F4B2H   000006H   BYTE   UNIT     CODE           ?PR?_LED_BLINK_EN_WRITE?LED_BLINK_EN
00F4B3H   00F4B6H   000004H   BYTE   UNIT     CODE           ?PR?EEPROM_START?EEPROM
00F4B7H   00F4B9H   000003H   BYTE   UNIT     CODE           ?PR?ISR_WATCHDOG_HANDLER?INTERRUPTIONS
00F4BAH   00F4BCH   000003H   BYTE   UNIT     CODE           ?PR?ISR_RS485_RX_EXINTERRUPT?INTERRUPTIONS
00F4BDH   00F4BFH   000003H   BYTE   UNIT     CODE           ?PR?_CYCLOCKSTARTUPERROR?CYFITTER_CFG
00F4C0H   00F4C2H   000003H   BYTE   UNIT     CODE           ?PR?INTDEFAULTHANDLER?CYLIB
00F4C3H   00F4C3H   000001H   BYTE   UNIT     CODE           ?PR?ISR_RS485_RX_INTERRUPT?ISR_RS485_RX
00F4C4H   00F4C4H   000001H   BYTE   UNIT     CODE           ?PR?ISR_WATCHDOG_INTERRUPT?ISR_WATCHDOG
00F4C5H   00F4C5H   000001H   BYTE   UNIT     CODE           ?PR?ADC_ISR1?ADC_INT
00F4C6H   00F4C6H   000001H   BYTE   UNIT     CODE           ?PR?ADC_ISR2?ADC_INT
00F4C7H   00F4C7H   000001H   BYTE   UNIT     CODE           ?PR?ADC_ISR3?ADC_INT
00F4C8H   00F4C8H   000001H   BYTE   UNIT     CODE           ?PR?ADC_ISR4?ADC_INT
00F4C9H   00FC6BH   0007A3H   BYTE   UNIT     CONST          ?CO?CYFITTER_CFG

* * * * * * * * * * *  X D A T A   M E M O R Y  * * * * * * * * * * * * *
000000H   000ED9H   000EDAH   BYTE   UNIT     XDATA          _XDATA_GROUP_
000EDAH   0011D9H   000300H   BYTE   UNIT     XDATA          ?XD?GLOBALS
0011DAH   0012EAH   000111H   BYTE   UNIT     XDATA          ?XD?INTERRUPTIONS
0012EBH   00135BH   000071H   BYTE   UNIT     XDATA          ?XD?UTILS
00135CH   00139EH   000043H   BYTE   UNIT     XDATA          ?XD?CYPM
00139FH   0013C5H   000027H   BYTE   UNIT     XDATA          ?XD?UART_RS485
0013C6H   0013D5H   000010H   BYTE   UNIT     XDATA          ?XD?ADC
0013D6H   0013E4H   00000FH   BYTE   UNIT     XDATA          ?XD?CYLIB
0013E5H   0013EAH   000006H   BYTE   UNIT     XDATA          ?XD?CYDMAC
0013EBH   0013EFH   000005H   BYTE   UNIT     XDATA          ?XD?CYFLASH
0013F0H   0013F3H   000004H   BYTE   UNIT     XDATA          ?XD?CYFITTER_CFG
0013F4H   0013F5H   000002H   BYTE   UNIT     XDATA          ?XD?COMMAND_PROCESSING
0013F6H   0013F6H   000001H   BYTE   UNIT     XDATA          ?XD?PWM_MOTORS
0013F7H   0013F7H   000001H   BYTE   UNIT     XDATA          ?XD?PACER_TIMER
0013F8H   0013F8H   000001H   BYTE   UNIT     XDATA          ?XD?COUNTER_ENC
0013F9H   0013F9H   000001H   BYTE   UNIT     XDATA          ?XD?SHIFTREG_ENC_3
0013FAH   0013FAH   000001H   BYTE   UNIT     XDATA          ?XD?SHIFTREG_ENC_2
0013FBH   0013FBH   000001H   BYTE   UNIT     XDATA          ?XD?MY_TIMER
0013FCH   0013FCH   000001H   BYTE   UNIT     XDATA          ?XD?SHIFTREG_ENC_1
0013FDH   0013FDH   000001H   BYTE   UNIT     XDATA          ?XD?DMA_DMA
0013FEH   0013FEH   000001H   BYTE   UNIT     XDATA          ?XD?WATCHDOG_COUNTER
0013FFH   0013FFH   000001H   BYTE   UNIT     XDATA          ?XD?LED_BLINK
001400H   001400H   000001H   BYTE   UNIT     XDATA          ?XD?ADC_AMUX
001401H   001401H   000001H   BYTE   UNIT     XDATA          ?XD?CYSPC

* * * * * * * * *   R E M O V E D     S E G M E N T S   * * * * * * * *
   *DEL*:           000013H   BYTE   UNIT     CODE           ?PR?INFOSEND?COMMAND_PROCESSING
   *DEL*:           0005DCH   BYTE   UNIT     XDATA          ?XD?INFOSEND?COMMAND_PROCESSING
LX51 LINKER/LOCATER V4.64.0.0                                                         04/06/2018  15:41:10  PAGE 9


   *DEL*:           000075H   BYTE   UNIT     CODE           ?PR?_FILTER_V?UTILS
   *DEL*:           000054H   BYTE   UNIT     CODE           ?PR?_MY_ROUND?UTILS
   *DEL*:           000004H   BYTE   UNIT     XDATA          ?XD?_MY_ROUND?UTILS
   *DEL*:           00001AH   BYTE   UNIT     CODE           ?PR?_SETANALOGROUTINGPUMPS?CYFITTER_CFG
   *DEL*:           00000FH   BYTE   UNIT     CODE           ?PR?CLOCK_UART_START?CLOCK_UART
   *DEL*:           00000FH   BYTE   UNIT     CODE           ?PR?CLOCK_UART_STOP?CLOCK_UART
   *DEL*:           00006DH   BYTE   UNIT     CODE           ?PR?CLOCK_UART_STOPBLOCK?CLOCK_UART
   *DEL*:           000002H   BYTE   UNIT     XDATA          ?XD?CLOCK_UART_STOPBLOCK?CLOCK_UART
   *DEL*:           000013H   BYTE   UNIT     CODE           ?PR?_CLOCK_UART_STANDBYPOWER?CLOCK_UART
   *DEL*:           00000DH   BYTE   UNIT     CODE           ?PR?_CLOCK_UART_SETMODEREGISTER?CLOCK_UART
   *DEL*:           00000EH   BYTE   UNIT     CODE           ?PR?_CLOCK_UART_CLEARMODEREGISTER?CLOCK_UART
   *DEL*:           000008H   BYTE   UNIT     CODE           ?PR?CLOCK_UART_GETMODEREGISTER?CLOCK_UART
   *DEL*:           000062H   BYTE   UNIT     CODE           ?PR?_CLOCK_UART_SETSOURCEREGISTER?CLOCK_UART
   *DEL*:           000003H   BYTE   UNIT     XDATA          ?XD?_CLOCK_UART_SETSOURCEREGISTER?CLOCK_UART
   *DEL*:           000013H   BYTE   UNIT     CODE           ?PR?ISR_RS485_RX_START?ISR_RS485_RX
   *DEL*:           000004H   BYTE   UNIT     CODE           ?PR?ISR_RS485_RX_STOP?ISR_RS485_RX
   *DEL*:           00000AH   BYTE   UNIT     CODE           ?PR?ISR_RS485_RX_GETVECTOR?ISR_RS485_RX
   *DEL*:           00000BH   BYTE   UNIT     CODE           ?PR?ISR_RS485_RX_GETPRIORITY?ISR_RS485_RX
   *DEL*:           00000EH   BYTE   UNIT     CODE           ?PR?ISR_RS485_RX_GETSTATE?ISR_RS485_RX
   *DEL*:           000007H   BYTE   UNIT     CODE           ?PR?ISR_RS485_RX_SETPENDING?ISR_RS485_RX
   *DEL*:           000007H   BYTE   UNIT     CODE           ?PR?ISR_RS485_RX_CLEARPENDING?ISR_RS485_RX
   *DEL*:           000008H   BYTE   UNIT     CODE           ?PR?PWM_MOTORS_STOP?PWM_MOTORS
   *DEL*:           00000BH   BYTE   UNIT     CODE           ?PR?PWM_MOTORS_READCOUNTER?PWM_MOTORS
   *DEL*:           000006H   BYTE   UNIT     CODE           ?PR?PWM_MOTORS_READCONTROLREGISTER?PWM_MOTORS
   *DEL*:           000006H   BYTE   UNIT     CODE           ?PR?_PWM_MOTORS_WRITECONTROLREGISTER?PWM_MOTORS
   *DEL*:           000006H   BYTE   UNIT     CODE           ?PR?PWM_MOTORS_READCAPTURE?PWM_MOTORS
   *DEL*:           000006H   BYTE   UNIT     CODE           ?PR?PWM_MOTORS_READCOMPARE1?PWM_MOTORS
   *DEL*:           000006H   BYTE   UNIT     CODE           ?PR?PWM_MOTORS_READCOMPARE2?PWM_MOTORS
   *DEL*:           000006H   BYTE   UNIT     CODE           ?PR?PWM_MOTORS_READPERIOD?PWM_MOTORS
   *DEL*:           000016H   BYTE   UNIT     CODE           ?PR?PACER_TIMER_STOP?PACER_TIMER
   *DEL*:           00000AH   BYTE   UNIT     CODE           ?PR?PACER_TIMER_SOFTWARECAPTURE?PACER_TIMER
   *DEL*:           000006H   BYTE   UNIT     CODE           ?PR?PACER_TIMER_READSTATUSREGISTER?PACER_TIMER
   *DEL*:           000006H   BYTE   UNIT     CODE           ?PR?PACER_TIMER_READCONTROLREGISTER?PACER_TIMER
   *DEL*:           000006H   BYTE   UNIT     CODE           ?PR?_PACER_TIMER_WRITECONTROLREGISTER?PACER_TIMER
   *DEL*:           00000AH   BYTE   UNIT     CODE           ?PR?PACER_TIMER_READPERIOD?PACER_TIMER
   *DEL*:           00000AH   BYTE   UNIT     CODE           ?PR?PACER_TIMER_READCAPTURE?PACER_TIMER
   *DEL*:           000013H   BYTE   UNIT     CODE           ?PR?PACER_TIMER_READCOUNTER?PACER_TIMER
   *DEL*:           000003H   BYTE   UNIT     CODE           ?PR?UART_RS485_READCONTROLREGISTER?UART_RS485
   *DEL*:           000006H   BYTE   UNIT     CODE           ?PR?_UART_RS485_WRITECONTROLREGISTER?UART_RS485
   *DEL*:           000001H   BYTE   UNIT     XDATA          ?XD?_UART_RS485_WRITECONTROLREGISTER?UART_RS485
   *DEL*:           000006H   BYTE   UNIT     CODE           ?PR?_UART_RS485_SETRXINTERRUPTMODE?UART_RS485
   *DEL*:           00004AH   BYTE   UNIT     CODE           ?PR?UART_RS485_READRXDATA?UART_RS485
   *DEL*:           00001FH   BYTE   UNIT     CODE           ?PR?UART_RS485_GETBYTE?UART_RS485
   *DEL*:           000006H   BYTE   UNIT     CODE           ?PR?_UART_RS485_SETRXADDRESSMODE?UART_RS485
   *DEL*:           000001H   BYTE   UNIT     XDATA          ?XD?_UART_RS485_SETRXADDRESSMODE?UART_RS485
   *DEL*:           000006H   BYTE   UNIT     CODE           ?PR?_UART_RS485_SETRXADDRESS1?UART_RS485
   *DEL*:           000006H   BYTE   UNIT     CODE           ?PR?_UART_RS485_SETRXADDRESS2?UART_RS485
   *DEL*:           000006H   BYTE   UNIT     CODE           ?PR?_UART_RS485_SETTXINTERRUPTMODE?UART_RS485
   *DEL*:           00000CH   BYTE   UNIT     CODE           ?PR?_UART_RS485_WRITETXDATA?UART_RS485
   *DEL*:           000032H   BYTE   UNIT     CODE           ?PR?_UART_RS485_PUTARRAY?UART_RS485
   *DEL*:           000003H   BYTE   UNIT     XDATA          ?XD?_UART_RS485_PUTARRAY?UART_RS485
   *DEL*:           000014H   BYTE   UNIT     CODE           ?PR?_UART_RS485_PUTCRLF?UART_RS485
   *DEL*:           000017H   BYTE   UNIT     CODE           ?PR?UART_RS485_GETTXBUFFERSIZE?UART_RS485
   *DEL*:           000059H   BYTE   UNIT     CODE           ?PR?_UART_RS485_SENDBREAK?UART_RS485
   *DEL*:           000001H   BYTE   UNIT     XDATA          ?XD?_UART_RS485_SENDBREAK?UART_RS485
   *DEL*:           000006H   BYTE   UNIT     CODE           ?PR?_UART_RS485_SETTXADDRESSMODE?UART_RS485
   *DEL*:           000001H   BYTE   UNIT     XDATA          ?XD?_UART_RS485_SETTXADDRESSMODE?UART_RS485
   *DEL*:           000006H   BYTE   UNIT     CODE           ?PR?MOTOR_DIR_READ?MOTOR_DIR
   *DEL*:           000008H   BYTE   UNIT     CODE           ?PR?COUNTER_ENC_STOP?COUNTER_ENC
   *DEL*:           000006H   BYTE   UNIT     CODE           ?PR?COUNTER_ENC_READCONTROLREGISTER?COUNTER_ENC
   *DEL*:           000006H   BYTE   UNIT     CODE           ?PR?_COUNTER_ENC_WRITECONTROLREGISTER?COUNTER_ENC
   *DEL*:           00000BH   BYTE   UNIT     CODE           ?PR?COUNTER_ENC_READCOUNTER?COUNTER_ENC
   *DEL*:           000006H   BYTE   UNIT     CODE           ?PR?COUNTER_ENC_READPERIOD?COUNTER_ENC
   *DEL*:           000006H   BYTE   UNIT     CODE           ?PR?COUNTER_ENC_READCOMPARE?COUNTER_ENC
   *DEL*:           00000BH   BYTE   UNIT     CODE           ?PR?SHIFTREG_ENC_3_STOP?SHIFTREG_ENC_3
LX51 LINKER/LOCATER V4.64.0.0                                                         04/06/2018  15:41:10  PAGE 10


   *DEL*:           00000EH   BYTE   UNIT     CODE           ?PR?SHIFTREG_ENC_3_DISABLEINT?SHIFTREG_ENC_3
   *DEL*:           000036H   BYTE   UNIT     CODE           ?PR?_SHIFTREG_ENC_3_GETFIFOSTATUS?SHIFTREG_ENC_3
   *DEL*:           000008H   BYTE   UNIT     CODE           ?PR?SHIFTREG_ENC_3_GETINTSTATUS?SHIFTREG_ENC_3
   *DEL*:           00000AH   BYTE   UNIT     CODE           ?PR?_SHIFTREG_ENC_3_WRITEREGVALUE?SHIFTREG_ENC_3
   *DEL*:           000053H   BYTE   UNIT     CODE           ?PR?SHIFTREG_ENC_3_READREGVALUE?SHIFTREG_ENC_3
   *DEL*:           000004H   BYTE   UNIT     XDATA          ?XD?SHIFTREG_ENC_3_READREGVALUE?SHIFTREG_ENC_3
   *DEL*:           00000BH   BYTE   UNIT     CODE           ?PR?SHIFTREG_ENC_2_STOP?SHIFTREG_ENC_2
   *DEL*:           00000EH   BYTE   UNIT     CODE           ?PR?SHIFTREG_ENC_2_DISABLEINT?SHIFTREG_ENC_2
   *DEL*:           000036H   BYTE   UNIT     CODE           ?PR?_SHIFTREG_ENC_2_GETFIFOSTATUS?SHIFTREG_ENC_2
   *DEL*:           000008H   BYTE   UNIT     CODE           ?PR?SHIFTREG_ENC_2_GETINTSTATUS?SHIFTREG_ENC_2
   *DEL*:           00000AH   BYTE   UNIT     CODE           ?PR?_SHIFTREG_ENC_2_WRITEREGVALUE?SHIFTREG_ENC_2
   *DEL*:           000053H   BYTE   UNIT     CODE           ?PR?SHIFTREG_ENC_2_READREGVALUE?SHIFTREG_ENC_2
   *DEL*:           000004H   BYTE   UNIT     XDATA          ?XD?SHIFTREG_ENC_2_READREGVALUE?SHIFTREG_ENC_2
   *DEL*:           000004H   BYTE   UNIT     CODE           ?PR?EEPROM_STOP?EEPROM
   *DEL*:           000124H   BYTE   UNIT     CODE           ?PR?_EEPROM_WRITEBYTE?EEPROM
   *DEL*:           000008H   BYTE   UNIT     XDATA          ?XD?_EEPROM_WRITEBYTE?EEPROM
   *DEL*:           00003AH   BYTE   UNIT     CODE           ?PR?_EEPROM_READBYTE?EEPROM
   *DEL*:           000004H   BYTE   UNIT     XDATA          ?XD?_EEPROM_READBYTE?EEPROM
   *DEL*:           000004H   BYTE   UNIT     CODE           ?PR?EEPROM_UPDATETEMPERATURE?EEPROM
   *DEL*:           00006FH   BYTE   UNIT     CODE           ?PR?_EEPROM_ERASESECTOR?EEPROM
   *DEL*:           000002H   BYTE   UNIT     XDATA          ?XD?_EEPROM_ERASESECTOR?EEPROM
   *DEL*:           0000B9H   BYTE   UNIT     CODE           ?PR?_EEPROM_STARTWRITE?EEPROM
   *DEL*:           000005H   BYTE   UNIT     XDATA          ?XD?_EEPROM_STARTWRITE?EEPROM
   *DEL*:           000046H   BYTE   UNIT     CODE           ?PR?_EEPROM_STARTERASE?EEPROM
   *DEL*:           000002H   BYTE   UNIT     XDATA          ?XD?_EEPROM_STARTERASE?EEPROM
   *DEL*:           00003BH   BYTE   UNIT     CODE           ?PR?EEPROM_QUERY?EEPROM
   *DEL*:           000001H   BYTE   UNIT     XDATA          ?XD?EEPROM_QUERY?EEPROM
   *DEL*:           0000E5H   BYTE   UNIT     CODE           ?PR?_EEPROM_BYTEWRITEPOS?EEPROM
   *DEL*:           000004H   BYTE   UNIT     XDATA          ?XD?_EEPROM_BYTEWRITEPOS?EEPROM
   *DEL*:           000088H   BYTE   UNIT     CODE           ?PR?ADC_STOP?ADC
   *DEL*:           000001H   BYTE   UNIT     XDATA          ?XD?ADC_STOP?ADC
   *DEL*:           000012H   BYTE   UNIT     CODE           ?PR?_ADC_SETBUFFERGAIN?ADC
   *DEL*:           00000EH   BYTE   UNIT     CODE           ?PR?_ADC_SETCOHERENCY?ADC
   *DEL*:           0000F2H   BYTE   UNIT     CODE           ?PR?_ADC_SETGCOR?ADC
   *DEL*:           00000BH   BYTE   UNIT     XDATA          ?XD?_ADC_SETGCOR?ADC
   *DEL*:           000039H   BYTE   UNIT     CODE           ?PR?ADC_READGCOR?ADC
   *DEL*:           000001H   BYTE   UNIT     XDATA          ?XD?ADC_READGCOR?ADC
   *DEL*:           000008H   BYTE   UNIT     CODE           ?PR?ADC_STARTCONVERT?ADC
   *DEL*:           000008H   BYTE   UNIT     CODE           ?PR?ADC_STOPCONVERT?ADC
   *DEL*:           00001FH   BYTE   UNIT     CODE           ?PR?_ADC_ISENDCONVERSION?ADC
   *DEL*:           00002CH   BYTE   UNIT     CODE           ?PR?ADC_GETRESULT8?ADC
   *DEL*:           000060H   BYTE   UNIT     CODE           ?PR?ADC_GETRESULT16?ADC
   *DEL*:           000003H   BYTE   UNIT     XDATA          ?XD?ADC_GETRESULT16?ADC
   *DEL*:           0001B4H   BYTE   UNIT     CODE           ?PR?ADC_GETRESULT32?ADC
   *DEL*:           000007H   BYTE   UNIT     XDATA          ?XD?ADC_GETRESULT32?ADC
   *DEL*:           000007H   BYTE   UNIT     CODE           ?PR?_ADC_SETOFFSET?ADC
   *DEL*:           000007H   BYTE   UNIT     CODE           ?PR?_ADC_SETGAIN?ADC
   *DEL*:           00005FH   BYTE   UNIT     CODE           ?PR?_ADC_COUNTSTO_MVOLTS?ADC
   *DEL*:           000004H   BYTE   UNIT     XDATA          ?XD?_ADC_COUNTSTO_MVOLTS?ADC
   *DEL*:           00006DH   BYTE   UNIT     CODE           ?PR?_ADC_COUNTSTO_VOLTS?ADC
   *DEL*:           000004H   BYTE   UNIT     XDATA          ?XD?_ADC_COUNTSTO_VOLTS?ADC
   *DEL*:           000137H   BYTE   UNIT     CODE           ?PR?_ADC_COUNTSTO_UVOLTS?ADC
   *DEL*:           00000DH   BYTE   UNIT     XDATA          ?XD?_ADC_COUNTSTO_UVOLTS?ADC
   *DEL*:           000072H   BYTE   UNIT     CODE           ?PR?_ADC_SELECTCONFIGURATION?ADC
   *DEL*:           000002H   BYTE   UNIT     XDATA          ?XD?_ADC_SELECTCONFIGURATION?ADC
   *DEL*:           000016H   BYTE   UNIT     CODE           ?PR?ADC_READ8?ADC
   *DEL*:           000016H   BYTE   UNIT     CODE           ?PR?ADC_READ16?ADC
   *DEL*:           000016H   BYTE   UNIT     CODE           ?PR?ADC_READ32?ADC
   *DEL*:           000006H   BYTE   UNIT     CODE           ?PR?RS485_CTS_READ?RS485_CTS
   *DEL*:           0000FBH   BYTE   UNIT     CODE           ?PR?_BOOTLOADABLE_SETFLASHBYTE?BOOTLOADABLE
   *DEL*:           000110H   BYTE   UNIT     XDATA          ?XD?_BOOTLOADABLE_SETFLASHBYTE?BOOTLOADABLE
   *DEL*:           000006H   BYTE   UNIT     CODE           ?PR?MOTOR_ON_OFF_READ?MOTOR_ON_OFF
   *DEL*:           000006H   BYTE   UNIT     CODE           ?PR?FTDI_ENABLE_REG_READ?FTDI_ENABLE_REG
   *DEL*:           000006H   BYTE   UNIT     CODE           ?PR?RESET_FF_READ?RESET_FF
   *DEL*:           00000EH   BYTE   UNIT     CODE           ?PR?FF_STATUS_INTERRUPTENABLE?FF_STATUS
LX51 LINKER/LOCATER V4.64.0.0                                                         04/06/2018  15:41:10  PAGE 11


   *DEL*:           00000EH   BYTE   UNIT     CODE           ?PR?FF_STATUS_INTERRUPTDISABLE?FF_STATUS
   *DEL*:           000009H   BYTE   UNIT     CODE           ?PR?_FF_STATUS_WRITEMASK?FF_STATUS
   *DEL*:           000006H   BYTE   UNIT     CODE           ?PR?FF_STATUS_READMASK?FF_STATUS
   *DEL*:           000008H   BYTE   UNIT     CODE           ?PR?MY_TIMER_STOP?MY_TIMER
   *DEL*:           000006H   BYTE   UNIT     CODE           ?PR?MY_TIMER_SOFTWARECAPTURE?MY_TIMER
   *DEL*:           000006H   BYTE   UNIT     CODE           ?PR?MY_TIMER_READCONTROLREGISTER?MY_TIMER
   *DEL*:           000006H   BYTE   UNIT     CODE           ?PR?_MY_TIMER_WRITECONTROLREGISTER?MY_TIMER
   *DEL*:           00000AH   BYTE   UNIT     CODE           ?PR?MY_TIMER_READPERIOD?MY_TIMER
   *DEL*:           00000BH   BYTE   UNIT     CODE           ?PR?SHIFTREG_ENC_1_STOP?SHIFTREG_ENC_1
   *DEL*:           00000EH   BYTE   UNIT     CODE           ?PR?SHIFTREG_ENC_1_DISABLEINT?SHIFTREG_ENC_1
   *DEL*:           000036H   BYTE   UNIT     CODE           ?PR?_SHIFTREG_ENC_1_GETFIFOSTATUS?SHIFTREG_ENC_1
   *DEL*:           000008H   BYTE   UNIT     CODE           ?PR?SHIFTREG_ENC_1_GETINTSTATUS?SHIFTREG_ENC_1
   *DEL*:           00000AH   BYTE   UNIT     CODE           ?PR?_SHIFTREG_ENC_1_WRITEREGVALUE?SHIFTREG_ENC_1
   *DEL*:           000053H   BYTE   UNIT     CODE           ?PR?SHIFTREG_ENC_1_READREGVALUE?SHIFTREG_ENC_1
   *DEL*:           000004H   BYTE   UNIT     XDATA          ?XD?SHIFTREG_ENC_1_READREGVALUE?SHIFTREG_ENC_1
   *DEL*:           000006H   BYTE   UNIT     CODE           ?PR?RESET_COUNTERS_READ?RESET_COUNTERS
   *DEL*:           00000EH   BYTE   UNIT     CODE           ?PR?ADC_STATUS_INTERRUPTENABLE?ADC_STATUS
   *DEL*:           00000EH   BYTE   UNIT     CODE           ?PR?ADC_STATUS_INTERRUPTDISABLE?ADC_STATUS
   *DEL*:           000009H   BYTE   UNIT     CODE           ?PR?_ADC_STATUS_WRITEMASK?ADC_STATUS
   *DEL*:           000006H   BYTE   UNIT     CODE           ?PR?ADC_STATUS_READMASK?ADC_STATUS
   *DEL*:           000009H   BYTE   UNIT     CODE           ?PR?DMA_DMARELEASE?DMA_DMA
   *DEL*:           000006H   BYTE   UNIT     CODE           ?PR?ADC_SOC_READ?ADC_SOC
   *DEL*:           000013H   BYTE   UNIT     CODE           ?PR?ISR_WATCHDOG_START?ISR_WATCHDOG
   *DEL*:           000004H   BYTE   UNIT     CODE           ?PR?ISR_WATCHDOG_STOP?ISR_WATCHDOG
   *DEL*:           00000AH   BYTE   UNIT     CODE           ?PR?ISR_WATCHDOG_GETVECTOR?ISR_WATCHDOG
   *DEL*:           00000BH   BYTE   UNIT     CODE           ?PR?ISR_WATCHDOG_GETPRIORITY?ISR_WATCHDOG
   *DEL*:           00000EH   BYTE   UNIT     CODE           ?PR?ISR_WATCHDOG_GETSTATE?ISR_WATCHDOG
   *DEL*:           000007H   BYTE   UNIT     CODE           ?PR?ISR_WATCHDOG_SETPENDING?ISR_WATCHDOG
   *DEL*:           000007H   BYTE   UNIT     CODE           ?PR?ISR_WATCHDOG_CLEARPENDING?ISR_WATCHDOG
   *DEL*:           000016H   BYTE   UNIT     CODE           ?PR?WATCHDOG_COUNTER_STOP?WATCHDOG_COUNTER
   *DEL*:           000006H   BYTE   UNIT     CODE           ?PR?WATCHDOG_COUNTER_READSTATUSREGISTER?WATCHDOG_COUNTER
   *DEL*:           000006H   BYTE   UNIT     CODE           ?PR?WATCHDOG_COUNTER_READCONTROLREGISTER?WATCHDOG_COUNTER
   *DEL*:           000006H   BYTE   UNIT     CODE           ?PR?_WATCHDOG_COUNTER_WRITECONTROLREGISTER?WATCHDOG_COUNTE
                                                             -R
   *DEL*:           000013H   BYTE   UNIT     CODE           ?PR?WATCHDOG_COUNTER_READCOUNTER?WATCHDOG_COUNTER
   *DEL*:           00000AH   BYTE   UNIT     CODE           ?PR?WATCHDOG_COUNTER_READCAPTURE?WATCHDOG_COUNTER
   *DEL*:           00000AH   BYTE   UNIT     CODE           ?PR?WATCHDOG_COUNTER_READPERIOD?WATCHDOG_COUNTER
   *DEL*:           000006H   BYTE   UNIT     CODE           ?PR?WATCHDOG_ENABLER_READ?WATCHDOG_ENABLER
   *DEL*:           000006H   BYTE   UNIT     CODE           ?PR?WATCHDOG_REFRESH_READ?WATCHDOG_REFRESH
   *DEL*:           000012H   BYTE   UNIT     CODE           ?PR?CYDMACERROR?CYDMAC
   *DEL*:           000010H   BYTE   UNIT     CODE           ?PR?_CYDMACCLEARERROR?CYDMAC
   *DEL*:           00000AH   BYTE   UNIT     CODE           ?PR?CYDMACERRORADDRESS?CYDMAC
   *DEL*:           0000BEH   BYTE   UNIT     CODE           ?PR?CYDMACHALLOC?CYDMAC
   *DEL*:           000006H   BYTE   UNIT     XDATA          ?XD?CYDMACHALLOC?CYDMAC
   *DEL*:           000064H   BYTE   UNIT     CODE           ?PR?_CYDMACHFREE?CYDMAC
   *DEL*:           000003H   BYTE   UNIT     XDATA          ?XD?_CYDMACHFREE?CYDMAC
   *DEL*:           000033H   BYTE   UNIT     CODE           ?PR?_CYDMACHDISABLE?CYDMAC
   *DEL*:           000033H   BYTE   UNIT     CODE           ?PR?_CYDMACLEARPENDINGDRQ?CYDMAC
   *DEL*:           000025H   BYTE   UNIT     CODE           ?PR?_CYDMACHSETREQUEST?CYDMAC
   *DEL*:           000024H   BYTE   UNIT     CODE           ?PR?_CYDMACHGETREQUEST?CYDMAC
   *DEL*:           000072H   BYTE   UNIT     CODE           ?PR?_CYDMACHSTATUS?CYDMAC
   *DEL*:           000007H   BYTE   UNIT     XDATA          ?XD?_CYDMACHSTATUS?CYDMAC
   *DEL*:           00003EH   BYTE   UNIT     CODE           ?PR?_CYDMATDFREE?CYDMAC
   *DEL*:           000002H   BYTE   UNIT     XDATA          ?XD?_CYDMATDFREE?CYDMAC
   *DEL*:           000009H   BYTE   UNIT     CODE           ?PR?CYDMATDFREECOUNT?CYDMAC
   *DEL*:           0000C9H   BYTE   UNIT     CODE           ?PR?_CYDMATDGETCONFIGURATION?CYDMAC
   *DEL*:           00000DH   BYTE   UNIT     XDATA          ?XD?_CYDMATDGETCONFIGURATION?CYDMAC
   *DEL*:           0000A6H   BYTE   UNIT     CODE           ?PR?_CYDMATDGETADDRESS?CYDMAC
   *DEL*:           00000AH   BYTE   UNIT     XDATA          ?XD?_CYDMATDGETADDRESS?CYDMAC
   *DEL*:           000038H   BYTE   UNIT     CODE           ?PR?_CYDMACHROUNDROBIN?CYDMAC
   *DEL*:           000031H   BYTE   UNIT     CODE           ?PR?CYFLASH_START?CYFLASH
   *DEL*:           000015H   BYTE   UNIT     CODE           ?PR?CYFLASH_STOP?CYFLASH
   *DEL*:           00007DH   BYTE   UNIT     CODE           ?PR?_CYSETFLASHEEBUFFER?CYFLASH
   *DEL*:           000004H   BYTE   UNIT     XDATA          ?XD?_CYSETFLASHEEBUFFER?CYFLASH
   *DEL*:           000034H   BYTE   UNIT     CODE           ?PR?_CYWRITEROWDATA?CYFLASH
LX51 LINKER/LOCATER V4.64.0.0                                                         04/06/2018  15:41:10  PAGE 12


   *DEL*:           000003H   BYTE   UNIT     XDATA          ?XD?_CYWRITEROWDATA?CYFLASH
   *DEL*:           000190H   BYTE   UNIT     CODE           ?PR?_CYWRITEROWFULL?CYFLASH
   *DEL*:           000009H   BYTE   UNIT     XDATA          ?XD?_CYWRITEROWFULL?CYFLASH
   *DEL*:           000044H   BYTE   UNIT     CODE           ?PR?_CYFLASH_SETWAITCYCLES?CYFLASH
   *DEL*:           000001H   BYTE   UNIT     XDATA          ?XD?_CYFLASH_SETWAITCYCLES?CYFLASH
   *DEL*:           000015H   BYTE   UNIT     CODE           ?PR?CYEEPROM_STOP?CYFLASH
   *DEL*:           000010H   BYTE   UNIT     CODE           ?PR?CYEEPROM_READRESERVE?CYFLASH
   *DEL*:           000008H   BYTE   UNIT     CODE           ?PR?CYEEPROM_READRELEASE?CYFLASH
   *DEL*:           00006EH   BYTE   UNIT     CODE           ?PR?_CYPLL_OUT_START?CYLIB
   *DEL*:           000004H   BYTE   UNIT     XDATA          ?XD?_CYPLL_OUT_START?CYLIB
   *DEL*:           000008H   BYTE   UNIT     CODE           ?PR?CYPLL_OUT_STOP?CYLIB
   *DEL*:           000036H   BYTE   UNIT     CODE           ?PR?_CYPLL_OUT_SETPQ?CYLIB
   *DEL*:           000010H   BYTE   UNIT     CODE           ?PR?_CYPLL_OUT_SETSOURCE?CYLIB
   *DEL*:           000053H   BYTE   UNIT     CODE           ?PR?_CYIMO_START?CYLIB
   *DEL*:           000003H   BYTE   UNIT     XDATA          ?XD?_CYIMO_START?CYLIB
   *DEL*:           00000FH   BYTE   UNIT     CODE           ?PR?CYIMO_STOP?CYLIB
   *DEL*:           000027H   BYTE   UNIT     CODE           ?PR?CYUSB_POWERONCHECK?CYLIB
   *DEL*:           0000B6H   BYTE   UNIT     CODE           ?PR?_CYIMO_SETTRIMVALUE?CYLIB
   *DEL*:           000001H   BYTE   UNIT     XDATA          ?XD?_CYIMO_SETTRIMVALUE?CYLIB
   *DEL*:           000118H   BYTE   UNIT     CODE           ?PR?_CYIMO_SETFREQ?CYLIB
   *DEL*:           000003H   BYTE   UNIT     XDATA          ?XD?_CYIMO_SETFREQ?CYLIB
   *DEL*:           00002FH   BYTE   UNIT     CODE           ?PR?_CYIMO_SETSOURCE?CYLIB
   *DEL*:           000008H   BYTE   UNIT     CODE           ?PR?CYIMO_ENABLEDOUBLER?CYLIB
   *DEL*:           000008H   BYTE   UNIT     CODE           ?PR?CYIMO_DISABLEDOUBLER?CYLIB
   *DEL*:           00000DH   BYTE   UNIT     CODE           ?PR?_CYMASTERCLK_SETSOURCE?CYLIB
   *DEL*:           000006H   BYTE   UNIT     CODE           ?PR?_CYMASTERCLK_SETDIVIDER?CYLIB
   *DEL*:           000023H   BYTE   UNIT     CODE           ?PR?_CYBUSCLK_INTERNAL_SETDIVIDER?CYLIB
   *DEL*:           00007AH   BYTE   UNIT     CODE           ?PR?_CYBUSCLK_SETDIVIDER?CYLIB
   *DEL*:           000002H   BYTE   UNIT     XDATA          ?XD?_CYBUSCLK_SETDIVIDER?CYLIB
   *DEL*:           00000EH   BYTE   UNIT     CODE           ?PR?_CYCPUCLK_SETDIVIDER?CYLIB
   *DEL*:           00000DH   BYTE   UNIT     CODE           ?PR?_CYUSBCLK_SETSOURCE?CYLIB
   *DEL*:           000008H   BYTE   UNIT     CODE           ?PR?CYILO_START1K?CYLIB
   *DEL*:           000008H   BYTE   UNIT     CODE           ?PR?CYILO_STOP1K?CYLIB
   *DEL*:           000008H   BYTE   UNIT     CODE           ?PR?CYILO_START100K?CYLIB
   *DEL*:           000008H   BYTE   UNIT     CODE           ?PR?CYILO_STOP100K?CYLIB
   *DEL*:           000008H   BYTE   UNIT     CODE           ?PR?CYILO_ENABLE33K?CYLIB
   *DEL*:           000008H   BYTE   UNIT     CODE           ?PR?CYILO_DISABLE33K?CYLIB
   *DEL*:           000011H   BYTE   UNIT     CODE           ?PR?_CYILO_SETSOURCE?CYLIB
   *DEL*:           000029H   BYTE   UNIT     CODE           ?PR?_CYILO_SETPOWERMODE?CYLIB
   *DEL*:           00005EH   BYTE   UNIT     CODE           ?PR?CYXTAL_32KHZ_START?CYLIB
   *DEL*:           000002H   BYTE   UNIT     XDATA          ?XD?CYXTAL_32KHZ_START?CYLIB
   *DEL*:           000020H   BYTE   UNIT     CODE           ?PR?CYXTAL_32KHZ_STOP?CYLIB
   *DEL*:           000008H   BYTE   UNIT     CODE           ?PR?CYXTAL_32KHZ_READSTATUS?CYLIB
   *DEL*:           000066H   BYTE   UNIT     CODE           ?PR?_CYXTAL_32KHZ_SETPOWERMODE?CYLIB
   *DEL*:           000001H   BYTE   UNIT     XDATA          ?XD?_CYXTAL_32KHZ_SETPOWERMODE?CYLIB
   *DEL*:           0000A0H   BYTE   UNIT     CODE           ?PR?_CYXTAL_START?CYLIB
   *DEL*:           000006H   BYTE   UNIT     XDATA          ?XD?_CYXTAL_START?CYLIB
   *DEL*:           000008H   BYTE   UNIT     CODE           ?PR?CYXTAL_STOP?CYLIB
   *DEL*:           000008H   BYTE   UNIT     CODE           ?PR?CYXTAL_ENABLEERRSTATUS?CYLIB
   *DEL*:           000008H   BYTE   UNIT     CODE           ?PR?CYXTAL_DISABLEERRSTATUS?CYLIB
   *DEL*:           00000FH   BYTE   UNIT     CODE           ?PR?CYXTAL_READSTATUS?CYLIB
   *DEL*:           000008H   BYTE   UNIT     CODE           ?PR?CYXTAL_ENABLEFAULTRECOVERY?CYLIB
   *DEL*:           000008H   BYTE   UNIT     CODE           ?PR?CYXTAL_DISABLEFAULTRECOVERY?CYLIB
   *DEL*:           00000DH   BYTE   UNIT     CODE           ?PR?_CYXTAL_SETSTARTUP?CYLIB
   *DEL*:           00000DH   BYTE   UNIT     CODE           ?PR?_CYXTAL_SETFBVOLTAGE?CYLIB
   *DEL*:           00000EH   BYTE   UNIT     CODE           ?PR?_CYXTAL_SETWDVOLTAGE?CYLIB
   *DEL*:           000015H   BYTE   UNIT     CODE           ?PR?_?CYHALT?CYLIB
   *DEL*:           0000B8H   BYTE   UNIT     CODE           ?PR?_?CYDELAYFREQ?CYLIB
   *DEL*:           000026H   BYTE   UNIT     CODE           ?PR?_CYWDTSTART?CYLIB
   *DEL*:           000007H   BYTE   UNIT     CODE           ?PR?CYWDTCLEAR?CYLIB
   *DEL*:           000084H   BYTE   UNIT     CODE           ?PR?_CYVDLVDIGITENABLE?CYLIB
   *DEL*:           000007H   BYTE   UNIT     XDATA          ?XD?_CYVDLVDIGITENABLE?CYLIB
   *DEL*:           000083H   BYTE   UNIT     CODE           ?PR?_CYVDLVANALOGENABLE?CYLIB
   *DEL*:           000007H   BYTE   UNIT     XDATA          ?XD?_CYVDLVANALOGENABLE?CYLIB
   *DEL*:           00001DH   BYTE   UNIT     CODE           ?PR?CYVDLVDIGITDISABLE?CYLIB
LX51 LINKER/LOCATER V4.64.0.0                                                         04/06/2018  15:41:10  PAGE 13


   *DEL*:           000018H   BYTE   UNIT     CODE           ?PR?CYVDLVANALOGDISABLE?CYLIB
   *DEL*:           000056H   BYTE   UNIT     CODE           ?PR?CYVDHVANALOGENABLE?CYLIB
   *DEL*:           000005H   BYTE   UNIT     XDATA          ?XD?CYVDHVANALOGENABLE?CYLIB
   *DEL*:           000011H   BYTE   UNIT     CODE           ?PR?CYVDHVANALOGDISABLE?CYLIB
   *DEL*:           000039H   BYTE   UNIT     CODE           ?PR?_CYVDSTICKYSTATUS?CYLIB
   *DEL*:           000002H   BYTE   UNIT     XDATA          ?XD?_CYVDSTICKYSTATUS?CYLIB
   *DEL*:           000018H   BYTE   UNIT     CODE           ?PR?CYVDREALTIMESTATUS?CYLIB
   *DEL*:           000001H   BYTE   UNIT     XDATA          ?XD?CYVDREALTIMESTATUS?CYLIB
   *DEL*:           0000D0H   BYTE   UNIT     CODE           ?PR?CYDISABLEINTS?CYLIB
   *DEL*:           000005H   BYTE   UNIT     XDATA          ?XD?CYDISABLEINTS?CYLIB
   *DEL*:           000067H   BYTE   UNIT     CODE           ?PR?_CYENABLEINTS?CYLIB
   *DEL*:           000004H   BYTE   UNIT     XDATA          ?XD?_CYENABLEINTS?CYLIB
   *DEL*:           000018H   BYTE   UNIT     CODE           ?PR?_CYINTGETVECTOR?CYLIB
   *DEL*:           000014H   BYTE   UNIT     CODE           ?PR?_CYINTGETPRIORITY?CYLIB
   *DEL*:           000036H   BYTE   UNIT     CODE           ?PR?_CYINTGETSTATE?CYLIB
   *DEL*:           000248H   BYTE   UNIT     CODE           ?PR?_CYGETUNIQUEID?CYLIB
   *DEL*:           000003H   BYTE   UNIT     XDATA          ?XD?_CYGETUNIQUEID?CYLIB
   *DEL*:           000008H   BYTE   UNIT     CODE           ?PR?LED_BLINK_STOP?LED_BLINK
   *DEL*:           00000BH   BYTE   UNIT     CODE           ?PR?LED_BLINK_READCOUNTER?LED_BLINK
   *DEL*:           000006H   BYTE   UNIT     CODE           ?PR?LED_BLINK_READCONTROLREGISTER?LED_BLINK
   *DEL*:           000006H   BYTE   UNIT     CODE           ?PR?_LED_BLINK_WRITECONTROLREGISTER?LED_BLINK
   *DEL*:           000006H   BYTE   UNIT     CODE           ?PR?LED_BLINK_READCAPTURE?LED_BLINK
   *DEL*:           000006H   BYTE   UNIT     CODE           ?PR?LED_BLINK_READCOMPARE?LED_BLINK
   *DEL*:           000006H   BYTE   UNIT     CODE           ?PR?LED_BLINK_READPERIOD?LED_BLINK
   *DEL*:           000006H   BYTE   UNIT     CODE           ?PR?LED_CTRL_READ?LED_CTRL
   *DEL*:           000006H   BYTE   UNIT     CODE           ?PR?LED_BLINK_EN_READ?LED_BLINK_EN
   *DEL*:           000004H   BYTE   UNIT     CODE           ?PR?_CyDelay?CYBOOTASMKEIL
   *DEL*:           000019H   BYTE   UNIT     CODE           ?PR?CYMEMZERO?CYMEM
   *DEL*:           00002DH   BYTE   UNIT     CODE           ?PR?CFG_WRITE_BYTES?CYMEM
   *DEL*:           00002EH   BYTE   UNIT     CODE           ?PR?CY_WRITE_BYTES_CODE?CYMEM
   *DEL*:           000015H   BYTE   UNIT     CODE           ?PR?CYREAD32?CYMEM
   *DEL*:           000015H   BYTE   UNIT     CODE           ?PR?CYWRITE32?CYMEM
   *DEL*:           000021H   BYTE   UNIT     CODE           ?PR?_ADC_AMUX_FASTSELECT?ADC_AMUX
   *DEL*:           000001H   BYTE   UNIT     XDATA          ?XD?_ADC_AMUX_FASTSELECT?ADC_AMUX
   *DEL*:           00000FH   BYTE   UNIT     CODE           ?PR?ADC_EXT_CP_CLK_START?ADC_EXT_CP_CLK
   *DEL*:           00000FH   BYTE   UNIT     CODE           ?PR?ADC_EXT_CP_CLK_STOP?ADC_EXT_CP_CLK
   *DEL*:           00006EH   BYTE   UNIT     CODE           ?PR?ADC_EXT_CP_CLK_STOPBLOCK?ADC_EXT_CP_CLK
   *DEL*:           000002H   BYTE   UNIT     XDATA          ?XD?ADC_EXT_CP_CLK_STOPBLOCK?ADC_EXT_CP_CLK
   *DEL*:           000013H   BYTE   UNIT     CODE           ?PR?_ADC_EXT_CP_CLK_STANDBYPOWER?ADC_EXT_CP_CLK
   *DEL*:           00000EH   BYTE   UNIT     CODE           ?PR?_ADC_EXT_CP_CLK_CLEARMODEREGISTER?ADC_EXT_CP_CLK
   *DEL*:           000008H   BYTE   UNIT     CODE           ?PR?ADC_EXT_CP_CLK_GETMODEREGISTER?ADC_EXT_CP_CLK
   *DEL*:           000062H   BYTE   UNIT     CODE           ?PR?_ADC_EXT_CP_CLK_SETSOURCEREGISTER?ADC_EXT_CP_CLK
   *DEL*:           000003H   BYTE   UNIT     XDATA          ?XD?_ADC_EXT_CP_CLK_SETSOURCEREGISTER?ADC_EXT_CP_CLK
   *DEL*:           00000FH   BYTE   UNIT     CODE           ?PR?ADC_THEACLK_START?ADC_THEACLK
   *DEL*:           00000FH   BYTE   UNIT     CODE           ?PR?ADC_THEACLK_STOP?ADC_THEACLK
   *DEL*:           00006CH   BYTE   UNIT     CODE           ?PR?ADC_THEACLK_STOPBLOCK?ADC_THEACLK
   *DEL*:           000002H   BYTE   UNIT     XDATA          ?XD?ADC_THEACLK_STOPBLOCK?ADC_THEACLK
   *DEL*:           000013H   BYTE   UNIT     CODE           ?PR?_ADC_THEACLK_STANDBYPOWER?ADC_THEACLK
   *DEL*:           00000EH   BYTE   UNIT     CODE           ?PR?_ADC_THEACLK_CLEARMODEREGISTER?ADC_THEACLK
   *DEL*:           000008H   BYTE   UNIT     CODE           ?PR?ADC_THEACLK_GETMODEREGISTER?ADC_THEACLK
   *DEL*:           000062H   BYTE   UNIT     CODE           ?PR?_ADC_THEACLK_SETSOURCEREGISTER?ADC_THEACLK
   *DEL*:           000003H   BYTE   UNIT     XDATA          ?XD?_ADC_THEACLK_SETSOURCEREGISTER?ADC_THEACLK
   *DEL*:           000008H   BYTE   UNIT     CODE           ?PR?_ADC_THEACLK_SETPHASEREGISTER?ADC_THEACLK
   *DEL*:           000008H   BYTE   UNIT     CODE           ?PR?ADC_THEACLK_GETPHASEREGISTER?ADC_THEACLK
   *DEL*:           0001A9H   BYTE   UNIT     CODE           ?PR?CYPMSAVECLOCKS?CYPM
   *DEL*:           00024CH   BYTE   UNIT     CODE           ?PR?CYPMRESTORECLOCKS?CYPM
   *DEL*:           000003H   BYTE   UNIT     XDATA          ?XD?CYPMRESTORECLOCKS?CYPM
   *DEL*:           0000E0H   BYTE   UNIT     CODE           ?PR?_CYPMALTACT?CYPM
   *DEL*:           000004H   BYTE   UNIT     XDATA          ?XD?_CYPMALTACT?CYPM
   *DEL*:           000160H   BYTE   UNIT     CODE           ?PR?_CYPMSLEEP?CYPM
   *DEL*:           000004H   BYTE   UNIT     XDATA          ?XD?_CYPMSLEEP?CYPM
   *DEL*:           000008H   BYTE   UNIT     CODE           ?PR?CYPMHIBERNATE?CYPM
   *DEL*:           0000D6H   BYTE   UNIT     CODE           ?PR?_CYPMHIBERNATEEX?CYPM
   *DEL*:           000003H   BYTE   UNIT     XDATA          ?XD?_CYPMHIBERNATEEX?CYPM
   *DEL*:           000039H   BYTE   UNIT     CODE           ?PR?_CYPMREADSTATUS?CYPM
LX51 LINKER/LOCATER V4.64.0.0                                                         04/06/2018  15:41:10  PAGE 14


   *DEL*:           000002H   BYTE   UNIT     XDATA          ?XD?_CYPMREADSTATUS?CYPM
   *DEL*:           000076H   BYTE   UNIT     CODE           ?PR?CYPMHIBSAVESET?CYPM
   *DEL*:           000040H   BYTE   UNIT     CODE           ?PR?CYPMHIBRESTORE?CYPM
   *DEL*:           000049H   BYTE   UNIT     CODE           ?PR?_CYPMCTWSETINTERVAL?CYPM
   *DEL*:           000001H   BYTE   UNIT     XDATA          ?XD?_CYPMCTWSETINTERVAL?CYPM
   *DEL*:           000017H   BYTE   UNIT     CODE           ?PR?CYPMOPPSSET?CYPM
   *DEL*:           00004DH   BYTE   UNIT     CODE           ?PR?_CYPMFTWSETINTERVAL?CYPM
   *DEL*:           000001H   BYTE   UNIT     XDATA          ?XD?_CYPMFTWSETINTERVAL?CYPM
   *DEL*:           00018CH   BYTE   UNIT     CODE           ?PR?CYPMHIBSLPSAVESET?CYPM
   *DEL*:           00010DH   BYTE   UNIT     CODE           ?PR?CYPMHIBSLPRESTORE?CYPM
   *DEL*:           000082H   BYTE   UNIT     CODE           ?PR?CYPMHVILVISAVEDISABLE?CYPM
   *DEL*:           000033H   BYTE   UNIT     CODE           ?PR?CYPMHVILVIRESTORE?CYPM
   *DEL*:           00000EH   BYTE   UNIT     CONST          ?CO?CYPM
   *DEL*:           000015H   BYTE   UNIT     CODE           ?PR?CYSPCSTOP?CYSPC
   *DEL*:           0000A7H   BYTE   UNIT     CODE           ?PR?_CYSPCLOADMULTIBYTE?CYSPC
   *DEL*:           000007H   BYTE   UNIT     XDATA          ?XD?_CYSPCLOADMULTIBYTE?CYSPC
   *DEL*:           000143H   BYTE   UNIT     CODE           ?PR?_CYSPCLOADROWFULL?CYSPC
   *DEL*:           00000FH   BYTE   UNIT     XDATA          ?XD?_CYSPCLOADROWFULL?CYSPC
   *DEL*:           000030H   BYTE   UNIT     CODE           ?PR?_CYSPCERASESECTOR?CYSPC



OVERLAY MAP OF MODULE:   .\DP8051_Keil_951\Release\hand_firmware_micro.omf (COMMAND_PROCESSING)


FUNCTION/MODULE                                BIT_GROUP   DATA_GROUP   IDATA_GROUP  XDATA_GROUP
--> CALLED FUNCTION/MODULE                    START  STOP  START  STOP  START  STOP  START  STOP
================================================================================================
ISR_WATCHDOG_HANDLER/INTERRUPTIONS            ----- -----  ----- -----  ----- -----  ----- -----

*** NEW ROOT ********************************

ISR_RS485_RX_EXINTERRUPT/INTERRUPTIONS        ----- -----  ----- -----  ----- -----  ----- -----

*** NEW ROOT ********************************

ISR_RS485_RX_INTERRUPT/ISR_RS485_RX           ----- -----  ----- -----  ----- -----  ----- -----

*** NEW ROOT ********************************

ISR_WATCHDOG_INTERRUPT/ISR_WATCHDOG           ----- -----  ----- -----  ----- -----  ----- -----

*** NEW ROOT ********************************

INTDEFAULTHANDLER/CYLIB                       ----- -----  ----- -----  ----- -----  ----- -----

*** NEW ROOT ********************************

?C_C51STARTUP                                 ----- -----  ----- -----  ----- -----  ----- -----
  +--> ?CO?KEILSTART?3
  +--> CYINTINITVECTORS/CYLIB
  +--> CYFITTER_CFG/CYFITTER_CFG
  +--> CYDMACCONFIGURE/CYDMAC
  +--> MAIN/MAIN
  +--> ?C_INITSEG

?CO?KEILSTART?3                               ----- -----  ----- -----  ----- -----  ----- -----

CYINTINITVECTORS/CYLIB                        ----- -----  ----- -----  ----- -----  0000H 0000H
  +--> CYWRITE16/CYMEM

CYWRITE16/CYMEM                               ----- -----  ----- -----  ----- -----  ----- -----

CYFITTER_CFG/CYFITTER_CFG                     ----- -----  ----- -----  ----- -----  ----- -----
  +--> CYREAD8/CYMEM
LX51 LINKER/LOCATER V4.64.0.0                                                         04/06/2018  15:41:10  PAGE 15


  +--> CYWRITE8/CYMEM
  +--> CFG_DMA_INIT/CYFITTER_CFG
  +--> ?CO?CYFITTER_CFG
  +--> CYCONFIGCPYCODE/CYMEM
  +--> _CYCONFIGCPY/CYMEM
  +--> CLOCKSETUP/CYFITTER_CFG
  +--> ANALOGSETDEFAULT/CYFITTER_CFG

CYREAD8/CYMEM                                 ----- -----  ----- -----  ----- -----  ----- -----

CYWRITE8/CYMEM                                ----- -----  ----- -----  ----- -----  ----- -----

CFG_DMA_INIT/CYFITTER_CFG                     ----- -----  ----- -----  ----- -----  ----- -----
  +--> CYWRITE16/CYMEM
  +--> ?CO?CYFITTER_CFG
  +--> _CYCONFIGCPY/CYMEM

?CO?CYFITTER_CFG                              ----- -----  ----- -----  ----- -----  ----- -----

_CYCONFIGCPY/CYMEM                            ----- -----  ----- -----  ----- -----  0005H 000CH

CYCONFIGCPYCODE/CYMEM                         ----- -----  ----- -----  ----- -----  ----- -----

CLOCKSETUP/CYFITTER_CFG                       ----- -----  ----- -----  ----- -----  0000H 0004H
  +--> CYWRITE16/CYMEM
  +--> _CYCONFIGCPY/CYMEM
  +--> CYREAD8/CYMEM
  +--> CYDELAYCYCLES/CYBOOTASMKEIL
  +--> _CYCLOCKSTARTUPERROR/CYFITTER_CFG

CYDELAYCYCLES/CYBOOTASMKEIL                   ----- -----  ----- -----  ----- -----  ----- -----

_CYCLOCKSTARTUPERROR/CYFITTER_CFG             ----- -----  ----- -----  ----- -----  ----- -----

ANALOGSETDEFAULT/CYFITTER_CFG                 ----- -----  ----- -----  ----- -----  ----- -----
  +--> CYREAD8/CYMEM

CYDMACCONFIGURE/CYDMAC                        ----- -----  ----- -----  ----- -----  ----- -----

MAIN/MAIN                                     ----- -----  ----- -----  ----- -----  0000H 0001H
  +--> EEPROM_START/EEPROM
  +--> MEMRECALL/COMMAND_PROCESSING
  +--> _?CYDELAY/CYLIB
  +--> _FTDI_ENABLE_REG_WRITE/FTDI_ENABLE_REG
  +--> _LED_CTRL_WRITE/LED_CTRL
  +--> _LED_BLINK_EN_WRITE/LED_BLINK_EN
  +--> LED_BLINK_START/LED_BLINK
  +--> _LED_BLINK_WRITECOMPARE/LED_BLINK
  +--> UART_RS485_STOP/UART_RS485
  +--> UART_RS485_START/UART_RS485
  +--> UART_RS485_INIT/UART_RS485
  +--> UART_RS485_CLEARRXBUFFER/UART_RS485
  +--> UART_RS485_CLEARTXBUFFER/UART_RS485
  +--> _ISR_RS485_RX_STARTEX/ISR_RS485_RX
  +--> WATCHDOG_COUNTER_START/WATCHDOG_COUNTER
  +--> _ISR_WATCHDOG_STARTEX/ISR_WATCHDOG
  +--> PWM_MOTORS_START/PWM_MOTORS
  +--> _PWM_MOTORS_WRITECOMPARE1/PWM_MOTORS
  +--> _PWM_MOTORS_WRITECOMPARE2/PWM_MOTORS
  +--> _MOTOR_DIR_WRITE/MOTOR_DIR
  +--> _MOTOR_ON_OFF_WRITE/MOTOR_ON_OFF
  +--> COUNTER_ENC_START/COUNTER_ENC
  +--> SHIFTREG_ENC_1_START/SHIFTREG_ENC_1
  +--> SHIFTREG_ENC_2_START/SHIFTREG_ENC_2
  +--> SHIFTREG_ENC_3_START/SHIFTREG_ENC_3
LX51 LINKER/LOCATER V4.64.0.0                                                         04/06/2018  15:41:10  PAGE 16


  +--> ADC_START/ADC
  +--> _ADC_SOC_WRITE/ADC_SOC
  +--> _DMA_DMAINITIALIZE/DMA_DMA
  +--> CYDMATDALLOCATE/CYDMAC
  +--> _CYDMATDSETCONFIGURATION/CYDMAC
  +--> _CYDMATDSETADDRESS/CYDMAC
  +--> _CYDMACHSETINITIALTD/CYDMAC
  +--> _CYDMACHENABLE/CYDMAC
  +--> _RS485_CTS_WRITE/RS485_CTS
  +--> MY_TIMER_START/MY_TIMER
  +--> PACER_TIMER_START/PACER_TIMER
  +--> _RESET_COUNTERS_WRITE/RESET_COUNTERS
  +--> _RESET_FF_WRITE/RESET_FF
  +--> FUNCTION_SCHEDULER/INTERRUPTIONS
  +--> FF_STATUS_READ/FF_STATUS
  +--> _WATCHDOG_REFRESH_WRITE/WATCHDOG_REFRESH
  +--> INTERRUPT_MANAGER/INTERRUPTIONS
  +--> UART_RS485_READRXSTATUS/UART_RS485

EEPROM_START/EEPROM                           ----- -----  ----- -----  ----- -----  ----- -----
  +--> EEPROM_ENABLE/EEPROM

EEPROM_ENABLE/EEPROM                          ----- -----  ----- -----  ----- -----  ----- -----
  +--> CYSETTEMP/CYFLASH
  +--> CYEEPROM_START/CYFLASH

CYSETTEMP/CYFLASH                             ----- -----  ----- -----  ----- -----  0037H 0037H
  +--> CYFLASHGETSPCALGORITHM/CYFLASH
  +--> CYSETTEMPINT/CYFLASH

CYFLASHGETSPCALGORITHM/CYFLASH                ----- -----  ----- -----  ----- -----  0038H 0038H
  +--> CYSPCSTART/CYSPC
  +--> CYSPCLOCK/CYSPC
  +--> CYSPCGETALGORITHM/CYSPC
  +--> CYDELAYUS/CYBOOTASMKEIL
  +--> CYSPCUNLOCK/CYSPC

CYSPCSTART/CYSPC                              ----- -----  ----- -----  ----- -----  ----- -----
  +--> CYENTERCRITICALSECTION/CYBOOTASMKEIL
  +--> CYEXITCRITICALSECTION/CYBOOTASMKEIL

CYENTERCRITICALSECTION/CYBOOTASMKEIL          ----- -----  ----- -----  ----- -----  ----- -----

CYEXITCRITICALSECTION/CYBOOTASMKEIL           ----- -----  ----- -----  ----- -----  ----- -----

CYSPCLOCK/CYSPC                               ----- -----  ----- -----  ----- -----  003CH 003CH
  +--> CYENTERCRITICALSECTION/CYBOOTASMKEIL
  +--> CYEXITCRITICALSECTION/CYBOOTASMKEIL

CYSPCGETALGORITHM/CYSPC                       ----- -----  ----- -----  ----- -----  ----- -----

CYDELAYUS/CYBOOTASMKEIL                       ----- -----  ----- -----  ----- -----  ----- -----
  +--> CYDELAYCYCLES/CYBOOTASMKEIL

CYSPCUNLOCK/CYSPC                             ----- -----  ----- -----  ----- -----  ----- -----
  +--> CYENTERCRITICALSECTION/CYBOOTASMKEIL
  +--> CYEXITCRITICALSECTION/CYBOOTASMKEIL

CYSETTEMPINT/CYFLASH                          ----- -----  ----- -----  ----- -----  0038H 0038H
  +--> CYSPCSTART/CYSPC
  +--> CYSPCLOCK/CYSPC
  +--> _CYSPCGETTEMP/CYSPC
  +--> _CYSPCREADDATA/CYSPC
  +--> CYDELAYUS/CYBOOTASMKEIL
  +--> CYSPCUNLOCK/CYSPC
LX51 LINKER/LOCATER V4.64.0.0                                                         04/06/2018  15:41:10  PAGE 17



_CYSPCGETTEMP/CYSPC                           ----- -----  ----- -----  ----- -----  ----- -----

_CYSPCREADDATA/CYSPC                          ----- -----  ----- -----  ----- -----  0039H 003DH
  +--> CYDELAYUS/CYBOOTASMKEIL

CYEEPROM_START/CYFLASH                        ----- -----  ----- -----  ----- -----  ----- -----
  +--> CYENTERCRITICALSECTION/CYBOOTASMKEIL
  +--> CYEXITCRITICALSECTION/CYBOOTASMKEIL

MEMRECALL/COMMAND_PROCESSING                  ----- -----  ----- -----  ----- -----  ----- -----
  +--> MEMRESTORE/COMMAND_PROCESSING

MEMRESTORE/COMMAND_PROCESSING                 ----- -----  ----- -----  ----- -----  ----- -----
  +--> MEMINIT/COMMAND_PROCESSING
  +--> _MEMSTORE/COMMAND_PROCESSING

MEMINIT/COMMAND_PROCESSING                    ----- -----  ----- -----  ----- -----  ----- -----
  +--> _MEMSTORE/COMMAND_PROCESSING

_MEMSTORE/COMMAND_PROCESSING                  ----- -----  ----- -----  ----- -----  0030H 0036H
  +--> ISR_RS485_RX_DISABLE/ISR_RS485_RX
  +--> _PWM_MOTORS_WRITECOMPARE1/PWM_MOTORS
  +--> _PWM_MOTORS_WRITECOMPARE2/PWM_MOTORS
  +--> CYSETTEMP/CYFLASH
  +--> _EEPROM_WRITE/EEPROM
  +--> ISR_RS485_RX_ENABLE/ISR_RS485_RX

ISR_RS485_RX_DISABLE/ISR_RS485_RX             ----- -----  ----- -----  ----- -----  ----- -----

_PWM_MOTORS_WRITECOMPARE1/PWM_MOTORS          ----- -----  ----- -----  ----- -----  ----- -----

_PWM_MOTORS_WRITECOMPARE2/PWM_MOTORS          ----- -----  ----- -----  ----- -----  ----- -----

_EEPROM_WRITE/EEPROM                          ----- -----  ----- -----  ----- -----  0037H 003BH
  +--> CYSPCSTART/CYSPC
  +--> CYSPCLOCK/CYSPC
  +--> _CYSPCLOADROW/CYSPC
  +--> _CYSPCWRITEROW/CYSPC
  +--> CYSPCUNLOCK/CYSPC

_CYSPCLOADROW/CYSPC                           ----- -----  ----- -----  ----- -----  003CH 0042H

_CYSPCWRITEROW/CYSPC                          ----- -----  ----- -----  ----- -----  003CH 0040H

ISR_RS485_RX_ENABLE/ISR_RS485_RX              ----- -----  ----- -----  ----- -----  ----- -----

_?CYDELAY/CYLIB                               ----- -----  ----- -----  ----- -----  ----- -----
  +--> CYDELAYCYCLES/CYBOOTASMKEIL

_FTDI_ENABLE_REG_WRITE/FTDI_ENABLE_REG        ----- -----  ----- -----  ----- -----  ----- -----

_LED_CTRL_WRITE/LED_CTRL                      ----- -----  ----- -----  ----- -----  ----- -----

_LED_BLINK_EN_WRITE/LED_BLINK_EN              ----- -----  ----- -----  ----- -----  ----- -----

LED_BLINK_START/LED_BLINK                     ----- -----  ----- -----  ----- -----  ----- -----
  +--> LED_BLINK_INIT/LED_BLINK
  +--> LED_BLINK_ENABLE/LED_BLINK

LED_BLINK_INIT/LED_BLINK                      ----- -----  ----- -----  ----- -----  ----- -----
  +--> _LED_BLINK_WRITECOUNTER/LED_BLINK
  +--> _LED_BLINK_WRITEPERIOD/LED_BLINK
  +--> _LED_BLINK_WRITECOMPARE/LED_BLINK

LX51 LINKER/LOCATER V4.64.0.0                                                         04/06/2018  15:41:10  PAGE 18


_LED_BLINK_WRITECOUNTER/LED_BLINK             ----- -----  ----- -----  ----- -----  ----- -----

_LED_BLINK_WRITEPERIOD/LED_BLINK              ----- -----  ----- -----  ----- -----  ----- -----

_LED_BLINK_WRITECOMPARE/LED_BLINK             ----- -----  ----- -----  ----- -----  ----- -----

LED_BLINK_ENABLE/LED_BLINK                    ----- -----  ----- -----  ----- -----  ----- -----

UART_RS485_STOP/UART_RS485                    ----- -----  ----- -----  ----- -----  ----- -----
  +--> CYENTERCRITICALSECTION/CYBOOTASMKEIL
  +--> CYEXITCRITICALSECTION/CYBOOTASMKEIL

UART_RS485_START/UART_RS485                   ----- -----  ----- -----  ----- -----  ----- -----
  +--> UART_RS485_INIT/UART_RS485
  +--> UART_RS485_ENABLE/UART_RS485

UART_RS485_INIT/UART_RS485                    ----- -----  ----- -----  ----- -----  ----- -----
  +--> _CYINTSETVECTOR/CYLIB
  +--> _CYINTSETPRIORITY/CYLIB

_CYINTSETVECTOR/CYLIB                         ----- -----  ----- -----  ----- -----  0002H 0006H
  +--> CYREAD16/CYMEM
  +--> CYWRITE16/CYMEM

CYREAD16/CYMEM                                ----- -----  ----- -----  ----- -----  ----- -----

_CYINTSETPRIORITY/CYLIB                       ----- -----  ----- -----  ----- -----  ----- -----

UART_RS485_ENABLE/UART_RS485                  ----- -----  ----- -----  ----- -----  ----- -----
  +--> CYENTERCRITICALSECTION/CYBOOTASMKEIL
  +--> CYEXITCRITICALSECTION/CYBOOTASMKEIL

UART_RS485_CLEARRXBUFFER/UART_RS485           ----- -----  ----- -----  ----- -----  ----- -----
  +--> CYENTERCRITICALSECTION/CYBOOTASMKEIL
  +--> CYEXITCRITICALSECTION/CYBOOTASMKEIL

UART_RS485_CLEARTXBUFFER/UART_RS485           ----- -----  ----- -----  ----- -----  ----- -----
  +--> CYENTERCRITICALSECTION/CYBOOTASMKEIL
  +--> CYEXITCRITICALSECTION/CYBOOTASMKEIL

_ISR_RS485_RX_STARTEX/ISR_RS485_RX            ----- -----  ----- -----  ----- -----  0002H 0003H
  +--> ISR_RS485_RX_DISABLE/ISR_RS485_RX
  +--> _ISR_RS485_RX_SETVECTOR/ISR_RS485_RX
  +--> _ISR_RS485_RX_SETPRIORITY/ISR_RS485_RX
  +--> ISR_RS485_RX_ENABLE/ISR_RS485_RX

_ISR_RS485_RX_SETVECTOR/ISR_RS485_RX          ----- -----  ----- -----  ----- -----  ----- -----
  +--> CYWRITE16/CYMEM

_ISR_RS485_RX_SETPRIORITY/ISR_RS485_RX        ----- -----  ----- -----  ----- -----  ----- -----

WATCHDOG_COUNTER_START/WATCHDOG_COUNTER       ----- -----  ----- -----  ----- -----  ----- -----
  +--> WATCHDOG_COUNTER_INIT/WATCHDOG_COUNTER
  +--> WATCHDOG_COUNTER_ENABLE/WATCHDOG_COUNTER

WATCHDOG_COUNTER_INIT/WATCHDOG_COUNTER        ----- -----  ----- -----  ----- -----  ----- -----
  +--> _WATCHDOG_COUNTER_WRITEPERIOD/WATCHDOG_COUNTER
  +--> _WATCHDOG_COUNTER_WRITECOUNTER/WATCHDOG_COUNTER
  +--> _WATCHDOG_COUNTER_SETINTERRUPTMODE/WATCHDOG_COUNTER

_WATCHDOG_COUNTER_WRITEPERIOD/WATCHDOG_C+     ----- -----  ----- -----  ----- -----  ----- -----
... OUNTER
  +--> CYWRITE16/CYMEM

_WATCHDOG_COUNTER_WRITECOUNTER/WATCHDOG_+     ----- -----  ----- -----  ----- -----  ----- -----
LX51 LINKER/LOCATER V4.64.0.0                                                         04/06/2018  15:41:10  PAGE 19


... COUNTER
  +--> CYWRITE16/CYMEM

_WATCHDOG_COUNTER_SETINTERRUPTMODE/WATCH+     ----- -----  ----- -----  ----- -----  ----- -----
... DOG_COUNTER

WATCHDOG_COUNTER_ENABLE/WATCHDOG_COUNTER      ----- -----  ----- -----  ----- -----  ----- -----

_ISR_WATCHDOG_STARTEX/ISR_WATCHDOG            ----- -----  ----- -----  ----- -----  0002H 0003H
  +--> ISR_WATCHDOG_DISABLE/ISR_WATCHDOG
  +--> _ISR_WATCHDOG_SETVECTOR/ISR_WATCHDOG
  +--> _ISR_WATCHDOG_SETPRIORITY/ISR_WATCHDOG
  +--> ISR_WATCHDOG_ENABLE/ISR_WATCHDOG

ISR_WATCHDOG_DISABLE/ISR_WATCHDOG             ----- -----  ----- -----  ----- -----  ----- -----

_ISR_WATCHDOG_SETVECTOR/ISR_WATCHDOG          ----- -----  ----- -----  ----- -----  ----- -----
  +--> CYWRITE16/CYMEM

_ISR_WATCHDOG_SETPRIORITY/ISR_WATCHDOG        ----- -----  ----- -----  ----- -----  ----- -----

ISR_WATCHDOG_ENABLE/ISR_WATCHDOG              ----- -----  ----- -----  ----- -----  ----- -----

PWM_MOTORS_START/PWM_MOTORS                   ----- -----  ----- -----  ----- -----  ----- -----
  +--> PWM_MOTORS_INIT/PWM_MOTORS
  +--> PWM_MOTORS_ENABLE/PWM_MOTORS

PWM_MOTORS_INIT/PWM_MOTORS                    ----- -----  ----- -----  ----- -----  ----- -----
  +--> _PWM_MOTORS_WRITECOUNTER/PWM_MOTORS
  +--> _PWM_MOTORS_WRITEPERIOD/PWM_MOTORS
  +--> _PWM_MOTORS_WRITECOMPARE1/PWM_MOTORS
  +--> _PWM_MOTORS_WRITECOMPARE2/PWM_MOTORS

_PWM_MOTORS_WRITECOUNTER/PWM_MOTORS           ----- -----  ----- -----  ----- -----  ----- -----

_PWM_MOTORS_WRITEPERIOD/PWM_MOTORS            ----- -----  ----- -----  ----- -----  ----- -----

PWM_MOTORS_ENABLE/PWM_MOTORS                  ----- -----  ----- -----  ----- -----  ----- -----

_MOTOR_DIR_WRITE/MOTOR_DIR                    ----- -----  ----- -----  ----- -----  ----- -----

_MOTOR_ON_OFF_WRITE/MOTOR_ON_OFF              ----- -----  ----- -----  ----- -----  ----- -----

COUNTER_ENC_START/COUNTER_ENC                 ----- -----  ----- -----  ----- -----  ----- -----
  +--> COUNTER_ENC_INIT/COUNTER_ENC
  +--> COUNTER_ENC_ENABLE/COUNTER_ENC

COUNTER_ENC_INIT/COUNTER_ENC                  ----- -----  ----- -----  ----- -----  ----- -----
  +--> COUNTER_ENC_CLEARFIFO/COUNTER_ENC
  +--> _COUNTER_ENC_WRITEPERIOD/COUNTER_ENC
  +--> _COUNTER_ENC_WRITECOUNTER/COUNTER_ENC
  +--> _COUNTER_ENC_SETINTERRUPTMODE/COUNTER_ENC
  +--> COUNTER_ENC_READSTATUSREGISTER/COUNTER_ENC
  +--> _COUNTER_ENC_WRITECOMPARE/COUNTER_ENC
  +--> CYENTERCRITICALSECTION/CYBOOTASMKEIL
  +--> CYEXITCRITICALSECTION/CYBOOTASMKEIL

COUNTER_ENC_CLEARFIFO/COUNTER_ENC             ----- -----  ----- -----  ----- -----  ----- -----
  +--> COUNTER_ENC_READSTATUSREGISTER/COUNTER_ENC
  +--> COUNTER_ENC_READCAPTURE/COUNTER_ENC

COUNTER_ENC_READSTATUSREGISTER/COUNTER_E+     ----- -----  ----- -----  ----- -----  ----- -----
... NC

COUNTER_ENC_READCAPTURE/COUNTER_ENC           ----- -----  ----- -----  ----- -----  ----- -----
LX51 LINKER/LOCATER V4.64.0.0                                                         04/06/2018  15:41:10  PAGE 20



_COUNTER_ENC_WRITEPERIOD/COUNTER_ENC          ----- -----  ----- -----  ----- -----  ----- -----

_COUNTER_ENC_WRITECOUNTER/COUNTER_ENC         ----- -----  ----- -----  ----- -----  ----- -----

_COUNTER_ENC_SETINTERRUPTMODE/COUNTER_EN+     ----- -----  ----- -----  ----- -----  ----- -----
... C

_COUNTER_ENC_WRITECOMPARE/COUNTER_ENC         ----- -----  ----- -----  ----- -----  ----- -----

COUNTER_ENC_ENABLE/COUNTER_ENC                ----- -----  ----- -----  ----- -----  ----- -----

SHIFTREG_ENC_1_START/SHIFTREG_ENC_1           ----- -----  ----- -----  ----- -----  ----- -----
  +--> SHIFTREG_ENC_1_INIT/SHIFTREG_ENC_1
  +--> SHIFTREG_ENC_1_ENABLE/SHIFTREG_ENC_1

SHIFTREG_ENC_1_INIT/SHIFTREG_ENC_1            ----- -----  ----- -----  ----- -----  ----- -----
  +--> _SHIFTREG_ENC_1_SETINTMODE/SHIFTREG_ENC_1

_SHIFTREG_ENC_1_SETINTMODE/SHIFTREG_ENC_+     ----- -----  ----- -----  ----- -----  ----- -----
... 1

SHIFTREG_ENC_1_ENABLE/SHIFTREG_ENC_1          ----- -----  ----- -----  ----- -----  ----- -----
  +--> SHIFTREG_ENC_1_ENABLEINT/SHIFTREG_ENC_1

SHIFTREG_ENC_1_ENABLEINT/SHIFTREG_ENC_1       ----- -----  ----- -----  ----- -----  ----- -----
  +--> CYENTERCRITICALSECTION/CYBOOTASMKEIL
  +--> CYEXITCRITICALSECTION/CYBOOTASMKEIL

SHIFTREG_ENC_2_START/SHIFTREG_ENC_2           ----- -----  ----- -----  ----- -----  ----- -----
  +--> SHIFTREG_ENC_2_INIT/SHIFTREG_ENC_2
  +--> SHIFTREG_ENC_2_ENABLE/SHIFTREG_ENC_2

SHIFTREG_ENC_2_INIT/SHIFTREG_ENC_2            ----- -----  ----- -----  ----- -----  ----- -----
  +--> _SHIFTREG_ENC_2_SETINTMODE/SHIFTREG_ENC_2

_SHIFTREG_ENC_2_SETINTMODE/SHIFTREG_ENC_+     ----- -----  ----- -----  ----- -----  ----- -----
... 2

SHIFTREG_ENC_2_ENABLE/SHIFTREG_ENC_2          ----- -----  ----- -----  ----- -----  ----- -----
  +--> SHIFTREG_ENC_2_ENABLEINT/SHIFTREG_ENC_2

SHIFTREG_ENC_2_ENABLEINT/SHIFTREG_ENC_2       ----- -----  ----- -----  ----- -----  ----- -----
  +--> CYENTERCRITICALSECTION/CYBOOTASMKEIL
  +--> CYEXITCRITICALSECTION/CYBOOTASMKEIL

SHIFTREG_ENC_3_START/SHIFTREG_ENC_3           ----- -----  ----- -----  ----- -----  ----- -----
  +--> SHIFTREG_ENC_3_INIT/SHIFTREG_ENC_3
  +--> SHIFTREG_ENC_3_ENABLE/SHIFTREG_ENC_3

SHIFTREG_ENC_3_INIT/SHIFTREG_ENC_3            ----- -----  ----- -----  ----- -----  ----- -----
  +--> _SHIFTREG_ENC_3_SETINTMODE/SHIFTREG_ENC_3

_SHIFTREG_ENC_3_SETINTMODE/SHIFTREG_ENC_+     ----- -----  ----- -----  ----- -----  ----- -----
... 3

SHIFTREG_ENC_3_ENABLE/SHIFTREG_ENC_3          ----- -----  ----- -----  ----- -----  ----- -----
  +--> SHIFTREG_ENC_3_ENABLEINT/SHIFTREG_ENC_3

SHIFTREG_ENC_3_ENABLEINT/SHIFTREG_ENC_3       ----- -----  ----- -----  ----- -----  ----- -----
  +--> CYENTERCRITICALSECTION/CYBOOTASMKEIL
  +--> CYEXITCRITICALSECTION/CYBOOTASMKEIL

ADC_START/ADC                                 ----- -----  ----- -----  ----- -----  ----- -----
  +--> ADC_INIT/ADC
LX51 LINKER/LOCATER V4.64.0.0                                                         04/06/2018  15:41:10  PAGE 21


  +--> ADC_ENABLE/ADC

ADC_INIT/ADC                                  ----- -----  ----- -----  ----- -----  ----- -----
  +--> _ADC_EXT_CP_CLK_SETMODEREGISTER/ADC_EXT_CP_CLK
  +--> _ADC_THEACLK_SETMODEREGISTER/ADC_THEACLK
  +--> _CYINTSETPRIORITY/CYLIB
  +--> _ADC_GAINCOMPENSATION/ADC
  +--> CYWRITE16/CYMEM
  +--> _ADC_INITCONFIG/ADC

_ADC_EXT_CP_CLK_SETMODEREGISTER/ADC_EXT_+     ----- -----  ----- -----  ----- -----  ----- -----
... CP_CLK

_ADC_THEACLK_SETMODEREGISTER/ADC_THEACLK      ----- -----  ----- -----  ----- -----  ----- -----

_ADC_GAINCOMPENSATION/ADC                     ----- -----  ----- -----  ----- -----  0002H 0009H
  +--> CYREAD8/CYMEM

_ADC_INITCONFIG/ADC                           ----- -----  ----- -----  ----- -----  ----- -----
  +--> _ADC_SETDSMREF0REG/ADC
  +--> _ADC_AMUX_SELECT/ADC_AMUX
  +--> _ADC_EXT_CP_CLK_SETDIVIDERREGISTER/ADC_EXT_CP_CLK
  +--> _ADC_THEACLK_SETDIVIDERREGISTER/ADC_THEACLK
  +--> _CYINTSETVECTOR/CYLIB

_ADC_SETDSMREF0REG/ADC                        ----- -----  ----- -----  ----- -----  0002H 0003H
  +--> CYENTERCRITICALSECTION/CYBOOTASMKEIL
  +--> CYDELAYUS/CYBOOTASMKEIL
  +--> CYEXITCRITICALSECTION/CYBOOTASMKEIL

_ADC_AMUX_SELECT/ADC_AMUX                     ----- -----  ----- -----  ----- -----  0002H 0002H
  +--> ADC_AMUX_START/ADC_AMUX
  +--> _ADC_AMUX_SET/CYFITTER_CFG

ADC_AMUX_START/ADC_AMUX                       ----- -----  ----- -----  ----- -----  0003H 0003H
  +--> _ADC_AMUX_UNSET/CYFITTER_CFG

_ADC_AMUX_UNSET/CYFITTER_CFG                  ----- -----  ----- -----  ----- -----  ----- -----
  +--> ?CO?CYFITTER_CFG

_ADC_AMUX_SET/CYFITTER_CFG                    ----- -----  ----- -----  ----- -----  ----- -----
  +--> ?CO?CYFITTER_CFG

_ADC_EXT_CP_CLK_SETDIVIDERREGISTER/ADC_E+     ----- -----  ----- -----  ----- -----  0002H 0008H
... XT_CP_CLK
  +--> ADC_EXT_CP_CLK_GETSOURCEREGISTER/ADC_EXT_CP_CLK
  +--> ADC_EXT_CP_CLK_GETDIVIDERREGISTER/ADC_EXT_CP_CLK
  +--> CYWRITE16/CYMEM

ADC_EXT_CP_CLK_GETSOURCEREGISTER/ADC_EXT+     ----- -----  ----- -----  ----- -----  ----- -----
... _CP_CLK

ADC_EXT_CP_CLK_GETDIVIDERREGISTER/ADC_EX+     ----- -----  ----- -----  ----- -----  ----- -----
... T_CP_CLK
  +--> CYREAD16/CYMEM

_ADC_THEACLK_SETDIVIDERREGISTER/ADC_THEA+     ----- -----  ----- -----  ----- -----  0002H 0008H
... CLK
  +--> ADC_THEACLK_GETSOURCEREGISTER/ADC_THEACLK
  +--> ADC_THEACLK_GETDIVIDERREGISTER/ADC_THEACLK
  +--> CYWRITE16/CYMEM

ADC_THEACLK_GETSOURCEREGISTER/ADC_THEACL+     ----- -----  ----- -----  ----- -----  ----- -----
... K

LX51 LINKER/LOCATER V4.64.0.0                                                         04/06/2018  15:41:10  PAGE 22


ADC_THEACLK_GETDIVIDERREGISTER/ADC_THEAC+     ----- -----  ----- -----  ----- -----  ----- -----
... LK
  +--> CYREAD16/CYMEM

ADC_ENABLE/ADC                                ----- -----  ----- -----  ----- -----  0002H 0003H
  +--> CYENTERCRITICALSECTION/CYBOOTASMKEIL
  +--> CYDELAYUS/CYBOOTASMKEIL
  +--> CYEXITCRITICALSECTION/CYBOOTASMKEIL

_ADC_SOC_WRITE/ADC_SOC                        ----- -----  ----- -----  ----- -----  ----- -----

_DMA_DMAINITIALIZE/DMA_DMA                    ----- -----  ----- -----  ----- -----  0002H 0007H
  +--> _CYDMACHSETCONFIGURATION/CYDMAC
  +--> _CYDMACHSETEXTENDEDADDRESS/CYDMAC
  +--> _CYDMACHPRIORITY/CYDMAC

_CYDMACHSETCONFIGURATION/CYDMAC               ----- -----  ----- -----  ----- -----  0008H 000DH

_CYDMACHSETEXTENDEDADDRESS/CYDMAC             ----- -----  ----- -----  ----- -----  0008H 000FH
  +--> CYWRITE16/CYMEM

_CYDMACHPRIORITY/CYDMAC                       ----- -----  ----- -----  ----- -----  ----- -----

CYDMATDALLOCATE/CYDMAC                        ----- -----  ----- -----  ----- -----  0002H 0002H
  +--> CYENTERCRITICALSECTION/CYBOOTASMKEIL
  +--> CYEXITCRITICALSECTION/CYBOOTASMKEIL

_CYDMATDSETCONFIGURATION/CYDMAC               ----- -----  ----- -----  ----- -----  0002H 0009H
  +--> CYWRITE16/CYMEM

_CYDMATDSETADDRESS/CYDMAC                     ----- -----  ----- -----  ----- -----  0002H 0009H
  +--> CYWRITE16/CYMEM

_CYDMACHSETINITIALTD/CYDMAC                   ----- -----  ----- -----  ----- -----  ----- -----

_CYDMACHENABLE/CYDMAC                         ----- -----  ----- -----  ----- -----  ----- -----

_RS485_CTS_WRITE/RS485_CTS                    ----- -----  ----- -----  ----- -----  ----- -----

MY_TIMER_START/MY_TIMER                       ----- -----  ----- -----  ----- -----  ----- -----
  +--> MY_TIMER_INIT/MY_TIMER
  +--> MY_TIMER_ENABLE/MY_TIMER

MY_TIMER_INIT/MY_TIMER                        ----- -----  ----- -----  ----- -----  ----- -----
  +--> _MY_TIMER_WRITEPERIOD/MY_TIMER
  +--> _MY_TIMER_WRITECOUNTER/MY_TIMER
  +--> CYENTERCRITICALSECTION/CYBOOTASMKEIL
  +--> CYEXITCRITICALSECTION/CYBOOTASMKEIL
  +--> MY_TIMER_CLEARFIFO/MY_TIMER
  +--> _MY_TIMER_SETINTERRUPTMODE/MY_TIMER

_MY_TIMER_WRITEPERIOD/MY_TIMER                ----- -----  ----- -----  ----- -----  ----- -----
  +--> CYWRITE24/CYMEM

CYWRITE24/CYMEM                               ----- -----  ----- -----  ----- -----  ----- -----

_MY_TIMER_WRITECOUNTER/MY_TIMER               ----- -----  ----- -----  ----- -----  ----- -----
  +--> CYWRITE24/CYMEM

MY_TIMER_CLEARFIFO/MY_TIMER                   ----- -----  ----- -----  ----- -----  ----- -----
  +--> MY_TIMER_READSTATUSREGISTER/MY_TIMER
  +--> MY_TIMER_READCAPTURE/MY_TIMER

MY_TIMER_READSTATUSREGISTER/MY_TIMER          ----- -----  ----- -----  ----- -----  ----- -----

LX51 LINKER/LOCATER V4.64.0.0                                                         04/06/2018  15:41:10  PAGE 23


MY_TIMER_READCAPTURE/MY_TIMER                 ----- -----  ----- -----  ----- -----  ----- -----
  +--> CYREAD24/CYMEM

CYREAD24/CYMEM                                ----- -----  ----- -----  ----- -----  ----- -----

_MY_TIMER_SETINTERRUPTMODE/MY_TIMER           ----- -----  ----- -----  ----- -----  ----- -----

MY_TIMER_ENABLE/MY_TIMER                      ----- -----  ----- -----  ----- -----  ----- -----

PACER_TIMER_START/PACER_TIMER                 ----- -----  ----- -----  ----- -----  ----- -----
  +--> PACER_TIMER_INIT/PACER_TIMER
  +--> PACER_TIMER_ENABLE/PACER_TIMER

PACER_TIMER_INIT/PACER_TIMER                  ----- -----  ----- -----  ----- -----  ----- -----
  +--> _PACER_TIMER_WRITEPERIOD/PACER_TIMER
  +--> _PACER_TIMER_WRITECOUNTER/PACER_TIMER
  +--> _PACER_TIMER_SETINTERRUPTMODE/PACER_TIMER

_PACER_TIMER_WRITEPERIOD/PACER_TIMER          ----- -----  ----- -----  ----- -----  ----- -----
  +--> CYWRITE16/CYMEM

_PACER_TIMER_WRITECOUNTER/PACER_TIMER         ----- -----  ----- -----  ----- -----  ----- -----
  +--> CYWRITE16/CYMEM

_PACER_TIMER_SETINTERRUPTMODE/PACER_TIME+     ----- -----  ----- -----  ----- -----  ----- -----
... R

PACER_TIMER_ENABLE/PACER_TIMER                ----- -----  ----- -----  ----- -----  ----- -----

_RESET_COUNTERS_WRITE/RESET_COUNTERS          ----- -----  ----- -----  ----- -----  ----- -----

_RESET_FF_WRITE/RESET_FF                      ----- -----  ----- -----  ----- -----  ----- -----

FUNCTION_SCHEDULER/INTERRUPTIONS              ----- -----  ----- -----  ----- -----  ----- -----
  +--> MY_TIMER_READCOUNTER/MY_TIMER
  +--> _ADC_SOC_WRITE/ADC_SOC
  +--> INTERRUPT_MANAGER/INTERRUPTIONS
  +--> _ENCODER_READING/INTERRUPTIONS
  +--> MOTOR_CONTROL/INTERRUPTIONS
  +--> ANALOG_READ_END/INTERRUPTIONS
  +--> OVERCURRENT_CONTROL/INTERRUPTIONS
  +--> DRIVE_FORCE_FB/COMMAND_PROCESSING
  +--> DRIVE_PROPRIO_FB/COMMAND_PROCESSING
  +--> COMMREADMEASFROMSH/COMMAND_PROCESSING
  +--> CHECK_REST_POSITION/UTILS
  +--> DRIVE_SH/COMMAND_PROCESSING
  +--> CALIBRATION/UTILS
  +--> _MY_TIMER_WRITECOUNTER/MY_TIMER

MY_TIMER_READCOUNTER/MY_TIMER                 ----- -----  ----- -----  ----- -----  ----- -----
  +--> CYREAD24/CYMEM

INTERRUPT_MANAGER/INTERRUPTIONS               20H.0 20H.0  0029H 002AH  ----- -----  ----- -----
  +--> UART_RS485_GETRXBUFFERSIZE/UART_RS485
  +--> UART_RS485_GETCHAR/UART_RS485
  +--> _INFOGET/COMMAND_PROCESSING
  +--> COMMPROCESS/COMMAND_PROCESSING
  +--> _RS485_CTS_WRITE/RS485_CTS

UART_RS485_GETRXBUFFERSIZE/UART_RS485         ----- -----  ----- -----  ----- -----  ----- -----

UART_RS485_GETCHAR/UART_RS485                 ----- -----  ----- -----  ----- -----  ----- -----

_INFOGET/COMMAND_PROCESSING                   ----- -----  ----- -----  ----- -----  0020H 06C5H
  +--> ?CO?COMMAND_PROCESSING
LX51 LINKER/LOCATER V4.64.0.0                                                         04/06/2018  15:41:10  PAGE 24


  +--> _INFOPREPARE/COMMAND_PROCESSING
  +--> _UART_RS485_PUTSTRING/UART_RS485

?CO?COMMAND_PROCESSING                        ----- -----  ----- -----  ----- -----  ----- -----

_INFOPREPARE/COMMAND_PROCESSING               ----- -----  ----- -----  ----- -----  06C6H 072EH
  +--> ?CO?COMMAND_PROCESSING
  +--> _STRCAT/STRCAT
  +--> PRINTF/PRINTF

_STRCAT/STRCAT                                ----- -----  ----- -----  ----- -----  0ED1H 0ED9H

PRINTF/PRINTF                                 20H.1 21H.1  002CH 0030H  ----- -----  072FH 075EH
  +--> PUTCHAR/PUTCHAR

PUTCHAR/PUTCHAR                               ----- -----  ----- -----  ----- -----  ----- -----

_UART_RS485_PUTSTRING/UART_RS485              ----- -----  ----- -----  ----- -----  06C6H 06C8H
  +--> _UART_RS485_PUTCHAR/UART_RS485

_UART_RS485_PUTCHAR/UART_RS485                ----- -----  ----- -----  ----- -----  ----- -----

COMMPROCESS/COMMAND_PROCESSING                ----- -----  002BH 002BH  ----- -----  ----- -----
  +--> _LCRCHECKSUM/COMMAND_PROCESSING
  +--> CMD_ACTIVATE/COMMAND_PROCESSING
  +--> CMD_SET_INPUTS/COMMAND_PROCESSING
  +--> CMD_GET_MEASUREMENTS/COMMAND_PROCESSING
  +--> CMD_GET_CURR_AND_MEAS/COMMAND_PROCESSING
  +--> CMD_GET_JOYSTICK/COMMAND_PROCESSING
  +--> CMD_GET_CURRENTS/COMMAND_PROCESSING
  +--> CMD_GET_EMG/COMMAND_PROCESSING
  +--> CMD_SET_WATCHDOG/COMMAND_PROCESSING
  +--> CMD_GET_ACTIVATE/COMMAND_PROCESSING
  +--> CMD_SET_BAUDRATE/COMMAND_PROCESSING
  +--> CMD_GET_INPUTS/COMMAND_PROCESSING
  +--> _INFOGET/COMMAND_PROCESSING
  +--> SETZEROS/COMMAND_PROCESSING
  +--> _GET_PARAM_LIST/COMMAND_PROCESSING
  +--> CMD_PING/COMMAND_PROCESSING
  +--> CMD_STORE_PARAMS/COMMAND_PROCESSING
  +--> _MEMSTORE/COMMAND_PROCESSING
  +--> _SENDACKNOWLEDGMENT/COMMAND_PROCESSING
  +--> MEMRESTORE/COMMAND_PROCESSING
  +--> MEMINIT/COMMAND_PROCESSING
  +--> _?CYDELAY/CYLIB
  +--> _FTDI_ENABLE_REG_WRITE/FTDI_ENABLE_REG
  +--> BOOTLOADABLE_LOAD/BOOTLOADABLE

_LCRCHECKSUM/COMMAND_PROCESSING               ----- -----  004DH 004EH  ----- -----  0ED1H 0ED3H

CMD_ACTIVATE/COMMAND_PROCESSING               ----- -----  ----- -----  ----- -----  ----- -----
  +--> _MOTOR_ON_OFF_WRITE/MOTOR_ON_OFF

CMD_SET_INPUTS/COMMAND_PROCESSING             ----- -----  ----- -----  ----- -----  ----- -----

CMD_GET_MEASUREMENTS/COMMAND_PROCESSING       ----- -----  002CH 002CH  ----- -----  0020H 0027H
  +--> _LCRCHECKSUM/COMMAND_PROCESSING
  +--> _COMMWRITE/COMMAND_PROCESSING

_COMMWRITE/COMMAND_PROCESSING                 ----- -----  004DH 004EH  ----- -----  0ED1H 0ED5H
  +--> _UART_RS485_PUTCHAR/UART_RS485
  +--> UART_RS485_READTXSTATUS/UART_RS485
  +--> _RS485_CTS_WRITE/RS485_CTS

UART_RS485_READTXSTATUS/UART_RS485            ----- -----  ----- -----  ----- -----  ----- -----
LX51 LINKER/LOCATER V4.64.0.0                                                         04/06/2018  15:41:10  PAGE 25



CMD_GET_CURR_AND_MEAS/COMMAND_PROCESSING      ----- -----  002CH 002CH  ----- -----  0020H 002BH
  +--> _LCRCHECKSUM/COMMAND_PROCESSING
  +--> _COMMWRITE/COMMAND_PROCESSING

CMD_GET_JOYSTICK/COMMAND_PROCESSING           ----- -----  ----- -----  ----- -----  0020H 0025H
  +--> _LCRCHECKSUM/COMMAND_PROCESSING
  +--> _COMMWRITE/COMMAND_PROCESSING

CMD_GET_CURRENTS/COMMAND_PROCESSING           ----- -----  ----- -----  ----- -----  0020H 0025H
  +--> _LCRCHECKSUM/COMMAND_PROCESSING
  +--> _COMMWRITE/COMMAND_PROCESSING

CMD_GET_EMG/COMMAND_PROCESSING                ----- -----  ----- -----  ----- -----  0020H 0025H
  +--> _LCRCHECKSUM/COMMAND_PROCESSING
  +--> _COMMWRITE/COMMAND_PROCESSING

CMD_SET_WATCHDOG/COMMAND_PROCESSING           ----- -----  ----- -----  ----- -----  ----- -----
  +--> _WATCHDOG_ENABLER_WRITE/WATCHDOG_ENABLER
  +--> _WATCHDOG_COUNTER_WRITEPERIOD/WATCHDOG_COUNTER

_WATCHDOG_ENABLER_WRITE/WATCHDOG_ENABLER      ----- -----  ----- -----  ----- -----  ----- -----

CMD_GET_ACTIVATE/COMMAND_PROCESSING           ----- -----  ----- -----  ----- -----  0020H 0022H
  +--> _LCRCHECKSUM/COMMAND_PROCESSING
  +--> _COMMWRITE/COMMAND_PROCESSING

CMD_SET_BAUDRATE/COMMAND_PROCESSING           ----- -----  ----- -----  ----- -----  ----- -----
  +--> _CLOCK_UART_SETDIVIDERREGISTER/CLOCK_UART

_CLOCK_UART_SETDIVIDERREGISTER/CLOCK_UAR+     ----- -----  ----- -----  ----- -----  0020H 0026H
... T
  +--> CLOCK_UART_GETSOURCEREGISTER/CLOCK_UART
  +--> CLOCK_UART_GETDIVIDERREGISTER/CLOCK_UART
  +--> CYWRITE16/CYMEM

CLOCK_UART_GETSOURCEREGISTER/CLOCK_UART       ----- -----  ----- -----  ----- -----  ----- -----

CLOCK_UART_GETDIVIDERREGISTER/CLOCK_UART      ----- -----  ----- -----  ----- -----  ----- -----
  +--> CYREAD16/CYMEM

CMD_GET_INPUTS/COMMAND_PROCESSING             ----- -----  ----- -----  ----- -----  0020H 0025H
  +--> _LCRCHECKSUM/COMMAND_PROCESSING
  +--> _COMMWRITE/COMMAND_PROCESSING

SETZEROS/COMMAND_PROCESSING                   ----- -----  002CH 002CH  ----- -----  ----- -----
  +--> _SENDACKNOWLEDGMENT/COMMAND_PROCESSING

_SENDACKNOWLEDGMENT/COMMAND_PROCESSING        ----- -----  ----- -----  ----- -----  0030H 0031H
  +--> _COMMWRITE/COMMAND_PROCESSING

_GET_PARAM_LIST/COMMAND_PROCESSING            ----- -----  002CH 004CH  ----- -----  0020H 0ED0H
  +--> ?CO?COMMAND_PROCESSING
  +--> _STRLEN/STRLEN
  +--> _STRCAT/STRCAT
  +--> _LCRCHECKSUM/COMMAND_PROCESSING
  +--> _COMMWRITE/COMMAND_PROCESSING

_STRLEN/STRLEN                                ----- -----  ----- -----  ----- -----  ----- -----

CMD_PING/COMMAND_PROCESSING                   ----- -----  ----- -----  ----- -----  0020H 0021H
  +--> _COMMWRITE/COMMAND_PROCESSING

CMD_STORE_PARAMS/COMMAND_PROCESSING           ----- -----  002CH 002FH  ----- -----  0020H 002FH
  +--> _MEMSTORE/COMMAND_PROCESSING
LX51 LINKER/LOCATER V4.64.0.0                                                         04/06/2018  15:41:10  PAGE 26


  +--> _COMMWRITE_OLD_ID/COMMAND_PROCESSING
  +--> _SENDACKNOWLEDGMENT/COMMAND_PROCESSING

_COMMWRITE_OLD_ID/COMMAND_PROCESSING          ----- -----  0030H 0031H  ----- -----  0030H 0035H
  +--> _UART_RS485_PUTCHAR/UART_RS485
  +--> UART_RS485_READTXSTATUS/UART_RS485
  +--> _RS485_CTS_WRITE/RS485_CTS

BOOTLOADABLE_LOAD/BOOTLOADABLE                ----- -----  ----- -----  ----- -----  ----- -----
  +--> CYSOFTWARERESET/CYLIB

CYSOFTWARERESET/CYLIB                         ----- -----  ----- -----  ----- -----  ----- -----

_ENCODER_READING/INTERRUPTIONS                ----- -----  0023H 0023H  ----- -----  0002H 0015H
  +--> SHIFTREG_ENC_1_READDATA/SHIFTREG_ENC_1
  +--> SHIFTREG_ENC_2_READDATA/SHIFTREG_ENC_2
  +--> SHIFTREG_ENC_3_READDATA/SHIFTREG_ENC_3
  +--> _CHECK_ENC_DATA/UTILS
  +--> _ABS/ABS
  +--> _FILTER_VEL_1/UTILS
  +--> _FILTER_VEL_2/UTILS
  +--> _FILTER_VEL_3/UTILS
  +--> _FILTER_ACC_1/UTILS
  +--> _FILTER_ACC_2/UTILS
  +--> _FILTER_ACC_3/UTILS
  +--> _CALC_TURNS_FCN/UTILS
  +--> _MOTOR_ON_OFF_WRITE/MOTOR_ON_OFF

SHIFTREG_ENC_1_READDATA/SHIFTREG_ENC_1        ----- -----  ----- -----  ----- -----  ----- -----
  +--> CYREAD24/CYMEM

SHIFTREG_ENC_2_READDATA/SHIFTREG_ENC_2        ----- -----  ----- -----  ----- -----  ----- -----
  +--> CYREAD24/CYMEM

SHIFTREG_ENC_3_READDATA/SHIFTREG_ENC_3        ----- -----  ----- -----  ----- -----  ----- -----
  +--> CYREAD24/CYMEM

_CHECK_ENC_DATA/UTILS                         ----- -----  0024H 0024H  0075H 0077H  ----- -----

_ABS/ABS                                      ----- -----  ----- -----  ----- -----  ----- -----

_FILTER_VEL_1/UTILS                           ----- -----  ----- -----  ----- -----  0016H 0019H

_FILTER_VEL_2/UTILS                           ----- -----  ----- -----  ----- -----  0016H 0019H

_FILTER_VEL_3/UTILS                           ----- -----  ----- -----  ----- -----  0016H 0019H

_FILTER_ACC_1/UTILS                           ----- -----  ----- -----  ----- -----  0016H 0019H

_FILTER_ACC_2/UTILS                           ----- -----  ----- -----  ----- -----  0016H 0019H

_FILTER_ACC_3/UTILS                           ----- -----  ----- -----  ----- -----  0016H 0019H

_CALC_TURNS_FCN/UTILS                         ----- -----  ----- -----  ----- -----  0016H 001DH
  +--> _MY_MOD/UTILS

_MY_MOD/UTILS                                 ----- -----  ----- -----  ----- -----  001EH 0025H

MOTOR_CONTROL/INTERRUPTIONS                   ----- -----  0023H 0072H  ----- -----  ----- -----
  +--> _MOTOR_DIR_WRITE/MOTOR_DIR
  +--> _ABS/ABS
  +--> _PWM_MOTORS_WRITECOMPARE1/PWM_MOTORS

ANALOG_READ_END/INTERRUPTIONS                 ----- -----  0023H 0026H  ----- -----  ----- -----
  +--> ADC_STATUS_READ/ADC_STATUS
LX51 LINKER/LOCATER V4.64.0.0                                                         04/06/2018  15:41:10  PAGE 27


  +--> INTERRUPT_MANAGER/INTERRUPTIONS
  +--> _FILTER_VOLTAGE/UTILS
  +--> PWM_LIMIT_SEARCH/INTERRUPTIONS
  +--> _FILTER_I1/UTILS
  +--> _FILTER_CH1/UTILS
  +--> _LED_CTRL_WRITE/LED_CTRL
  +--> _LED_BLINK_EN_WRITE/LED_BLINK_EN
  +--> _FILTER_CH2/UTILS
  +--> _MOTOR_ON_OFF_WRITE/MOTOR_ON_OFF
  +--> DEACTIVATE_SLAVES/COMMAND_PROCESSING

ADC_STATUS_READ/ADC_STATUS                    ----- -----  ----- -----  ----- -----  ----- -----

_FILTER_VOLTAGE/UTILS                         ----- -----  ----- -----  ----- -----  ----- -----

PWM_LIMIT_SEARCH/INTERRUPTIONS                ----- -----  0027H 0027H  ----- -----  ----- -----

_FILTER_I1/UTILS                              ----- -----  ----- -----  ----- -----  ----- -----

_FILTER_CH1/UTILS                             ----- -----  ----- -----  ----- -----  0002H 0005H

_FILTER_CH2/UTILS                             ----- -----  ----- -----  ----- -----  0002H 0005H

DEACTIVATE_SLAVES/COMMAND_PROCESSING          ----- -----  ----- -----  ----- -----  0002H 000CH
  +--> _LCRCHECKSUM/COMMAND_PROCESSING
  +--> _COMMWRITE/COMMAND_PROCESSING

OVERCURRENT_CONTROL/INTERRUPTIONS             ----- -----  ----- -----  ----- -----  ----- -----

DRIVE_FORCE_FB/COMMAND_PROCESSING             ----- -----  0023H 0028H  ----- -----  0002H 0015H
  +--> _COMMWRITEID/COMMAND_PROCESSING
  +--> MY_TIMER_READCOUNTER/MY_TIMER
  +--> INTERRUPT_MANAGER/INTERRUPTIONS
  +--> _LCRCHECKSUM/COMMAND_PROCESSING

_COMMWRITEID/COMMAND_PROCESSING               ----- -----  ----- -----  ----- -----  0020H 0025H
  +--> _UART_RS485_PUTCHAR/UART_RS485
  +--> UART_RS485_READTXSTATUS/UART_RS485

DRIVE_PROPRIO_FB/COMMAND_PROCESSING           ----- -----  0023H 0028H  ----- -----  0002H 0009H
  +--> COMMREADMEASFROMSH/COMMAND_PROCESSING
  +--> _LCRCHECKSUM/COMMAND_PROCESSING
  +--> _COMMWRITEID/COMMAND_PROCESSING

COMMREADMEASFROMSH/COMMAND_PROCESSING         ----- -----  ----- -----  ----- -----  000AH 001FH
  +--> _COMMWRITEID/COMMAND_PROCESSING
  +--> MY_TIMER_READCOUNTER/MY_TIMER
  +--> INTERRUPT_MANAGER/INTERRUPTIONS

CHECK_REST_POSITION/UTILS                     ----- -----  ----- -----  ----- -----  0002H 0009H

DRIVE_SH/COMMAND_PROCESSING                   ----- -----  ----- -----  ----- -----  0002H 0008H
  +--> _LCRCHECKSUM/COMMAND_PROCESSING
  +--> _COMMWRITEID/COMMAND_PROCESSING

CALIBRATION/UTILS                             ----- -----  ----- -----  ----- -----  ----- -----

FF_STATUS_READ/FF_STATUS                      ----- -----  ----- -----  ----- -----  ----- -----

_WATCHDOG_REFRESH_WRITE/WATCHDOG_REFRESH      ----- -----  ----- -----  ----- -----  ----- -----

UART_RS485_READRXSTATUS/UART_RS485            ----- -----  ----- -----  ----- -----  ----- -----

?C_INITSEG                                    ----- -----  ----- -----  ----- -----  ----- -----

LX51 LINKER/LOCATER V4.64.0.0                                                         04/06/2018  15:41:10  PAGE 28


*** NEW ROOT ********************************

UART_RS485_RXISR/UART_RS485_INT               ----- -----  ----- -----  ----- -----  ----- -----

*** NEW ROOT ********************************

ADC_ISR1/ADC_INT                              ----- -----  ----- -----  ----- -----  ----- -----

*** NEW ROOT ********************************

ADC_ISR2/ADC_INT                              ----- -----  ----- -----  ----- -----  ----- -----

*** NEW ROOT ********************************

ADC_ISR3/ADC_INT                              ----- -----  ----- -----  ----- -----  ----- -----

*** NEW ROOT ********************************

ADC_ISR4/ADC_INT                              ----- -----  ----- -----  ----- -----  ----- -----



PUBLIC SYMBOLS OF MODULE:  .\DP8051_Keil_951\Release\hand_firmware_micro.omf (COMMAND_PROCESSING)


      VALUE       CLASS    TYPE      PUBLIC SYMBOL NAME
      =================================================
*DEL*:00000000H   XDATA    BYTE      ?_Bootloadable_SetFlashByte?BYTE
      02000016H   XDATA    BYTE      ?_calc_turns_fcn?BYTE
      02000030H   XDATA    BYTE      ?_commWrite_old_id?BYTE
      02000020H   XDATA    BYTE      ?_commWriteID?BYTE
      02000005H   XDATA    BYTE      ?_cyconfigcpy?BYTE
      02000008H   XDATA    BYTE      ?_CyDmaChSetConfiguration?BYTE
*DEL*:00000000H   XDATA    BYTE      ?_CyDmaChStatus?BYTE
*DEL*:00000000H   XDATA    BYTE      ?_CyDmaTdGetAddress?BYTE
*DEL*:00000000H   XDATA    BYTE      ?_CyDmaTdGetConfiguration?BYTE
      02000002H   XDATA    BYTE      ?_CyDmaTdSetConfiguration?BYTE
*DEL*:00000000H   XDATA    BYTE      ?_CySpcLoadMultiByte?BYTE
      0200003CH   XDATA    BYTE      ?_CySpcLoadRow?BYTE
*DEL*:00000000H   XDATA    BYTE      ?_CySpcLoadRowFull?BYTE
      0200003CH   XDATA    BYTE      ?_CySpcWriteRow?BYTE
*DEL*:00000000H   XDATA    BYTE      ?_CyWriteRowFull?BYTE
      02000002H   XDATA    BYTE      ?_DMA_DmaInitialize?BYTE
      0200001EH   XDATA    BYTE      ?_my_mod?BYTE
      0200072FH   XDATA    ---       ?_PRINTF?BYTE
      0200072FH   XDATA    ---       ?_SPRINTF?BYTE
      02000ED1H   XDATA    ---       ?_strcat?BYTE
      01009468H   CODE     ---       ?C?ADDXBP
      01008F87H   CODE     ---       ?C?CASTF
      01009442H   CODE     ---       ?C?CCASE
      010091D3H   CODE     ---       ?C?CLDOPTR
      010091BAH   CODE     ---       ?C?CLDPTR
      00000000H   NUMBER   ---       ?C?CODESEG
      01009575H   CODE     ---       ?C?COPYAMD
      01009200H   CODE     ---       ?C?CSTPTR
      01008F53H   CODE     ---       ?C?FCASTC
      01008F4EH   CODE     ---       ?C?FCASTI
      01008F49H   CODE     ---       ?C?FCASTL
      01008C39H   CODE     ---       ?C?FPADD
      01008ED2H   CODE     ---       ?C?FPCMP
      01008ED0H   CODE     ---       ?C?FPCMP3
      01009045H   CODE     ---       ?C?FPCONVERT
      01008E33H   CODE     ---       ?C?FPDIV
      01008FBEH   CODE     ---       ?C?FPGETOPN2
      01008D2AH   CODE     ---       ?C?FPMUL
LX51 LINKER/LOCATER V4.64.0.0                                                         04/06/2018  15:41:10  PAGE 29


      01008FF3H   CODE     ---       ?C?FPNANRESULT
      01008FFDH   CODE     ---       ?C?FPOVERFLOW
      01008FD5H   CODE     ---       ?C?FPRESULT
      01008FE9H   CODE     ---       ?C?FPRESULT2
      01009008H   CODE     ---       ?C?FPROUND
      01008C35H   CODE     ---       ?C?FPSUB
      01008FFAH   CODE     ---       ?C?FPUNDERFLOW
      0100917AH   CODE     ---       ?C?FTNPWR
      01009670H   CODE     ---       ?C?IILDX
      01009686H   CODE     ---       ?C?ILDIX
      01009212H   CODE     ---       ?C?IMUL
      01009224H   CODE     ---       ?C?ISTPTR
      0100948CH   CODE     ---       ?C?LIMUL
      010096C0H   CODE     ---       ?C?LLDCODE
      0100969CH   CODE     ---       ?C?LLDIDATA
      010096B4H   CODE     ---       ?C?LLDPDATA
      010093DCH   CODE     ---       ?C?LLDPTR
      010096A8H   CODE     ---       ?C?LLDXDATA
      01009243H   CODE     ---       ?C?LMUL
      0100936DH   CODE     ---       ?C?LNEG
      01009360H   CODE     ---       ?C?LNOT
      010093C9H   CODE     ---       ?C?LSHL
      010096D0H   CODE     ---       ?C?LSTIDATA
      010096DCH   CODE     ---       ?C?LSTPDATA
      010093FCH   CODE     ---       ?C?LSTPTR
      01009416H   CODE     ---       ?C?LSTXDATA
      01009422H   CODE     ---       ?C?PLDIXDATA
      01009439H   CODE     ---       ?C?PSTXDATA
      0100937BH   CODE     ---       ?C?SLCMP
      0100E7C8H   CODE     ---       ?C?SLDIV
      010093B5H   CODE     ---       ?C?SLSHR
      01009653H   CODE     ---       ?C?STRCPYAMD
      01009391H   CODE     ---       ?C?ULCMP
      010092CEH   CODE     ---       ?C?ULDIV
      010093A2H   CODE     ---       ?C?ULSHR
      00000000H   NUMBER   ---       ?C?XDATASEG
      00000000H   NUMBER   ---       ?C?XPAGE1RST
      00000093H   DATA     BYTE      ?C?XPAGE1SFR
      0100CB40H   CODE     ---       ?C_START
      01002600H   CODE     NEAR LAB  ?C_STARTUP
      00000073H   DATA     ---       ?C_XBP
      0100D7A7H   CODE     ---       _?CyDelay
*DEL*:00000000H   CODE     ---       _?CyDelayFreq
*DEL*:00000000H   CODE     ---       _?CyHalt
      0100F2DFH   CODE     ---       _ABS
*DEL*:00000000H   CODE     ---       _ADC_AMux_FastSelect
      0100EFC4H   CODE     ---       _ADC_AMux_Select
      0100EC9FH   CODE     ---       _ADC_AMux_Set
      0100EC3DH   CODE     ---       _ADC_AMux_Unset
*DEL*:00000000H   CODE     ---       _ADC_CountsTo_mVolts
*DEL*:00000000H   CODE     ---       _ADC_CountsTo_uVolts
*DEL*:00000000H   CODE     ---       _ADC_CountsTo_Volts
*DEL*:00000000H   CODE     ---       _ADC_Ext_CP_Clk_ClearModeRegister
      0100C476H   CODE     ---       _ADC_Ext_CP_Clk_SetDividerRegister
      0100F2A1H   CODE     ---       _ADC_Ext_CP_Clk_SetModeRegister
*DEL*:00000000H   CODE     ---       _ADC_Ext_CP_Clk_SetSourceRegister
*DEL*:00000000H   CODE     ---       _ADC_Ext_CP_Clk_StandbyPower
*DEL*:00000000H   CODE     ---       _ADC_IsEndConversion
*DEL*:00000000H   CODE     ---       _ADC_SelectConfiguration
*DEL*:00000000H   CODE     ---       _ADC_SetBufferGain
*DEL*:00000000H   CODE     ---       _ADC_SetCoherency
*DEL*:00000000H   CODE     ---       _ADC_SetGain
*DEL*:00000000H   CODE     ---       _ADC_SetGCOR
*DEL*:00000000H   CODE     ---       _ADC_SetOffset
      0100F47DH   CODE     ---       _ADC_SOC_Write
LX51 LINKER/LOCATER V4.64.0.0                                                         04/06/2018  15:41:10  PAGE 30


*DEL*:00000000H   CODE     ---       _ADC_STATUS_WriteMask
*DEL*:00000000H   CODE     ---       _ADC_theACLK_ClearModeRegister
      0100C936H   CODE     ---       _ADC_theACLK_SetDividerRegister
      0100F2AEH   CODE     ---       _ADC_theACLK_SetModeRegister
*DEL*:00000000H   CODE     ---       _ADC_theACLK_SetPhaseRegister
*DEL*:00000000H   CODE     ---       _ADC_theACLK_SetSourceRegister
*DEL*:00000000H   CODE     ---       _ADC_theACLK_StandbyPower
*DEL*:00000000H   CODE     ---       _Bootloadable_SetFlashByte
      0100CF82H   CODE     ---       _calc_turns_fcn
*DEL*:00000000H   CODE     NEAR LAB  _cfg_write_bytes
*DEL*:00000000H   CODE     NEAR LAB  _cfg_write_bytes_code
      0100E26EH   CODE     ---       _check_enc_data
*DEL*:00000000H   CODE     ---       _CLOCK_UART_ClearModeRegister
      0100C6D7H   CODE     ---       _CLOCK_UART_SetDividerRegister
*DEL*:00000000H   CODE     ---       _CLOCK_UART_SetModeRegister
*DEL*:00000000H   CODE     ---       _CLOCK_UART_SetSourceRegister
*DEL*:00000000H   CODE     ---       _CLOCK_UART_StandbyPower
      0100D692H   CODE     ---       _commWrite
      0100D605H   CODE     ---       _commWrite_old_id
      0100D9BDH   CODE     ---       _commWriteID
      0100F411H   CODE     ---       _COUNTER_ENC_SetInterruptMode
      0100F42FH   CODE     ---       _COUNTER_ENC_WriteCompare
*DEL*:00000000H   CODE     ---       _COUNTER_ENC_WriteControlRegister
      0100F41DH   CODE     ---       _COUNTER_ENC_WriteCounter
      0100F429H   CODE     ---       _COUNTER_ENC_WritePeriod
*DEL*:00000000H   CODE     ---       _CyBusClk_SetDivider
      0100EBA4H   CODE     NEAR LAB  _cyconfigcpy
      0100EE2DH   CODE     NEAR LAB  _cyconfigcpycode
*DEL*:00000000H   CODE     ---       _CyCpuClk_SetDivider
*DEL*:00000000H   CODE     NEAR LAB  _CyDelay
      0100EB00H   CODE     NEAR LAB  _CyDelayCycles
      0100ED5CH   CODE     NEAR LAB  _CyDelayUs
*DEL*:00000000H   CODE     ---       _CyDmacClearError
*DEL*:00000000H   CODE     ---       _CyDmaChDisable
      0100E6A2H   CODE     ---       _CyDmaChEnable
*DEL*:00000000H   CODE     ---       _CyDmaChFree
*DEL*:00000000H   CODE     ---       _CyDmaChGetRequest
      0100E8D1H   CODE     ---       _CyDmaChPriority
*DEL*:00000000H   CODE     ---       _CyDmaChRoundRobin
      0100DE50H   CODE     ---       _CyDmaChSetConfiguration
      0100DEC9H   CODE     ---       _CyDmaChSetExtendedAddress
      0100EF56H   CODE     ---       _CyDmaChSetInitialTd
*DEL*:00000000H   CODE     ---       _CyDmaChSetRequest
*DEL*:00000000H   CODE     ---       _CyDmaChStatus
*DEL*:00000000H   CODE     ---       _CyDmaClearPendingDrq
*DEL*:00000000H   CODE     ---       _CyDmaTdFree
*DEL*:00000000H   CODE     ---       _CyDmaTdGetAddress
*DEL*:00000000H   CODE     ---       _CyDmaTdGetConfiguration
      0100DF41H   CODE     ---       _CyDmaTdSetAddress
      0100D82FH   CODE     ---       _CyDmaTdSetConfiguration
*DEL*:00000000H   CODE     ---       _CyEnableInts
      0100EFF5H   CODE     NEAR LAB  _CyExitCriticalSection
*DEL*:00000000H   CODE     ---       _CyFlash_SetWaitCycles
*DEL*:00000000H   CODE     ---       _CyGetUniqueId
*DEL*:00000000H   CODE     ---       _CyILO_SetPowerMode
*DEL*:00000000H   CODE     ---       _CyILO_SetSource
*DEL*:00000000H   CODE     ---       _CyIMO_SetFreq
*DEL*:00000000H   CODE     ---       _CyIMO_SetSource
*DEL*:00000000H   CODE     ---       _CyIMO_Start
*DEL*:00000000H   CODE     ---       _CyIntGetPriority
*DEL*:00000000H   CODE     ---       _CyIntGetState
*DEL*:00000000H   CODE     ---       _CyIntGetVector
      0100EFABH   CODE     ---       _CyIntSetPriority
      0100E50EH   CODE     ---       _CyIntSetVector
*DEL*:00000000H   CODE     ---       _CyMasterClk_SetDivider
LX51 LINKER/LOCATER V4.64.0.0                                                         04/06/2018  15:41:10  PAGE 31


*DEL*:00000000H   CODE     ---       _CyMasterClk_SetSource
*DEL*:00000000H   CODE     NEAR LAB  _cymemzero
*DEL*:00000000H   CODE     ---       _CyPLL_OUT_SetPQ
*DEL*:00000000H   CODE     ---       _CyPLL_OUT_SetSource
*DEL*:00000000H   CODE     ---       _CyPLL_OUT_Start
*DEL*:00000000H   CODE     ---       _CyPmAltAct
*DEL*:00000000H   CODE     ---       _CyPmCtwSetInterval
*DEL*:00000000H   CODE     ---       _CyPmFtwSetInterval
*DEL*:00000000H   CODE     ---       _CyPmHibernateEx
*DEL*:00000000H   CODE     ---       _CyPmReadStatus
*DEL*:00000000H   CODE     ---       _CyPmSleep
      0100F1ECH   CODE     NEAR LAB  _cyread16
      0100F1EEH   CODE     NEAR LAB  _cyread16_nodpx
      0100F173H   CODE     NEAR LAB  _cyread24
      0100F175H   CODE     NEAR LAB  _cyread24_nodpx
*DEL*:00000000H   CODE     NEAR LAB  _cyread32
*DEL*:00000002H   CODE     NEAR LAB  _cyread32_nodpx
      0100F2BBH   CODE     NEAR LAB  _cyread8
      0100F2BDH   CODE     NEAR LAB  _cyread8_nodpx
*DEL*:00000000H   CODE     ---       _CySetFlashEEBuffer
*DEL*:00000000H   CODE     ---       _CySpcEraseSector
      0100ED2EH   CODE     ---       _CySpcGetTemp
*DEL*:00000000H   CODE     ---       _CySpcLoadMultiByte
      0100E18FH   CODE     ---       _CySpcLoadRow
*DEL*:00000000H   CODE     ---       _CySpcLoadRowFull
      0100E3A5H   CODE     ---       _CySpcReadData
      0100E562H   CODE     ---       _CySpcWriteRow
*DEL*:00000000H   CODE     ---       _CyUsbClk_SetSource
*DEL*:00000000H   CODE     ---       _CyVdLvAnalogEnable
*DEL*:00000000H   CODE     ---       _CyVdLvDigitEnable
*DEL*:00000000H   CODE     ---       _CyVdStickyStatus
*DEL*:00000000H   CODE     ---       _CyWdtStart
      0100F1FBH   CODE     NEAR LAB  _cywrite16
      0100F1FDH   CODE     NEAR LAB  _cywrite16_nodpx
      0100F198H   CODE     NEAR LAB  _cywrite24
      0100F19AH   CODE     NEAR LAB  _cywrite24_nodpx
*DEL*:00000000H   CODE     NEAR LAB  _cywrite32
*DEL*:00000002H   CODE     NEAR LAB  _cywrite32_nodpx
      0100F2C7H   CODE     NEAR LAB  _cywrite8
      0100F2C9H   CODE     NEAR LAB  _cywrite8_nodpx
*DEL*:00000000H   CODE     ---       _CyWriteRowData
*DEL*:00000000H   CODE     ---       _CyWriteRowFull
*DEL*:00000000H   CODE     ---       _CyXTAL_32KHZ_SetPowerMode
*DEL*:00000000H   CODE     ---       _CyXTAL_SetFbVoltage
*DEL*:00000000H   CODE     ---       _CyXTAL_SetStartup
*DEL*:00000000H   CODE     ---       _CyXTAL_SetWdVoltage
*DEL*:00000000H   CODE     ---       _CyXTAL_Start
      0100E6EDH   CODE     ---       _DMA_DmaInitialize
      01002604H   CODE     NEAR LAB  _dma_wait
*DEL*:00000000H   CODE     ---       _EEPROM_ByteWritePos
*DEL*:00000000H   CODE     ---       _EEPROM_EraseSector
*DEL*:00000000H   CODE     ---       _EEPROM_ReadByte
*DEL*:00000000H   CODE     ---       _EEPROM_StartErase
*DEL*:00000000H   CODE     ---       _EEPROM_StartWrite
      0100CEA3H   CODE     ---       _EEPROM_Write
*DEL*:00000000H   CODE     ---       _EEPROM_WriteByte
      0100A15FH   CODE     ---       _encoder_reading
*DEL*:00000000H   CODE     ---       _FF_STATUS_WriteMask
      0100DBC9H   CODE     ---       _filter_acc_1
      0100DC4CH   CODE     ---       _filter_acc_2
      0100DCCFH   CODE     ---       _filter_acc_3
      0100D1E1H   CODE     ---       _filter_ch1
      0100D296H   CODE     ---       _filter_ch2
      0100E0A6H   CODE     ---       _filter_i1
*DEL*:00000000H   CODE     ---       _filter_v
LX51 LINKER/LOCATER V4.64.0.0                                                         04/06/2018  15:41:10  PAGE 32


      0100DA40H   CODE     ---       _filter_vel_1
      0100DAC3H   CODE     ---       _filter_vel_2
      0100DB46H   CODE     ---       _filter_vel_3
      0100DDD3H   CODE     ---       _filter_voltage
      0100F44DH   CODE     ---       _FTDI_ENABLE_REG_Write
      0100261AH   CODE     ---       _get_param_list
      0100E9C8H   CODE     ---       _infoGet
      01006234H   CODE     ---       _infoPrepare
      0100F316H   CODE     ---       _ISR_RS485_RX_SetPriority
      0100F20AH   CODE     ---       _ISR_RS485_RX_SetVector
      0100EEF9H   CODE     ---       _ISR_RS485_RX_StartEx
      0100F366H   CODE     ---       _ISR_WATCHDOG_SetPriority
      0100F25EH   CODE     ---       _ISR_WATCHDOG_SetVector
      0100EF18H   CODE     ---       _ISR_WATCHDOG_StartEx
      0100EC0BH   CODE     ---       _LCRChecksum
      0100F4ADH   CODE     ---       _LED_BLINK_EN_Write
      0100F4A1H   CODE     ---       _LED_BLINK_WriteCompare
*DEL*:00000000H   CODE     ---       _LED_BLINK_WriteControlRegister
      0100F495H   CODE     ---       _LED_BLINK_WriteCounter
      0100F49BH   CODE     ---       _LED_BLINK_WritePeriod
      0100F4A7H   CODE     ---       _LED_CTRL_Write
      0100D129H   CODE     ---       _memStore
      0100F40BH   CODE     ---       _MOTOR_DIR_Write
      0100F447H   CODE     ---       _MOTOR_ON_OFF_Write
      0100DD52H   CODE     ---       _my_mod
*DEL*:00000000H   CODE     ---       _my_round
      0100F45FH   CODE     ---       _MY_TIMER_SetInterruptMode
*DEL*:00000000H   CODE     ---       _MY_TIMER_WriteControlRegister
      0100F352H   CODE     ---       _MY_TIMER_WriteCounter
      0100F33EH   CODE     ---       _MY_TIMER_WritePeriod
      0100F3FFH   CODE     ---       _PACER_TIMER_SetInterruptMode
*DEL*:00000000H   CODE     ---       _PACER_TIMER_WriteControlRegister
      0100F226H   CODE     ---       _PACER_TIMER_WriteCounter
      0100F218H   CODE     ---       _PACER_TIMER_WritePeriod
      0100AF40H   CODE     ---       _PRINTF
      0100EDE0H   CODE     ---       _PUTCHAR
      0100F3F3H   CODE     ---       _PWM_MOTORS_WriteCompare1
      0100F3F9H   CODE     ---       _PWM_MOTORS_WriteCompare2
*DEL*:00000000H   CODE     ---       _PWM_MOTORS_WriteControlRegister
      0100F3E7H   CODE     ---       _PWM_MOTORS_WriteCounter
      0100F3EDH   CODE     ---       _PWM_MOTORS_WritePeriod
      0100F471H   CODE     ---       _RESET_COUNTERS_Write
      0100F453H   CODE     ---       _RESET_FF_Write
      0100F441H   CODE     ---       _RS485_CTS_Write
      0100F039H   CODE     ---       _sendAcknowledgment
*DEL*:00000000H   CODE     ---       _SetAnalogRoutingPumps
*DEL*:00000000H   CODE     ---       _SHIFTREG_ENC_1_GetFIFOStatus
      0100F1CCH   CODE     ---       _SHIFTREG_ENC_1_SetIntMode
*DEL*:00000000H   CODE     ---       _SHIFTREG_ENC_1_WriteRegValue
*DEL*:00000000H   CODE     ---       _SHIFTREG_ENC_2_GetFIFOStatus
      0100F1BBH   CODE     ---       _SHIFTREG_ENC_2_SetIntMode
*DEL*:00000000H   CODE     ---       _SHIFTREG_ENC_2_WriteRegValue
*DEL*:00000000H   CODE     ---       _SHIFTREG_ENC_3_GetFIFOStatus
      0100F1AAH   CODE     ---       _SHIFTREG_ENC_3_SetIntMode
*DEL*:00000000H   CODE     ---       _SHIFTREG_ENC_3_WriteRegValue
      0100AF3AH   CODE     ---       _SPRINTF
      0100E2D9H   CODE     ---       _strcat
      0100F078H   CODE     ---       _STRLEN
*DEL*:00000000H   CODE     ---       _UART_RS485_PutArray
      0100F27AH   CODE     ---       _UART_RS485_PutChar
*DEL*:00000000H   CODE     ---       _UART_RS485_PutCRLF
      0100EB70H   CODE     ---       _UART_RS485_PutString
*DEL*:00000000H   CODE     ---       _UART_RS485_SendBreak
*DEL*:00000000H   CODE     ---       _UART_RS485_SetRxAddress1
*DEL*:00000000H   CODE     ---       _UART_RS485_SetRxAddress2
LX51 LINKER/LOCATER V4.64.0.0                                                         04/06/2018  15:41:10  PAGE 33


*DEL*:00000000H   CODE     ---       _UART_RS485_SetRxAddressMode
*DEL*:00000000H   CODE     ---       _UART_RS485_SetRxInterruptMode
*DEL*:00000000H   CODE     ---       _UART_RS485_SetTxAddressMode
*DEL*:00000000H   CODE     ---       _UART_RS485_SetTxInterruptMode
*DEL*:00000000H   CODE     ---       _UART_RS485_WriteControlRegister
*DEL*:00000000H   CODE     ---       _UART_RS485_WriteTxData
      0100F483H   CODE     ---       _WATCHDOG_COUNTER_SetInterruptMode
*DEL*:00000000H   CODE     ---       _WATCHDOG_COUNTER_WriteControlRegister
      0100EF74H   CODE     ---       _WATCHDOG_COUNTER_WriteCounter
      0100F26CH   CODE     ---       _WATCHDOG_COUNTER_WritePeriod
      0100F489H   CODE     ---       _WATCHDOG_ENABLER_Write
      0100F48FH   CODE     ---       _WATCHDOG_REFRESH_Write
*SFR* 000000D0H.6 DATA     BIT       AC
*SFR* 000000E0H   DATA     BYTE      ACC
      0100FC3EH   CONST    ---       ADC_AMux__addrTable
      0100FC42H   CONST    ---       ADC_AMux__maskTable
      0100EEB8H   CODE     ---       ADC_AMux_Start
      0200118AH   XDATA    ---       ADC_buf
      020013C6H   XDATA    BYTE      ADC_Config
      020013D1H   XDATA    BYTE      ADC_convDone
      020013D2H   XDATA    LONG      ADC_CountsPerVolt
      0100D71FH   CODE     ---       ADC_Enable
      0100F370H   CODE     ---       ADC_Ext_CP_Clk_GetDividerRegister
*DEL*:00000000H   CODE     ---       ADC_Ext_CP_Clk_GetModeRegister
      0100F3B4H   CODE     ---       ADC_Ext_CP_Clk_GetSourceRegister
*DEL*:00000000H   CODE     ---       ADC_Ext_CP_Clk_Start
*DEL*:00000000H   CODE     ---       ADC_Ext_CP_Clk_Stop
*DEL*:00000000H   CODE     ---       ADC_Ext_CP_Clk_StopBlock
*DEL*:00000000H   CODE     ---       ADC_GetResult16
*DEL*:00000000H   CODE     ---       ADC_GetResult32
*DEL*:00000000H   CODE     ---       ADC_GetResult8
      0100D34BH   CODE     ---       ADC_Init
      020013C7H   XDATA    BYTE      ADC_initVar
      0100F4C5H   CODE     ---       ADC_ISR1
      0100F4C6H   CODE     ---       ADC_ISR2
      0100F4C7H   CODE     ---       ADC_ISR3
      0100F4C8H   CODE     ---       ADC_ISR4
      020013C8H   XDATA    LONG      ADC_Offset
*DEL*:00000000H   CODE     ---       ADC_Read16
*DEL*:00000000H   CODE     ---       ADC_Read32
*DEL*:00000000H   CODE     ---       ADC_Read8
*DEL*:00000000H   CODE     ---       ADC_ReadGCOR
*DEL*:00000000H   CODE     ---       ADC_SOC_Read
      0100EAE7H   CODE     ---       ADC_Start
*DEL*:00000000H   CODE     ---       ADC_StartConvert
      020013CDH   XDATA    BYTE      ADC_started
*DEL*:00000000H   CODE     ---       ADC_STATUS_InterruptDisable
*DEL*:00000000H   CODE     ---       ADC_STATUS_InterruptEnable
      0100F477H   CODE     ---       ADC_STATUS_Read
*DEL*:00000000H   CODE     ---       ADC_STATUS_ReadMask
*DEL*:00000000H   CODE     ---       ADC_Stop
      020013CCH   XDATA    BYTE      ADC_stopConversion
*DEL*:00000000H   CODE     ---       ADC_StopConvert
      0100F37AH   CODE     ---       ADC_theACLK_GetDividerRegister
*DEL*:00000000H   CODE     ---       ADC_theACLK_GetModeRegister
*DEL*:00000000H   CODE     ---       ADC_theACLK_GetPhaseRegister
      0100F3BCH   CODE     ---       ADC_theACLK_GetSourceRegister
*DEL*:00000000H   CODE     ---       ADC_theACLK_Start
*DEL*:00000000H   CODE     ---       ADC_theACLK_Stop
*DEL*:00000000H   CODE     ---       ADC_theACLK_StopBlock
      010096E8H   CODE     ---       analog_read_end
*SFR* 000000F0H   DATA     BYTE      B
      0100F334H   CODE     ---       Bootloadable_Load
      02000EDAH   XDATA    ---       c_mem
      020011D4H   XDATA    ---       calib
LX51 LINKER/LOCATER V4.64.0.0                                                         04/06/2018  15:41:10  PAGE 34


      0100C5A7H   CODE     ---       calibration
      0100A9D1H   CODE     ---       check_rest_position
      0100F30CH   CODE     ---       CLOCK_UART_GetDividerRegister
*DEL*:00000000H   CODE     ---       CLOCK_UART_GetModeRegister
      0100F384H   CODE     ---       CLOCK_UART_GetSourceRegister
*DEL*:00000000H   CODE     ---       CLOCK_UART_Start
*DEL*:00000000H   CODE     ---       CLOCK_UART_Stop
*DEL*:00000000H   CODE     ---       CLOCK_UART_StopBlock
      0100E80CH   CODE     ---       cmd_activate
      0100EDB5H   CODE     ---       cmd_get_activate
      0100D8B6H   CODE     ---       cmd_get_curr_and_meas
      0100EA03H   CODE     ---       cmd_get_currents
      0100E737H   CODE     ---       cmd_get_emg
      0100E344H   CODE     ---       cmd_get_inputs
      0100E84FH   CODE     ---       cmd_get_joystick
      0100E202H   CODE     ---       cmd_get_measurements
      0100F08DH   CODE     ---       cmd_ping
      0100EED9H   CODE     ---       cmd_set_baudrate
      0100BCB6H   CODE     ---       cmd_set_inputs
      0100E890H   CODE     ---       cmd_set_watchdog
      0100B358H   CODE     ---       cmd_store_params
      0100BB00H   CODE     ---       commProcess
      0100D05DH   CODE     ---       commReadMeasFromSH
      02000F9CH   XDATA    DWORD     count_tension_valid
      0100F287H   CODE     ---       COUNTER_ENC_ClearFIFO
      0100F394H   CODE     ---       COUNTER_ENC_Enable
      0100EB3BH   CODE     ---       COUNTER_ENC_Init
      020013F8H   XDATA    BYTE      COUNTER_ENC_initVar
      0100F423H   CODE     ---       COUNTER_ENC_ReadCapture
*DEL*:00000000H   CODE     ---       COUNTER_ENC_ReadCompare
*DEL*:00000000H   CODE     ---       COUNTER_ENC_ReadControlRegister
*DEL*:00000000H   CODE     ---       COUNTER_ENC_ReadCounter
*DEL*:00000000H   CODE     ---       COUNTER_ENC_ReadPeriod
      0100F417H   CODE     ---       COUNTER_ENC_ReadStatusRegister
      0100F0EEH   CODE     ---       COUNTER_ENC_Start
*DEL*:00000000H   CODE     ---       COUNTER_ENC_Stop
      020010B7H   XDATA    LONG      curr_pos_res
*SFR* 000000D0H.7 DATA     BIT       CY
      020013E1H   XDATA    DWORD     cydelay_32k_ms
      020013DCH   XDATA    DWORD     cydelay_freq_hz
      020013D7H   XDATA    DWORD     cydelay_freq_khz
      020013DBH   XDATA    BYTE      cydelay_freq_mhz
*DEL*:00000000H   CODE     ---       CyDisableInts
      0100EAB1H   CODE     ---       CyDmacConfigure
*DEL*:00000000H   CODE     ---       CyDmacError
*DEL*:00000000H   CODE     ---       CyDmacErrorAddress
*DEL*:00000000H   CODE     ---       CyDmaChAlloc
      0100E911H   CODE     ---       CyDmaTdAllocate
*DEL*:00000000H   CODE     ---       CyDmaTdFreeCount
*DEL*:00000000H   CODE     ---       CyEEPROM_ReadRelease
*DEL*:00000000H   CODE     ---       CyEEPROM_ReadReserve
      0100EC6EH   CODE     ---       CyEEPROM_Start
*DEL*:00000000H   CODE     ---       CyEEPROM_Stop
      0100F04EH   CODE     NEAR LAB  CyEnterCriticalSection
      0100CCA1H   CODE     ---       cyfitter_cfg
*DEL*:00000000H   CODE     ---       CyFlash_Start
*DEL*:00000000H   CODE     ---       CyFlash_Stop
*DEL*:00000000H   CODE     ---       CyILO_Disable33K
*DEL*:00000000H   CODE     ---       CyILO_Enable33K
*DEL*:00000000H   CODE     ---       CyILO_Start100K
*DEL*:00000000H   CODE     ---       CyILO_Start1K
*DEL*:00000000H   CODE     ---       CyILO_Stop100K
*DEL*:00000000H   CODE     ---       CyILO_Stop1K
*DEL*:00000000H   CODE     ---       CyIMO_DisableDoubler
*DEL*:00000000H   CODE     ---       CyIMO_EnableDoubler
LX51 LINKER/LOCATER V4.64.0.0                                                         04/06/2018  15:41:10  PAGE 35


*DEL*:00000000H   CODE     ---       CyIMO_Stop
      0100ECCFH   CODE     ---       CyIntInitVectors
*DEL*:00000000H   CODE     ---       CyPLL_OUT_Stop
*DEL*:00000000H   CODE     ---       CyPmHibernate
*DEL*:00000000H   CODE     ---       CyPmOppsSet
*DEL*:00000000H   CODE     ---       CyPmRestoreClocks
*DEL*:00000000H   CODE     ---       CyPmSaveClocks
      020013E0H   XDATA    BYTE      CyResetStatus
      0100EFDDH   CODE     ---       CySetTemp
      0100F3A4H   CODE     ---       CySoftwareReset
      0100EF90H   CODE     ---       CySpcGetAlgorithm
      0100EF37H   CODE     ---       CySpcLock
      0100F063H   CODE     ---       CySpcStart
*DEL*:00000000H   CODE     ---       CySpcStop
      0100F2D3H   CODE     ---       CySpcUnlock
*DEL*:00000000H   CODE     ---       CyVdHvAnalogDisable
*DEL*:00000000H   CODE     ---       CyVdHvAnalogEnable
*DEL*:00000000H   CODE     ---       CyVdLvAnalogDisable
*DEL*:00000000H   CODE     ---       CyVdLvDigitDisable
*DEL*:00000000H   CODE     ---       CyVdRealTimeStatus
*DEL*:00000000H   CODE     ---       CyWdtClear
*DEL*:00000000H   CODE     ---       CyXTAL_32KHZ_ReadStatus
*DEL*:00000000H   CODE     ---       CyXTAL_32KHZ_Start
*DEL*:00000000H   CODE     ---       CyXTAL_32KHZ_Stop
*DEL*:00000000H   CODE     ---       CyXTAL_DisableErrStatus
*DEL*:00000000H   CODE     ---       CyXTAL_DisableFaultRecovery
*DEL*:00000000H   CODE     ---       CyXTAL_EnableErrStatus
*DEL*:00000000H   CODE     ---       CyXTAL_EnableFaultRecovery
*DEL*:00000000H   CODE     ---       CyXTAL_ReadStatus
*DEL*:00000000H   CODE     ---       CyXTAL_Stop
      0100E460H   CODE     ---       deactivate_slaves
      020011D3H   XDATA    BYTE      dev_pwm_limit
      020010BFH   XDATA    LONG      dev_tension
      02001193H   XDATA    LONG      dev_tension_f
      020013EEH   XDATA    ---       dieTemperature
      020013FDH   XDATA    BYTE      DMA_DmaHandle
*DEL*:00000000H   CODE     ---       DMA_DmaRelease
*SFR* 00000083H   DATA     BYTE      DPH
*SFR* 00000085H   DATA     BYTE      DPH1
*SFR* 00000082H   DATA     BYTE      DPL
*SFR* 00000084H   DATA     BYTE      DPL1
*SFR* 00000086H   DATA     BYTE      DPS
*SFR* 00000093H   DATA     BYTE      DPX
*SFR* 00000095H   DATA     BYTE      DPX1
      0100C1A4H   CODE     ---       drive_force_fb
      0100DFB9H   CODE     ---       drive_proprio_fb
      0100D55BH   CODE     ---       drive_SH
*SFR* 000000A8H.7 DATA     BIT       EA
      020013F4H   XDATA    ---       EEPROM_ADDR
      0100F3D2H   CODE     ---       EEPROM_Enable
*DEL*:00000000H   CODE     ---       EEPROM_Query
      0100F4B3H   CODE     ---       EEPROM_Start
*DEL*:00000000H   CODE     ---       EEPROM_Stop
*DEL*:00000000H   CODE     ---       EEPROM_UpdateTemperature
*SFR* 000000D0H.5 DATA     BIT       F0
*SFR* 000000D0H.1 DATA     BIT       F1
*DEL*:00000000H   CODE     ---       FF_STATUS_InterruptDisable
*DEL*:00000000H   CODE     ---       FF_STATUS_InterruptEnable
      0100F459H   CODE     ---       FF_STATUS_Read
*DEL*:00000000H   CODE     ---       FF_STATUS_ReadMask
      02000F9BH   XDATA    BYTE      first_tension_valid
      0200107AH   XDATA    BYTE      forced_open
*DEL*:00000000H   CODE     ---       FTDI_ENABLE_REG_Read
      0100C32AH   CODE     ---       function_scheduler
      02001197H   XDATA    ---       g_meas
LX51 LINKER/LOCATER V4.64.0.0                                                         04/06/2018  15:41:10  PAGE 36


      0200107BH   XDATA    ---       g_measOld
      02000FB9H   XDATA    ---       g_mem
      02000FA0H   XDATA    ---       g_ref
      02001161H   XDATA    ---       g_refNew
      020010C3H   XDATA    ---       g_refOld
      020010DCH   XDATA    ---       g_rx
*SFR* 000000A8H   DATA     BYTE      IE
*DEL*:00000000H   CODE     ---       infoSend
      0100F4C0H   CODE     ---       IntDefaultHandler
      00000021H.4 BIT      BIT       interrupt_flag
      0100C807H   CODE     ---       interrupt_manager
*DEL*:00000000H   CODE     ---       ISR_RS485_RX_ClearPending
      0100F3CBH   CODE     ---       ISR_RS485_RX_Disable
      0100F3C4H   CODE     ---       ISR_RS485_RX_Enable
      0100F4BAH   CODE     ---       ISR_RS485_RX_ExInterrupt
*DEL*:00000000H   CODE     ---       ISR_RS485_RX_GetPriority
*DEL*:00000000H   CODE     ---       ISR_RS485_RX_GetState
*DEL*:00000000H   CODE     ---       ISR_RS485_RX_GetVector
      0100F4C3H   CODE     ---       ISR_RS485_RX_Interrupt
*DEL*:00000000H   CODE     ---       ISR_RS485_RX_SetPending
*DEL*:00000000H   CODE     ---       ISR_RS485_RX_Start
*DEL*:00000000H   CODE     ---       ISR_RS485_RX_Stop
*DEL*:00000000H   CODE     ---       ISR_WATCHDOG_ClearPending
      0100F3E0H   CODE     ---       ISR_WATCHDOG_Disable
      0100F3D9H   CODE     ---       ISR_WATCHDOG_Enable
*DEL*:00000000H   CODE     ---       ISR_WATCHDOG_GetPriority
*DEL*:00000000H   CODE     ---       ISR_WATCHDOG_GetState
*DEL*:00000000H   CODE     ---       ISR_WATCHDOG_GetVector
      0100F4B7H   CODE     ---       ISR_WATCHDOG_Handler
      0100F4C4H   CODE     ---       ISR_WATCHDOG_Interrupt
*DEL*:00000000H   CODE     ---       ISR_WATCHDOG_SetPending
*DEL*:00000000H   CODE     ---       ISR_WATCHDOG_Start
*DEL*:00000000H   CODE     ---       ISR_WATCHDOG_Stop
*DEL*:00000000H   CODE     ---       LED_BLINK_EN_Read
      0100F3ACH   CODE     ---       LED_BLINK_Enable
      0100EE97H   CODE     ---       LED_BLINK_Init
      020013FFH   XDATA    BYTE      LED_BLINK_initVar
*DEL*:00000000H   CODE     ---       LED_BLINK_ReadCapture
*DEL*:00000000H   CODE     ---       LED_BLINK_ReadCompare
*DEL*:00000000H   CODE     ---       LED_BLINK_ReadControlRegister
*DEL*:00000000H   CODE     ---       LED_BLINK_ReadCounter
*DEL*:00000000H   CODE     ---       LED_BLINK_ReadPeriod
      0100F160H   CODE     ---       LED_BLINK_Start
*DEL*:00000000H   CODE     ---       LED_BLINK_Stop
*DEL*:00000000H   CODE     ---       LED_CTRL_Read
      0100B8D3H   CODE     ---       main
      020010B6H   XDATA    BYTE      master_mode
      0100B660H   CODE     ---       memInit
      0100E655H   CODE     ---       memRecall
      0100E780H   CODE     ---       memRestore
      01007A82H   CODE     ---       motor_control
*DEL*:00000000H   CODE     ---       MOTOR_DIR_Read
*DEL*:00000000H   CODE     ---       MOTOR_ON_OFF_Read
*SFR* 000000EAH   DATA     BYTE      MXAX
      0100F294H   CODE     ---       MY_TIMER_ClearFIFO
      0100F39CH   CODE     ---       MY_TIMER_Enable
      0100ED89H   CODE     ---       MY_TIMER_Init
      020013FBH   XDATA    BYTE      MY_TIMER_initVar
      0100F348H   CODE     ---       MY_TIMER_ReadCapture
*DEL*:00000000H   CODE     ---       MY_TIMER_ReadControlRegister
      0100F1DDH   CODE     ---       MY_TIMER_ReadCounter
*DEL*:00000000H   CODE     ---       MY_TIMER_ReadPeriod
      0100F465H   CODE     ---       MY_TIMER_ReadStatusRegister
*DEL*:00000000H   CODE     ---       MY_TIMER_SoftwareCapture
      0100F127H   CODE     ---       MY_TIMER_Start
LX51 LINKER/LOCATER V4.64.0.0                                                         04/06/2018  15:41:10  PAGE 37


*DEL*:00000000H   CODE     ---       MY_TIMER_Stop
*SFR* 000000D0H.2 DATA     BIT       OV
      0100E11BH   CODE     ---       overcurrent_control
*SFR* 000000D0H   DATA     BIT       P
*SFR* 000000A0H   DATA     BYTE      P2AX
      0100F00DH   CODE     ---       PACER_TIMER_Enable
      0100E98CH   CODE     ---       PACER_TIMER_Init
      020013F7H   XDATA    BYTE      PACER_TIMER_initVar
*DEL*:00000000H   CODE     ---       PACER_TIMER_ReadCapture
*DEL*:00000000H   CODE     ---       PACER_TIMER_ReadControlRegister
*DEL*:00000000H   CODE     ---       PACER_TIMER_ReadCounter
*DEL*:00000000H   CODE     ---       PACER_TIMER_ReadPeriod
*DEL*:00000000H   CODE     ---       PACER_TIMER_ReadStatusRegister
*DEL*:00000000H   CODE     ---       PACER_TIMER_SoftwareCapture
      0100F0C8H   CODE     ---       PACER_TIMER_Start
*DEL*:00000000H   CODE     ---       PACER_TIMER_Stop
      0200117EH   XDATA    LONG      pow_tension
*SFR* 000000D0H   DATA     BYTE      PSW
      0100E030H   CODE     ---       pwm_limit_search
      0100F38CH   CODE     ---       PWM_MOTORS_Enable
      0100EE07H   CODE     ---       PWM_MOTORS_Init
      020013F6H   XDATA    BYTE      PWM_MOTORS_initVar
*DEL*:00000000H   CODE     ---       PWM_MOTORS_ReadCapture
*DEL*:00000000H   CODE     ---       PWM_MOTORS_ReadCompare1
*DEL*:00000000H   CODE     ---       PWM_MOTORS_ReadCompare2
*DEL*:00000000H   CODE     ---       PWM_MOTORS_ReadControlRegister
*DEL*:00000000H   CODE     ---       PWM_MOTORS_ReadCounter
*DEL*:00000000H   CODE     ---       PWM_MOTORS_ReadPeriod
      0100F0B5H   CODE     ---       PWM_MOTORS_Start
*DEL*:00000000H   CODE     ---       PWM_MOTORS_Stop
      02001192H   XDATA    CHAR      pwm_sign
*DEL*:00000000H   CODE     ---       RESET_COUNTERS_Read
*DEL*:00000000H   CODE     ---       RESET_FF_Read
      00000021H.2 BIT      BIT       reset_last_value_flag
      020011D2H   XDATA    BYTE      rest_enabled
      0200117AH   XDATA    LONG      rest_pos_curr_ref
*SFR* 000000D0H.3 DATA     BIT       RS0
*SFR* 000000D0H.4 DATA     BIT       RS1
*DEL*:00000000H   CODE     ---       RS485_CTS_Read
      0100D93AH   CODE     ---       setZeros
*SFR* 00000080H   DATA     BYTE      SFRPRT0DR
*SFR* 00000089H   DATA     BYTE      SFRPRT0PS
*SFR* 0000008AH   DATA     BYTE      SFRPRT0SEL
*SFR* 000000E8H   DATA     BYTE      SFRPRT12DR
*SFR* 000000E9H   DATA     BYTE      SFRPRT12PS
*SFR* 000000F2H   DATA     BYTE      SFRPRT12SEL
*SFR* 000000F8H   DATA     BYTE      SFRPRT15DR
*SFR* 000000F9H   DATA     BYTE      SFRPRT15PS
*SFR* 000000FAH   DATA     BYTE      SFRPRT15SEL
*SFR* 00000090H   DATA     BYTE      SFRPRT1DR
*SFR* 00000091H   DATA     BYTE      SFRPRT1PS
*SFR* 000000A2H   DATA     BYTE      SFRPRT1SEL
*SFR* 00000098H   DATA     BYTE      SFRPRT2DR
*SFR* 00000099H   DATA     BYTE      SFRPRT2PS
*SFR* 0000009AH   DATA     BYTE      SFRPRT2SEL
*SFR* 000000B0H   DATA     BYTE      SFRPRT3DR
*SFR* 000000B1H   DATA     BYTE      SFRPRT3PS
*SFR* 000000B2H   DATA     BYTE      SFRPRT3SEL
*SFR* 000000C0H   DATA     BYTE      SFRPRT4DR
*SFR* 000000C1H   DATA     BYTE      SFRPRT4PS
*SFR* 000000C2H   DATA     BYTE      SFRPRT4SEL
*SFR* 000000C8H   DATA     BYTE      SFRPRT5DR
*SFR* 000000C9H   DATA     BYTE      SFRPRT5PS
*SFR* 000000CAH   DATA     BYTE      SFRPRT5SEL
*SFR* 000000D8H   DATA     BYTE      SFRPRT6DR
LX51 LINKER/LOCATER V4.64.0.0                                                         04/06/2018  15:41:10  PAGE 38


*SFR* 000000D9H   DATA     BYTE      SFRPRT6PS
*SFR* 000000DAH   DATA     BYTE      SFRPRT6SEL
*DEL*:00000000H   CODE     ---       SHIFTREG_ENC_1_DisableInt
      0100F301H   CODE     ---       SHIFTREG_ENC_1_Enable
      0100F250H   CODE     ---       SHIFTREG_ENC_1_EnableInt
*DEL*:00000000H   CODE     ---       SHIFTREG_ENC_1_GetIntStatus
      0100F46BH   CODE     ---       SHIFTREG_ENC_1_Init
      020013FCH   XDATA    BYTE      SHIFTREG_ENC_1_initVar
      0100F35CH   CODE     ---       SHIFTREG_ENC_1_ReadData
*DEL*:00000000H   CODE     ---       SHIFTREG_ENC_1_ReadRegValue
      0100F13AH   CODE     ---       SHIFTREG_ENC_1_Start
*DEL*:00000000H   CODE     ---       SHIFTREG_ENC_1_Stop
*DEL*:00000000H   CODE     ---       SHIFTREG_ENC_2_DisableInt
      0100F2F6H   CODE     ---       SHIFTREG_ENC_2_Enable
      0100F242H   CODE     ---       SHIFTREG_ENC_2_EnableInt
*DEL*:00000000H   CODE     ---       SHIFTREG_ENC_2_GetIntStatus
      0100F43BH   CODE     ---       SHIFTREG_ENC_2_Init
      020013FAH   XDATA    BYTE      SHIFTREG_ENC_2_initVar
      0100F32AH   CODE     ---       SHIFTREG_ENC_2_ReadData
*DEL*:00000000H   CODE     ---       SHIFTREG_ENC_2_ReadRegValue
      0100F114H   CODE     ---       SHIFTREG_ENC_2_Start
*DEL*:00000000H   CODE     ---       SHIFTREG_ENC_2_Stop
*DEL*:00000000H   CODE     ---       SHIFTREG_ENC_3_DisableInt
      0100F2EBH   CODE     ---       SHIFTREG_ENC_3_Enable
      0100F234H   CODE     ---       SHIFTREG_ENC_3_EnableInt
*DEL*:00000000H   CODE     ---       SHIFTREG_ENC_3_GetIntStatus
      0100F435H   CODE     ---       SHIFTREG_ENC_3_Init
      020013F9H   XDATA    BYTE      SHIFTREG_ENC_3_initVar
      0100F320H   CODE     ---       SHIFTREG_ENC_3_ReadData
*DEL*:00000000H   CODE     ---       SHIFTREG_ENC_3_ReadRegValue
      0100F101H   CODE     ---       SHIFTREG_ENC_3_Start
*DEL*:00000000H   CODE     ---       SHIFTREG_ENC_3_Stop
*SFR* 00000081H   DATA     BYTE      SP
      02001401H   XDATA    BYTE      SpcLockState
      0100CA65H   CODE     NEAR LAB  STARTUP1
      02001186H   XDATA    FLOAT     tau_feedback
      00000021H.5 BIT      BIT       tension_valid
      020010BBH   XDATA    DWORD     timer_value
      02001182H   XDATA    DWORD     timer_value0
      0100ECFFH   CODE     ---       UART_RS485_ClearRxBuffer
      0100F186H   CODE     ---       UART_RS485_ClearTxBuffer
      0100EE53H   CODE     ---       UART_RS485_Enable
      020013C5H   XDATA    BYTE      UART_RS485_errorStatus
*DEL*:00000000H   CODE     ---       UART_RS485_GetByte
      0100E405H   CODE     ---       UART_RS485_GetChar
      0100E606H   CODE     ---       UART_RS485_GetRxBufferSize
*DEL*:00000000H   CODE     ---       UART_RS485_GetTxBufferSize
      0100EBD8H   CODE     ---       UART_RS485_Init
      020013C3H   XDATA    BYTE      UART_RS485_initVar
*DEL*:00000000H   CODE     ---       UART_RS485_ReadControlRegister
*DEL*:00000000H   CODE     ---       UART_RS485_ReadRxData
      0100F0A1H   CODE     ---       UART_RS485_ReadRxStatus
      0100F405H   CODE     ---       UART_RS485_ReadTxStatus
      020013A2H   XDATA    ---       UART_RS485_rxBuffer
      020013A0H   XDATA    BYTE      UART_RS485_rxBufferLoopDetect
      020013C4H   XDATA    BYTE      UART_RS485_rxBufferOverflow
      020013A1H   XDATA    BYTE      UART_RS485_rxBufferRead
      020013C2H   XDATA    BYTE      UART_RS485_rxBufferWrite
      0100D3FCH   CODE     ---       UART_RS485_RXISR
      0100F0DBH   CODE     ---       UART_RS485_Start
      0100EE75H   CODE     ---       UART_RS485_Stop
      0100F023H   CODE     ---       WATCHDOG_COUNTER_Enable
      0100EA79H   CODE     ---       WATCHDOG_COUNTER_Init
      020013FEH   XDATA    BYTE      WATCHDOG_COUNTER_initVar
*DEL*:00000000H   CODE     ---       WATCHDOG_COUNTER_ReadCapture
LX51 LINKER/LOCATER V4.64.0.0                                                         04/06/2018  15:41:10  PAGE 39


*DEL*:00000000H   CODE     ---       WATCHDOG_COUNTER_ReadControlRegister
*DEL*:00000000H   CODE     ---       WATCHDOG_COUNTER_ReadCounter
*DEL*:00000000H   CODE     ---       WATCHDOG_COUNTER_ReadPeriod
*DEL*:00000000H   CODE     ---       WATCHDOG_COUNTER_ReadStatusRegister
      0100F14DH   CODE     ---       WATCHDOG_COUNTER_Start
*DEL*:00000000H   CODE     ---       WATCHDOG_COUNTER_Stop
*DEL*:00000000H   CODE     ---       WATCHDOG_ENABLER_Read
      00000021H.3 BIT      BIT       watchdog_flag
*DEL*:00000000H   CODE     ---       WATCHDOG_REFRESH_Read



SYMBOL TABLE OF MODULE:  .\DP8051_Keil_951\Release\hand_firmware_micro.omf (COMMAND_PROCESSING)

      VALUE       REP       CLASS    TYPE      SYMBOL NAME
      ====================================================
      ---         MODULE    ---      ---       COMMAND_PROCESSING
      020013F4H   PUBLIC    XDATA    ---       EEPROM_ADDR
      0100E737H   PUBLIC    CODE     ---       cmd_get_emg
      0100B358H   PUBLIC    CODE     ---       cmd_store_params
      0100E344H   PUBLIC    CODE     ---       cmd_get_inputs
      0100E890H   PUBLIC    CODE     ---       cmd_set_watchdog
      0100F08DH   PUBLIC    CODE     ---       cmd_ping
      0100EED9H   PUBLIC    CODE     ---       cmd_set_baudrate
      0100EA03H   PUBLIC    CODE     ---       cmd_get_currents
      0100D8B6H   PUBLIC    CODE     ---       cmd_get_curr_and_meas
      0100E84FH   PUBLIC    CODE     ---       cmd_get_joystick
      0100EDB5H   PUBLIC    CODE     ---       cmd_get_activate
      0100E80CH   PUBLIC    CODE     ---       cmd_activate
      0100BCB6H   PUBLIC    CODE     ---       cmd_set_inputs
      0100E202H   PUBLIC    CODE     ---       cmd_get_measurements
      0100B660H   PUBLIC    CODE     ---       memInit
      0100E780H   PUBLIC    CODE     ---       memRestore
      0100E655H   PUBLIC    CODE     ---       memRecall
      0100D129H   PUBLIC    CODE     ---       _memStore
      0100F039H   PUBLIC    CODE     ---       _sendAcknowledgment
      0100EC0BH   PUBLIC    CODE     ---       _LCRChecksum
      0100E460H   PUBLIC    CODE     ---       deactivate_slaves
      0100DFB9H   PUBLIC    CODE     ---       drive_proprio_fb
      0100C1A4H   PUBLIC    CODE     ---       drive_force_fb
      0100D55BH   PUBLIC    CODE     ---       drive_SH
      02000020H   PUBLIC    XDATA    BYTE      ?_commWriteID?BYTE
      0100D9BDH   PUBLIC    CODE     ---       _commWriteID
      0100D05DH   PUBLIC    CODE     ---       commReadMeasFromSH
      0100D692H   PUBLIC    CODE     ---       _commWrite
      02000030H   PUBLIC    XDATA    BYTE      ?_commWrite_old_id?BYTE
      0100D605H   PUBLIC    CODE     ---       _commWrite_old_id
      01006234H   PUBLIC    CODE     ---       _infoPrepare
      0100D93AH   PUBLIC    CODE     ---       setZeros
      0100261AH   PUBLIC    CODE     ---       _get_param_list
      0100E9C8H   PUBLIC    CODE     ---       _infoGet
      0100BB00H   PUBLIC    CODE     ---       commProcess
      000000CAH   SFRSYM    DATA     BYTE      SFRPRT5SEL
      000000DAH   SFRSYM    DATA     BYTE      SFRPRT6SEL
      000000D0H.6 SFRSYM    DATA     BIT       AC
      000000A8H.7 SFRSYM    DATA     BIT       EA
      000000A8H   SFRSYM    DATA     BYTE      IE
      00000085H   SFRSYM    DATA     BYTE      DPH1
      00000084H   SFRSYM    DATA     BYTE      DPL1
      000000D0H.7 SFRSYM    DATA     BIT       CY
      000000A0H   SFRSYM    DATA     BYTE      P2AX
      00000095H   SFRSYM    DATA     BYTE      DPX1
      00000081H   SFRSYM    DATA     BYTE      SP
      000000D0H.2 SFRSYM    DATA     BIT       OV
      00000080H   SFRSYM    DATA     BYTE      SFRPRT0DR
LX51 LINKER/LOCATER V4.64.0.0                                                         04/06/2018  15:41:10  PAGE 40


      00000090H   SFRSYM    DATA     BYTE      SFRPRT1DR
      000000F2H   SFRSYM    DATA     BYTE      SFRPRT12SEL
      00000098H   SFRSYM    DATA     BYTE      SFRPRT2DR
      000000B0H   SFRSYM    DATA     BYTE      SFRPRT3DR
      000000C0H   SFRSYM    DATA     BYTE      SFRPRT4DR
      000000FAH   SFRSYM    DATA     BYTE      SFRPRT15SEL
      000000C8H   SFRSYM    DATA     BYTE      SFRPRT5DR
      000000D8H   SFRSYM    DATA     BYTE      SFRPRT6DR
      00000089H   SFRSYM    DATA     BYTE      SFRPRT0PS
      00000091H   SFRSYM    DATA     BYTE      SFRPRT1PS
      00000099H   SFRSYM    DATA     BYTE      SFRPRT2PS
      000000B1H   SFRSYM    DATA     BYTE      SFRPRT3PS
      000000C1H   SFRSYM    DATA     BYTE      SFRPRT4PS
      000000C9H   SFRSYM    DATA     BYTE      SFRPRT5PS
      000000D9H   SFRSYM    DATA     BYTE      SFRPRT6PS
      000000EAH   SFRSYM    DATA     BYTE      MXAX
      000000F0H   SFRSYM    DATA     BYTE      B
      000000E0H   SFRSYM    DATA     BYTE      ACC
      000000D0H   SFRSYM    DATA     BIT       P
      000000D0H.3 SFRSYM    DATA     BIT       RS0
      000000D0H.4 SFRSYM    DATA     BIT       RS1
      00000083H   SFRSYM    DATA     BYTE      DPH
      000000E8H   SFRSYM    DATA     BYTE      SFRPRT12DR
      00000082H   SFRSYM    DATA     BYTE      DPL
      000000F8H   SFRSYM    DATA     BYTE      SFRPRT15DR
      00000086H   SFRSYM    DATA     BYTE      DPS
      000000E9H   SFRSYM    DATA     BYTE      SFRPRT12PS
      00000093H   SFRSYM    DATA     BYTE      DPX
      000000F9H   SFRSYM    DATA     BYTE      SFRPRT15PS
      000000D0H.5 SFRSYM    DATA     BIT       F0
      000000D0H.1 SFRSYM    DATA     BIT       F1
      0000008AH   SFRSYM    DATA     BYTE      SFRPRT0SEL
      000000D0H   SFRSYM    DATA     BYTE      PSW
      000000A2H   SFRSYM    DATA     BYTE      SFRPRT1SEL
      0000009AH   SFRSYM    DATA     BYTE      SFRPRT2SEL
      000000B2H   SFRSYM    DATA     BYTE      SFRPRT3SEL
      000000C2H   SFRSYM    DATA     BYTE      SFRPRT4SEL
      01004CE8H   SYMBOL    CODE     ---       _?ix1000
      01005DF4H   SYMBOL    CODE     ---       _?ix1010
      0100538CH   SYMBOL    CODE     ---       _?ix1001
      01005EF4H   SYMBOL    CODE     ---       _?ix1020
      01005E05H   SYMBOL    CODE     ---       _?ix1011
      01005D1FH   SYMBOL    CODE     ---       _?ix1002
      0100600AH   SYMBOL    CODE     ---       _?ix1030
      01005F0DH   SYMBOL    CODE     ---       _?ix1021
      01005E21H   SYMBOL    CODE     ---       _?ix1012
      01005D2EH   SYMBOL    CODE     ---       _?ix1003
      01006153H   SYMBOL    CODE     ---       _?ix1040
      01006033H   SYMBOL    CODE     ---       _?ix1031
      01005F25H   SYMBOL    CODE     ---       _?ix1022
      01005E3EH   SYMBOL    CODE     ---       _?ix1013
      01005D4AH   SYMBOL    CODE     ---       _?ix1004
      01006167H   SYMBOL    CODE     ---       _?ix1041
      0100605BH   SYMBOL    CODE     ---       _?ix1032
      01005F42H   SYMBOL    CODE     ---       _?ix1023
      01005E59H   SYMBOL    CODE     ---       _?ix1014
      01005D65H   SYMBOL    CODE     ---       _?ix1005
      010061CBH   SYMBOL    CODE     ---       _?ix1042
      01006087H   SYMBOL    CODE     ---       _?ix1033
      01005F56H   SYMBOL    CODE     ---       _?ix1024
      01005E6DH   SYMBOL    CODE     ---       _?ix1015
      01005D81H   SYMBOL    CODE     ---       _?ix1006
      0100620AH   SYMBOL    CODE     ---       _?ix1043
      010060A7H   SYMBOL    CODE     ---       _?ix1034
      01005F7AH   SYMBOL    CODE     ---       _?ix1025
LX51 LINKER/LOCATER V4.64.0.0                                                         04/06/2018  15:41:10  PAGE 41


      01005E92H   SYMBOL    CODE     ---       _?ix1016
      01005DA3H   SYMBOL    CODE     ---       _?ix1007
      010060CAH   SYMBOL    CODE     ---       _?ix1035
      01005F9DH   SYMBOL    CODE     ---       _?ix1026
      01005EA7H   SYMBOL    CODE     ---       _?ix1017
      01005DCAH   SYMBOL    CODE     ---       _?ix1008
      010060EFH   SYMBOL    CODE     ---       _?ix1036
      01005FAEH   SYMBOL    CODE     ---       _?ix1027
      01005EBCH   SYMBOL    CODE     ---       _?ix1018
      01005DDBH   SYMBOL    CODE     ---       _?ix1009
      01006101H   SYMBOL    CODE     ---       _?ix1037
      01005FC3H   SYMBOL    CODE     ---       _?ix1028
      01005ED0H   SYMBOL    CODE     ---       _?ix1019
      01006117H   SYMBOL    CODE     ---       _?ix1038
      01005FE7H   SYMBOL    CODE     ---       _?ix1029
      01006136H   SYMBOL    CODE     ---       _?ix1039

      0100BB00H   BLOCK     CODE     ---       LVL=0
      0100BB00H   BLOCK     CODE     NEAR LAB  LVL=1
      0000002BH   SYMBOL    DATA     BYTE      rx_cmd
      ---         BLOCKEND  ---      ---       LVL=1
      0100BB00H   LINE      CODE     ---       #67
      0100BB00H   LINE      CODE     ---       #71
      0100BB06H   LINE      CODE     ---       #75
      0100BB31H   LINE      CODE     ---       #77
      0100BB37H   LINE      CODE     ---       #79
      0100BB37H   LINE      CODE     ---       #81
      0100BB7FH   LINE      CODE     ---       #84
      0100BB7FH   LINE      CODE     ---       #85
      0100BB82H   LINE      CODE     ---       #86
      0100BB83H   LINE      CODE     ---       #90
      0100BB83H   LINE      CODE     ---       #91
      0100BB86H   LINE      CODE     ---       #92
      0100BB87H   LINE      CODE     ---       #96
      0100BB87H   LINE      CODE     ---       #97
      0100BB8AH   LINE      CODE     ---       #98
      0100BB8BH   LINE      CODE     ---       #102
      0100BB8BH   LINE      CODE     ---       #103
      0100BB8EH   LINE      CODE     ---       #104
      0100BB8FH   LINE      CODE     ---       #108
      0100BB8FH   LINE      CODE     ---       #109
      0100BB92H   LINE      CODE     ---       #110
      0100BB93H   LINE      CODE     ---       #114
      0100BB93H   LINE      CODE     ---       #115
      0100BB96H   LINE      CODE     ---       #116
      0100BB97H   LINE      CODE     ---       #120
      0100BB97H   LINE      CODE     ---       #121
      0100BB9AH   LINE      CODE     ---       #122
      0100BB9BH   LINE      CODE     ---       #126
      0100BB9BH   LINE      CODE     ---       #127
      0100BB9EH   LINE      CODE     ---       #128
      0100BB9FH   LINE      CODE     ---       #132
      0100BB9FH   LINE      CODE     ---       #133
      0100BBA2H   LINE      CODE     ---       #134
      0100BBA3H   LINE      CODE     ---       #138
      0100BBA3H   LINE      CODE     ---       #139
      0100BBA6H   LINE      CODE     ---       #140
      0100BBA7H   LINE      CODE     ---       #144
      0100BBA7H   LINE      CODE     ---       #145
      0100BBAAH   LINE      CODE     ---       #146
      0100BBABH   LINE      CODE     ---       #150
      0100BBABH   LINE      CODE     ---       #151
      0100BBB6H   LINE      CODE     ---       #152
      0100BBB7H   LINE      CODE     ---       #156
      0100BBB7H   LINE      CODE     ---       #157
LX51 LINKER/LOCATER V4.64.0.0                                                         04/06/2018  15:41:10  PAGE 42


      0100BBBAH   LINE      CODE     ---       #158
      0100BBBBH   LINE      CODE     ---       #162
      0100BBBBH   LINE      CODE     ---       #163
      0100BBC6H   LINE      CODE     ---       #164
      0100BBC7H   LINE      CODE     ---       #168
      0100BBC7H   LINE      CODE     ---       #169
      0100BBCAH   LINE      CODE     ---       #170
      0100BBCBH   LINE      CODE     ---       #174
      0100BBCBH   LINE      CODE     ---       #175
      0100BBCEH   LINE      CODE     ---       #176
      0100BBCFH   LINE      CODE     ---       #180
      0100BBCFH   LINE      CODE     ---       #181
      0100BBD9H   LINE      CODE     ---       #182
      0100BBDFH   LINE      CODE     ---       #184
      0100BBE4H   LINE      CODE     ---       #185
      0100BBE5H   LINE      CODE     ---       #189
      0100BBE5H   LINE      CODE     ---       #190
      0100BBEBH   LINE      CODE     ---       #191
      0100BBF1H   LINE      CODE     ---       #193
      0100BBF6H   LINE      CODE     ---       #194
      0100BBF7H   LINE      CODE     ---       #198
      0100BBF7H   LINE      CODE     ---       #199
      0100BBFDH   LINE      CODE     ---       #200
      0100BC03H   LINE      CODE     ---       #202
      0100BC08H   LINE      CODE     ---       #203
      0100BC09H   LINE      CODE     ---       #207
      0100BC09H   LINE      CODE     ---       #209
      0100BC0EH   LINE      CODE     ---       #210
      0100BC18H   LINE      CODE     ---       #211
      0100BC1DH   LINE      CODE     ---       #212
      0100BC27H   LINE      CODE     ---       #213
      0100BC2AH   LINE      CODE     ---       #214
      0100BC2BH   LINE      CODE     ---       #218
      0100BC2BH   LINE      CODE     ---       #219
      0100BC3AH   LINE      CODE     ---       #220
      0100BC49H   LINE      CODE     ---       #223
      0100BC59H   LINE      CODE     ---       #224
      0100BC60H   LINE      CODE     ---       #225
      0100BC6DH   LINE      CODE     ---       #226
      0100BC76H   LINE      CODE     ---       #227
      0100BC76H   LINE      CODE     ---       #228
      0100BC86H   LINE      CODE     ---       #229
      0100BC8DH   LINE      CODE     ---       #230
      0100BC9AH   LINE      CODE     ---       #231
      0100BCA4H   LINE      CODE     ---       #232
      0100BCA4H   LINE      CODE     ---       #234
      0100BCAFH   LINE      CODE     ---       #235
      0100BCB5H   LINE      CODE     ---       #236
      0100BCB5H   LINE      CODE     ---       #239
      0100BCB5H   LINE      CODE     ---       #240
      0100BCB5H   LINE      CODE     ---       #242
      0100BCB5H   LINE      CODE     ---       #243
      ---         BLOCKEND  ---      ---       LVL=0

      0100E9C8H   BLOCK     CODE     ---       LVL=0
      02000020H   SYMBOL    XDATA    WORD      info_type
      0100E9D0H   BLOCK     CODE     NEAR LAB  LVL=1
      02000022H   SYMBOL    XDATA    ---       packet_string
      ---         BLOCKEND  ---      ---       LVL=1
      0100E9C8H   LINE      CODE     ---       #261
      0100E9D0H   LINE      CODE     ---       #262
      0100E9E3H   LINE      CODE     ---       #266
      0100E9F0H   LINE      CODE     ---       #267
      0100E9F0H   LINE      CODE     ---       #268
      0100E9F9H   LINE      CODE     ---       #269
LX51 LINKER/LOCATER V4.64.0.0                                                         04/06/2018  15:41:10  PAGE 43


      0100EA02H   LINE      CODE     ---       #270
      0100EA02H   LINE      CODE     ---       #272
      0100EA02H   LINE      CODE     ---       #273
      0100EA02H   LINE      CODE     ---       #274
      0100EA02H   LINE      CODE     ---       #275
      ---         BLOCKEND  ---      ---       LVL=0

      0100261AH   BLOCK     CODE     ---       LVL=0
      02000020H   SYMBOL    XDATA    WORD      index
      01002622H   BLOCK     CODE     NEAR LAB  LVL=1
      02000022H   SYMBOL    XDATA    ---       packet_data
      020009B5H   SYMBOL    XDATA    WORD      packet_lenght
      0000002CH   SYMBOL    DATA     BYTE      i
      0000002DH   SYMBOL    DATA     BYTE      string_lenght
      020009B7H   SYMBOL    XDATA    LONG      aux_int
      020009BBH   SYMBOL    XDATA    BYTE      aux_uchar
      020009BCH   SYMBOL    XDATA    ---       id_str
      020009CBH   SYMBOL    XDATA    ---       pos_pid_str
      020009E7H   SYMBOL    XDATA    ---       curr_pid_str
      02000A02H   SYMBOL    XDATA    ---       startup_str
      02000A1EH   SYMBOL    XDATA    ---       input_str
      02000A40H   SYMBOL    XDATA    ---       contr_str
      02000A67H   SYMBOL    XDATA    ---       res_str
      02000A78H   SYMBOL    XDATA    ---       m_off_str
      02000A91H   SYMBOL    XDATA    ---       mult_str
      02000AA2H   SYMBOL    XDATA    ---       pos_lim_flag_str
      02000ABEH   SYMBOL    XDATA    ---       pos_lim_str
      02000ADBH   SYMBOL    XDATA    ---       max_step_str
      02000AF6H   SYMBOL    XDATA    ---       curr_limit_str
      02000B0AH   SYMBOL    XDATA    ---       emg_flag_str
      02000B2FH   SYMBOL    XDATA    ---       emg_thr_str
      02000B44H   SYMBOL    XDATA    ---       emg_max_val_str
      02000B59H   SYMBOL    XDATA    ---       emg_max_speed_str
      02000B6DH   SYMBOL    XDATA    ---       abs_enc_str
      02000B91H   SYMBOL    XDATA    ---       handle_ratio_str
      02000BAAH   SYMBOL    XDATA    ---       motor_type_str
      02000BC2H   SYMBOL    XDATA    ---       rest_pos_flag_str
      02000BDFH   SYMBOL    XDATA    ---       rest_pos_str
      02000BF3H   SYMBOL    XDATA    ---       rest_pos_delay_str
      02000C17H   SYMBOL    XDATA    ---       rest_vel_str
      02000C3AH   SYMBOL    XDATA    ---       rest_ratio_str
      02000C4BH   SYMBOL    XDATA    ---       curr_lookup_str
      02000C60H   SYMBOL    XDATA    ---       myo2_master_str
      02000C84H   SYMBOL    XDATA    ---       master_mode_force_str
      02000CA7H   SYMBOL    XDATA    ---       master_mode_proprio_str
      02000CD0H   SYMBOL    XDATA    ---       curr_prop_gain_str
      02000CF8H   SYMBOL    XDATA    ---       curr_sat_str
      02000D24H   SYMBOL    XDATA    ---       curr_dead_zone_str
      02000D44H   SYMBOL    XDATA    ---       max_slide_str
      02000D67H   SYMBOL    XDATA    ---       max_SH_pos_str
      02000D8CH   SYMBOL    XDATA    ---       SH_ID_str
      02000D9EH   SYMBOL    XDATA    ---       FF_ID_str
      02000DB4H   SYMBOL    XDATA    ---       PF_ID_str
      02000DD3H   SYMBOL    XDATA    ---       joystick_closure_speed_str
      02000DF0H   SYMBOL    XDATA    ---       joystick_gains_str
      02000E04H   SYMBOL    XDATA    ---       input_mode_menu
      02000E68H   SYMBOL    XDATA    ---       control_mode_menu
      02000EA7H   SYMBOL    XDATA    ---       yes_no_menu
      0000002EH   SYMBOL    DATA     BYTE      id_str_len
      0000002FH   SYMBOL    DATA     BYTE      pos_pid_str_len
      00000030H   SYMBOL    DATA     BYTE      curr_pid_str_len
      00000031H   SYMBOL    DATA     BYTE      res_str_len
      00000032H   SYMBOL    DATA     BYTE      m_off_str_len
      00000033H   SYMBOL    DATA     BYTE      mult_str_len
      00000034H   SYMBOL    DATA     BYTE      pos_lim_str_len
LX51 LINKER/LOCATER V4.64.0.0                                                         04/06/2018  15:41:10  PAGE 44


      00000035H   SYMBOL    DATA     BYTE      max_step_str_len
      00000036H   SYMBOL    DATA     BYTE      curr_limit_str_len
      00000037H   SYMBOL    DATA     BYTE      emg_thr_str_len
      00000038H   SYMBOL    DATA     BYTE      emg_max_val_str_len
      00000039H   SYMBOL    DATA     BYTE      emg_max_speed_str_len
      0000003AH   SYMBOL    DATA     BYTE      handle_ratio_str_len
      0000003BH   SYMBOL    DATA     BYTE      curr_lookup_str_len
      0000003CH   SYMBOL    DATA     BYTE      input_mode_menu_len
      0000003DH   SYMBOL    DATA     BYTE      control_mode_menu_len
      0000003EH   SYMBOL    DATA     BYTE      yes_no_menu_len
      0000003FH   SYMBOL    DATA     BYTE      rest_pos_str_len
      00000040H   SYMBOL    DATA     BYTE      rest_pos_delay_str_len
      00000041H   SYMBOL    DATA     BYTE      rest_vel_str_len
      00000042H   SYMBOL    DATA     BYTE      rest_ratio_str_len
      00000043H   SYMBOL    DATA     BYTE      curr_prop_gain_str_len
      00000044H   SYMBOL    DATA     BYTE      curr_sat_str_len
      00000045H   SYMBOL    DATA     BYTE      curr_dead_zone_str_len
      00000046H   SYMBOL    DATA     BYTE      max_slide_str_len
      00000047H   SYMBOL    DATA     BYTE      max_SH_pos_str_len
      00000048H   SYMBOL    DATA     BYTE      SH_ID_str_len
      00000049H   SYMBOL    DATA     BYTE      FF_ID_str_len
      0000004AH   SYMBOL    DATA     BYTE      PF_ID_str_len
      0000004BH   SYMBOL    DATA     BYTE      joystick_closure_speed_str_len
      0000004CH   SYMBOL    DATA     BYTE      joystick_gains_str_len
      ---         BLOCKEND  ---      ---       LVL=1
      0100261AH   LINE      CODE     ---       #281
      01002622H   LINE      CODE     ---       #283
      01002635H   LINE      CODE     ---       #284
      0100263FH   LINE      CODE     ---       #293
      01002652H   LINE      CODE     ---       #294
      01002665H   LINE      CODE     ---       #295
      01002678H   LINE      CODE     ---       #296
      0100268BH   LINE      CODE     ---       #297
      0100269EH   LINE      CODE     ---       #298
      010026B1H   LINE      CODE     ---       #299
      010026C4H   LINE      CODE     ---       #300
      010026D7H   LINE      CODE     ---       #301
      010026EAH   LINE      CODE     ---       #302
      010026FDH   LINE      CODE     ---       #303
      01002710H   LINE      CODE     ---       #304
      01002723H   LINE      CODE     ---       #305
      01002736H   LINE      CODE     ---       #306
      01002749H   LINE      CODE     ---       #307
      0100275CH   LINE      CODE     ---       #308
      0100276FH   LINE      CODE     ---       #309
      01002782H   LINE      CODE     ---       #310
      01002795H   LINE      CODE     ---       #311
      010027A8H   LINE      CODE     ---       #312
      010027BBH   LINE      CODE     ---       #313
      010027CEH   LINE      CODE     ---       #314
      010027E1H   LINE      CODE     ---       #315
      010027F4H   LINE      CODE     ---       #316
      01002807H   LINE      CODE     ---       #317
      0100281AH   LINE      CODE     ---       #318
      0100282DH   LINE      CODE     ---       #320
      01002840H   LINE      CODE     ---       #321
      01002853H   LINE      CODE     ---       #322
      01002866H   LINE      CODE     ---       #324
      01002879H   LINE      CODE     ---       #325
      0100288CH   LINE      CODE     ---       #326
      0100289FH   LINE      CODE     ---       #328
      010028B2H   LINE      CODE     ---       #329
      010028C5H   LINE      CODE     ---       #330
      010028D8H   LINE      CODE     ---       #331
      010028EBH   LINE      CODE     ---       #332
LX51 LINKER/LOCATER V4.64.0.0                                                         04/06/2018  15:41:10  PAGE 45


      010028FEH   LINE      CODE     ---       #334
      01002911H   LINE      CODE     ---       #335
      01002924H   LINE      CODE     ---       #338
      01002937H   LINE      CODE     ---       #339
      0100294AH   LINE      CODE     ---       #340
      0100295DH   LINE      CODE     ---       #343
      01002968H   LINE      CODE     ---       #344
      01002973H   LINE      CODE     ---       #345
      0100297EH   LINE      CODE     ---       #347
      01002989H   LINE      CODE     ---       #348
      01002994H   LINE      CODE     ---       #349
      0100299FH   LINE      CODE     ---       #351
      010029AAH   LINE      CODE     ---       #352
      010029B5H   LINE      CODE     ---       #353
      010029C0H   LINE      CODE     ---       #355
      010029CBH   LINE      CODE     ---       #356
      010029D6H   LINE      CODE     ---       #357
      010029E1H   LINE      CODE     ---       #359
      010029ECH   LINE      CODE     ---       #360
      010029F7H   LINE      CODE     ---       #361
      01002A02H   LINE      CODE     ---       #362
      01002A0DH   LINE      CODE     ---       #363
      01002A18H   LINE      CODE     ---       #364
      01002A23H   LINE      CODE     ---       #365
      01002A2EH   LINE      CODE     ---       #366
      01002A39H   LINE      CODE     ---       #367
      01002A44H   LINE      CODE     ---       #369
      01002A4FH   LINE      CODE     ---       #370
      01002A5AH   LINE      CODE     ---       #371
      01002A65H   LINE      CODE     ---       #373
      01002A70H   LINE      CODE     ---       #374
      01002A7BH   LINE      CODE     ---       #375
      01002A86H   LINE      CODE     ---       #376
      01002A91H   LINE      CODE     ---       #377
      01002A9CH   LINE      CODE     ---       #379
      01002AA7H   LINE      CODE     ---       #380
      01002AB2H   LINE      CODE     ---       #382
      01002AB8H   LINE      CODE     ---       #383
      01002ABCH   LINE      CODE     ---       #385
      01002B52H   LINE      CODE     ---       #386
      01002B52H   LINE      CODE     ---       #389
      01002B58H   LINE      CODE     ---       #390
      01002B5BH   LINE      CODE     ---       #391
      01002B63H   LINE      CODE     ---       #392
      01002B6AH   LINE      CODE     ---       #393
      01002B9CH   LINE      CODE     ---       #397
      01002BA2H   LINE      CODE     ---       #398
      01002BA6H   LINE      CODE     ---       #399
      01002BAEH   LINE      CODE     ---       #400
      01002BD0H   LINE      CODE     ---       #401
      01002BF2H   LINE      CODE     ---       #402
      01002C14H   LINE      CODE     ---       #403
      01002C16H   LINE      CODE     ---       #404
      01002C16H   LINE      CODE     ---       #405
      01002C38H   LINE      CODE     ---       #406
      01002C5AH   LINE      CODE     ---       #407
      01002C7CH   LINE      CODE     ---       #408
      01002C7CH   LINE      CODE     ---       #410
      01002C83H   LINE      CODE     ---       #411
      01002CB5H   LINE      CODE     ---       #415
      01002CBBH   LINE      CODE     ---       #416
      01002CBFH   LINE      CODE     ---       #417
      01002CC7H   LINE      CODE     ---       #418
      01002CE9H   LINE      CODE     ---       #419
      01002D0BH   LINE      CODE     ---       #420
LX51 LINKER/LOCATER V4.64.0.0                                                         04/06/2018  15:41:10  PAGE 46


      01002D2DH   LINE      CODE     ---       #421
      01002D2FH   LINE      CODE     ---       #422
      01002D2FH   LINE      CODE     ---       #423
      01002D51H   LINE      CODE     ---       #424
      01002D73H   LINE      CODE     ---       #425
      01002D95H   LINE      CODE     ---       #426
      01002D95H   LINE      CODE     ---       #428
      01002D9CH   LINE      CODE     ---       #429
      01002DCEH   LINE      CODE     ---       #433
      01002DD3H   LINE      CODE     ---       #434
      01002DD6H   LINE      CODE     ---       #435
      01002DDEH   LINE      CODE     ---       #436
      01002DE3H   LINE      CODE     ---       #437
      01002DFAH   LINE      CODE     ---       #438
      01002DFDH   LINE      CODE     ---       #439
      01002DFFH   LINE      CODE     ---       #440
      01002DFFH   LINE      CODE     ---       #441
      01002E16H   LINE      CODE     ---       #442
      01002E19H   LINE      CODE     ---       #443
      01002E19H   LINE      CODE     ---       #444
      01002E20H   LINE      CODE     ---       #445
      01002E52H   LINE      CODE     ---       #447
      01002E60H   LINE      CODE     ---       #451
      01002E65H   LINE      CODE     ---       #452
      01002E68H   LINE      CODE     ---       #453
      01002E70H   LINE      CODE     ---       #454
      01002E97H   LINE      CODE     ---       #455
      01002E97H   LINE      CODE     ---       #456
      01002EAEH   LINE      CODE     ---       #457
      01002EB1H   LINE      CODE     ---       #458
      01002EB4H   LINE      CODE     ---       #459
      01002EB4H   LINE      CODE     ---       #460
      01002ECBH   LINE      CODE     ---       #461
      01002ECEH   LINE      CODE     ---       #462
      01002ED1H   LINE      CODE     ---       #463
      01002ED1H   LINE      CODE     ---       #464
      01002EE8H   LINE      CODE     ---       #465
      01002EEBH   LINE      CODE     ---       #466
      01002EEDH   LINE      CODE     ---       #467
      01002EEDH   LINE      CODE     ---       #468
      01002F04H   LINE      CODE     ---       #469
      01002F07H   LINE      CODE     ---       #470
      01002F09H   LINE      CODE     ---       #471
      01002F09H   LINE      CODE     ---       #472
      01002F20H   LINE      CODE     ---       #473
      01002F23H   LINE      CODE     ---       #474
      01002F25H   LINE      CODE     ---       #475
      01002F25H   LINE      CODE     ---       #476
      01002F3CH   LINE      CODE     ---       #477
      01002F3FH   LINE      CODE     ---       #478
      01002F41H   LINE      CODE     ---       #479
      01002F41H   LINE      CODE     ---       #480
      01002F58H   LINE      CODE     ---       #481
      01002F5BH   LINE      CODE     ---       #482
      01002F5BH   LINE      CODE     ---       #483
      01002F5BH   LINE      CODE     ---       #484
      01002F62H   LINE      CODE     ---       #485
      01002F94H   LINE      CODE     ---       #487
      01002FA2H   LINE      CODE     ---       #491
      01002FA7H   LINE      CODE     ---       #492
      01002FAAH   LINE      CODE     ---       #493
      01002FB2H   LINE      CODE     ---       #494
      01002FC2H   LINE      CODE     ---       #495
      01002FC2H   LINE      CODE     ---       #496
      01002FD9H   LINE      CODE     ---       #497
LX51 LINKER/LOCATER V4.64.0.0                                                         04/06/2018  15:41:10  PAGE 47


      01002FDCH   LINE      CODE     ---       #498
      01002FDEH   LINE      CODE     ---       #499
      01002FDEH   LINE      CODE     ---       #500
      01002FF5H   LINE      CODE     ---       #501
      01002FF8H   LINE      CODE     ---       #502
      01002FFAH   LINE      CODE     ---       #503
      01002FFAH   LINE      CODE     ---       #504
      01003011H   LINE      CODE     ---       #505
      01003014H   LINE      CODE     ---       #506
      01003016H   LINE      CODE     ---       #507
      01003016H   LINE      CODE     ---       #508
      0100302DH   LINE      CODE     ---       #509
      01003030H   LINE      CODE     ---       #510
      01003030H   LINE      CODE     ---       #511
      01003030H   LINE      CODE     ---       #512
      01003037H   LINE      CODE     ---       #513
      01003069H   LINE      CODE     ---       #515
      01003077H   LINE      CODE     ---       #519
      0100307BH   LINE      CODE     ---       #520
      0100307EH   LINE      CODE     ---       #521
      01003088H   LINE      CODE     ---       #522
      010030A6H   LINE      CODE     ---       #523
      010030ADH   LINE      CODE     ---       #524
      010030DFH   LINE      CODE     ---       #528
      010030E5H   LINE      CODE     ---       #529
      010030E7H   LINE      CODE     ---       #530
      010030F1H   LINE      CODE     ---       #531
      01003135H   LINE      CODE     ---       #532
      0100313CH   LINE      CODE     ---       #533
      0100316EH   LINE      CODE     ---       #537
      01003174H   LINE      CODE     ---       #538
      01003178H   LINE      CODE     ---       #539
      01003182H   LINE      CODE     ---       #540
      010031B3H   LINE      CODE     ---       #541
      010031BAH   LINE      CODE     ---       #542
      010031ECH   LINE      CODE     ---       #546
      010031F1H   LINE      CODE     ---       #547
      010031F4H   LINE      CODE     ---       #548
      010031FCH   LINE      CODE     ---       #549
      01003201H   LINE      CODE     ---       #550
      01003218H   LINE      CODE     ---       #551
      0100321BH   LINE      CODE     ---       #552
      0100321DH   LINE      CODE     ---       #553
      0100321DH   LINE      CODE     ---       #554
      01003234H   LINE      CODE     ---       #555
      01003237H   LINE      CODE     ---       #556
      01003237H   LINE      CODE     ---       #557
      0100323EH   LINE      CODE     ---       #558
      01003270H   LINE      CODE     ---       #560
      0100327EH   LINE      CODE     ---       #564
      01003284H   LINE      CODE     ---       #565
      01003288H   LINE      CODE     ---       #566
      01003295H   LINE      CODE     ---       #567
      010032D3H   LINE      CODE     ---       #568
      01003311H   LINE      CODE     ---       #569
      01003316H   LINE      CODE     ---       #570
      0100331DH   LINE      CODE     ---       #571
      0100334FH   LINE      CODE     ---       #575
      01003355H   LINE      CODE     ---       #576
      01003359H   LINE      CODE     ---       #577
      0100336DH   LINE      CODE     ---       #578
      01003381H   LINE      CODE     ---       #579
      01003388H   LINE      CODE     ---       #580
      010033BAH   LINE      CODE     ---       #584
      010033C0H   LINE      CODE     ---       #585
LX51 LINKER/LOCATER V4.64.0.0                                                         04/06/2018  15:41:10  PAGE 48


      010033C4H   LINE      CODE     ---       #586
      010033D3H   LINE      CODE     ---       #587
      010033DAH   LINE      CODE     ---       #588
      0100340CH   LINE      CODE     ---       #592
      01003411H   LINE      CODE     ---       #593
      01003414H   LINE      CODE     ---       #594
      0100341CH   LINE      CODE     ---       #595
      01003421H   LINE      CODE     ---       #596
      01003438H   LINE      CODE     ---       #597
      0100343BH   LINE      CODE     ---       #598
      0100343DH   LINE      CODE     ---       #599
      0100343DH   LINE      CODE     ---       #600
      01003454H   LINE      CODE     ---       #601
      01003457H   LINE      CODE     ---       #602
      01003457H   LINE      CODE     ---       #603
      0100345EH   LINE      CODE     ---       #604
      01003490H   LINE      CODE     ---       #606
      0100349EH   LINE      CODE     ---       #610
      010034A3H   LINE      CODE     ---       #611
      010034A7H   LINE      CODE     ---       #612
      010034B6H   LINE      CODE     ---       #613
      010034C5H   LINE      CODE     ---       #614
      010034CCH   LINE      CODE     ---       #615
      010034FEH   LINE      CODE     ---       #619
      01003504H   LINE      CODE     ---       #620
      01003508H   LINE      CODE     ---       #621
      0100351CH   LINE      CODE     ---       #622
      01003530H   LINE      CODE     ---       #623
      01003537H   LINE      CODE     ---       #624
      01003569H   LINE      CODE     ---       #628
      0100356FH   LINE      CODE     ---       #629
      01003572H   LINE      CODE     ---       #630
      0100357AH   LINE      CODE     ---       #631
      01003581H   LINE      CODE     ---       #632
      010035B3H   LINE      CODE     ---       #636
      010035B8H   LINE      CODE     ---       #637
      010035BBH   LINE      CODE     ---       #638
      010035C3H   LINE      CODE     ---       #639
      010035C8H   LINE      CODE     ---       #640
      010035DFH   LINE      CODE     ---       #641
      010035E2H   LINE      CODE     ---       #642
      010035E4H   LINE      CODE     ---       #643
      010035E4H   LINE      CODE     ---       #644
      010035FBH   LINE      CODE     ---       #645
      010035FEH   LINE      CODE     ---       #646
      010035FEH   LINE      CODE     ---       #647
      01003605H   LINE      CODE     ---       #648
      01003637H   LINE      CODE     ---       #650
      01003645H   LINE      CODE     ---       #654
      0100364BH   LINE      CODE     ---       #655
      0100364DH   LINE      CODE     ---       #656
      01003655H   LINE      CODE     ---       #657
      0100365CH   LINE      CODE     ---       #658
      0100368EH   LINE      CODE     ---       #662
      01003693H   LINE      CODE     ---       #663
      01003696H   LINE      CODE     ---       #664
      0100369EH   LINE      CODE     ---       #665
      010036A3H   LINE      CODE     ---       #666
      010036BAH   LINE      CODE     ---       #667
      010036BDH   LINE      CODE     ---       #668
      010036BFH   LINE      CODE     ---       #669
      010036BFH   LINE      CODE     ---       #670
      010036D6H   LINE      CODE     ---       #671
      010036D9H   LINE      CODE     ---       #672
      010036D9H   LINE      CODE     ---       #673
LX51 LINKER/LOCATER V4.64.0.0                                                         04/06/2018  15:41:10  PAGE 49


      010036E0H   LINE      CODE     ---       #674
      01003712H   LINE      CODE     ---       #676
      01003720H   LINE      CODE     ---       #680
      01003725H   LINE      CODE     ---       #681
      01003728H   LINE      CODE     ---       #682
      01003730H   LINE      CODE     ---       #683
      01003735H   LINE      CODE     ---       #684
      0100374CH   LINE      CODE     ---       #685
      0100374FH   LINE      CODE     ---       #686
      01003751H   LINE      CODE     ---       #687
      01003751H   LINE      CODE     ---       #688
      01003768H   LINE      CODE     ---       #689
      0100376BH   LINE      CODE     ---       #690
      0100376BH   LINE      CODE     ---       #691
      01003772H   LINE      CODE     ---       #692
      010037A4H   LINE      CODE     ---       #694
      010037B2H   LINE      CODE     ---       #698
      010037B8H   LINE      CODE     ---       #699
      010037BCH   LINE      CODE     ---       #700
      010037D9H   LINE      CODE     ---       #701
      010037E0H   LINE      CODE     ---       #702
      01003812H   LINE      CODE     ---       #706
      01003818H   LINE      CODE     ---       #707
      0100381CH   LINE      CODE     ---       #708
      01003830H   LINE      CODE     ---       #709
      01003837H   LINE      CODE     ---       #710
      01003869H   LINE      CODE     ---       #714
      0100386FH   LINE      CODE     ---       #715
      01003873H   LINE      CODE     ---       #716
      01003891H   LINE      CODE     ---       #717
      01003898H   LINE      CODE     ---       #718
      010038CAH   LINE      CODE     ---       #722
      010038D0H   LINE      CODE     ---       #723
      010038D4H   LINE      CODE     ---       #724
      010038E8H   LINE      CODE     ---       #725
      010038EFH   LINE      CODE     ---       #726
      01003921H   LINE      CODE     ---       #730
      01003927H   LINE      CODE     ---       #731
      0100392AH   LINE      CODE     ---       #732
      01003934H   LINE      CODE     ---       #733
      01003965H   LINE      CODE     ---       #734
      0100396CH   LINE      CODE     ---       #735
      0100399EH   LINE      CODE     ---       #739
      010039A3H   LINE      CODE     ---       #740
      010039A6H   LINE      CODE     ---       #741
      010039AEH   LINE      CODE     ---       #742
      010039B3H   LINE      CODE     ---       #743
      010039CAH   LINE      CODE     ---       #744
      010039CDH   LINE      CODE     ---       #745
      010039CFH   LINE      CODE     ---       #746
      010039CFH   LINE      CODE     ---       #747
      010039E6H   LINE      CODE     ---       #748
      010039E9H   LINE      CODE     ---       #749
      010039E9H   LINE      CODE     ---       #750
      010039F0H   LINE      CODE     ---       #751
      01003A22H   LINE      CODE     ---       #753
      01003A30H   LINE      CODE     ---       #757
      01003A35H   LINE      CODE     ---       #758
      01003A38H   LINE      CODE     ---       #759
      01003A40H   LINE      CODE     ---       #760
      01003A45H   LINE      CODE     ---       #761
      01003A5CH   LINE      CODE     ---       #762
      01003A5FH   LINE      CODE     ---       #763
      01003A61H   LINE      CODE     ---       #764
      01003A61H   LINE      CODE     ---       #765
LX51 LINKER/LOCATER V4.64.0.0                                                         04/06/2018  15:41:10  PAGE 50


      01003A78H   LINE      CODE     ---       #766
      01003A7BH   LINE      CODE     ---       #767
      01003A7BH   LINE      CODE     ---       #768
      01003A82H   LINE      CODE     ---       #769
      01003AB4H   LINE      CODE     ---       #771
      01003AC2H   LINE      CODE     ---       #775
      01003AC7H   LINE      CODE     ---       #776
      01003ACAH   LINE      CODE     ---       #777
      01003AD2H   LINE      CODE     ---       #778
      01003AD7H   LINE      CODE     ---       #779
      01003AEEH   LINE      CODE     ---       #780
      01003AF1H   LINE      CODE     ---       #781
      01003AF3H   LINE      CODE     ---       #782
      01003AF3H   LINE      CODE     ---       #783
      01003B0AH   LINE      CODE     ---       #784
      01003B0DH   LINE      CODE     ---       #785
      01003B0DH   LINE      CODE     ---       #786
      01003B14H   LINE      CODE     ---       #787
      01003B46H   LINE      CODE     ---       #789
      01003B54H   LINE      CODE     ---       #793
      01003B5AH   LINE      CODE     ---       #794
      01003B5EH   LINE      CODE     ---       #795
      01003B72H   LINE      CODE     ---       #796
      01003B79H   LINE      CODE     ---       #797
      01003BABH   LINE      CODE     ---       #801
      01003BB1H   LINE      CODE     ---       #802
      01003BB5H   LINE      CODE     ---       #803
      01003BC4H   LINE      CODE     ---       #804
      01003BCBH   LINE      CODE     ---       #805
      01003BFDH   LINE      CODE     ---       #809
      01003C03H   LINE      CODE     ---       #810
      01003C07H   LINE      CODE     ---       #811
      01003C16H   LINE      CODE     ---       #812
      01003C1DH   LINE      CODE     ---       #813
      01003C4FH   LINE      CODE     ---       #817
      01003C55H   LINE      CODE     ---       #818
      01003C59H   LINE      CODE     ---       #819
      01003C6DH   LINE      CODE     ---       #820
      01003C74H   LINE      CODE     ---       #821
      01003CA6H   LINE      CODE     ---       #825
      01003CACH   LINE      CODE     ---       #826
      01003CB0H   LINE      CODE     ---       #827
      01003CC4H   LINE      CODE     ---       #828
      01003CCBH   LINE      CODE     ---       #829
      01003CFDH   LINE      CODE     ---       #833
      01003D03H   LINE      CODE     ---       #834
      01003D06H   LINE      CODE     ---       #835
      01003D0EH   LINE      CODE     ---       #836
      01003D15H   LINE      CODE     ---       #837
      01003D47H   LINE      CODE     ---       #841
      01003D4DH   LINE      CODE     ---       #842
      01003D50H   LINE      CODE     ---       #843
      01003D58H   LINE      CODE     ---       #844
      01003D5FH   LINE      CODE     ---       #845
      01003D91H   LINE      CODE     ---       #849
      01003D97H   LINE      CODE     ---       #850
      01003D9AH   LINE      CODE     ---       #851
      01003DA2H   LINE      CODE     ---       #852
      01003DA9H   LINE      CODE     ---       #853
      01003DDBH   LINE      CODE     ---       #857
      01003DE1H   LINE      CODE     ---       #858
      01003DE5H   LINE      CODE     ---       #859
      01003DF4H   LINE      CODE     ---       #860
      01003DFBH   LINE      CODE     ---       #861
      01003E2DH   LINE      CODE     ---       #865
LX51 LINKER/LOCATER V4.64.0.0                                                         04/06/2018  15:41:10  PAGE 51


      01003E33H   LINE      CODE     ---       #866
      01003E37H   LINE      CODE     ---       #867
      01003E46H   LINE      CODE     ---       #868
      01003E4DH   LINE      CODE     ---       #869
      01003E7FH   LINE      CODE     ---       #873
      01003E86H   LINE      CODE     ---       #874
      01003EB8H   LINE      CODE     ---       #876
      01003EBFH   LINE      CODE     ---       #877
      01003EF1H   LINE      CODE     ---       #879
      01003EF8H   LINE      CODE     ---       #880
      01003F2AH   LINE      CODE     ---       #882
      01003F4EH   LINE      CODE     ---       #883
      01003F57H   LINE      CODE     ---       #884
      01003F58H   LINE      CODE     ---       #887
      01003F58H   LINE      CODE     ---       #888
      01003F60H   LINE      CODE     ---       #889
      01003F61H   LINE      CODE     ---       #892
      01003F61H   LINE      CODE     ---       #893
      01003F69H   LINE      CODE     ---       #894
      01003F8AH   LINE      CODE     ---       #895
      01003FABH   LINE      CODE     ---       #896
      01003FCCH   LINE      CODE     ---       #897
      01003FCDH   LINE      CODE     ---       #898
      01003FCDH   LINE      CODE     ---       #899
      01003FEEH   LINE      CODE     ---       #900
      0100400FH   LINE      CODE     ---       #901
      01004030H   LINE      CODE     ---       #902
      01004030H   LINE      CODE     ---       #903
      01004031H   LINE      CODE     ---       #906
      01004031H   LINE      CODE     ---       #907
      01004039H   LINE      CODE     ---       #908
      0100405AH   LINE      CODE     ---       #909
      0100407BH   LINE      CODE     ---       #910
      0100409CH   LINE      CODE     ---       #911
      0100409DH   LINE      CODE     ---       #912
      0100409DH   LINE      CODE     ---       #913
      010040BEH   LINE      CODE     ---       #914
      010040DFH   LINE      CODE     ---       #915
      01004100H   LINE      CODE     ---       #916
      01004100H   LINE      CODE     ---       #918
      01004101H   LINE      CODE     ---       #921
      01004101H   LINE      CODE     ---       #922
      01004107H   LINE      CODE     ---       #923
      0100410EH   LINE      CODE     ---       #925
      01004113H   LINE      CODE     ---       #926
      01004114H   LINE      CODE     ---       #929
      01004114H   LINE      CODE     ---       #930
      0100411CH   LINE      CODE     ---       #931
      0100411DH   LINE      CODE     ---       #934
      0100411DH   LINE      CODE     ---       #935
      01004125H   LINE      CODE     ---       #936
      01004126H   LINE      CODE     ---       #939
      01004126H   LINE      CODE     ---       #940
      01004133H   LINE      CODE     ---       #941
      0100414DH   LINE      CODE     ---       #942
      01004151H   LINE      CODE     ---       #943
      01004151H   LINE      CODE     ---       #946
      01004151H   LINE      CODE     ---       #947
      0100415BH   LINE      CODE     ---       #948
      01004185H   LINE      CODE     ---       #949
      010041BBH   LINE      CODE     ---       #951
      010041C8H   LINE      CODE     ---       #952
      010041CCH   LINE      CODE     ---       #953
      010041CEH   LINE      CODE     ---       #954
      010041CFH   LINE      CODE     ---       #957
LX51 LINKER/LOCATER V4.64.0.0                                                         04/06/2018  15:41:10  PAGE 52


      010041CFH   LINE      CODE     ---       #958
      010041DCH   LINE      CODE     ---       #959
      0100420CH   LINE      CODE     ---       #960
      0100420CH   LINE      CODE     ---       #963
      0100420CH   LINE      CODE     ---       #964
      01004214H   LINE      CODE     ---       #965
      01004215H   LINE      CODE     ---       #968
      01004215H   LINE      CODE     ---       #969
      01004222H   LINE      CODE     ---       #970
      0100424EH   LINE      CODE     ---       #971
      0100427AH   LINE      CODE     ---       #973
      010042B0H   LINE      CODE     ---       #974
      010042E6H   LINE      CODE     ---       #975
      010042EBH   LINE      CODE     ---       #976
      010042EBH   LINE      CODE     ---       #979
      010042EBH   LINE      CODE     ---       #980
      010042FFH   LINE      CODE     ---       #981
      01004318H   LINE      CODE     ---       #982
      0100432CH   LINE      CODE     ---       #984
      01004340H   LINE      CODE     ---       #985
      0100435CH   LINE      CODE     ---       #986
      01004370H   LINE      CODE     ---       #988
      01004371H   LINE      CODE     ---       #991
      01004371H   LINE      CODE     ---       #992
      01004380H   LINE      CODE     ---       #993
      01004381H   LINE      CODE     ---       #996
      01004381H   LINE      CODE     ---       #997
      01004389H   LINE      CODE     ---       #998
      0100438AH   LINE      CODE     ---       #1001
      0100438AH   LINE      CODE     ---       #1002
      01004399H   LINE      CODE     ---       #1003
      010043A8H   LINE      CODE     ---       #1004
      010043A9H   LINE      CODE     ---       #1007
      010043A9H   LINE      CODE     ---       #1008
      010043BDH   LINE      CODE     ---       #1009
      010043D1H   LINE      CODE     ---       #1010
      010043D2H   LINE      CODE     ---       #1013
      010043D2H   LINE      CODE     ---       #1014
      010043DAH   LINE      CODE     ---       #1015
      010043DBH   LINE      CODE     ---       #1018
      010043DBH   LINE      CODE     ---       #1019
      010043E3H   LINE      CODE     ---       #1020
      010043E5H   LINE      CODE     ---       #1021
      010043EBH   LINE      CODE     ---       #1022
      010043ECH   LINE      CODE     ---       #1023
      010043F1H   LINE      CODE     ---       #1024
      010043F1H   LINE      CODE     ---       #1025
      010043F2H   LINE      CODE     ---       #1028
      010043F2H   LINE      CODE     ---       #1029
      010043FAH   LINE      CODE     ---       #1030
      010043FBH   LINE      CODE     ---       #1033
      010043FBH   LINE      CODE     ---       #1034
      01004403H   LINE      CODE     ---       #1035
      01004404H   LINE      CODE     ---       #1037
      01004404H   LINE      CODE     ---       #1038
      0100440CH   LINE      CODE     ---       #1039
      0100440DH   LINE      CODE     ---       #1041
      0100440DH   LINE      CODE     ---       #1042
      01004421H   LINE      CODE     ---       #1043
      0100443EH   LINE      CODE     ---       #1044
      0100443FH   LINE      CODE     ---       #1046
      0100443FH   LINE      CODE     ---       #1047
      01004453H   LINE      CODE     ---       #1048
      01004454H   LINE      CODE     ---       #1050
      01004454H   LINE      CODE     ---       #1051
LX51 LINKER/LOCATER V4.64.0.0                                                         04/06/2018  15:41:10  PAGE 53


      01004468H   LINE      CODE     ---       #1052
      01004486H   LINE      CODE     ---       #1053
      01004487H   LINE      CODE     ---       #1055
      01004487H   LINE      CODE     ---       #1056
      0100449BH   LINE      CODE     ---       #1057
      0100449CH   LINE      CODE     ---       #1059
      0100449CH   LINE      CODE     ---       #1060
      010044A9H   LINE      CODE     ---       #1061
      010044D9H   LINE      CODE     ---       #1062
      010044D9H   LINE      CODE     ---       #1064
      010044D9H   LINE      CODE     ---       #1065
      010044E1H   LINE      CODE     ---       #1066
      010044E3H   LINE      CODE     ---       #1067
      010044E9H   LINE      CODE     ---       #1068
      010044EAH   LINE      CODE     ---       #1069
      010044EFH   LINE      CODE     ---       #1070
      010044EFH   LINE      CODE     ---       #1071
      010044F0H   LINE      CODE     ---       #1073
      010044F0H   LINE      CODE     ---       #1074
      010044F8H   LINE      CODE     ---       #1075
      010044FAH   LINE      CODE     ---       #1076
      01004500H   LINE      CODE     ---       #1077
      01004501H   LINE      CODE     ---       #1078
      01004506H   LINE      CODE     ---       #1079
      01004506H   LINE      CODE     ---       #1080
      01004507H   LINE      CODE     ---       #1082
      01004507H   LINE      CODE     ---       #1083
      0100450FH   LINE      CODE     ---       #1084
      01004511H   LINE      CODE     ---       #1085
      01004517H   LINE      CODE     ---       #1086
      01004518H   LINE      CODE     ---       #1087
      0100451DH   LINE      CODE     ---       #1088
      0100451DH   LINE      CODE     ---       #1089
      0100451EH   LINE      CODE     ---       #1091
      0100451EH   LINE      CODE     ---       #1092
      01004532H   LINE      CODE     ---       #1093
      01004533H   LINE      CODE     ---       #1095
      01004533H   LINE      CODE     ---       #1096
      01004542H   LINE      CODE     ---       #1097
      01004543H   LINE      CODE     ---       #1099
      01004543H   LINE      CODE     ---       #1100
      01004552H   LINE      CODE     ---       #1101
      01004553H   LINE      CODE     ---       #1103
      01004553H   LINE      CODE     ---       #1104
      01004567H   LINE      CODE     ---       #1105
      01004568H   LINE      CODE     ---       #1107
      01004568H   LINE      CODE     ---       #1108
      0100457CH   LINE      CODE     ---       #1109
      0100457DH   LINE      CODE     ---       #1111
      0100457DH   LINE      CODE     ---       #1112
      01004585H   LINE      CODE     ---       #1113
      01004586H   LINE      CODE     ---       #1115
      01004586H   LINE      CODE     ---       #1116
      0100458EH   LINE      CODE     ---       #1117
      0100458FH   LINE      CODE     ---       #1119
      0100458FH   LINE      CODE     ---       #1120
      01004597H   LINE      CODE     ---       #1121
      01004598H   LINE      CODE     ---       #1124
      01004598H   LINE      CODE     ---       #1125
      010045A7H   LINE      CODE     ---       #1126
      010045A8H   LINE      CODE     ---       #1129
      010045A8H   LINE      CODE     ---       #1130
      010045B7H   LINE      CODE     ---       #1131
      010045B7H   LINE      CODE     ---       #1132
      010045B7H   LINE      CODE     ---       #1133
LX51 LINKER/LOCATER V4.64.0.0                                                         04/06/2018  15:41:10  PAGE 54


      ---         BLOCKEND  ---      ---       LVL=0

      0100D93AH   BLOCK     CODE     ---       LVL=0
      0100D93AH   BLOCK     CODE     NEAR LAB  LVL=1
      0000002CH   SYMBOL    DATA     BYTE      i
      ---         BLOCKEND  ---      ---       LVL=1
      0100D93AH   LINE      CODE     ---       #1139
      0100D93AH   LINE      CODE     ---       #1140
      0100D93AH   LINE      CODE     ---       #1143
      0100D944H   LINE      CODE     ---       #1144
      0100D96EH   LINE      CODE     ---       #1145
      0100D9A4H   LINE      CODE     ---       #1147
      0100D9B1H   LINE      CODE     ---       #1148
      0100D9B5H   LINE      CODE     ---       #1149
      0100D9B7H   LINE      CODE     ---       #1151
      0100D9BCH   LINE      CODE     ---       #1152
      ---         BLOCKEND  ---      ---       LVL=0

      01006234H   BLOCK     CODE     ---       LVL=0
      020006C6H   SYMBOL    XDATA    ---       info_string
      0100623FH   BLOCK     CODE     NEAR LAB  LVL=1
      020006C9H   SYMBOL    XDATA    INT       i
      0100624AH   BLOCK     CODE     NEAR LAB  LVL=2
      020006CBH   SYMBOL    XDATA    ---       str
      ---         BLOCKEND  ---      ---       LVL=2
      ---         BLOCKEND  ---      ---       LVL=1
      01006234H   LINE      CODE     ---       #1158
      0100623FH   LINE      CODE     ---       #1159
      0100623FH   LINE      CODE     ---       #1161
      0100624AH   LINE      CODE     ---       #1163
      01006262H   LINE      CODE     ---       #1164
      0100627EH   LINE      CODE     ---       #1165
      0100629AH   LINE      CODE     ---       #1166
      010062B6H   LINE      CODE     ---       #1167
      010062D2H   LINE      CODE     ---       #1169
      010062EEH   LINE      CODE     ---       #1170
      01006312H   LINE      CODE     ---       #1171
      0100632EH   LINE      CODE     ---       #1172
      0100634AH   LINE      CODE     ---       #1173
      01006351H   LINE      CODE     ---       #1174
      0100636FH   LINE      CODE     ---       #1176
      0100638BH   LINE      CODE     ---       #1178
      010063AFH   LINE      CODE     ---       #1179
      010063CBH   LINE      CODE     ---       #1180
      010063E7H   LINE      CODE     ---       #1182
      01006403H   LINE      CODE     ---       #1183
      0100641FH   LINE      CODE     ---       #1185
      01006426H   LINE      CODE     ---       #1186
      01006444H   LINE      CODE     ---       #1187
      01006444H   LINE      CODE     ---       #1188
      0100644BH   LINE      CODE     ---       #1189
      01006469H   LINE      CODE     ---       #1191
      01006485H   LINE      CODE     ---       #1192
      01006485H   LINE      CODE     ---       #1194
      010064A0H   LINE      CODE     ---       #1195
      010064A8H   LINE      CODE     ---       #1196
      010064E8H   LINE      CODE     ---       #1197
      01006504H   LINE      CODE     ---       #1198
      01006507H   LINE      CODE     ---       #1199
      01006507H   LINE      CODE     ---       #1200
      0100650FH   LINE      CODE     ---       #1201
      0100654FH   LINE      CODE     ---       #1202
      0100656BH   LINE      CODE     ---       #1203
      0100656DH   LINE      CODE     ---       #1204
      0100656DH   LINE      CODE     ---       #1205
LX51 LINKER/LOCATER V4.64.0.0                                                         04/06/2018  15:41:10  PAGE 55


      010065C3H   LINE      CODE     ---       #1206
      010065DFH   LINE      CODE     ---       #1207
      010065DFH   LINE      CODE     ---       #1208
      010065DFH   LINE      CODE     ---       #1209
      010065F0H   LINE      CODE     ---       #1210
      0100660CH   LINE      CODE     ---       #1211
      01006628H   LINE      CODE     ---       #1213
      0100663FH   LINE      CODE     ---       #1214
      01006647H   LINE      CODE     ---       #1215
      0100665EH   LINE      CODE     ---       #1216
      01006660H   LINE      CODE     ---       #1217
      01006677H   LINE      CODE     ---       #1218
      01006677H   LINE      CODE     ---       #1219
      01006693H   LINE      CODE     ---       #1221
      010066AFH   LINE      CODE     ---       #1222
      010066CBH   LINE      CODE     ---       #1223
      010066E6H   LINE      CODE     ---       #1225
      0100674FH   LINE      CODE     ---       #1226
      0100676BH   LINE      CODE     ---       #1227
      01006787H   LINE      CODE     ---       #1228
      01006798H   LINE      CODE     ---       #1230
      010067C3H   LINE      CODE     ---       #1231
      010067DFH   LINE      CODE     ---       #1232
      010067FBH   LINE      CODE     ---       #1234
      01006826H   LINE      CODE     ---       #1235
      01006842H   LINE      CODE     ---       #1236
      0100685EH   LINE      CODE     ---       #1238
      01006889H   LINE      CODE     ---       #1239
      010068A5H   LINE      CODE     ---       #1240
      010068C1H   LINE      CODE     ---       #1243
      010068DDH   LINE      CODE     ---       #1245
      010068F9H   LINE      CODE     ---       #1246
      01006904H   LINE      CODE     ---       #1247
      0100693DH   LINE      CODE     ---       #1248
      01006959H   LINE      CODE     ---       #1249
      01006992H   LINE      CODE     ---       #1250
      010069AEH   LINE      CODE     ---       #1251
      010069E7H   LINE      CODE     ---       #1252
      01006A03H   LINE      CODE     ---       #1253
      01006A06H   LINE      CODE     ---       #1254
      01006A06H   LINE      CODE     ---       #1255
      01006A3FH   LINE      CODE     ---       #1256
      01006A5BH   LINE      CODE     ---       #1257
      01006A94H   LINE      CODE     ---       #1258
      01006AB0H   LINE      CODE     ---       #1259
      01006AE9H   LINE      CODE     ---       #1260
      01006B05H   LINE      CODE     ---       #1261
      01006B05H   LINE      CODE     ---       #1263
      01006B21H   LINE      CODE     ---       #1264
      01006B2CH   LINE      CODE     ---       #1265
      01006B65H   LINE      CODE     ---       #1266
      01006B81H   LINE      CODE     ---       #1267
      01006BBAH   LINE      CODE     ---       #1268
      01006BD6H   LINE      CODE     ---       #1269
      01006C0FH   LINE      CODE     ---       #1270
      01006C2BH   LINE      CODE     ---       #1271
      01006C2EH   LINE      CODE     ---       #1272
      01006C2EH   LINE      CODE     ---       #1273
      01006C67H   LINE      CODE     ---       #1274
      01006C83H   LINE      CODE     ---       #1275
      01006CBCH   LINE      CODE     ---       #1276
      01006CD8H   LINE      CODE     ---       #1277
      01006D11H   LINE      CODE     ---       #1278
      01006D2DH   LINE      CODE     ---       #1279
      01006D2DH   LINE      CODE     ---       #1281
LX51 LINKER/LOCATER V4.64.0.0                                                         04/06/2018  15:41:10  PAGE 56


      01006D49H   LINE      CODE     ---       #1284
      01006D50H   LINE      CODE     ---       #1285
      01006D6CH   LINE      CODE     ---       #1286
      01006D6EH   LINE      CODE     ---       #1287
      01006D8AH   LINE      CODE     ---       #1288
      01006D8AH   LINE      CODE     ---       #1290
      01006DB2H   LINE      CODE     ---       #1291
      01006DB2H   LINE      CODE     ---       #1292
      01006DCEH   LINE      CODE     ---       #1293
      01006DD1H   LINE      CODE     ---       #1294
      01006DD1H   LINE      CODE     ---       #1295
      01006DEDH   LINE      CODE     ---       #1296
      01006DF0H   LINE      CODE     ---       #1297
      01006DF0H   LINE      CODE     ---       #1298
      01006E0CH   LINE      CODE     ---       #1299
      01006E0EH   LINE      CODE     ---       #1300
      01006E0EH   LINE      CODE     ---       #1301
      01006E2AH   LINE      CODE     ---       #1302
      01006E2CH   LINE      CODE     ---       #1303
      01006E2CH   LINE      CODE     ---       #1304
      01006E48H   LINE      CODE     ---       #1305
      01006E4AH   LINE      CODE     ---       #1306
      01006E4AH   LINE      CODE     ---       #1307
      01006E66H   LINE      CODE     ---       #1308
      01006E68H   LINE      CODE     ---       #1309
      01006E68H   LINE      CODE     ---       #1310
      01006E84H   LINE      CODE     ---       #1311
      01006E84H   LINE      CODE     ---       #1312
      01006E84H   LINE      CODE     ---       #1314
      01006E95H   LINE      CODE     ---       #1315
      01006E95H   LINE      CODE     ---       #1316
      01006EB1H   LINE      CODE     ---       #1317
      01006EB3H   LINE      CODE     ---       #1318
      01006EB3H   LINE      CODE     ---       #1319
      01006ECFH   LINE      CODE     ---       #1320
      01006ED1H   LINE      CODE     ---       #1321
      01006ED1H   LINE      CODE     ---       #1322
      01006EEDH   LINE      CODE     ---       #1323
      01006EEFH   LINE      CODE     ---       #1324
      01006EEFH   LINE      CODE     ---       #1325
      01006F0BH   LINE      CODE     ---       #1326
      01006F0BH   LINE      CODE     ---       #1327
      01006F0BH   LINE      CODE     ---       #1328
      01006F0BH   LINE      CODE     ---       #1329
      01006F0BH   LINE      CODE     ---       #1331
      01006F11H   LINE      CODE     ---       #1332
      01006F2DH   LINE      CODE     ---       #1333
      01006F2FH   LINE      CODE     ---       #1334
      01006F4BH   LINE      CODE     ---       #1335
      01006F4BH   LINE      CODE     ---       #1337
      01006F71H   LINE      CODE     ---       #1338
      01006F8DH   LINE      CODE     ---       #1342
      01006FA9H   LINE      CODE     ---       #1343
      01006FC4H   LINE      CODE     ---       #1344
      01007003H   LINE      CODE     ---       #1345
      0100701FH   LINE      CODE     ---       #1346
      0100703BH   LINE      CODE     ---       #1347
      0100704CH   LINE      CODE     ---       #1350
      01007068H   LINE      CODE     ---       #1351
      01007083H   LINE      CODE     ---       #1352
      010070EAH   LINE      CODE     ---       #1353
      01007106H   LINE      CODE     ---       #1354
      01007122H   LINE      CODE     ---       #1355
      01007133H   LINE      CODE     ---       #1357
      0100714FH   LINE      CODE     ---       #1358
LX51 LINKER/LOCATER V4.64.0.0                                                         04/06/2018  15:41:10  PAGE 57


      0100716AH   LINE      CODE     ---       #1359
      010071BBH   LINE      CODE     ---       #1360
      010071D7H   LINE      CODE     ---       #1361
      010071F3H   LINE      CODE     ---       #1362
      01007204H   LINE      CODE     ---       #1364
      01007220H   LINE      CODE     ---       #1365
      01007273H   LINE      CODE     ---       #1366
      0100728FH   LINE      CODE     ---       #1367
      010072E2H   LINE      CODE     ---       #1368
      010072FEH   LINE      CODE     ---       #1369
      0100731AH   LINE      CODE     ---       #1372
      0100733EH   LINE      CODE     ---       #1373
      0100735AH   LINE      CODE     ---       #1374
      01007376H   LINE      CODE     ---       #1376
      01007391H   LINE      CODE     ---       #1378
      010073F8H   LINE      CODE     ---       #1379
      01007414H   LINE      CODE     ---       #1382
      01007468H   LINE      CODE     ---       #1383
      01007484H   LINE      CODE     ---       #1384
      01007495H   LINE      CODE     ---       #1386
      010074D2H   LINE      CODE     ---       #1387
      010074EEH   LINE      CODE     ---       #1388
      0100750AH   LINE      CODE     ---       #1390
      01007530H   LINE      CODE     ---       #1391
      0100754CH   LINE      CODE     ---       #1392
      01007568H   LINE      CODE     ---       #1394
      0100758EH   LINE      CODE     ---       #1395
      010075AAH   LINE      CODE     ---       #1396
      010075C6H   LINE      CODE     ---       #1397
      010075ECH   LINE      CODE     ---       #1398
      01007608H   LINE      CODE     ---       #1399
      01007624H   LINE      CODE     ---       #1401
      01007659H   LINE      CODE     ---       #1402
      01007675H   LINE      CODE     ---       #1403
      01007691H   LINE      CODE     ---       #1405
      010076D0H   LINE      CODE     ---       #1406
      010076ECH   LINE      CODE     ---       #1407
      01007708H   LINE      CODE     ---       #1409
      0100770EH   LINE      CODE     ---       #1410
      0100772AH   LINE      CODE     ---       #1411
      0100772CH   LINE      CODE     ---       #1412
      01007748H   LINE      CODE     ---       #1413
      01007748H   LINE      CODE     ---       #1415
      0100776CH   LINE      CODE     ---       #1416
      01007788H   LINE      CODE     ---       #1417
      010077A4H   LINE      CODE     ---       #1419
      010077CFH   LINE      CODE     ---       #1420
      010077EBH   LINE      CODE     ---       #1421
      01007807H   LINE      CODE     ---       #1423
      0100783CH   LINE      CODE     ---       #1424
      01007858H   LINE      CODE     ---       #1425
      01007874H   LINE      CODE     ---       #1427
      010078AAH   LINE      CODE     ---       #1428
      010078C6H   LINE      CODE     ---       #1429
      010078E2H   LINE      CODE     ---       #1431
      0100790DH   LINE      CODE     ---       #1432
      01007929H   LINE      CODE     ---       #1433
      01007945H   LINE      CODE     ---       #1435
      0100794BH   LINE      CODE     ---       #1436
      01007967H   LINE      CODE     ---       #1437
      01007969H   LINE      CODE     ---       #1438
      01007985H   LINE      CODE     ---       #1439
      01007985H   LINE      CODE     ---       #1441
      0100798BH   LINE      CODE     ---       #1442
      010079A7H   LINE      CODE     ---       #1443
LX51 LINKER/LOCATER V4.64.0.0                                                         04/06/2018  15:41:10  PAGE 58


      010079A9H   LINE      CODE     ---       #1444
      010079C5H   LINE      CODE     ---       #1445
      010079C5H   LINE      CODE     ---       #1447
      010079CBH   LINE      CODE     ---       #1448
      010079E7H   LINE      CODE     ---       #1449
      010079E9H   LINE      CODE     ---       #1450
      01007A05H   LINE      CODE     ---       #1451
      01007A05H   LINE      CODE     ---       #1453
      01007A49H   LINE      CODE     ---       #1454
      01007A65H   LINE      CODE     ---       #1455
      01007A81H   LINE      CODE     ---       #1456
      01007A81H   LINE      CODE     ---       #1457
      ---         BLOCKEND  ---      ---       LVL=0

      0100D605H   BLOCK     CODE     ---       LVL=0
      02000030H   SYMBOL    XDATA    ---       packet_data
      02000033H   SYMBOL    XDATA    WORD      packet_lenght
      02000035H   SYMBOL    XDATA    BYTE      old_id
      0100D616H   BLOCK     CODE     NEAR LAB  LVL=1
      00000030H   SYMBOL    DATA     WORD      index
      ---         BLOCKEND  ---      ---       LVL=1
      0100D605H   LINE      CODE     ---       #1463
      0100D616H   LINE      CODE     ---       #1464
      0100D616H   LINE      CODE     ---       #1468
      0100D61BH   LINE      CODE     ---       #1469
      0100D620H   LINE      CODE     ---       #1472
      0100D628H   LINE      CODE     ---       #1477
      0100D632H   LINE      CODE     ---       #1479
      0100D646H   LINE      CODE     ---       #1480
      0100D65EH   LINE      CODE     ---       #1481
      0100D668H   LINE      CODE     ---       #1483
      0100D66DH   LINE      CODE     ---       #1485
      0100D687H   LINE      CODE     ---       #1487
      0100D68CH   LINE      CODE     ---       #1488
      0100D691H   LINE      CODE     ---       #1489
      ---         BLOCKEND  ---      ---       LVL=0

      0100D692H   BLOCK     CODE     ---       LVL=0
      02000ED1H   SYMBOL    XDATA    ---       packet_data
      02000ED4H   SYMBOL    XDATA    WORD      packet_lenght
      0100D6A3H   BLOCK     CODE     NEAR LAB  LVL=1
      0000004DH   SYMBOL    DATA     WORD      index
      ---         BLOCKEND  ---      ---       LVL=1
      0100D692H   LINE      CODE     ---       #1491
      0100D6A3H   LINE      CODE     ---       #1492
      0100D6A3H   LINE      CODE     ---       #1496
      0100D6A8H   LINE      CODE     ---       #1497
      0100D6ADH   LINE      CODE     ---       #1499
      0100D6B5H   LINE      CODE     ---       #1501
      0100D6BFH   LINE      CODE     ---       #1503
      0100D6D3H   LINE      CODE     ---       #1504
      0100D6EBH   LINE      CODE     ---       #1505
      0100D6F5H   LINE      CODE     ---       #1507
      0100D6FAH   LINE      CODE     ---       #1509
      0100D714H   LINE      CODE     ---       #1511
      0100D719H   LINE      CODE     ---       #1512
      0100D71EH   LINE      CODE     ---       #1513
      ---         BLOCKEND  ---      ---       LVL=0

      0100D05DH   BLOCK     CODE     ---       LVL=0
      0100D05DH   BLOCK     CODE     NEAR LAB  LVL=1
      0200000AH   SYMBOL    XDATA    ---       packet_data
      00000007H   SYMBOL    DATA     BYTE      packet_lenght
      02000014H   SYMBOL    XDATA    LONG      aux_val
      02000018H   SYMBOL    XDATA    DWORD     t_start
LX51 LINKER/LOCATER V4.64.0.0                                                         04/06/2018  15:41:10  PAGE 59


      0200001CH   SYMBOL    XDATA    DWORD     t_end
      ---         BLOCKEND  ---      ---       LVL=1
      0100D05DH   LINE      CODE     ---       #1519
      0100D05DH   LINE      CODE     ---       #1520
      0100D05DH   LINE      CODE     ---       #1523
      0100D068H   LINE      CODE     ---       #1526
      0100D06AH   LINE      CODE     ---       #1527
      0100D070H   LINE      CODE     ---       #1528
      0100D072H   LINE      CODE     ---       #1529
      0100D087H   LINE      CODE     ---       #1531
      0100D090H   LINE      CODE     ---       #1532
      0100D098H   LINE      CODE     ---       #1533
      0100D09BH   LINE      CODE     ---       #1534
      0100D09DH   LINE      CODE     ---       #1535
      0100D0A0H   LINE      CODE     ---       #1536
      0100D0A0H   LINE      CODE     ---       #1538
      0100D0A9H   LINE      CODE     ---       #1539
      0100D0DEH   LINE      CODE     ---       #1540
      0100D0E3H   LINE      CODE     ---       #1541
      0100D0E3H   LINE      CODE     ---       #1542
      0100D0E3H   LINE      CODE     ---       #1543
      0100D0E3H   LINE      CODE     ---       #1545
      0100D0E9H   LINE      CODE     ---       #1546
      0100D0FDH   LINE      CODE     ---       #1548
      0100D11AH   LINE      CODE     ---       #1549
      0100D11AH   LINE      CODE     ---       #1551
      0100D128H   LINE      CODE     ---       #1552
      ---         BLOCKEND  ---      ---       LVL=0

      0100D9BDH   BLOCK     CODE     ---       LVL=0
      02000020H   SYMBOL    XDATA    ---       packet_data
      02000023H   SYMBOL    XDATA    WORD      packet_lenght
      02000025H   SYMBOL    XDATA    BYTE      id
      0100D9CEH   BLOCK     CODE     NEAR LAB  LVL=1
      0000001EH   SYMBOL    DATA     WORD      i
      ---         BLOCKEND  ---      ---       LVL=1
      0100D9BDH   LINE      CODE     ---       #1558
      0100D9CEH   LINE      CODE     ---       #1559
      0100D9CEH   LINE      CODE     ---       #1563
      0100D9D3H   LINE      CODE     ---       #1564
      0100D9D8H   LINE      CODE     ---       #1566
      0100D9E0H   LINE      CODE     ---       #1568
      0100D9EAH   LINE      CODE     ---       #1570
      0100D9FEH   LINE      CODE     ---       #1571
      0100DA16H   LINE      CODE     ---       #1572
      0100DA20H   LINE      CODE     ---       #1574
      0100DA25H   LINE      CODE     ---       #1576
      0100DA3FH   LINE      CODE     ---       #1577
      ---         BLOCKEND  ---      ---       LVL=0

      0100D55BH   BLOCK     CODE     ---       LVL=0
      0100D55BH   BLOCK     CODE     NEAR LAB  LVL=1
      02000002H   SYMBOL    XDATA    ---       packet_data
      02000008H   SYMBOL    XDATA    BYTE      packet_lenght
      ---         BLOCKEND  ---      ---       LVL=1
      0100D55BH   LINE      CODE     ---       #1583
      0100D55BH   LINE      CODE     ---       #1588
      0100D57DH   LINE      CODE     ---       #1593
      0100D57DH   LINE      CODE     ---       #1594
      0100D583H   LINE      CODE     ---       #1596
      0100D583H   LINE      CODE     ---       #1598
      0100D59EH   LINE      CODE     ---       #1599
      0100D5A4H   LINE      CODE     ---       #1601
      0100D5A4H   LINE      CODE     ---       #1605
      0100D5AAH   LINE      CODE     ---       #1606
LX51 LINKER/LOCATER V4.64.0.0                                                         04/06/2018  15:41:10  PAGE 60


      0100D5C9H   LINE      CODE     ---       #1607
      0100D5CEH   LINE      CODE     ---       #1608
      0100D5D4H   LINE      CODE     ---       #1609
      0100D5EFH   LINE      CODE     ---       #1610
      0100D604H   LINE      CODE     ---       #1612
      ---         BLOCKEND  ---      ---       LVL=0

      0100C1A4H   BLOCK     CODE     ---       LVL=0
      0100C1A4H   BLOCK     CODE     NEAR LAB  LVL=1
      00000023H   SYMBOL    DATA     ---       packet_data
      00000007H   SYMBOL    DATA     BYTE      packet_length
      00000006H   SYMBOL    DATA     INT       curr_diff
      02000002H   SYMBOL    XDATA    LONG      aux_val
      02000006H   SYMBOL    XDATA    LONG      aux_p1
      0200000AH   SYMBOL    XDATA    LONG      aux_p2
      0200000EH   SYMBOL    XDATA    DWORD     t_start
      02000012H   SYMBOL    XDATA    DWORD     t_end
      ---         BLOCKEND  ---      ---       LVL=1
      0100C1A4H   LINE      CODE     ---       #1620
      0100C1A4H   LINE      CODE     ---       #1628
      0100C1A6H   LINE      CODE     ---       #1629
      0100C1A9H   LINE      CODE     ---       #1630
      0100C1ACH   LINE      CODE     ---       #1631
      0100C1C1H   LINE      CODE     ---       #1633
      0100C1CAH   LINE      CODE     ---       #1634
      0100C1D2H   LINE      CODE     ---       #1635
      0100C1D5H   LINE      CODE     ---       #1636
      0100C1D7H   LINE      CODE     ---       #1637
      0100C1DAH   LINE      CODE     ---       #1638
      0100C1DAH   LINE      CODE     ---       #1639
      0100C1E3H   LINE      CODE     ---       #1640
      0100C218H   LINE      CODE     ---       #1641
      0100C21DH   LINE      CODE     ---       #1642
      0100C21DH   LINE      CODE     ---       #1643
      0100C21DH   LINE      CODE     ---       #1645
      0100C21DH   LINE      CODE     ---       #1647
      0100C225H   LINE      CODE     ---       #1650
      0100C238H   LINE      CODE     ---       #1651
      0100C23DH   LINE      CODE     ---       #1653
      0100C250H   LINE      CODE     ---       #1654
      0100C255H   LINE      CODE     ---       #1656
      0100C264H   LINE      CODE     ---       #1658
      0100C29BH   LINE      CODE     ---       #1660
      0100C2BBH   LINE      CODE     ---       #1661
      0100C2D8H   LINE      CODE     ---       #1664
      0100C2DBH   LINE      CODE     ---       #1665
      0100C2F2H   LINE      CODE     ---       #1666
      0100C307H   LINE      CODE     ---       #1667
      0100C314H   LINE      CODE     ---       #1668
      0100C329H   LINE      CODE     ---       #1670
      ---         BLOCKEND  ---      ---       LVL=0

      0100DFB9H   BLOCK     CODE     ---       LVL=0
      0100DFB9H   BLOCK     CODE     NEAR LAB  LVL=1
      02000002H   SYMBOL    XDATA    LONG      aux_p1
      02000006H   SYMBOL    XDATA    LONG      aux_p2
      00000023H   SYMBOL    DATA     ---       packet_data
      ---         BLOCKEND  ---      ---       LVL=1
      0100DFB9H   LINE      CODE     ---       #1677
      0100DFB9H   LINE      CODE     ---       #1682
      0100DFC2H   LINE      CODE     ---       #1683
      0100DFD4H   LINE      CODE     ---       #1686
      0100DFD7H   LINE      CODE     ---       #1687
      0100DFF2H   LINE      CODE     ---       #1688
      0100E00DH   LINE      CODE     ---       #1689
LX51 LINKER/LOCATER V4.64.0.0                                                         04/06/2018  15:41:10  PAGE 61


      0100E01AH   LINE      CODE     ---       #1690
      0100E02FH   LINE      CODE     ---       #1692
      ---         BLOCKEND  ---      ---       LVL=0

      0100E460H   BLOCK     CODE     ---       LVL=0
      0100E460H   BLOCK     CODE     NEAR LAB  LVL=1
      02000002H   SYMBOL    XDATA    ---       packet_data
      0200000CH   SYMBOL    XDATA    BYTE      packet_lenght
      ---         BLOCKEND  ---      ---       LVL=1
      0100E460H   LINE      CODE     ---       #1698
      0100E460H   LINE      CODE     ---       #1703
      0100E478H   LINE      CODE     ---       #1706
      0100E478H   LINE      CODE     ---       #1707
      0100E47EH   LINE      CODE     ---       #1709
      0100E47EH   LINE      CODE     ---       #1712
      0100E484H   LINE      CODE     ---       #1714
      0100E489H   LINE      CODE     ---       #1715
      0100E48FH   LINE      CODE     ---       #1716
      0100E4AAH   LINE      CODE     ---       #1718
      0100E4B7H   LINE      CODE     ---       #1720
      ---         BLOCKEND  ---      ---       LVL=0

      0100EC0BH   BLOCK     CODE     ---       LVL=0
      02000ED1H   SYMBOL    XDATA    ---       data_array
      00000005H   SYMBOL    DATA     BYTE      data_length
      0100EC16H   BLOCK     CODE     NEAR LAB  LVL=1
      0000004DH   SYMBOL    DATA     BYTE      i
      0000004EH   SYMBOL    DATA     BYTE      checksum
      ---         BLOCKEND  ---      ---       LVL=1
      0100EC0BH   LINE      CODE     ---       #1728
      0100EC16H   LINE      CODE     ---       #1731
      0100EC19H   LINE      CODE     ---       #1733
      0100EC21H   LINE      CODE     ---       #1734
      0100EC3AH   LINE      CODE     ---       #1736
      0100EC3CH   LINE      CODE     ---       #1737
      ---         BLOCKEND  ---      ---       LVL=0

      0100F039H   BLOCK     CODE     ---       LVL=0
      00000007H   SYMBOL    DATA     BYTE      value
      0100F039H   BLOCK     CODE     NEAR LAB  LVL=1
      00000004H   SYMBOL    DATA     INT       packet_lenght
      02000030H   SYMBOL    XDATA    ---       packet_data
      ---         BLOCKEND  ---      ---       LVL=1
      0100F039H   LINE      CODE     ---       #1744
      0100F039H   LINE      CODE     ---       #1745
      0100F03DH   LINE      CODE     ---       #1748
      0100F042H   LINE      CODE     ---       #1749
      0100F044H   LINE      CODE     ---       #1751
      0100F04DH   LINE      CODE     ---       #1752
      ---         BLOCKEND  ---      ---       LVL=0

      0100D129H   BLOCK     CODE     ---       LVL=0
      02000030H   SYMBOL    XDATA    INT       displacement
      0100D131H   BLOCK     CODE     NEAR LAB  LVL=1
      02000032H   SYMBOL    XDATA    INT       i
      00000007H   SYMBOL    DATA     BYTE      writeStatus
      02000034H   SYMBOL    XDATA    INT       pages
      02000036H   SYMBOL    XDATA    BYTE      ret_val
      ---         BLOCKEND  ---      ---       LVL=1
      0100D129H   LINE      CODE     ---       #1759
      0100D131H   LINE      CODE     ---       #1760
      0100D131H   LINE      CODE     ---       #1764
      0100D137H   LINE      CODE     ---       #1767
      0100D13AH   LINE      CODE     ---       #1770
      0100D13FH   LINE      CODE     ---       #1771
LX51 LINKER/LOCATER V4.64.0.0                                                         04/06/2018  15:41:10  PAGE 62


      0100D144H   LINE      CODE     ---       #1774
      0100D147H   LINE      CODE     ---       #1776
      0100D15AH   LINE      CODE     ---       #1778
      0100D163H   LINE      CODE     ---       #1780
      0100D186H   LINE      CODE     ---       #1781
      0100D1ABH   LINE      CODE     ---       #1782
      0100D1AEH   LINE      CODE     ---       #1783
      0100D1B3H   LINE      CODE     ---       #1784
      0100D1B5H   LINE      CODE     ---       #1785
      0100D1B5H   LINE      CODE     ---       #1786
      0100D1C5H   LINE      CODE     ---       #1788
      0100D1D8H   LINE      CODE     ---       #1791
      0100D1DBH   LINE      CODE     ---       #1793
      0100D1E0H   LINE      CODE     ---       #1794
      ---         BLOCKEND  ---      ---       LVL=0

      0100E655H   BLOCK     CODE     ---       LVL=0
      0100E655H   BLOCK     CODE     NEAR LAB  LVL=1
      00000006H   SYMBOL    DATA     WORD      i
      ---         BLOCKEND  ---      ---       LVL=1
      0100E655H   LINE      CODE     ---       #1802
      0100E655H   LINE      CODE     ---       #1803
      0100E655H   LINE      CODE     ---       #1806
      0100E661H   LINE      CODE     ---       #1807
      0100E67DH   LINE      CODE     ---       #1808
      0100E684H   LINE      CODE     ---       #1811
      0100E68AH   LINE      CODE     ---       #1812
      0100E68DH   LINE      CODE     ---       #1813
      0100E68EH   LINE      CODE     ---       #1814
      0100E6A1H   LINE      CODE     ---       #1815
      0100E6A1H   LINE      CODE     ---       #1816
      ---         BLOCKEND  ---      ---       LVL=0

      0100E780H   BLOCK     CODE     ---       LVL=0
      0100E780H   BLOCK     CODE     NEAR LAB  LVL=1
      00000006H   SYMBOL    DATA     WORD      i
      ---         BLOCKEND  ---      ---       LVL=1
      0100E780H   LINE      CODE     ---       #1824
      0100E780H   LINE      CODE     ---       #1827
      0100E78CH   LINE      CODE     ---       #1828
      0100E7B0H   LINE      CODE     ---       #1829
      0100E7B7H   LINE      CODE     ---       #1832
      0100E7BDH   LINE      CODE     ---       #1833
      0100E7C1H   LINE      CODE     ---       #1834
      0100E7C1H   LINE      CODE     ---       #1835
      0100E7C7H   LINE      CODE     ---       #1836
      0100E7C7H   LINE      CODE     ---       #1837
      ---         BLOCKEND  ---      ---       LVL=0

      0100B660H   BLOCK     CODE     ---       LVL=0
      0100B660H   BLOCK     CODE     NEAR LAB  LVL=1
      00000003H   SYMBOL    DATA     BYTE      i
      ---         BLOCKEND  ---      ---       LVL=1
      0100B660H   LINE      CODE     ---       #1843
      0100B660H   LINE      CODE     ---       #1844
      0100B660H   LINE      CODE     ---       #1848
      0100B666H   LINE      CODE     ---       #1850
      0100B671H   LINE      CODE     ---       #1851
      0100B67CH   LINE      CODE     ---       #1852
      0100B689H   LINE      CODE     ---       #1853
      0100B695H   LINE      CODE     ---       #1854
      0100B6A1H   LINE      CODE     ---       #1855
      0100B6ACH   LINE      CODE     ---       #1857
      0100B6B9H   LINE      CODE     ---       #1858
      0100B6C4H   LINE      CODE     ---       #1859
LX51 LINKER/LOCATER V4.64.0.0                                                         04/06/2018  15:41:10  PAGE 63


      0100B6CFH   LINE      CODE     ---       #1860
      0100B6DCH   LINE      CODE     ---       #1861
      0100B6E8H   LINE      CODE     ---       #1862
      0100B6F3H   LINE      CODE     ---       #1864
      0100B6F9H   LINE      CODE     ---       #1865
      0100B6FCH   LINE      CODE     ---       #1866
      0100B6FEH   LINE      CODE     ---       #1868
      0100B703H   LINE      CODE     ---       #1870
      0100B708H   LINE      CODE     ---       #1872
      0100B70EH   LINE      CODE     ---       #1873
      0100B710H   LINE      CODE     ---       #1874
      0100B712H   LINE      CODE     ---       #1876
      0100B71AH   LINE      CODE     ---       #1877
      0100B730H   LINE      CODE     ---       #1878
      0100B751H   LINE      CODE     ---       #1879
      0100B754H   LINE      CODE     ---       #1881
      0100B75CH   LINE      CODE     ---       #1882
      0100B75CH   LINE      CODE     ---       #1883
      0100B774H   LINE      CODE     ---       #1884
      0100B79AH   LINE      CODE     ---       #1885
      0100B79DH   LINE      CODE     ---       #1887
      0100B7A8H   LINE      CODE     ---       #1888
      0100B7AFH   LINE      CODE     ---       #1889
      0100B7B3H   LINE      CODE     ---       #1891
      0100B7BDH   LINE      CODE     ---       #1892
      0100B7C8H   LINE      CODE     ---       #1894
      0100B7D2H   LINE      CODE     ---       #1897
      0100B7D7H   LINE      CODE     ---       #1899
      0100B7E0H   LINE      CODE     ---       #1900
      0100B7ECH   LINE      CODE     ---       #1902
      0100B7F5H   LINE      CODE     ---       #1903
      0100B7FCH   LINE      CODE     ---       #1905
      0100B800H   LINE      CODE     ---       #1907
      0100B804H   LINE      CODE     ---       #1908
      0100B808H   LINE      CODE     ---       #1911
      0100B80EH   LINE      CODE     ---       #1912
      0100B824H   LINE      CODE     ---       #1913
      0100B832H   LINE      CODE     ---       #1914
      0100B83EH   LINE      CODE     ---       #1915
      0100B84BH   LINE      CODE     ---       #1917
      0100B850H   LINE      CODE     ---       #1918
      0100B852H   LINE      CODE     ---       #1919
      0100B854H   LINE      CODE     ---       #1921
      0100B860H   LINE      CODE     ---       #1922
      0100B86AH   LINE      CODE     ---       #1923
      0100B871H   LINE      CODE     ---       #1924
      0100B87CH   LINE      CODE     ---       #1925
      0100B899H   LINE      CODE     ---       #1927
      0100B89FH   LINE      CODE     ---       #1928
      0100B8A3H   LINE      CODE     ---       #1929
      0100B8A6H   LINE      CODE     ---       #1931
      0100B8ADH   LINE      CODE     ---       #1932
      0100B8B4H   LINE      CODE     ---       #1934
      0100B8B9H   LINE      CODE     ---       #1937
      0100B8D2H   LINE      CODE     ---       #1938
      ---         BLOCKEND  ---      ---       LVL=0

      0100E202H   BLOCK     CODE     ---       LVL=0
      0100E202H   BLOCK     CODE     NEAR LAB  LVL=1
      0000002CH   SYMBOL    DATA     BYTE      index
      02000020H   SYMBOL    XDATA    ---       packet_data
      ---         BLOCKEND  ---      ---       LVL=1
      0100E202H   LINE      CODE     ---       #1947
      0100E202H   LINE      CODE     ---       #1956
      0100E208H   LINE      CODE     ---       #1958
LX51 LINKER/LOCATER V4.64.0.0                                                         04/06/2018  15:41:10  PAGE 64


      0100E212H   LINE      CODE     ---       #1959
      0100E251H   LINE      CODE     ---       #1963
      0100E261H   LINE      CODE     ---       #1965
      0100E26DH   LINE      CODE     ---       #1967
      ---         BLOCKEND  ---      ---       LVL=0

      0100BCB6H   BLOCK     CODE     ---       LVL=0
      0100BCB6H   LINE      CODE     ---       #1969
      0100BCB6H   LINE      CODE     ---       #1973
      0100BCBEH   LINE      CODE     ---       #1974
      0100BCD2H   LINE      CODE     ---       #1975
      0100BCE6H   LINE      CODE     ---       #1976
      0100BCE9H   LINE      CODE     ---       #1977
      0100BCE9H   LINE      CODE     ---       #1978
      0100BCEDH   LINE      CODE     ---       #1979
      0100BD01H   LINE      CODE     ---       #1980
      0100BD15H   LINE      CODE     ---       #1981
      0100BD17H   LINE      CODE     ---       #1982
      0100BD17H   LINE      CODE     ---       #1983
      0100BD2BH   LINE      CODE     ---       #1984
      0100BD48H   LINE      CODE     ---       #1986
      0100BD5CH   LINE      CODE     ---       #1987
      0100BD79H   LINE      CODE     ---       #1988
      0100BD79H   LINE      CODE     ---       #1989
      0100BD79H   LINE      CODE     ---       #1993
      0100BD91H   LINE      CODE     ---       #1995
      0100BD91H   LINE      CODE     ---       #1997
      0100BDB3H   LINE      CODE     ---       #1998
      0100BDC7H   LINE      CODE     ---       #1999
      0100BDE9H   LINE      CODE     ---       #2000
      0100BDFDH   LINE      CODE     ---       #2002
      0100BE1FH   LINE      CODE     ---       #2003
      0100BE33H   LINE      CODE     ---       #2004
      0100BE55H   LINE      CODE     ---       #2005
      0100BE69H   LINE      CODE     ---       #2006
      0100BE69H   LINE      CODE     ---       #2007
      ---         BLOCKEND  ---      ---       LVL=0

      0100E80CH   BLOCK     CODE     ---       LVL=0
      0100E80CH   LINE      CODE     ---       #2009
      0100E80CH   LINE      CODE     ---       #2012
      0100E814H   LINE      CODE     ---       #2015
      0100E81EH   LINE      CODE     ---       #2016
      0100E832H   LINE      CODE     ---       #2017
      0100E846H   LINE      CODE     ---       #2018
      0100E846H   LINE      CODE     ---       #2021
      0100E84EH   LINE      CODE     ---       #2022
      ---         BLOCKEND  ---      ---       LVL=0

      0100EDB5H   BLOCK     CODE     ---       LVL=0
      0100EDB5H   BLOCK     CODE     NEAR LAB  LVL=1
      02000020H   SYMBOL    XDATA    ---       packet_data
      ---         BLOCKEND  ---      ---       LVL=1
      0100EDB5H   LINE      CODE     ---       #2024
      0100EDB5H   LINE      CODE     ---       #2029
      0100EDBBH   LINE      CODE     ---       #2032
      0100EDC3H   LINE      CODE     ---       #2035
      0100EDD3H   LINE      CODE     ---       #2038
      0100EDDFH   LINE      CODE     ---       #2040
      ---         BLOCKEND  ---      ---       LVL=0

      0100E84FH   BLOCK     CODE     ---       LVL=0
      0100E84FH   BLOCK     CODE     NEAR LAB  LVL=1
      02000020H   SYMBOL    XDATA    ---       packet_data
      ---         BLOCKEND  ---      ---       LVL=1
LX51 LINKER/LOCATER V4.64.0.0                                                         04/06/2018  15:41:10  PAGE 65


      0100E84FH   LINE      CODE     ---       #2042
      0100E84FH   LINE      CODE     ---       #2046
      0100E855H   LINE      CODE     ---       #2048
      0100E864H   LINE      CODE     ---       #2049
      0100E873H   LINE      CODE     ---       #2051
      0100E883H   LINE      CODE     ---       #2053
      0100E88FH   LINE      CODE     ---       #2054
      ---         BLOCKEND  ---      ---       LVL=0

      0100D8B6H   BLOCK     CODE     ---       LVL=0
      0100D8B6H   BLOCK     CODE     NEAR LAB  LVL=1
      0000002CH   SYMBOL    DATA     BYTE      index
      02000020H   SYMBOL    XDATA    ---       packet_data
      ---         BLOCKEND  ---      ---       LVL=1
      0100D8B6H   LINE      CODE     ---       #2056
      0100D8B6H   LINE      CODE     ---       #2065
      0100D8BCH   LINE      CODE     ---       #2068
      0100D8CFH   LINE      CODE     ---       #2069
      0100D8D4H   LINE      CODE     ---       #2072
      0100D8DEH   LINE      CODE     ---       #2073
      0100D91DH   LINE      CODE     ---       #2077
      0100D92DH   LINE      CODE     ---       #2078
      0100D939H   LINE      CODE     ---       #2080
      ---         BLOCKEND  ---      ---       LVL=0

      0100EA03H   BLOCK     CODE     ---       LVL=0
      0100EA03H   BLOCK     CODE     NEAR LAB  LVL=1
      02000020H   SYMBOL    XDATA    ---       packet_data
      ---         BLOCKEND  ---      ---       LVL=1
      0100EA03H   LINE      CODE     ---       #2082
      0100EA03H   LINE      CODE     ---       #2090
      0100EA09H   LINE      CODE     ---       #2092
      0100EA1CH   LINE      CODE     ---       #2093
      0100EA21H   LINE      CODE     ---       #2097
      0100EA31H   LINE      CODE     ---       #2099
      0100EA3DH   LINE      CODE     ---       #2100
      ---         BLOCKEND  ---      ---       LVL=0

      0100EED9H   BLOCK     CODE     ---       LVL=0
      0100EED9H   LINE      CODE     ---       #2102
      0100EED9H   LINE      CODE     ---       #2105
      0100EEE1H   LINE      CODE     ---       #2107
      0100EEE5H   LINE      CODE     ---       #2108
      0100EEE5H   LINE      CODE     ---       #2109
      0100EEEEH   LINE      CODE     ---       #2110
      0100EEEFH   LINE      CODE     ---       #2111
      0100EEEFH   LINE      CODE     ---       #2112
      0100EEF8H   LINE      CODE     ---       #2113
      0100EEF8H   LINE      CODE     ---       #2114
      ---         BLOCKEND  ---      ---       LVL=0

      0100F08DH   BLOCK     CODE     ---       LVL=0
      0100F08DH   BLOCK     CODE     NEAR LAB  LVL=1
      02000020H   SYMBOL    XDATA    ---       packet_data
      ---         BLOCKEND  ---      ---       LVL=1
      0100F08DH   LINE      CODE     ---       #2116
      0100F08DH   LINE      CODE     ---       #2121
      0100F092H   LINE      CODE     ---       #2124
      0100F094H   LINE      CODE     ---       #2127
      0100F0A0H   LINE      CODE     ---       #2128
      ---         BLOCKEND  ---      ---       LVL=0

      0100E890H   BLOCK     CODE     ---       LVL=0
      0100E890H   LINE      CODE     ---       #2130
      0100E890H   LINE      CODE     ---       #2132
LX51 LINKER/LOCATER V4.64.0.0                                                         04/06/2018  15:41:10  PAGE 66


      0100E899H   LINE      CODE     ---       #2134
      0100E89EH   LINE      CODE     ---       #2135
      0100E8A3H   LINE      CODE     ---       #2136
      0100E8A4H   LINE      CODE     ---       #2137
      0100E8A4H   LINE      CODE     ---       #2139
      0100E8ADH   LINE      CODE     ---       #2140
      0100E8B0H   LINE      CODE     ---       #2145
      0100E8C8H   LINE      CODE     ---       #2146
      0100E8CBH   LINE      CODE     ---       #2147
      0100E8D0H   LINE      CODE     ---       #2148
      0100E8D0H   LINE      CODE     ---       #2149
      ---         BLOCKEND  ---      ---       LVL=0

      0100E344H   BLOCK     CODE     ---       LVL=0
      0100E344H   BLOCK     CODE     NEAR LAB  LVL=1
      02000020H   SYMBOL    XDATA    ---       packet_data
      ---         BLOCKEND  ---      ---       LVL=1
      0100E344H   LINE      CODE     ---       #2151
      0100E344H   LINE      CODE     ---       #2159
      0100E34AH   LINE      CODE     ---       #2161
      0100E369H   LINE      CODE     ---       #2162
      0100E388H   LINE      CODE     ---       #2166
      0100E398H   LINE      CODE     ---       #2168
      0100E3A4H   LINE      CODE     ---       #2169
      ---         BLOCKEND  ---      ---       LVL=0

      0100B358H   BLOCK     CODE     ---       LVL=0
      0100B358H   BLOCK     CODE     NEAR LAB  LVL=1
      02000020H   SYMBOL    XDATA    DWORD     off_1
      02000024H   SYMBOL    XDATA    DWORD     off_2
      02000028H   SYMBOL    XDATA    FLOAT     mult_1
      0200002CH   SYMBOL    XDATA    FLOAT     mult_2
      0000002CH   SYMBOL    DATA     BYTE      packet_lenght
      0000002DH   SYMBOL    DATA     ---       packet_data
      0000002FH   SYMBOL    DATA     BYTE      old_id
      ---         BLOCKEND  ---      ---       LVL=1
      0100B358H   LINE      CODE     ---       #2171
      0100B358H   LINE      CODE     ---       #2176
      0100B35BH   LINE      CODE     ---       #2180
      0100B364H   LINE      CODE     ---       #2181
      0100B378H   LINE      CODE     ---       #2182
      0100B38CH   LINE      CODE     ---       #2183
      0100B3A0H   LINE      CODE     ---       #2184
      0100B3B4H   LINE      CODE     ---       #2186
      0100B3E0H   LINE      CODE     ---       #2187
      0100B40CH   LINE      CODE     ---       #2189
      0100B438H   LINE      CODE     ---       #2190
      0100B464H   LINE      CODE     ---       #2192
      0100B4C2H   LINE      CODE     ---       #2193
      0100B520H   LINE      CODE     ---       #2197
      0100B529H   LINE      CODE     ---       #2198
      0100B549H   LINE      CODE     ---       #2199
      0100B55DH   LINE      CODE     ---       #2200
      0100B57FH   LINE      CODE     ---       #2201
      0100B593H   LINE      CODE     ---       #2203
      0100B5B5H   LINE      CODE     ---       #2204
      0100B5C9H   LINE      CODE     ---       #2205
      0100B5EBH   LINE      CODE     ---       #2206
      0100B5FFH   LINE      CODE     ---       #2207
      0100B5FFH   LINE      CODE     ---       #2208
      0100B5FFH   LINE      CODE     ---       #2211
      0100B60CH   LINE      CODE     ---       #2212
      0100B60EH   LINE      CODE     ---       #2213
      0100B617H   LINE      CODE     ---       #2214
      0100B61AH   LINE      CODE     ---       #2215
LX51 LINKER/LOCATER V4.64.0.0                                                         04/06/2018  15:41:10  PAGE 67


      0100B61DH   LINE      CODE     ---       #2216
      0100B631H   LINE      CODE     ---       #2217
      0100B632H   LINE      CODE     ---       #2218
      0100B632H   LINE      CODE     ---       #2219
      0100B635H   LINE      CODE     ---       #2220
      0100B637H   LINE      CODE     ---       #2221
      0100B64AH   LINE      CODE     ---       #2222
      0100B64AH   LINE      CODE     ---       #2223
      0100B64BH   LINE      CODE     ---       #2224
      0100B64BH   LINE      CODE     ---       #2225
      0100B654H   LINE      CODE     ---       #2226
      0100B65AH   LINE      CODE     ---       #2228
      0100B65FH   LINE      CODE     ---       #2229
      0100B65FH   LINE      CODE     ---       #2230
      ---         BLOCKEND  ---      ---       LVL=0

      0100E737H   BLOCK     CODE     ---       LVL=0
      0100E737H   BLOCK     CODE     NEAR LAB  LVL=1
      02000020H   SYMBOL    XDATA    ---       packet_data
      ---         BLOCKEND  ---      ---       LVL=1
      0100E737H   LINE      CODE     ---       #2232
      0100E737H   LINE      CODE     ---       #2237
      0100E73DH   LINE      CODE     ---       #2239
      0100E750H   LINE      CODE     ---       #2240
      0100E763H   LINE      CODE     ---       #2242
      0100E773H   LINE      CODE     ---       #2244
      0100E77FH   LINE      CODE     ---       #2246
      ---         BLOCKEND  ---      ---       LVL=0

      ---         MODULE    ---      ---       GLOBALS
      020011D4H   PUBLIC    XDATA    ---       calib
      020011D3H   PUBLIC    XDATA    BYTE      dev_pwm_limit
      00000021H.5 PUBLIC    BIT      BIT       tension_valid
      00000021H.4 PUBLIC    BIT      BIT       interrupt_flag
      020011D2H   PUBLIC    XDATA    BYTE      rest_enabled
      02001197H   PUBLIC    XDATA    ---       g_meas
      02001193H   PUBLIC    XDATA    LONG      dev_tension_f
      02001192H   PUBLIC    XDATA    CHAR      pwm_sign
      0200118AH   PUBLIC    XDATA    ---       ADC_buf
      02001186H   PUBLIC    XDATA    FLOAT     tau_feedback
      02001182H   PUBLIC    XDATA    DWORD     timer_value0
      00000021H.3 PUBLIC    BIT      BIT       watchdog_flag
      0200117EH   PUBLIC    XDATA    LONG      pow_tension
      00000021H.2 PUBLIC    BIT      BIT       reset_last_value_flag
      0200117AH   PUBLIC    XDATA    LONG      rest_pos_curr_ref
      02001161H   PUBLIC    XDATA    ---       g_refNew
      020010DCH   PUBLIC    XDATA    ---       g_rx
      020010C3H   PUBLIC    XDATA    ---       g_refOld
      020010BFH   PUBLIC    XDATA    LONG      dev_tension
      020010BBH   PUBLIC    XDATA    DWORD     timer_value
      020010B7H   PUBLIC    XDATA    LONG      curr_pos_res
      020010B6H   PUBLIC    XDATA    BYTE      master_mode
      0200107BH   PUBLIC    XDATA    ---       g_measOld
      0200107AH   PUBLIC    XDATA    BYTE      forced_open
      02000FB9H   PUBLIC    XDATA    ---       g_mem
      02000FA0H   PUBLIC    XDATA    ---       g_ref
      02000F9CH   PUBLIC    XDATA    DWORD     count_tension_valid
      02000F9BH   PUBLIC    XDATA    BYTE      first_tension_valid
      02000EDAH   PUBLIC    XDATA    ---       c_mem
      000000CAH   SFRSYM    DATA     BYTE      SFRPRT5SEL
      000000DAH   SFRSYM    DATA     BYTE      SFRPRT6SEL
      000000D0H.6 SFRSYM    DATA     BIT       AC
      000000A8H.7 SFRSYM    DATA     BIT       EA
      000000A8H   SFRSYM    DATA     BYTE      IE
      00000085H   SFRSYM    DATA     BYTE      DPH1
LX51 LINKER/LOCATER V4.64.0.0                                                         04/06/2018  15:41:10  PAGE 68


      00000084H   SFRSYM    DATA     BYTE      DPL1
      000000D0H.7 SFRSYM    DATA     BIT       CY
      000000A0H   SFRSYM    DATA     BYTE      P2AX
      00000095H   SFRSYM    DATA     BYTE      DPX1
      00000081H   SFRSYM    DATA     BYTE      SP
      000000D0H.2 SFRSYM    DATA     BIT       OV
      00000080H   SFRSYM    DATA     BYTE      SFRPRT0DR
      00000090H   SFRSYM    DATA     BYTE      SFRPRT1DR
      000000F2H   SFRSYM    DATA     BYTE      SFRPRT12SEL
      00000098H   SFRSYM    DATA     BYTE      SFRPRT2DR
      000000B0H   SFRSYM    DATA     BYTE      SFRPRT3DR
      000000C0H   SFRSYM    DATA     BYTE      SFRPRT4DR
      000000FAH   SFRSYM    DATA     BYTE      SFRPRT15SEL
      000000C8H   SFRSYM    DATA     BYTE      SFRPRT5DR
      000000D8H   SFRSYM    DATA     BYTE      SFRPRT6DR
      00000089H   SFRSYM    DATA     BYTE      SFRPRT0PS
      00000091H   SFRSYM    DATA     BYTE      SFRPRT1PS
      00000099H   SFRSYM    DATA     BYTE      SFRPRT2PS
      000000B1H   SFRSYM    DATA     BYTE      SFRPRT3PS
      000000C1H   SFRSYM    DATA     BYTE      SFRPRT4PS
      000000C9H   SFRSYM    DATA     BYTE      SFRPRT5PS
      000000D9H   SFRSYM    DATA     BYTE      SFRPRT6PS
      000000EAH   SFRSYM    DATA     BYTE      MXAX
      000000F0H   SFRSYM    DATA     BYTE      B
      000000E0H   SFRSYM    DATA     BYTE      ACC
      000000D0H   SFRSYM    DATA     BIT       P
      000000D0H.3 SFRSYM    DATA     BIT       RS0
      000000D0H.4 SFRSYM    DATA     BIT       RS1
      00000083H   SFRSYM    DATA     BYTE      DPH
      000000E8H   SFRSYM    DATA     BYTE      SFRPRT12DR
      00000082H   SFRSYM    DATA     BYTE      DPL
      000000F8H   SFRSYM    DATA     BYTE      SFRPRT15DR
      00000086H   SFRSYM    DATA     BYTE      DPS
      000000E9H   SFRSYM    DATA     BYTE      SFRPRT12PS
      00000093H   SFRSYM    DATA     BYTE      DPX
      000000F9H   SFRSYM    DATA     BYTE      SFRPRT15PS
      000000D0H.5 SFRSYM    DATA     BIT       F0
      000000D0H.1 SFRSYM    DATA     BIT       F1
      0000008AH   SFRSYM    DATA     BYTE      SFRPRT0SEL
      000000D0H   SFRSYM    DATA     BYTE      PSW
      000000A2H   SFRSYM    DATA     BYTE      SFRPRT1SEL
      0000009AH   SFRSYM    DATA     BYTE      SFRPRT2SEL
      000000B2H   SFRSYM    DATA     BYTE      SFRPRT3SEL
      000000C2H   SFRSYM    DATA     BYTE      SFRPRT4SEL

      ---         MODULE    ---      ---       INTERRUPTIONS
      0100E030H   PUBLIC    CODE     ---       pwm_limit_search
      0100E11BH   PUBLIC    CODE     ---       overcurrent_control
      010096E8H   PUBLIC    CODE     ---       analog_read_end
      0100A15FH   PUBLIC    CODE     ---       _encoder_reading
      01007A82H   PUBLIC    CODE     ---       motor_control
      0100C32AH   PUBLIC    CODE     ---       function_scheduler
      0100C807H   PUBLIC    CODE     ---       interrupt_manager
      0100F4BAH   PUBLIC    CODE     ---       ISR_RS485_RX_ExInterrupt
      0100F4B7H   PUBLIC    CODE     ---       ISR_WATCHDOG_Handler
      000000CAH   SFRSYM    DATA     BYTE      SFRPRT5SEL
      000000DAH   SFRSYM    DATA     BYTE      SFRPRT6SEL
      000000D0H.6 SFRSYM    DATA     BIT       AC
      000000A8H.7 SFRSYM    DATA     BIT       EA
      000000A8H   SFRSYM    DATA     BYTE      IE
      00000085H   SFRSYM    DATA     BYTE      DPH1
      00000084H   SFRSYM    DATA     BYTE      DPL1
      000000D0H.7 SFRSYM    DATA     BIT       CY
      000000A0H   SFRSYM    DATA     BYTE      P2AX
      00000095H   SFRSYM    DATA     BYTE      DPX1
LX51 LINKER/LOCATER V4.64.0.0                                                         04/06/2018  15:41:10  PAGE 69


      00000081H   SFRSYM    DATA     BYTE      SP
      000000D0H.2 SFRSYM    DATA     BIT       OV
      00000080H   SFRSYM    DATA     BYTE      SFRPRT0DR
      00000090H   SFRSYM    DATA     BYTE      SFRPRT1DR
      000000F2H   SFRSYM    DATA     BYTE      SFRPRT12SEL
      00000098H   SFRSYM    DATA     BYTE      SFRPRT2DR
      000000B0H   SFRSYM    DATA     BYTE      SFRPRT3DR
      000000C0H   SFRSYM    DATA     BYTE      SFRPRT4DR
      000000FAH   SFRSYM    DATA     BYTE      SFRPRT15SEL
      000000C8H   SFRSYM    DATA     BYTE      SFRPRT5DR
      000000D8H   SFRSYM    DATA     BYTE      SFRPRT6DR
      00000089H   SFRSYM    DATA     BYTE      SFRPRT0PS
      00000091H   SFRSYM    DATA     BYTE      SFRPRT1PS
      00000099H   SFRSYM    DATA     BYTE      SFRPRT2PS
      000000B1H   SFRSYM    DATA     BYTE      SFRPRT3PS
      000000C1H   SFRSYM    DATA     BYTE      SFRPRT4PS
      000000C9H   SFRSYM    DATA     BYTE      SFRPRT5PS
      000000D9H   SFRSYM    DATA     BYTE      SFRPRT6PS
      000000EAH   SFRSYM    DATA     BYTE      MXAX
      000000F0H   SFRSYM    DATA     BYTE      B
      000000E0H   SFRSYM    DATA     BYTE      ACC
      000000D0H   SFRSYM    DATA     BIT       P
      000000D0H.3 SFRSYM    DATA     BIT       RS0
      000000D0H.4 SFRSYM    DATA     BIT       RS1
      00000083H   SFRSYM    DATA     BYTE      DPH
      000000E8H   SFRSYM    DATA     BYTE      SFRPRT12DR
      00000082H   SFRSYM    DATA     BYTE      DPL
      000000F8H   SFRSYM    DATA     BYTE      SFRPRT15DR
      00000086H   SFRSYM    DATA     BYTE      DPS
      000000E9H   SFRSYM    DATA     BYTE      SFRPRT12PS
      00000093H   SFRSYM    DATA     BYTE      DPX
      000000F9H   SFRSYM    DATA     BYTE      SFRPRT15PS
      000000D0H.5 SFRSYM    DATA     BIT       F0
      000000D0H.1 SFRSYM    DATA     BIT       F1
      0000008AH   SFRSYM    DATA     BYTE      SFRPRT0SEL
      000000D0H   SFRSYM    DATA     BYTE      PSW
      000000A2H   SFRSYM    DATA     BYTE      SFRPRT1SEL
      0000009AH   SFRSYM    DATA     BYTE      SFRPRT2SEL
      000000B2H   SFRSYM    DATA     BYTE      SFRPRT3SEL
      000000C2H   SFRSYM    DATA     BYTE      SFRPRT4SEL
      020012CEH   SYMBOL    XDATA    ---       pwm_preload_values

      0100F4B7H   BLOCK     CODE     ---       LVL=0
      0100F4B7H   LINE      CODE     ---       #102
      0100F4B7H   LINE      CODE     ---       #106
      0100F4B9H   LINE      CODE     ---       #108
      ---         BLOCKEND  ---      ---       LVL=0

      0100F4BAH   BLOCK     CODE     ---       LVL=0
      0100F4BAH   LINE      CODE     ---       #114
      0100F4BAH   LINE      CODE     ---       #118
      0100F4BCH   LINE      CODE     ---       #120
      ---         BLOCKEND  ---      ---       LVL=0

      0100C807H   BLOCK     CODE     ---       LVL=0
      0100C807H   BLOCK     CODE     NEAR LAB  LVL=1
      00000008H   SYMBOL    DATA     BYTE      state
      00000009H   SYMBOL    DATA     BYTE      data_packet_index
      0000000AH   SYMBOL    DATA     BYTE      data_packet_length
      020011DAH   SYMBOL    XDATA    ---       data_packet_buffer
      0000000BH   SYMBOL    DATA     ---       rx_queue
      00000029H   SYMBOL    DATA     BYTE      rx_data
      00000020H.0 SYMBOL    BIT      BIT       rx_data_type
      0000002AH   SYMBOL    DATA     BYTE      package_count
      ---         BLOCKEND  ---      ---       LVL=1
LX51 LINKER/LOCATER V4.64.0.0                                                         04/06/2018  15:41:10  PAGE 70


      0100C807H   LINE      CODE     ---       #137
      0100C807H   LINE      CODE     ---       #153
      0100C80AH   LINE      CODE     ---       #159
      0100C81DH   LINE      CODE     ---       #163
      0100C822H   LINE      CODE     ---       #165
      0100C83AH   LINE      CODE     ---       #167
      0100C83AH   LINE      CODE     ---       #169
      0100C83DH   LINE      CODE     ---       #170
      0100C840H   LINE      CODE     ---       #171
      0100C843H   LINE      CODE     ---       #174
      0100C84DH   LINE      CODE     ---       #175
      0100C850H   LINE      CODE     ---       #176
      0100C852H   LINE      CODE     ---       #177
      0100C854H   LINE      CODE     ---       #178
      0100C857H   LINE      CODE     ---       #179
      0100C859H   LINE      CODE     ---       #180
      0100C869H   LINE      CODE     ---       #183
      0100C86EH   LINE      CODE     ---       #184
      0100C870H   LINE      CODE     ---       #187
      0100C870H   LINE      CODE     ---       #190
      0100C883H   LINE      CODE     ---       #191
      0100C887H   LINE      CODE     ---       #193
      0100C889H   LINE      CODE     ---       #195
      0100C88CH   LINE      CODE     ---       #196
      0100C88FH   LINE      CODE     ---       #197
      0100C892H   LINE      CODE     ---       #200
      0100C892H   LINE      CODE     ---       #203
      0100C895H   LINE      CODE     ---       #205
      0100C89CH   LINE      CODE     ---       #206
      0100C89FH   LINE      CODE     ---       #207
      0100C8A1H   LINE      CODE     ---       #208
      0100C8ABH   LINE      CODE     ---       #209
      0100C8AEH   LINE      CODE     ---       #210
      0100C8B0H   LINE      CODE     ---       #211
      0100C8B3H   LINE      CODE     ---       #212
      0100C8B6H   LINE      CODE     ---       #214
      0100C8B9H   LINE      CODE     ---       #215
      0100C8BFH   LINE      CODE     ---       #217
      0100C8C2H   LINE      CODE     ---       #218
      0100C8C2H   LINE      CODE     ---       #219
      0100C8C5H   LINE      CODE     ---       #222
      0100C8C5H   LINE      CODE     ---       #224
      0100C8D3H   LINE      CODE     ---       #225
      0100C8D5H   LINE      CODE     ---       #228
      0100C8DFH   LINE      CODE     ---       #230
      0100C8E2H   LINE      CODE     ---       #232
      0100C8F5H   LINE      CODE     ---       #233
      0100C8FEH   LINE      CODE     ---       #234
      0100C904H   LINE      CODE     ---       #236
      0100C907H   LINE      CODE     ---       #237
      0100C907H   LINE      CODE     ---       #239
      0100C90AH   LINE      CODE     ---       #240
      0100C90CH   LINE      CODE     ---       #241
      0100C90EH   LINE      CODE     ---       #242
      0100C910H   LINE      CODE     ---       #244
      0100C910H   LINE      CODE     ---       #245
      0100C913H   LINE      CODE     ---       #248
      0100C913H   LINE      CODE     ---       #249
      0100C91CH   LINE      CODE     ---       #250
      0100C91EH   LINE      CODE     ---       #251
      0100C920H   LINE      CODE     ---       #252
      0100C925H   LINE      CODE     ---       #253
      0100C92AH   LINE      CODE     ---       #254
      0100C92DH   LINE      CODE     ---       #255
      0100C92FH   LINE      CODE     ---       #256
LX51 LINKER/LOCATER V4.64.0.0                                                         04/06/2018  15:41:10  PAGE 71


      0100C92FH   LINE      CODE     ---       #257
      0100C932H   LINE      CODE     ---       #258
      0100C932H   LINE      CODE     ---       #259
      0100C935H   LINE      CODE     ---       #260
      ---         BLOCKEND  ---      ---       LVL=0

      0100C32AH   BLOCK     CODE     ---       LVL=0
      0100C32AH   BLOCK     CODE     NEAR LAB  LVL=1
      0200125AH   SYMBOL    XDATA    WORD      counter_calibration
      ---         BLOCKEND  ---      ---       LVL=1
      0100C32AH   LINE      CODE     ---       #269
      0100C32AH   LINE      CODE     ---       #273
      0100C333H   LINE      CODE     ---       #277
      0100C338H   LINE      CODE     ---       #281
      0100C33BH   LINE      CODE     ---       #282
      0100C33DH   LINE      CODE     ---       #283
      0100C340H   LINE      CODE     ---       #284
      0100C340H   LINE      CODE     ---       #288
      0100C345H   LINE      CODE     ---       #292
      0100C348H   LINE      CODE     ---       #293
      0100C34AH   LINE      CODE     ---       #294
      0100C34DH   LINE      CODE     ---       #295
      0100C34DH   LINE      CODE     ---       #297
      0100C352H   LINE      CODE     ---       #301
      0100C355H   LINE      CODE     ---       #302
      0100C357H   LINE      CODE     ---       #303
      0100C35AH   LINE      CODE     ---       #304
      0100C35AH   LINE      CODE     ---       #306
      0100C35FH   LINE      CODE     ---       #310
      0100C362H   LINE      CODE     ---       #311
      0100C364H   LINE      CODE     ---       #312
      0100C367H   LINE      CODE     ---       #313
      0100C367H   LINE      CODE     ---       #317
      0100C36AH   LINE      CODE     ---       #321
      0100C36DH   LINE      CODE     ---       #322
      0100C36FH   LINE      CODE     ---       #323
      0100C372H   LINE      CODE     ---       #324
      0100C372H   LINE      CODE     ---       #328
      0100C375H   LINE      CODE     ---       #330
      0100C378H   LINE      CODE     ---       #331
      0100C37AH   LINE      CODE     ---       #332
      0100C37DH   LINE      CODE     ---       #333
      0100C37DH   LINE      CODE     ---       #337
      0100C380H   LINE      CODE     ---       #341
      0100C383H   LINE      CODE     ---       #342
      0100C385H   LINE      CODE     ---       #343
      0100C388H   LINE      CODE     ---       #344
      0100C388H   LINE      CODE     ---       #348
      0100C38EH   LINE      CODE     ---       #350
      0100C394H   LINE      CODE     ---       #351
      0100C397H   LINE      CODE     ---       #352
      0100C397H   LINE      CODE     ---       #354
      0100C39DH   LINE      CODE     ---       #355
      0100C3A0H   LINE      CODE     ---       #356
      0100C3A0H   LINE      CODE     ---       #358
      0100C3A6H   LINE      CODE     ---       #361
      0100C3ADH   LINE      CODE     ---       #362
      0100C3B9H   LINE      CODE     ---       #365
      0100C3C2H   LINE      CODE     ---       #367
      0100C3C5H   LINE      CODE     ---       #368
      0100C3CCH   LINE      CODE     ---       #369
      0100C3CCH   LINE      CODE     ---       #370
      0100C3DAH   LINE      CODE     ---       #373
      0100C3DDH   LINE      CODE     ---       #374
      0100C3DFH   LINE      CODE     ---       #375
LX51 LINKER/LOCATER V4.64.0.0                                                         04/06/2018  15:41:10  PAGE 72


      0100C3E2H   LINE      CODE     ---       #376
      0100C3E2H   LINE      CODE     ---       #377
      0100C3E2H   LINE      CODE     ---       #379
      0100C3E5H   LINE      CODE     ---       #380
      0100C3E5H   LINE      CODE     ---       #381
      0100C3E5H   LINE      CODE     ---       #385
      0100C3E8H   LINE      CODE     ---       #386
      0100C3EAH   LINE      CODE     ---       #387
      0100C3EDH   LINE      CODE     ---       #388
      0100C3EDH   LINE      CODE     ---       #393
      0100C3F4H   LINE      CODE     ---       #394
      0100C400H   LINE      CODE     ---       #395
      0100C403H   LINE      CODE     ---       #396
      0100C40AH   LINE      CODE     ---       #397
      0100C40AH   LINE      CODE     ---       #398
      0100C418H   LINE      CODE     ---       #399
      0100C418H   LINE      CODE     ---       #403
      0100C41BH   LINE      CODE     ---       #404
      0100C41DH   LINE      CODE     ---       #405
      0100C420H   LINE      CODE     ---       #406
      0100C420H   LINE      CODE     ---       #412
      0100C433H   LINE      CODE     ---       #413
      0100C446H   LINE      CODE     ---       #416
      0100C459H   LINE      CODE     ---       #418
      0100C45CH   LINE      CODE     ---       #419
      0100C45EH   LINE      CODE     ---       #420
      0100C461H   LINE      CODE     ---       #421
      0100C461H   LINE      CODE     ---       #423
      0100C46AH   LINE      CODE     ---       #424
      0100C475H   LINE      CODE     ---       #426
      ---         BLOCKEND  ---      ---       LVL=0

      01007A82H   BLOCK     CODE     ---       LVL=0
      01007A82H   BLOCK     CODE     NEAR LAB  LVL=1
      00000023H   SYMBOL    DATA     LONG      pwm_input
      00000027H   SYMBOL    DATA     LONG      pos_error
      0000002BH   SYMBOL    DATA     LONG      curr_error
      0000002FH   SYMBOL    DATA     LONG      i_ref
      00000033H   SYMBOL    DATA     LONG      handle_value
      00000037H   SYMBOL    DATA     LONG      err_emg_1
      0000003BH   SYMBOL    DATA     LONG      err_emg_2
      0000003FH   SYMBOL    DATA     FLOAT     joy_perc
      00000043H   SYMBOL    DATA     LONG      k_p
      00000047H   SYMBOL    DATA     LONG      k_i
      0000004BH   SYMBOL    DATA     LONG      k_d
      0000004FH   SYMBOL    DATA     LONG      k_p_c
      00000053H   SYMBOL    DATA     LONG      k_i_c
      00000057H   SYMBOL    DATA     LONG      k_d_c
      0000005BH   SYMBOL    DATA     LONG      k_p_dl
      0000005FH   SYMBOL    DATA     LONG      k_i_dl
      00000063H   SYMBOL    DATA     LONG      k_d_dl
      00000067H   SYMBOL    DATA     LONG      k_p_c_dl
      0000006BH   SYMBOL    DATA     LONG      k_i_c_dl
      0000006FH   SYMBOL    DATA     LONG      k_d_c_dl
      0200125CH   SYMBOL    XDATA    LONG      pos_error_sum
      02001260H   SYMBOL    XDATA    LONG      curr_error_sum
      02001264H   SYMBOL    XDATA    LONG      prev_pos_err
      02001268H   SYMBOL    XDATA    LONG      prev_curr_err
      00000021H.6 SYMBOL    BIT      BIT       motor_dir
      0200126CH   SYMBOL    XDATA    BYTE      current_emg
      ---         BLOCKEND  ---      ---       LVL=1
      01007A82H   LINE      CODE     ---       #432
      01007A82H   LINE      CODE     ---       #434
      01007A8BH   LINE      CODE     ---       #445
      01007AA0H   LINE      CODE     ---       #446
LX51 LINKER/LOCATER V4.64.0.0                                                         04/06/2018  15:41:10  PAGE 73


      01007AB3H   LINE      CODE     ---       #447
      01007AC6H   LINE      CODE     ---       #449
      01007AD9H   LINE      CODE     ---       #450
      01007AECH   LINE      CODE     ---       #451
      01007AFFH   LINE      CODE     ---       #453
      01007B12H   LINE      CODE     ---       #454
      01007B25H   LINE      CODE     ---       #455
      01007B38H   LINE      CODE     ---       #457
      01007B4BH   LINE      CODE     ---       #458
      01007B5EH   LINE      CODE     ---       #459
      01007B71H   LINE      CODE     ---       #476
      01007B9CH   LINE      CODE     ---       #477
      01007BC7H   LINE      CODE     ---       #480
      01007BF1H   LINE      CODE     ---       #482
      01007BF1H   LINE      CODE     ---       #484
      01007BF7H   LINE      CODE     ---       #486
      01007C1BH   LINE      CODE     ---       #487
      01007C1DH   LINE      CODE     ---       #488
      01007C1DH   LINE      CODE     ---       #492
      01007C23H   LINE      CODE     ---       #493
      01007C47H   LINE      CODE     ---       #495
      01007C6BH   LINE      CODE     ---       #496
      01007C6BH   LINE      CODE     ---       #499
      01007CB4H   LINE      CODE     ---       #500
      01007CE2H   LINE      CODE     ---       #501
      01007CE2H   LINE      CODE     ---       #502
      01007D2AH   LINE      CODE     ---       #503
      01007D58H   LINE      CODE     ---       #505
      01007D66H   LINE      CODE     ---       #506
      01007D66H   LINE      CODE     ---       #507
      01007D69H   LINE      CODE     ---       #509
      01007D69H   LINE      CODE     ---       #510
      01007D7CH   LINE      CODE     ---       #511
      01007DB9H   LINE      CODE     ---       #513
      01007DC4H   LINE      CODE     ---       #514
      01007DC7H   LINE      CODE     ---       #516
      01007DC7H   LINE      CODE     ---       #517
      01007DDBH   LINE      CODE     ---       #518
      01007DEEH   LINE      CODE     ---       #519
      01007E44H   LINE      CODE     ---       #520
      01007E44H   LINE      CODE     ---       #521
      01007E5AH   LINE      CODE     ---       #522
      01007EB9H   LINE      CODE     ---       #523
      01007EB9H   LINE      CODE     ---       #524
      01007EBCH   LINE      CODE     ---       #526
      01007EBCH   LINE      CODE     ---       #527
      01007ED0H   LINE      CODE     ---       #528
      01007EE4H   LINE      CODE     ---       #529
      01007EE4H   LINE      CODE     ---       #531
      01007EF7H   LINE      CODE     ---       #532
      01007EFDH   LINE      CODE     ---       #533
      01007F00H   LINE      CODE     ---       #534
      01007F00H   LINE      CODE     ---       #535
      01007F16H   LINE      CODE     ---       #536
      01007F1CH   LINE      CODE     ---       #537
      01007F1FH   LINE      CODE     ---       #538
      01007F1FH   LINE      CODE     ---       #539
      01007F1FH   LINE      CODE     ---       #541
      01007F1FH   LINE      CODE     ---       #543
      01007F32H   LINE      CODE     ---       #544
      01007F37H   LINE      CODE     ---       #545
      01007F3AH   LINE      CODE     ---       #546
      01007F3AH   LINE      CODE     ---       #547
      01007F96H   LINE      CODE     ---       #548
      01007F99H   LINE      CODE     ---       #550
LX51 LINKER/LOCATER V4.64.0.0                                                         04/06/2018  15:41:10  PAGE 74


      01007F99H   LINE      CODE     ---       #552
      01007FACH   LINE      CODE     ---       #553
      01007FB1H   LINE      CODE     ---       #554
      01007FB4H   LINE      CODE     ---       #555
      01007FB4H   LINE      CODE     ---       #556
      01008019H   LINE      CODE     ---       #557
      0100801CH   LINE      CODE     ---       #559
      0100801CH   LINE      CODE     ---       #560
      0100801CH   LINE      CODE     ---       #561
      0100801CH   LINE      CODE     ---       #563
      0100801FH   LINE      CODE     ---       #565
      0100801FH   LINE      CODE     ---       #566
      01008033H   LINE      CODE     ---       #567
      01008047H   LINE      CODE     ---       #569
      01008047H   LINE      CODE     ---       #570
      0100805AH   LINE      CODE     ---       #571
      01008060H   LINE      CODE     ---       #572
      01008063H   LINE      CODE     ---       #573
      01008063H   LINE      CODE     ---       #574
      01008079H   LINE      CODE     ---       #575
      0100807FH   LINE      CODE     ---       #576
      01008082H   LINE      CODE     ---       #577
      01008082H   LINE      CODE     ---       #578
      01008082H   LINE      CODE     ---       #581
      01008082H   LINE      CODE     ---       #583
      010080A8H   LINE      CODE     ---       #584
      010080ADH   LINE      CODE     ---       #585
      010080B0H   LINE      CODE     ---       #586
      010080B0H   LINE      CODE     ---       #588
      010080C6H   LINE      CODE     ---       #589
      01008118H   LINE      CODE     ---       #591
      0100811BH   LINE      CODE     ---       #594
      0100811BH   LINE      CODE     ---       #596
      01008141H   LINE      CODE     ---       #597
      01008146H   LINE      CODE     ---       #598
      01008149H   LINE      CODE     ---       #599
      01008149H   LINE      CODE     ---       #601
      0100815FH   LINE      CODE     ---       #602
      010081BAH   LINE      CODE     ---       #603
      010081BAH   LINE      CODE     ---       #604
      010081BDH   LINE      CODE     ---       #606
      010081BDH   LINE      CODE     ---       #607
      010081BDH   LINE      CODE     ---       #608
      010081BDH   LINE      CODE     ---       #610
      010081C0H   LINE      CODE     ---       #612
      010081C0H   LINE      CODE     ---       #614
      010081FCH   LINE      CODE     ---       #615
      01008241H   LINE      CODE     ---       #617
      01008241H   LINE      CODE     ---       #618
      01008241H   LINE      CODE     ---       #619
      01008241H   LINE      CODE     ---       #620
      01008241H   LINE      CODE     ---       #623
      01008247H   LINE      CODE     ---       #624
      01008267H   LINE      CODE     ---       #625
      0100827BH   LINE      CODE     ---       #626
      0100829DH   LINE      CODE     ---       #627
      010082B1H   LINE      CODE     ---       #628
      010082B1H   LINE      CODE     ---       #630
      010082BCH   LINE      CODE     ---       #631
      010082C3H   LINE      CODE     ---       #633
      010082D7H   LINE      CODE     ---       #634
      010082D7H   LINE      CODE     ---       #636
      010082E2H   LINE      CODE     ---       #638
      010082F4H   LINE      CODE     ---       #639
      01008351H   LINE      CODE     ---       #640
LX51 LINKER/LOCATER V4.64.0.0                                                         04/06/2018  15:41:10  PAGE 75


      01008351H   LINE      CODE     ---       #641
      01008365H   LINE      CODE     ---       #642
      0100836AH   LINE      CODE     ---       #643
      0100836AH   LINE      CODE     ---       #644
      0100836AH   LINE      CODE     ---       #645
      0100836AH   LINE      CODE     ---       #647
      01008385H   LINE      CODE     ---       #649
      01008385H   LINE      CODE     ---       #650
      010083B0H   LINE      CODE     ---       #652
      010083D2H   LINE      CODE     ---       #655
      010083EEH   LINE      CODE     ---       #656
      010083FEH   LINE      CODE     ---       #657
      010083FEH   LINE      CODE     ---       #658
      0100841AH   LINE      CODE     ---       #659
      01008428H   LINE      CODE     ---       #660
      01008428H   LINE      CODE     ---       #664
      01008431H   LINE      CODE     ---       #667
      01008443H   LINE      CODE     ---       #668
      01008469H   LINE      CODE     ---       #671
      0100847CH   LINE      CODE     ---       #672
      010084A8H   LINE      CODE     ---       #675
      010084BBH   LINE      CODE     ---       #676
      010084FEH   LINE      CODE     ---       #679
      0100850CH   LINE      CODE     ---       #682
      0100851FH   LINE      CODE     ---       #683
      01008523H   LINE      CODE     ---       #685
      01008525H   LINE      CODE     ---       #688
      01008541H   LINE      CODE     ---       #689
      01008557H   LINE      CODE     ---       #691
      01008579H   LINE      CODE     ---       #692
      01008593H   LINE      CODE     ---       #695
      010085B6H   LINE      CODE     ---       #696
      010085D8H   LINE      CODE     ---       #698
      010085F4H   LINE      CODE     ---       #699
      01008604H   LINE      CODE     ---       #700
      01008604H   LINE      CODE     ---       #701
      01008620H   LINE      CODE     ---       #702
      0100862EH   LINE      CODE     ---       #703
      0100862EH   LINE      CODE     ---       #707
      01008637H   LINE      CODE     ---       #710
      01008649H   LINE      CODE     ---       #711
      0100866FH   LINE      CODE     ---       #714
      01008682H   LINE      CODE     ---       #715
      010086AEH   LINE      CODE     ---       #718
      010086C1H   LINE      CODE     ---       #719
      01008704H   LINE      CODE     ---       #722
      01008719H   LINE      CODE     ---       #723
      01008726H   LINE      CODE     ---       #724
      01008726H   LINE      CODE     ---       #725
      0100873AH   LINE      CODE     ---       #726
      01008744H   LINE      CODE     ---       #727
      01008744H   LINE      CODE     ---       #730
      01008752H   LINE      CODE     ---       #732
      01008755H   LINE      CODE     ---       #735
      01008755H   LINE      CODE     ---       #736
      01008780H   LINE      CODE     ---       #738
      010087A2H   LINE      CODE     ---       #741
      010087BDH   LINE      CODE     ---       #742
      010087CAH   LINE      CODE     ---       #743
      010087E8H   LINE      CODE     ---       #744
      010087F6H   LINE      CODE     ---       #745
      010087F6H   LINE      CODE     ---       #748
      01008809H   LINE      CODE     ---       #749
      01008823H   LINE      CODE     ---       #753
      01008836H   LINE      CODE     ---       #754
LX51 LINKER/LOCATER V4.64.0.0                                                         04/06/2018  15:41:10  PAGE 76


      01008862H   LINE      CODE     ---       #758
      01008875H   LINE      CODE     ---       #759
      010088B8H   LINE      CODE     ---       #763
      010088C6H   LINE      CODE     ---       #765
      010088D9H   LINE      CODE     ---       #766
      010088DEH   LINE      CODE     ---       #768
      010088E0H   LINE      CODE     ---       #770
      010088E3H   LINE      CODE     ---       #773
      010088E3H   LINE      CODE     ---       #774
      010088F2H   LINE      CODE     ---       #776
      01008907H   LINE      CODE     ---       #778
      01008923H   LINE      CODE     ---       #779
      01008939H   LINE      CODE     ---       #780
      01008939H   LINE      CODE     ---       #781
      0100895BH   LINE      CODE     ---       #782
      01008975H   LINE      CODE     ---       #783
      01008975H   LINE      CODE     ---       #786
      01008998H   LINE      CODE     ---       #787
      010089BAH   LINE      CODE     ---       #789
      010089D6H   LINE      CODE     ---       #790
      010089E6H   LINE      CODE     ---       #791
      010089E6H   LINE      CODE     ---       #792
      01008A02H   LINE      CODE     ---       #793
      01008A10H   LINE      CODE     ---       #794
      01008A10H   LINE      CODE     ---       #796
      01008A19H   LINE      CODE     ---       #799
      01008A2BH   LINE      CODE     ---       #800
      01008A51H   LINE      CODE     ---       #803
      01008A64H   LINE      CODE     ---       #804
      01008A90H   LINE      CODE     ---       #807
      01008AA3H   LINE      CODE     ---       #808
      01008AE6H   LINE      CODE     ---       #810
      01008AF4H   LINE      CODE     ---       #812
      01008B07H   LINE      CODE     ---       #813
      01008B0BH   LINE      CODE     ---       #815
      01008B0DH   LINE      CODE     ---       #816
      01008B0DH   LINE      CODE     ---       #817
      01008B0FH   LINE      CODE     ---       #820
      01008B0FH   LINE      CODE     ---       #822
      01008B24H   LINE      CODE     ---       #824
      01008B37H   LINE      CODE     ---       #825
      01008B3BH   LINE      CODE     ---       #827
      01008B3DH   LINE      CODE     ---       #831
      01008B52H   LINE      CODE     ---       #832
      01008B5FH   LINE      CODE     ---       #833
      01008B73H   LINE      CODE     ---       #834
      01008B7DH   LINE      CODE     ---       #837
      01008B7DH   LINE      CODE     ---       #839
      01008B7DH   LINE      CODE     ---       #843
      01008B91H   LINE      CODE     ---       #844
      01008B9BH   LINE      CODE     ---       #845
      01008BB0H   LINE      CODE     ---       #846
      01008BBBH   LINE      CODE     ---       #849
      01008BC3H   LINE      CODE     ---       #850
      01008BFAH   LINE      CODE     ---       #853
      01008C18H   LINE      CODE     ---       #855
      01008C1BH   LINE      CODE     ---       #856
      01008C22H   LINE      CODE     ---       #858
      01008C27H   LINE      CODE     ---       #860
      01008C31H   LINE      CODE     ---       #861
      ---         BLOCKEND  ---      ---       LVL=0

      0100A15FH   BLOCK     CODE     ---       LVL=0
      00000007H   SYMBOL    DATA     BYTE      idx
      0100A15FH   BLOCK     CODE     NEAR LAB  LVL=1
LX51 LINKER/LOCATER V4.64.0.0                                                         04/06/2018  15:41:10  PAGE 77


      00000023H   SYMBOL    DATA     BYTE      index
      00000003H   SYMBOL    DATA     BYTE      jj
      02000002H   SYMBOL    XDATA    DWORD     data_encoder
      02000006H   SYMBOL    XDATA    LONG      value_encoder
      0200000AH   SYMBOL    XDATA    LONG      speed_encoder
      0200000EH   SYMBOL    XDATA    LONG      accel_encoder
      02000012H   SYMBOL    XDATA    LONG      aux
      0200126DH   SYMBOL    XDATA    ---       last_value_encoder
      02001279H   SYMBOL    XDATA    ---       error
      00000021H.7 SYMBOL    BIT      BIT       only_first_time
      0200127CH   SYMBOL    XDATA    BYTE      one_time_execute
      00000022H.0 SYMBOL    BIT      BIT       pos_reconstruct
      0200127DH   SYMBOL    XDATA    ---       v_value
      02001289H   SYMBOL    XDATA    ---       vv_value
      02001295H   SYMBOL    XDATA    ---       vvv_value
      020012A1H   SYMBOL    XDATA    ---       a_value
      020012ADH   SYMBOL    XDATA    ---       aa_value
      020012B9H   SYMBOL    XDATA    ---       aaa_value
      ---         BLOCKEND  ---      ---       LVL=1
      0100A15FH   LINE      CODE     ---       #867
      0100A15FH   LINE      CODE     ---       #869
      0100A161H   LINE      CODE     ---       #896
      0100A16BH   LINE      CODE     ---       #899
      0100A16EH   LINE      CODE     ---       #900
      0100A176H   LINE      CODE     ---       #901
      0100A18EH   LINE      CODE     ---       #903
      0100A190H   LINE      CODE     ---       #904
      0100A190H   LINE      CODE     ---       #908
      0100A194H   LINE      CODE     ---       #909
      0100A1ACH   LINE      CODE     ---       #910
      0100A1ACH   LINE      CODE     ---       #911
      0100A1B1H   LINE      CODE     ---       #912
      0100A1C9H   LINE      CODE     ---       #914
      0100A1DFH   LINE      CODE     ---       #915
      0100A1DFH   LINE      CODE     ---       #918
      0100A1EDH   LINE      CODE     ---       #920
      0100A245H   LINE      CODE     ---       #927
      0100A248H   LINE      CODE     ---       #928
      0100A268H   LINE      CODE     ---       #929
      0100A26DH   LINE      CODE     ---       #930
      0100A26FH   LINE      CODE     ---       #931
      0100A26FH   LINE      CODE     ---       #934
      0100A2A8H   LINE      CODE     ---       #954
      0100A2C2H   LINE      CODE     ---       #955
      0100A2D2H   LINE      CODE     ---       #956
      0100A2D2H   LINE      CODE     ---       #957
      0100A2EEH   LINE      CODE     ---       #958
      0100A2FEH   LINE      CODE     ---       #959
      0100A2FEH   LINE      CODE     ---       #960
      0100A318H   LINE      CODE     ---       #961
      0100A326H   LINE      CODE     ---       #962
      0100A33AH   LINE      CODE     ---       #965
      0100A33AH   LINE      CODE     ---       #966
      0100A33AH   LINE      CODE     ---       #967
      0100A33AH   LINE      CODE     ---       #969
      0100A347H   LINE      CODE     ---       #971
      0100A367H   LINE      CODE     ---       #973
      0100A3A3H   LINE      CODE     ---       #975
      0100A3C9H   LINE      CODE     ---       #976
      0100A401H   LINE      CODE     ---       #977
      0100A401H   LINE      CODE     ---       #979
      0100A421H   LINE      CODE     ---       #980
      0100A421H   LINE      CODE     ---       #982
      0100A436H   LINE      CODE     ---       #983
      0100A436H   LINE      CODE     ---       #984
LX51 LINKER/LOCATER V4.64.0.0                                                         04/06/2018  15:41:10  PAGE 78


      0100A4D4H   LINE      CODE     ---       #985
      0100A4D7H   LINE      CODE     ---       #986
      0100A4D7H   LINE      CODE     ---       #987
      0100A4D7H   LINE      CODE     ---       #988
      0100A575H   LINE      CODE     ---       #989
      0100A578H   LINE      CODE     ---       #990
      0100A578H   LINE      CODE     ---       #991
      0100A578H   LINE      CODE     ---       #992
      0100A616H   LINE      CODE     ---       #993
      0100A616H   LINE      CODE     ---       #994
      0100A616H   LINE      CODE     ---       #995
      0100A616H   LINE      CODE     ---       #997
      0100A636H   LINE      CODE     ---       #1000
      0100A64BH   LINE      CODE     ---       #1001
      0100A64BH   LINE      CODE     ---       #1002
      0100A6E9H   LINE      CODE     ---       #1003
      0100A6ECH   LINE      CODE     ---       #1005
      0100A6ECH   LINE      CODE     ---       #1006
      0100A78AH   LINE      CODE     ---       #1007
      0100A78DH   LINE      CODE     ---       #1009
      0100A78DH   LINE      CODE     ---       #1010
      0100A82BH   LINE      CODE     ---       #1011
      0100A82BH   LINE      CODE     ---       #1012
      0100A82BH   LINE      CODE     ---       #1014
      0100A84BH   LINE      CODE     ---       #1017
      0100A877H   LINE      CODE     ---       #1018
      0100A8A3H   LINE      CODE     ---       #1019
      0100A8C3H   LINE      CODE     ---       #1021
      0100A8EFH   LINE      CODE     ---       #1022
      0100A91BH   LINE      CODE     ---       #1023
      0100A93BH   LINE      CODE     ---       #1027
      0100A941H   LINE      CODE     ---       #1028
      0100A94AH   LINE      CODE     ---       #1029
      0100A94EH   LINE      CODE     ---       #1030
      0100A94EH   LINE      CODE     ---       #1032
      0100A954H   LINE      CODE     ---       #1033
      0100A97EH   LINE      CODE     ---       #1035
      0100A9B2H   LINE      CODE     ---       #1038
      0100A9C6H   LINE      CODE     ---       #1040
      0100A9CEH   LINE      CODE     ---       #1042
      0100A9D0H   LINE      CODE     ---       #1043
      0100A9D0H   LINE      CODE     ---       #1044
      0100A9D0H   LINE      CODE     ---       #1045
      ---         BLOCKEND  ---      ---       LVL=0

      010096E8H   BLOCK     CODE     ---       LVL=0
      010096E8H   BLOCK     CODE     NEAR LAB  LVL=1
      00000023H   SYMBOL    DATA     LONG      i_aux
      0000000EH   SYMBOL    DATA     BYTE      emg_1_status
      0000000FH   SYMBOL    DATA     BYTE      emg_2_status
      00000010H   SYMBOL    DATA     BYTE      UD_status
      00000011H   SYMBOL    DATA     BYTE      LR_status
      00000012H   SYMBOL    DATA     WORD      UD_counter
      00000014H   SYMBOL    DATA     WORD      LR_counter
      00000016H   SYMBOL    DATA     LONG      UD_mean_value
      0000001AH   SYMBOL    DATA     LONG      LR_mean_value
      020012C5H   SYMBOL    XDATA    WORD      emg_counter_1
      020012C7H   SYMBOL    XDATA    WORD      emg_counter_2
      020012C9H   SYMBOL    XDATA    BYTE      count
      020012CAH   SYMBOL    XDATA    DWORD     count2
      ---         BLOCKEND  ---      ---       LVL=1
      010096E8H   LINE      CODE     ---       #1051
      010096E8H   LINE      CODE     ---       #1094
      010096EEH   LINE      CODE     ---       #1095
      010096F1H   LINE      CODE     ---       #1096
LX51 LINKER/LOCATER V4.64.0.0                                                         04/06/2018  15:41:10  PAGE 79


      010096F3H   LINE      CODE     ---       #1097
      010096F6H   LINE      CODE     ---       #1098
      010096F6H   LINE      CODE     ---       #1099
      010096F8H   LINE      CODE     ---       #1102
      01009720H   LINE      CODE     ---       #1104
      01009723H   LINE      CODE     ---       #1105
      01009725H   LINE      CODE     ---       #1106
      01009728H   LINE      CODE     ---       #1107
      01009728H   LINE      CODE     ---       #1109
      01009731H   LINE      CODE     ---       #1110
      01009737H   LINE      CODE     ---       #1112
      01009740H   LINE      CODE     ---       #1113
      0100975AH   LINE      CODE     ---       #1114
      01009767H   LINE      CODE     ---       #1115
      01009769H   LINE      CODE     ---       #1116
      01009769H   LINE      CODE     ---       #1117
      01009784H   LINE      CODE     ---       #1118
      01009791H   LINE      CODE     ---       #1119
      01009793H   LINE      CODE     ---       #1121
      010097A0H   LINE      CODE     ---       #1122
      010097A0H   LINE      CODE     ---       #1124
      010097A5H   LINE      CODE     ---       #1125
      010097A5H   LINE      CODE     ---       #1126
      010097A5H   LINE      CODE     ---       #1130
      010097C3H   LINE      CODE     ---       #1133
      010097DDH   LINE      CODE     ---       #1134
      010097DFH   LINE      CODE     ---       #1135
      010097E1H   LINE      CODE     ---       #1136
      010097E1H   LINE      CODE     ---       #1137
      01009800H   LINE      CODE     ---       #1138
      01009817H   LINE      CODE     ---       #1139
      01009817H   LINE      CODE     ---       #1141
      0100981DH   LINE      CODE     ---       #1142
      01009820H   LINE      CODE     ---       #1145
      0100985DH   LINE      CODE     ---       #1149
      01009860H   LINE      CODE     ---       #1150
      01009862H   LINE      CODE     ---       #1151
      01009865H   LINE      CODE     ---       #1152
      01009865H   LINE      CODE     ---       #1155
      0100986BH   LINE      CODE     ---       #1156
      0100986DH   LINE      CODE     ---       #1157
      0100986FH   LINE      CODE     ---       #1158
      0100986FH   LINE      CODE     ---       #1161
      0100987AH   LINE      CODE     ---       #1165
      0100989BH   LINE      CODE     ---       #1166
      0100989BH   LINE      CODE     ---       #1167
      010098AFH   LINE      CODE     ---       #1169
      01009918H   LINE      CODE     ---       #1171
      0100991BH   LINE      CODE     ---       #1172
      0100991DH   LINE      CODE     ---       #1173
      01009920H   LINE      CODE     ---       #1174
      01009920H   LINE      CODE     ---       #1177
      01009936H   LINE      CODE     ---       #1178
      01009942H   LINE      CODE     ---       #1179
      01009956H   LINE      CODE     ---       #1180
      01009960H   LINE      CODE     ---       #1182
      0100996AH   LINE      CODE     ---       #1184
      01009970H   LINE      CODE     ---       #1185
      01009972H   LINE      CODE     ---       #1186
      01009975H   LINE      CODE     ---       #1187
      01009975H   LINE      CODE     ---       #1189
      01009978H   LINE      CODE     ---       #1191
      01009978H   LINE      CODE     ---       #1192
      0100997DH   LINE      CODE     ---       #1193
      01009985H   LINE      CODE     ---       #1194
LX51 LINKER/LOCATER V4.64.0.0                                                         04/06/2018  15:41:10  PAGE 80


      01009988H   LINE      CODE     ---       #1196
      0100998BH   LINE      CODE     ---       #1198
      0100998BH   LINE      CODE     ---       #1199
      01009993H   LINE      CODE     ---       #1200
      01009999H   LINE      CODE     ---       #1201
      0100999DH   LINE      CODE     ---       #1203
      010099A0H   LINE      CODE     ---       #1204
      010099A2H   LINE      CODE     ---       #1205
      010099A5H   LINE      CODE     ---       #1206
      010099A5H   LINE      CODE     ---       #1208
      010099A8H   LINE      CODE     ---       #1209
      010099A8H   LINE      CODE     ---       #1211
      010099AAH   LINE      CODE     ---       #1213
      010099AAH   LINE      CODE     ---       #1215
      010099B2H   LINE      CODE     ---       #1216
      010099D4H   LINE      CODE     ---       #1218
      010099D7H   LINE      CODE     ---       #1219
      010099D9H   LINE      CODE     ---       #1220
      010099DCH   LINE      CODE     ---       #1221
      010099DCH   LINE      CODE     ---       #1223
      010099E4H   LINE      CODE     ---       #1224
      010099FCH   LINE      CODE     ---       #1226
      010099FFH   LINE      CODE     ---       #1227
      01009A01H   LINE      CODE     ---       #1228
      01009A04H   LINE      CODE     ---       #1229
      01009A04H   LINE      CODE     ---       #1231
      01009A09H   LINE      CODE     ---       #1232
      01009A0BH   LINE      CODE     ---       #1233
      01009A0BH   LINE      CODE     ---       #1234
      01009A0DH   LINE      CODE     ---       #1236
      01009A0DH   LINE      CODE     ---       #1237
      01009A15H   LINE      CODE     ---       #1238
      01009A18H   LINE      CODE     ---       #1239
      01009A18H   LINE      CODE     ---       #1240
      01009A18H   LINE      CODE     ---       #1242
      01009A1BH   LINE      CODE     ---       #1243
      01009A1DH   LINE      CODE     ---       #1244
      01009A20H   LINE      CODE     ---       #1245
      01009A20H   LINE      CODE     ---       #1247
      01009A41H   LINE      CODE     ---       #1248
      01009A41H   LINE      CODE     ---       #1249
      01009A55H   LINE      CODE     ---       #1251
      01009ABEH   LINE      CODE     ---       #1253
      01009AC1H   LINE      CODE     ---       #1254
      01009AC3H   LINE      CODE     ---       #1255
      01009AC6H   LINE      CODE     ---       #1256
      01009AC6H   LINE      CODE     ---       #1259
      01009ADCH   LINE      CODE     ---       #1260
      01009AE8H   LINE      CODE     ---       #1261
      01009AFCH   LINE      CODE     ---       #1262
      01009B06H   LINE      CODE     ---       #1264
      01009B09H   LINE      CODE     ---       #1265
      01009B0BH   LINE      CODE     ---       #1266
      01009B0EH   LINE      CODE     ---       #1267
      01009B0EH   LINE      CODE     ---       #1269
      01009B18H   LINE      CODE     ---       #1271
      01009B1BH   LINE      CODE     ---       #1273
      01009B1BH   LINE      CODE     ---       #1274
      01009B20H   LINE      CODE     ---       #1275
      01009B28H   LINE      CODE     ---       #1276
      01009B2BH   LINE      CODE     ---       #1277
      01009B2EH   LINE      CODE     ---       #1279
      01009B2EH   LINE      CODE     ---       #1280
      01009B36H   LINE      CODE     ---       #1281
      01009B3CH   LINE      CODE     ---       #1282
LX51 LINKER/LOCATER V4.64.0.0                                                         04/06/2018  15:41:10  PAGE 81


      01009B40H   LINE      CODE     ---       #1284
      01009B43H   LINE      CODE     ---       #1285
      01009B45H   LINE      CODE     ---       #1286
      01009B48H   LINE      CODE     ---       #1287
      01009B48H   LINE      CODE     ---       #1289
      01009B4BH   LINE      CODE     ---       #1290
      01009B4BH   LINE      CODE     ---       #1291
      01009B4DH   LINE      CODE     ---       #1293
      01009B4DH   LINE      CODE     ---       #1295
      01009B55H   LINE      CODE     ---       #1296
      01009B77H   LINE      CODE     ---       #1297
      01009B7FH   LINE      CODE     ---       #1298
      01009B97H   LINE      CODE     ---       #1300
      01009B9AH   LINE      CODE     ---       #1301
      01009B9CH   LINE      CODE     ---       #1302
      01009B9FH   LINE      CODE     ---       #1303
      01009B9FH   LINE      CODE     ---       #1305
      01009BA4H   LINE      CODE     ---       #1306
      01009BA6H   LINE      CODE     ---       #1307
      01009BA6H   LINE      CODE     ---       #1308
      01009BA8H   LINE      CODE     ---       #1310
      01009BA8H   LINE      CODE     ---       #1311
      01009BB4H   LINE      CODE     ---       #1312
      01009BB7H   LINE      CODE     ---       #1313
      01009BB7H   LINE      CODE     ---       #1314
      01009BB7H   LINE      CODE     ---       #1316
      01009BBDH   LINE      CODE     ---       #1317
      01009BBFH   LINE      CODE     ---       #1318
      01009BC2H   LINE      CODE     ---       #1319
      01009BC2H   LINE      CODE     ---       #1321
      01009BC5H   LINE      CODE     ---       #1322
      01009BC5H   LINE      CODE     ---       #1328
      01009BE0H   LINE      CODE     ---       #1329
      01009BE0H   LINE      CODE     ---       #1330
      01009BF4H   LINE      CODE     ---       #1331
      01009C07H   LINE      CODE     ---       #1332
      01009C10H   LINE      CODE     ---       #1333
      01009C23H   LINE      CODE     ---       #1334
      01009C41H   LINE      CODE     ---       #1336
      01009C44H   LINE      CODE     ---       #1337
      01009C46H   LINE      CODE     ---       #1338
      01009C49H   LINE      CODE     ---       #1339
      01009C49H   LINE      CODE     ---       #1341
      01009C5CH   LINE      CODE     ---       #1342
      01009C67H   LINE      CODE     ---       #1344
      01009C7BH   LINE      CODE     ---       #1345
      01009C85H   LINE      CODE     ---       #1347
      01009C93H   LINE      CODE     ---       #1349
      01009C99H   LINE      CODE     ---       #1350
      01009C9BH   LINE      CODE     ---       #1351
      01009C9EH   LINE      CODE     ---       #1352
      01009C9EH   LINE      CODE     ---       #1354
      01009CA1H   LINE      CODE     ---       #1356
      01009CA1H   LINE      CODE     ---       #1357
      01009CA8H   LINE      CODE     ---       #1358
      01009CB2H   LINE      CODE     ---       #1359
      01009CB5H   LINE      CODE     ---       #1361
      01009CB8H   LINE      CODE     ---       #1363
      01009CB8H   LINE      CODE     ---       #1364
      01009CC6H   LINE      CODE     ---       #1365
      01009CD7H   LINE      CODE     ---       #1366
      01009CDDH   LINE      CODE     ---       #1368
      01009CE2H   LINE      CODE     ---       #1369
      01009CE7H   LINE      CODE     ---       #1371
      01009CEAH   LINE      CODE     ---       #1372
LX51 LINKER/LOCATER V4.64.0.0                                                         04/06/2018  15:41:10  PAGE 82


      01009CECH   LINE      CODE     ---       #1373
      01009CEFH   LINE      CODE     ---       #1374
      01009CEFH   LINE      CODE     ---       #1376
      01009CF2H   LINE      CODE     ---       #1377
      01009CF2H   LINE      CODE     ---       #1378
      01009CF5H   LINE      CODE     ---       #1380
      01009CF5H   LINE      CODE     ---       #1382
      01009D03H   LINE      CODE     ---       #1383
      01009D0EH   LINE      CODE     ---       #1384
      01009D12H   LINE      CODE     ---       #1385
      01009D53H   LINE      CODE     ---       #1387
      01009D56H   LINE      CODE     ---       #1388
      01009D58H   LINE      CODE     ---       #1389
      01009D5BH   LINE      CODE     ---       #1390
      01009D5BH   LINE      CODE     ---       #1392
      01009D69H   LINE      CODE     ---       #1393
      01009D87H   LINE      CODE     ---       #1395
      01009D8AH   LINE      CODE     ---       #1396
      01009D8CH   LINE      CODE     ---       #1397
      01009D8FH   LINE      CODE     ---       #1398
      01009D8FH   LINE      CODE     ---       #1400
      01009D94H   LINE      CODE     ---       #1401
      01009D99H   LINE      CODE     ---       #1403
      01009DA0H   LINE      CODE     ---       #1405
      01009DA2H   LINE      CODE     ---       #1406
      01009DA2H   LINE      CODE     ---       #1407
      01009DA2H   LINE      CODE     ---       #1409
      01009DA2H   LINE      CODE     ---       #1410
      01009DA2H   LINE      CODE     ---       #1411
      01009DA2H   LINE      CODE     ---       #1413
      01009DA5H   LINE      CODE     ---       #1414
      01009DA7H   LINE      CODE     ---       #1415
      01009DAAH   LINE      CODE     ---       #1416
      01009DAAH   LINE      CODE     ---       #1418
      01009DD1H   LINE      CODE     ---       #1419
      01009DD1H   LINE      CODE     ---       #1420
      01009DE5H   LINE      CODE     ---       #1421
      01009DF8H   LINE      CODE     ---       #1422
      01009E01H   LINE      CODE     ---       #1423
      01009E14H   LINE      CODE     ---       #1424
      01009E32H   LINE      CODE     ---       #1426
      01009E35H   LINE      CODE     ---       #1427
      01009E37H   LINE      CODE     ---       #1428
      01009E3AH   LINE      CODE     ---       #1429
      01009E3AH   LINE      CODE     ---       #1431
      01009E4DH   LINE      CODE     ---       #1432
      01009E58H   LINE      CODE     ---       #1434
      01009E6CH   LINE      CODE     ---       #1435
      01009E76H   LINE      CODE     ---       #1437
      01009E84H   LINE      CODE     ---       #1439
      01009E87H   LINE      CODE     ---       #1441
      01009E87H   LINE      CODE     ---       #1442
      01009E8EH   LINE      CODE     ---       #1443
      01009E98H   LINE      CODE     ---       #1445
      01009E9BH   LINE      CODE     ---       #1446
      01009E9DH   LINE      CODE     ---       #1447
      01009EA0H   LINE      CODE     ---       #1448
      01009EA0H   LINE      CODE     ---       #1450
      01009EA3H   LINE      CODE     ---       #1451
      01009EA6H   LINE      CODE     ---       #1453
      01009EA6H   LINE      CODE     ---       #1454
      01009EB4H   LINE      CODE     ---       #1455
      01009EC5H   LINE      CODE     ---       #1456
      01009ECBH   LINE      CODE     ---       #1458
      01009ED0H   LINE      CODE     ---       #1459
LX51 LINKER/LOCATER V4.64.0.0                                                         04/06/2018  15:41:10  PAGE 83


      01009ED5H   LINE      CODE     ---       #1461
      01009ED8H   LINE      CODE     ---       #1462
      01009EDAH   LINE      CODE     ---       #1463
      01009EDDH   LINE      CODE     ---       #1464
      01009EDDH   LINE      CODE     ---       #1466
      01009EE0H   LINE      CODE     ---       #1467
      01009EE0H   LINE      CODE     ---       #1468
      01009EE3H   LINE      CODE     ---       #1470
      01009EE3H   LINE      CODE     ---       #1472
      01009EF1H   LINE      CODE     ---       #1473
      01009EFCH   LINE      CODE     ---       #1474
      01009F00H   LINE      CODE     ---       #1475
      01009F41H   LINE      CODE     ---       #1477
      01009F44H   LINE      CODE     ---       #1478
      01009F46H   LINE      CODE     ---       #1479
      01009F49H   LINE      CODE     ---       #1480
      01009F49H   LINE      CODE     ---       #1482
      01009F5AH   LINE      CODE     ---       #1483
      01009F78H   LINE      CODE     ---       #1485
      01009F7DH   LINE      CODE     ---       #1486
      01009F82H   LINE      CODE     ---       #1488
      01009F89H   LINE      CODE     ---       #1490
      01009F8CH   LINE      CODE     ---       #1491
      01009F8EH   LINE      CODE     ---       #1492
      01009F91H   LINE      CODE     ---       #1493
      01009F91H   LINE      CODE     ---       #1495
      01009F94H   LINE      CODE     ---       #1496
      01009F94H   LINE      CODE     ---       #1497
      01009F97H   LINE      CODE     ---       #1499
      01009F97H   LINE      CODE     ---       #1500
      01009F9EH   LINE      CODE     ---       #1501
      01009FA1H   LINE      CODE     ---       #1502
      01009FA3H   LINE      CODE     ---       #1504
      01009FA3H   LINE      CODE     ---       #1505
      01009FB1H   LINE      CODE     ---       #1506
      01009FBFH   LINE      CODE     ---       #1507
      01009FC5H   LINE      CODE     ---       #1509
      01009FC8H   LINE      CODE     ---       #1510
      01009FCAH   LINE      CODE     ---       #1511
      01009FCDH   LINE      CODE     ---       #1512
      01009FCDH   LINE      CODE     ---       #1515
      01009FE4H   LINE      CODE     ---       #1518
      01009FE4H   LINE      CODE     ---       #1519
      01009FEAH   LINE      CODE     ---       #1520
      01009FFEH   LINE      CODE     ---       #1521
      0100A012H   LINE      CODE     ---       #1522
      0100A012H   LINE      CODE     ---       #1523
      0100A01BH   LINE      CODE     ---       #1524
      0100A01EH   LINE      CODE     ---       #1525
      0100A01EH   LINE      CODE     ---       #1527
      0100A021H   LINE      CODE     ---       #1528
      0100A021H   LINE      CODE     ---       #1529
      0100A021H   LINE      CODE     ---       #1531
      0100A021H   LINE      CODE     ---       #1532
      0100A021H   LINE      CODE     ---       #1533
      0100A021H   LINE      CODE     ---       #1535
      0100A024H   LINE      CODE     ---       #1536
      0100A026H   LINE      CODE     ---       #1537
      0100A029H   LINE      CODE     ---       #1538
      0100A029H   LINE      CODE     ---       #1539
      0100A029H   LINE      CODE     ---       #1540
      0100A02BH   LINE      CODE     ---       #1541
      0100A02BH   LINE      CODE     ---       #1543
      0100A02EH   LINE      CODE     ---       #1544
      0100A031H   LINE      CODE     ---       #1546
LX51 LINKER/LOCATER V4.64.0.0                                                         04/06/2018  15:41:10  PAGE 84


      0100A034H   LINE      CODE     ---       #1547
      0100A037H   LINE      CODE     ---       #1549
      0100A039H   LINE      CODE     ---       #1552
      0100A03EH   LINE      CODE     ---       #1554
      0100A043H   LINE      CODE     ---       #1556
      0100A046H   LINE      CODE     ---       #1557
      0100A048H   LINE      CODE     ---       #1558
      0100A04BH   LINE      CODE     ---       #1559
      0100A04BH   LINE      CODE     ---       #1561
      0100A051H   LINE      CODE     ---       #1562
      0100A068H   LINE      CODE     ---       #1565
      0100A068H   LINE      CODE     ---       #1566
      0100A06DH   LINE      CODE     ---       #1567
      0100A071H   LINE      CODE     ---       #1568
      0100A071H   LINE      CODE     ---       #1569
      0100A071H   LINE      CODE     ---       #1572
      0100A07CH   LINE      CODE     ---       #1575
      0100A087H   LINE      CODE     ---       #1576
      0100A092H   LINE      CODE     ---       #1579
      0100A099H   LINE      CODE     ---       #1580
      0100A09DH   LINE      CODE     ---       #1582
      0100A09DH   LINE      CODE     ---       #1585
      0100A0BAH   LINE      CODE     ---       #1586
      0100A0D1H   LINE      CODE     ---       #1587
      0100A11FH   LINE      CODE     ---       #1589
      0100A124H   LINE      CODE     ---       #1592
      0100A129H   LINE      CODE     ---       #1593
      0100A12BH   LINE      CODE     ---       #1594
      0100A12BH   LINE      CODE     ---       #1596
      0100A130H   LINE      CODE     ---       #1599
      0100A135H   LINE      CODE     ---       #1602
      0100A13BH   LINE      CODE     ---       #1603
      0100A13EH   LINE      CODE     ---       #1606
      0100A141H   LINE      CODE     ---       #1607
      0100A143H   LINE      CODE     ---       #1608
      0100A146H   LINE      CODE     ---       #1609
      0100A146H   LINE      CODE     ---       #1611
      0100A14BH   LINE      CODE     ---       #1612
      0100A14DH   LINE      CODE     ---       #1613
      0100A14DH   LINE      CODE     ---       #1614
      0100A152H   LINE      CODE     ---       #1615
      0100A156H   LINE      CODE     ---       #1616
      0100A156H   LINE      CODE     ---       #1617
      0100A156H   LINE      CODE     ---       #1618
      0100A156H   LINE      CODE     ---       #1620
      0100A159H   LINE      CODE     ---       #1621
      0100A15BH   LINE      CODE     ---       #1622
      0100A15EH   LINE      CODE     ---       #1623
      0100A15EH   LINE      CODE     ---       #1624
      ---         BLOCKEND  ---      ---       LVL=0

      0100E11BH   BLOCK     CODE     ---       LVL=0
      0100E11BH   LINE      CODE     ---       #1630
      0100E11BH   LINE      CODE     ---       #1631
      0100E126H   LINE      CODE     ---       #1633
      0100E140H   LINE      CODE     ---       #1635
      0100E146H   LINE      CODE     ---       #1637
      0100E16FH   LINE      CODE     ---       #1639
      0100E175H   LINE      CODE     ---       #1640
      0100E175H   LINE      CODE     ---       #1643
      0100E17FH   LINE      CODE     ---       #1644
      0100E182H   LINE      CODE     ---       #1646
      0100E188H   LINE      CODE     ---       #1647
      0100E18EH   LINE      CODE     ---       #1648
      0100E18EH   LINE      CODE     ---       #1649
LX51 LINKER/LOCATER V4.64.0.0                                                         04/06/2018  15:41:10  PAGE 85


      ---         BLOCKEND  ---      ---       LVL=0

      0100E030H   BLOCK     CODE     ---       LVL=0
      0100E030H   BLOCK     CODE     NEAR LAB  LVL=1
      00000027H   SYMBOL    DATA     BYTE      index
      ---         BLOCKEND  ---      ---       LVL=1
      0100E030H   LINE      CODE     ---       #1655
      0100E030H   LINE      CODE     ---       #1659
      0100E04BH   LINE      CODE     ---       #1660
      0100E050H   LINE      CODE     ---       #1661
      0100E06CH   LINE      CODE     ---       #1662
      0100E072H   LINE      CODE     ---       #1663
      0100E073H   LINE      CODE     ---       #1664
      0100E096H   LINE      CODE     ---       #1665
      0100E0A5H   LINE      CODE     ---       #1666
      0100E0A5H   LINE      CODE     ---       #1667
      ---         BLOCKEND  ---      ---       LVL=0

      ---         MODULE    ---      ---       MAIN
      0100B8D3H   PUBLIC    CODE     ---       main
      000000CAH   SFRSYM    DATA     BYTE      SFRPRT5SEL
      000000DAH   SFRSYM    DATA     BYTE      SFRPRT6SEL
      000000D0H.6 SFRSYM    DATA     BIT       AC
      000000A8H.7 SFRSYM    DATA     BIT       EA
      000000A8H   SFRSYM    DATA     BYTE      IE
      00000085H   SFRSYM    DATA     BYTE      DPH1
      00000084H   SFRSYM    DATA     BYTE      DPL1
      000000D0H.7 SFRSYM    DATA     BIT       CY
      000000A0H   SFRSYM    DATA     BYTE      P2AX
      00000095H   SFRSYM    DATA     BYTE      DPX1
      00000081H   SFRSYM    DATA     BYTE      SP
      000000D0H.2 SFRSYM    DATA     BIT       OV
      00000080H   SFRSYM    DATA     BYTE      SFRPRT0DR
      00000090H   SFRSYM    DATA     BYTE      SFRPRT1DR
      000000F2H   SFRSYM    DATA     BYTE      SFRPRT12SEL
      00000098H   SFRSYM    DATA     BYTE      SFRPRT2DR
      000000B0H   SFRSYM    DATA     BYTE      SFRPRT3DR
      000000C0H   SFRSYM    DATA     BYTE      SFRPRT4DR
      000000FAH   SFRSYM    DATA     BYTE      SFRPRT15SEL
      000000C8H   SFRSYM    DATA     BYTE      SFRPRT5DR
      000000D8H   SFRSYM    DATA     BYTE      SFRPRT6DR
      00000089H   SFRSYM    DATA     BYTE      SFRPRT0PS
      00000091H   SFRSYM    DATA     BYTE      SFRPRT1PS
      00000099H   SFRSYM    DATA     BYTE      SFRPRT2PS
      000000B1H   SFRSYM    DATA     BYTE      SFRPRT3PS
      000000C1H   SFRSYM    DATA     BYTE      SFRPRT4PS
      000000C9H   SFRSYM    DATA     BYTE      SFRPRT5PS
      000000D9H   SFRSYM    DATA     BYTE      SFRPRT6PS
      000000EAH   SFRSYM    DATA     BYTE      MXAX
      000000F0H   SFRSYM    DATA     BYTE      B
      000000E0H   SFRSYM    DATA     BYTE      ACC
      000000D0H   SFRSYM    DATA     BIT       P
      000000D0H.3 SFRSYM    DATA     BIT       RS0
      000000D0H.4 SFRSYM    DATA     BIT       RS1
      00000083H   SFRSYM    DATA     BYTE      DPH
      000000E8H   SFRSYM    DATA     BYTE      SFRPRT12DR
      00000082H   SFRSYM    DATA     BYTE      DPL
      000000F8H   SFRSYM    DATA     BYTE      SFRPRT15DR
      00000086H   SFRSYM    DATA     BYTE      DPS
      000000E9H   SFRSYM    DATA     BYTE      SFRPRT12PS
      00000093H   SFRSYM    DATA     BYTE      DPX
      000000F9H   SFRSYM    DATA     BYTE      SFRPRT15PS
      000000D0H.5 SFRSYM    DATA     BIT       F0
      000000D0H.1 SFRSYM    DATA     BIT       F1
      0000008AH   SFRSYM    DATA     BYTE      SFRPRT0SEL
LX51 LINKER/LOCATER V4.64.0.0                                                         04/06/2018  15:41:10  PAGE 86


      000000D0H   SFRSYM    DATA     BYTE      PSW
      000000A2H   SFRSYM    DATA     BYTE      SFRPRT1SEL
      0000009AH   SFRSYM    DATA     BYTE      SFRPRT2SEL
      000000B2H   SFRSYM    DATA     BYTE      SFRPRT3SEL
      000000C2H   SFRSYM    DATA     BYTE      SFRPRT4SEL

      0100B8D3H   BLOCK     CODE     ---       LVL=0
      0100B8D3H   BLOCK     CODE     NEAR LAB  LVL=1
      00000003H   SYMBOL    DATA     BYTE      i
      02000000H   SYMBOL    XDATA    BYTE      DMA_Chan
      02000001H   SYMBOL    XDATA    ---       DMA_TD
      ---         BLOCKEND  ---      ---       LVL=1
      0100B8D3H   LINE      CODE     ---       #72
      0100B8D3H   LINE      CODE     ---       #73
      0100B8D3H   LINE      CODE     ---       #86
      0100B8D6H   LINE      CODE     ---       #87
      0100B8D9H   LINE      CODE     ---       #91
      0100B8E2H   LINE      CODE     ---       #92
      0100B8E7H   LINE      CODE     ---       #95
      0100B8ECH   LINE      CODE     ---       #97
      0100B8F1H   LINE      CODE     ---       #98
      0100B8F4H   LINE      CODE     ---       #99
      0100B8F9H   LINE      CODE     ---       #103
      0100B8FCH   LINE      CODE     ---       #104
      0100B8FFH   LINE      CODE     ---       #105
      0100B902H   LINE      CODE     ---       #107
      0100B905H   LINE      CODE     ---       #108
      0100B908H   LINE      CODE     ---       #110
      0100B90FH   LINE      CODE     ---       #114
      0100B912H   LINE      CODE     ---       #116
      0100B919H   LINE      CODE     ---       #120
      0100B91CH   LINE      CODE     ---       #121
      0100B921H   LINE      CODE     ---       #122
      0100B926H   LINE      CODE     ---       #123
      0100B92BH   LINE      CODE     ---       #124
      0100B930H   LINE      CODE     ---       #129
      0100B933H   LINE      CODE     ---       #131
      0100B936H   LINE      CODE     ---       #132
      0100B939H   LINE      CODE     ---       #133
      0100B93CH   LINE      CODE     ---       #137
      0100B93FH   LINE      CODE     ---       #138
      0100B944H   LINE      CODE     ---       #141
      0100B959H   LINE      CODE     ---       #142
      0100B961H   LINE      CODE     ---       #143
      0100B971H   LINE      CODE     ---       #144
      0100B988H   LINE      CODE     ---       #145
      0100B993H   LINE      CODE     ---       #147
      0100B99DH   LINE      CODE     ---       #149
      0100B9A2H   LINE      CODE     ---       #153
      0100B9A5H   LINE      CODE     ---       #154
      0100B9A8H   LINE      CODE     ---       #156
      0100B9B0H   LINE      CODE     ---       #160
      0100B9B5H   LINE      CODE     ---       #162
      0100B9BEH   LINE      CODE     ---       #165
      0100B9C6H   LINE      CODE     ---       #166
      0100B9DEH   LINE      CODE     ---       #169
      0100B9E4H   LINE      CODE     ---       #170
      0100B9FBH   LINE      CODE     ---       #174
      0100BA02H   LINE      CODE     ---       #176
      0100BA0AH   LINE      CODE     ---       #177
      0100BA0CH   LINE      CODE     ---       #179
      0100BA14H   LINE      CODE     ---       #182
      0100BA1CH   LINE      CODE     ---       #183
      0100BA32H   LINE      CODE     ---       #184
      0100BA3EH   LINE      CODE     ---       #185
LX51 LINKER/LOCATER V4.64.0.0                                                         04/06/2018  15:41:10  PAGE 87


      0100BA40H   LINE      CODE     ---       #187
      0100BA53H   LINE      CODE     ---       #189
      0100BA5DH   LINE      CODE     ---       #192
      0100BA68H   LINE      CODE     ---       #193
      0100BA73H   LINE      CODE     ---       #195
      0100BA78H   LINE      CODE     ---       #197
      0100BA7DH   LINE      CODE     ---       #198
      0100BA89H   LINE      CODE     ---       #199
      0100BA8BH   LINE      CODE     ---       #200
      0100BA91H   LINE      CODE     ---       #202
      0100BA93H   LINE      CODE     ---       #205
      0100BA9AH   LINE      CODE     ---       #206
      0100BA9EH   LINE      CODE     ---       #210
      0100BAA3H   LINE      CODE     ---       #211
      0100BAAEH   LINE      CODE     ---       #213
      0100BAB4H   LINE      CODE     ---       #214
      0100BAB8H   LINE      CODE     ---       #218
      0100BAB8H   LINE      CODE     ---       #219
      0100BAB8H   LINE      CODE     ---       #221
      0100BABDH   LINE      CODE     ---       #224
      0100BAC0H   LINE      CODE     ---       #227
      0100BAC6H   LINE      CODE     ---       #229
      0100BAC9H   LINE      CODE     ---       #231
      0100BACEH   LINE      CODE     ---       #233
      0100BAD0H   LINE      CODE     ---       #234
      0100BAD2H   LINE      CODE     ---       #236
      0100BAD5H   LINE      CODE     ---       #237
      0100BAD7H   LINE      CODE     ---       #239
      0100BAD7H   LINE      CODE     ---       #240
      0100BADAH   LINE      CODE     ---       #242
      0100BADFH   LINE      CODE     ---       #244
      0100BAE4H   LINE      CODE     ---       #245
      0100BAE4H   LINE      CODE     ---       #246
      0100BAE4H   LINE      CODE     ---       #247
      0100BAE6H   LINE      CODE     ---       #250
      0100BAEBH   LINE      CODE     ---       #253
      0100BAF3H   LINE      CODE     ---       #255
      0100BAFAH   LINE      CODE     ---       #256
      0100BAFDH   LINE      CODE     ---       #257
      0100BAFFH   LINE      CODE     ---       #258
      0100BAFFH   LINE      CODE     ---       #259
      ---         BLOCKEND  ---      ---       LVL=0

      ---         MODULE    ---      ---       UTILS
      0100A9D1H   PUBLIC    CODE     ---       check_rest_position
      02000016H   PUBLIC    XDATA    BYTE      ?_calc_turns_fcn?BYTE
      0100CF82H   PUBLIC    CODE     ---       _calc_turns_fcn
      0100C5A7H   PUBLIC    CODE     ---       calibration
      0200001EH   PUBLIC    XDATA    BYTE      ?_my_mod?BYTE
      0100DD52H   PUBLIC    CODE     ---       _my_mod
      0100E26EH   PUBLIC    CODE     ---       _check_enc_data
      0100DDD3H   PUBLIC    CODE     ---       _filter_voltage
      0100DCCFH   PUBLIC    CODE     ---       _filter_acc_3
      0100DC4CH   PUBLIC    CODE     ---       _filter_acc_2
      0100DBC9H   PUBLIC    CODE     ---       _filter_acc_1
      0100DB46H   PUBLIC    CODE     ---       _filter_vel_3
      0100DAC3H   PUBLIC    CODE     ---       _filter_vel_2
      0100DA40H   PUBLIC    CODE     ---       _filter_vel_1
      0100D296H   PUBLIC    CODE     ---       _filter_ch2
      0100D1E1H   PUBLIC    CODE     ---       _filter_ch1
      0100E0A6H   PUBLIC    CODE     ---       _filter_i1
      000000CAH   SFRSYM    DATA     BYTE      SFRPRT5SEL
      000000DAH   SFRSYM    DATA     BYTE      SFRPRT6SEL
      000000D0H.6 SFRSYM    DATA     BIT       AC
      000000A8H.7 SFRSYM    DATA     BIT       EA
LX51 LINKER/LOCATER V4.64.0.0                                                         04/06/2018  15:41:10  PAGE 88


      000000A8H   SFRSYM    DATA     BYTE      IE
      00000085H   SFRSYM    DATA     BYTE      DPH1
      00000084H   SFRSYM    DATA     BYTE      DPL1
      000000D0H.7 SFRSYM    DATA     BIT       CY
      000000A0H   SFRSYM    DATA     BYTE      P2AX
      00000095H   SFRSYM    DATA     BYTE      DPX1
      00000081H   SFRSYM    DATA     BYTE      SP
      000000D0H.2 SFRSYM    DATA     BIT       OV
      00000080H   SFRSYM    DATA     BYTE      SFRPRT0DR
      00000090H   SFRSYM    DATA     BYTE      SFRPRT1DR
      000000F2H   SFRSYM    DATA     BYTE      SFRPRT12SEL
      00000098H   SFRSYM    DATA     BYTE      SFRPRT2DR
      000000B0H   SFRSYM    DATA     BYTE      SFRPRT3DR
      000000C0H   SFRSYM    DATA     BYTE      SFRPRT4DR
      000000FAH   SFRSYM    DATA     BYTE      SFRPRT15SEL
      000000C8H   SFRSYM    DATA     BYTE      SFRPRT5DR
      000000D8H   SFRSYM    DATA     BYTE      SFRPRT6DR
      00000089H   SFRSYM    DATA     BYTE      SFRPRT0PS
      00000091H   SFRSYM    DATA     BYTE      SFRPRT1PS
      00000099H   SFRSYM    DATA     BYTE      SFRPRT2PS
      000000B1H   SFRSYM    DATA     BYTE      SFRPRT3PS
      000000C1H   SFRSYM    DATA     BYTE      SFRPRT4PS
      000000C9H   SFRSYM    DATA     BYTE      SFRPRT5PS
      000000D9H   SFRSYM    DATA     BYTE      SFRPRT6PS
      000000EAH   SFRSYM    DATA     BYTE      MXAX
      000000F0H   SFRSYM    DATA     BYTE      B
      000000E0H   SFRSYM    DATA     BYTE      ACC
      000000D0H   SFRSYM    DATA     BIT       P
      000000D0H.3 SFRSYM    DATA     BIT       RS0
      000000D0H.4 SFRSYM    DATA     BIT       RS1
      00000083H   SFRSYM    DATA     BYTE      DPH
      000000E8H   SFRSYM    DATA     BYTE      SFRPRT12DR
      00000082H   SFRSYM    DATA     BYTE      DPL
      000000F8H   SFRSYM    DATA     BYTE      SFRPRT15DR
      00000086H   SFRSYM    DATA     BYTE      DPS
      000000E9H   SFRSYM    DATA     BYTE      SFRPRT12PS
      00000093H   SFRSYM    DATA     BYTE      DPX
      000000F9H   SFRSYM    DATA     BYTE      SFRPRT15PS
      000000D0H.5 SFRSYM    DATA     BIT       F0
      000000D0H.1 SFRSYM    DATA     BIT       F1
      0000008AH   SFRSYM    DATA     BYTE      SFRPRT0SEL
      000000D0H   SFRSYM    DATA     BYTE      PSW
      000000A2H   SFRSYM    DATA     BYTE      SFRPRT1SEL
      0000009AH   SFRSYM    DATA     BYTE      SFRPRT2SEL
      000000B2H   SFRSYM    DATA     BYTE      SFRPRT3SEL
      000000C2H   SFRSYM    DATA     BYTE      SFRPRT4SEL
      00000004H   SYMBOL    DATA     LONG      new_value
      020012EBH   SYMBOL    XDATA    LONG      old_value
      020012EFH   SYMBOL    XDATA    LONG      aux

      0100E0A6H   BLOCK     CODE     ---       LVL=0
      00000004H   SYMBOL    DATA     LONG      new_value
      0100E0A6H   BLOCK     CODE     NEAR LAB  LVL=1
      020012F3H   SYMBOL    XDATA    LONG      old_value
      020012F7H   SYMBOL    XDATA    LONG      aux
      ---         BLOCKEND  ---      ---       LVL=1
      0100E0A6H   LINE      CODE     ---       #63
      0100E0A6H   LINE      CODE     ---       #67
      0100E0F3H   LINE      CODE     ---       #69
      0100E107H   LINE      CODE     ---       #71
      0100E11AH   LINE      CODE     ---       #72
      ---         BLOCKEND  ---      ---       LVL=0

      0100D1E1H   BLOCK     CODE     ---       LVL=0
      02000002H   SYMBOL    XDATA    LONG      new_value
LX51 LINKER/LOCATER V4.64.0.0                                                         04/06/2018  15:41:10  PAGE 89


      0100D1E7H   BLOCK     CODE     NEAR LAB  LVL=1
      020012FBH   SYMBOL    XDATA    LONG      old_value
      020012FFH   SYMBOL    XDATA    LONG      aux
      ---         BLOCKEND  ---      ---       LVL=1
      0100D1E1H   LINE      CODE     ---       #78
      0100D1E7H   LINE      CODE     ---       #82
      0100D200H   LINE      CODE     ---       #83
      0100D20BH   LINE      CODE     ---       #85
      0100D26AH   LINE      CODE     ---       #87
      0100D27EH   LINE      CODE     ---       #89
      0100D295H   LINE      CODE     ---       #90
      ---         BLOCKEND  ---      ---       LVL=0

      0100D296H   BLOCK     CODE     ---       LVL=0
      02000002H   SYMBOL    XDATA    LONG      new_value
      0100D29CH   BLOCK     CODE     NEAR LAB  LVL=1
      02001303H   SYMBOL    XDATA    LONG      old_value
      02001307H   SYMBOL    XDATA    LONG      aux
      ---         BLOCKEND  ---      ---       LVL=1
      0100D296H   LINE      CODE     ---       #96
      0100D29CH   LINE      CODE     ---       #100
      0100D2B5H   LINE      CODE     ---       #101
      0100D2C0H   LINE      CODE     ---       #103
      0100D31FH   LINE      CODE     ---       #105
      0100D333H   LINE      CODE     ---       #107
      0100D34AH   LINE      CODE     ---       #108
      ---         BLOCKEND  ---      ---       LVL=0

      0100DA40H   BLOCK     CODE     ---       LVL=0
      02000016H   SYMBOL    XDATA    LONG      new_value
      0100DA46H   BLOCK     CODE     NEAR LAB  LVL=1
      0200130BH   SYMBOL    XDATA    LONG      old_out
      0200130FH   SYMBOL    XDATA    LONG      aux
      ---         BLOCKEND  ---      ---       LVL=1
      0100DA40H   LINE      CODE     ---       #114
      0100DA46H   LINE      CODE     ---       #118
      0100DAA0H   LINE      CODE     ---       #120
      0100DAB4H   LINE      CODE     ---       #122
      0100DAC2H   LINE      CODE     ---       #123
      ---         BLOCKEND  ---      ---       LVL=0

      0100DAC3H   BLOCK     CODE     ---       LVL=0
      02000016H   SYMBOL    XDATA    LONG      new_value
      0100DAC9H   BLOCK     CODE     NEAR LAB  LVL=1
      02001313H   SYMBOL    XDATA    LONG      old_out
      02001317H   SYMBOL    XDATA    LONG      aux
      ---         BLOCKEND  ---      ---       LVL=1
      0100DAC3H   LINE      CODE     ---       #125
      0100DAC9H   LINE      CODE     ---       #129
      0100DB23H   LINE      CODE     ---       #131
      0100DB37H   LINE      CODE     ---       #133
      0100DB45H   LINE      CODE     ---       #134
      ---         BLOCKEND  ---      ---       LVL=0

      0100DB46H   BLOCK     CODE     ---       LVL=0
      02000016H   SYMBOL    XDATA    LONG      new_value
      0100DB4CH   BLOCK     CODE     NEAR LAB  LVL=1
      0200131BH   SYMBOL    XDATA    LONG      old_out
      0200131FH   SYMBOL    XDATA    LONG      aux
      ---         BLOCKEND  ---      ---       LVL=1
      0100DB46H   LINE      CODE     ---       #136
      0100DB4CH   LINE      CODE     ---       #140
      0100DBA6H   LINE      CODE     ---       #142
      0100DBBAH   LINE      CODE     ---       #144
      0100DBC8H   LINE      CODE     ---       #145
LX51 LINKER/LOCATER V4.64.0.0                                                         04/06/2018  15:41:10  PAGE 90


      ---         BLOCKEND  ---      ---       LVL=0

      0100DBC9H   BLOCK     CODE     ---       LVL=0
      02000016H   SYMBOL    XDATA    LONG      new_value
      0100DBCFH   BLOCK     CODE     NEAR LAB  LVL=1
      02001323H   SYMBOL    XDATA    LONG      old_out
      02001327H   SYMBOL    XDATA    LONG      aux
      ---         BLOCKEND  ---      ---       LVL=1
      0100DBC9H   LINE      CODE     ---       #151
      0100DBCFH   LINE      CODE     ---       #155
      0100DC29H   LINE      CODE     ---       #157
      0100DC3DH   LINE      CODE     ---       #159
      0100DC4BH   LINE      CODE     ---       #160
      ---         BLOCKEND  ---      ---       LVL=0

      0100DC4CH   BLOCK     CODE     ---       LVL=0
      02000016H   SYMBOL    XDATA    LONG      new_value
      0100DC52H   BLOCK     CODE     NEAR LAB  LVL=1
      0200132BH   SYMBOL    XDATA    LONG      old_out
      0200132FH   SYMBOL    XDATA    LONG      aux
      ---         BLOCKEND  ---      ---       LVL=1
      0100DC4CH   LINE      CODE     ---       #162
      0100DC52H   LINE      CODE     ---       #166
      0100DCACH   LINE      CODE     ---       #168
      0100DCC0H   LINE      CODE     ---       #170
      0100DCCEH   LINE      CODE     ---       #171
      ---         BLOCKEND  ---      ---       LVL=0

      0100DCCFH   BLOCK     CODE     ---       LVL=0
      02000016H   SYMBOL    XDATA    LONG      new_value
      0100DCD5H   BLOCK     CODE     NEAR LAB  LVL=1
      02001333H   SYMBOL    XDATA    LONG      old_out
      02001337H   SYMBOL    XDATA    LONG      aux
      ---         BLOCKEND  ---      ---       LVL=1
      0100DCCFH   LINE      CODE     ---       #173
      0100DCD5H   LINE      CODE     ---       #177
      0100DD2FH   LINE      CODE     ---       #179
      0100DD43H   LINE      CODE     ---       #181
      0100DD51H   LINE      CODE     ---       #182
      ---         BLOCKEND  ---      ---       LVL=0

      0100DDD3H   BLOCK     CODE     ---       LVL=0
      00000004H   SYMBOL    DATA     LONG      new_value
      0100DDD3H   BLOCK     CODE     NEAR LAB  LVL=1
      0200133BH   SYMBOL    XDATA    LONG      old_value
      0200133FH   SYMBOL    XDATA    LONG      aux
      ---         BLOCKEND  ---      ---       LVL=1
      0100DDD3H   LINE      CODE     ---       #188
      0100DDD3H   LINE      CODE     ---       #193
      0100DE24H   LINE      CODE     ---       #195
      0100DE38H   LINE      CODE     ---       #197
      0100DE4FH   LINE      CODE     ---       #198
      ---         BLOCKEND  ---      ---       LVL=0

      0100E26EH   BLOCK     CODE     ---       LVL=0
      00000001H   SYMBOL    DATA     ---       value
      0100E26EH   BLOCK     CODE     NEAR LAB  LVL=1
      00000075H   SYMBOL    IDATA    ---       p
      00000024H   SYMBOL    DATA     BYTE      a
      ---         BLOCKEND  ---      ---       LVL=1
      0100E26EH   LINE      CODE     ---       #206
      0100E26EH   LINE      CODE     ---       #208
      0100E278H   LINE      CODE     ---       #209
      0100E27DH   LINE      CODE     ---       #211
      0100E291H   LINE      CODE     ---       #212
LX51 LINKER/LOCATER V4.64.0.0                                                         04/06/2018  15:41:10  PAGE 91


      0100E2A5H   LINE      CODE     ---       #213
      0100E2B9H   LINE      CODE     ---       #214
      0100E2C6H   LINE      CODE     ---       #216
      0100E2D8H   LINE      CODE     ---       #218
      ---         BLOCKEND  ---      ---       LVL=0

      0100DD52H   BLOCK     CODE     ---       LVL=0
      0200001EH   SYMBOL    XDATA    LONG      val
      02000022H   SYMBOL    XDATA    LONG      divisor
      0100DD52H   LINE      CODE     ---       #236
      0100DD58H   LINE      CODE     ---       #238
      0100DD71H   LINE      CODE     ---       #239
      0100DD99H   LINE      CODE     ---       #240
      0100DD99H   LINE      CODE     ---       #241
      0100DDD2H   LINE      CODE     ---       #242
      0100DDD2H   LINE      CODE     ---       #243
      ---         BLOCKEND  ---      ---       LVL=0

      0100C5A7H   BLOCK     CODE     ---       LVL=0
      0100C5A7H   BLOCK     CODE     NEAR LAB  LVL=1
      02001343H   SYMBOL    XDATA    BYTE      direction
      02001344H   SYMBOL    XDATA    WORD      closure_counter
      ---         BLOCKEND  ---      ---       LVL=1
      0100C5A7H   LINE      CODE     ---       #250
      0100C5A7H   LINE      CODE     ---       #256
      0100C5ADH   LINE      CODE     ---       #257
      0100C5FCH   LINE      CODE     ---       #258
      0100C621H   LINE      CODE     ---       #259
      0100C627H   LINE      CODE     ---       #260
      0100C627H   LINE      CODE     ---       #261
      0100C628H   LINE      CODE     ---       #262
      0100C67BH   LINE      CODE     ---       #263
      0100C6A4H   LINE      CODE     ---       #264
      0100C6A9H   LINE      CODE     ---       #265
      0100C6B7H   LINE      CODE     ---       #266
      0100C6CBH   LINE      CODE     ---       #267
      0100C6D2H   LINE      CODE     ---       #268
      0100C6D6H   LINE      CODE     ---       #269
      0100C6D6H   LINE      CODE     ---       #270
      0100C6D6H   LINE      CODE     ---       #271
      0100C6D6H   LINE      CODE     ---       #272
      ---         BLOCKEND  ---      ---       LVL=0

      0100CF82H   BLOCK     CODE     ---       LVL=0
      02000016H   SYMBOL    XDATA    LONG      pos1
      0200001AH   SYMBOL    XDATA    LONG      pos2
      0100CF88H   BLOCK     CODE     NEAR LAB  LVL=1
      00000004H   SYMBOL    DATA     LONG      x
      00000004H   SYMBOL    DATA     LONG      aux
      ---         BLOCKEND  ---      ---       LVL=1
      0100CF82H   LINE      CODE     ---       #308
      0100CF88H   LINE      CODE     ---       #310
      0100D009H   LINE      CODE     ---       #312
      0100D028H   LINE      CODE     ---       #314
      0100D05CH   LINE      CODE     ---       #315
      ---         BLOCKEND  ---      ---       LVL=0

      0100A9D1H   BLOCK     CODE     ---       LVL=0
      0100A9D1H   BLOCK     CODE     NEAR LAB  LVL=1
      02001346H   SYMBOL    XDATA    DWORD     count
      0200134AH   SYMBOL    XDATA    BYTE      flag_count
      0200134BH   SYMBOL    XDATA    BYTE      first_time
      0200134CH   SYMBOL    XDATA    FLOAT     m
      02001350H   SYMBOL    XDATA    LONG      abs_err_thr
      02001354H   SYMBOL    XDATA    LONG      delta_inc
LX51 LINKER/LOCATER V4.64.0.0                                                         04/06/2018  15:41:10  PAGE 92


      02000002H   SYMBOL    XDATA    LONG      curr_pos
      02001358H   SYMBOL    XDATA    LONG      rest_error
      02000006H   SYMBOL    XDATA    LONG      handle_value
      ---         BLOCKEND  ---      ---       LVL=1
      0100A9D1H   LINE      CODE     ---       #322
      0100A9D1H   LINE      CODE     ---       #330
      0100A9DCH   LINE      CODE     ---       #332
      0100A9E7H   LINE      CODE     ---       #334
      0100A9EDH   LINE      CODE     ---       #335
      0100A9F8H   LINE      CODE     ---       #336
      0100A9FDH   LINE      CODE     ---       #337
      0100A9FDH   LINE      CODE     ---       #339
      0100AA1AH   LINE      CODE     ---       #341
      0100AA23H   LINE      CODE     ---       #342
      0100AA29H   LINE      CODE     ---       #343
      0100AA3DH   LINE      CODE     ---       #344
      0100AA3FH   LINE      CODE     ---       #345
      0100AA3FH   LINE      CODE     ---       #346
      0100AA45H   LINE      CODE     ---       #347
      0100AA5BH   LINE      CODE     ---       #349
      0100AA6FH   LINE      CODE     ---       #350
      0100AA6FH   LINE      CODE     ---       #351
      0100AA6FH   LINE      CODE     ---       #353
      0100AB12H   LINE      CODE     ---       #355
      0100AB12H   LINE      CODE     ---       #356
      0100AB19H   LINE      CODE     ---       #357
      0100AB38H   LINE      CODE     ---       #358
      0100AB38H   LINE      CODE     ---       #359
      0100AB3AH   LINE      CODE     ---       #360
      0100AB3AH   LINE      CODE     ---       #361
      0100AB45H   LINE      CODE     ---       #362
      0100AB4AH   LINE      CODE     ---       #363
      0100AB4FH   LINE      CODE     ---       #364
      0100AB4FH   LINE      CODE     ---       #372
      0100AB81H   LINE      CODE     ---       #373
      0100AB86H   LINE      CODE     ---       #374
      0100AB9AH   LINE      CODE     ---       #377
      0100AC08H   LINE      CODE     ---       #380
      0100AC43H   LINE      CODE     ---       #381
      0100AC83H   LINE      CODE     ---       #383
      0100ACB0H   LINE      CODE     ---       #385
      0100ACDAH   LINE      CODE     ---       #386
      0100AD1AH   LINE      CODE     ---       #388
      0100AD25H   LINE      CODE     ---       #389
      0100AD2AH   LINE      CODE     ---       #390
      0100AD2AH   LINE      CODE     ---       #392
      0100AD33H   LINE      CODE     ---       #394
      0100AD77H   LINE      CODE     ---       #396
      0100AD8BH   LINE      CODE     ---       #398
      0100AD94H   LINE      CODE     ---       #399
      0100AD9AH   LINE      CODE     ---       #401
      0100ADA5H   LINE      CODE     ---       #402
      0100ADA8H   LINE      CODE     ---       #403
      0100ADA8H   LINE      CODE     ---       #404
      0100ADD5H   LINE      CODE     ---       #406
      0100ADEEH   LINE      CODE     ---       #407
      0100AE1CH   LINE      CODE     ---       #408
      0100AE1CH   LINE      CODE     ---       #409
      0100AE35H   LINE      CODE     ---       #410
      0100AE64H   LINE      CODE     ---       #411
      0100AE64H   LINE      CODE     ---       #412
      0100AE64H   LINE      CODE     ---       #413
      0100AE64H   LINE      CODE     ---       #416
      0100AE6AH   LINE      CODE     ---       #417
      0100AE8AH   LINE      CODE     ---       #418
LX51 LINKER/LOCATER V4.64.0.0                                                         04/06/2018  15:41:10  PAGE 93


      0100AE9EH   LINE      CODE     ---       #419
      0100AEC0H   LINE      CODE     ---       #420
      0100AED4H   LINE      CODE     ---       #421
      0100AED4H   LINE      CODE     ---       #423
      ---         BLOCKEND  ---      ---       LVL=0

      ---         MODULE    ---      ---       CYFITTER_CFG
      0100FC42H   PUBLIC    CONST    ---       ADC_AMux__maskTable
      0100FC3EH   PUBLIC    CONST    ---       ADC_AMux__addrTable
      0100CCA1H   PUBLIC    CODE     ---       cyfitter_cfg
      0100EC3DH   PUBLIC    CODE     ---       _ADC_AMux_Unset
      0100EC9FH   PUBLIC    CODE     ---       _ADC_AMux_Set
      000000CAH   SFRSYM    DATA     BYTE      SFRPRT5SEL
      000000DAH   SFRSYM    DATA     BYTE      SFRPRT6SEL
      000000D0H.6 SFRSYM    DATA     BIT       AC
      000000A8H.7 SFRSYM    DATA     BIT       EA
      000000A8H   SFRSYM    DATA     BYTE      IE
      00000085H   SFRSYM    DATA     BYTE      DPH1
      00000084H   SFRSYM    DATA     BYTE      DPL1
      000000D0H.7 SFRSYM    DATA     BIT       CY
      000000A0H   SFRSYM    DATA     BYTE      P2AX
      00000095H   SFRSYM    DATA     BYTE      DPX1
      00000081H   SFRSYM    DATA     BYTE      SP
      000000D0H.2 SFRSYM    DATA     BIT       OV
      00000080H   SFRSYM    DATA     BYTE      SFRPRT0DR
      00000090H   SFRSYM    DATA     BYTE      SFRPRT1DR
      000000F2H   SFRSYM    DATA     BYTE      SFRPRT12SEL
      00000098H   SFRSYM    DATA     BYTE      SFRPRT2DR
      000000B0H   SFRSYM    DATA     BYTE      SFRPRT3DR
      000000C0H   SFRSYM    DATA     BYTE      SFRPRT4DR
      000000FAH   SFRSYM    DATA     BYTE      SFRPRT15SEL
      000000C8H   SFRSYM    DATA     BYTE      SFRPRT5DR
      000000D8H   SFRSYM    DATA     BYTE      SFRPRT6DR
      00000089H   SFRSYM    DATA     BYTE      SFRPRT0PS
      00000091H   SFRSYM    DATA     BYTE      SFRPRT1PS
      00000099H   SFRSYM    DATA     BYTE      SFRPRT2PS
      000000B1H   SFRSYM    DATA     BYTE      SFRPRT3PS
      000000C1H   SFRSYM    DATA     BYTE      SFRPRT4PS
      000000C9H   SFRSYM    DATA     BYTE      SFRPRT5PS
      000000D9H   SFRSYM    DATA     BYTE      SFRPRT6PS
      000000EAH   SFRSYM    DATA     BYTE      MXAX
      000000F0H   SFRSYM    DATA     BYTE      B
      000000E0H   SFRSYM    DATA     BYTE      ACC
      000000D0H   SFRSYM    DATA     BIT       P
      000000D0H.3 SFRSYM    DATA     BIT       RS0
      000000D0H.4 SFRSYM    DATA     BIT       RS1
      00000083H   SFRSYM    DATA     BYTE      DPH
      000000E8H   SFRSYM    DATA     BYTE      SFRPRT12DR
      00000082H   SFRSYM    DATA     BYTE      DPL
      000000F8H   SFRSYM    DATA     BYTE      SFRPRT15DR
      00000086H   SFRSYM    DATA     BYTE      DPS
      000000E9H   SFRSYM    DATA     BYTE      SFRPRT12PS
      00000093H   SFRSYM    DATA     BYTE      DPX
      000000F9H   SFRSYM    DATA     BYTE      SFRPRT15PS
      000000D0H.5 SFRSYM    DATA     BIT       F0
      000000D0H.1 SFRSYM    DATA     BIT       F1
      0000008AH   SFRSYM    DATA     BYTE      SFRPRT0SEL
      000000D0H   SFRSYM    DATA     BYTE      PSW
      000000A2H   SFRSYM    DATA     BYTE      SFRPRT1SEL
      0000009AH   SFRSYM    DATA     BYTE      SFRPRT2SEL
      000000B2H   SFRSYM    DATA     BYTE      SFRPRT3SEL
      000000C2H   SFRSYM    DATA     BYTE      SFRPRT4SEL
      0100C00BH   SYMBOL    CODE     ---       ClockSetup
      0100F4BDH   SYMBOL    CODE     ---       _CyClockStartupError
      0100EA3EH   SYMBOL    CODE     ---       AnalogSetDefault
LX51 LINKER/LOCATER V4.64.0.0                                                         04/06/2018  15:41:10  PAGE 94


      0100CDBAH   SYMBOL    CODE     ---       cfg_dma_init

      0100F4BDH   BLOCK     CODE     ---       LVL=0
      02000000H   SYMBOL    XDATA    BYTE      errorCode
      0100F4BDH   LINE      CODE     ---       #76
      0100F4BDH   LINE      CODE     ---       #77
      0100F4BDH   LINE      CODE     ---       #80
      0100F4BDH   LINE      CODE     ---       #101
      ---         BLOCKEND  ---      ---       LVL=0

      0100CDBAH   BLOCK     CODE     ---       LVL=0
      0100CDBAH   BLOCK     CODE     NEAR LAB  LVL=1
      0100F4C9H   SYMBOL    CONST    ---       BS_DSI3_1_HV_ROUTING_VAL
      0100F549H   SYMBOL    CONST    ---       BS_DSISWITCH_1_2_VAL
      0100F5C9H   SYMBOL    CONST    ---       BS_DSI3_2_HV_ROUTING_VAL
      0100F649H   SYMBOL    CONST    ---       BS_DSISWITCH_1_3_VAL
      0100F6C9H   SYMBOL    CONST    ---       BS_DSI3_3_HV_ROUTING_VAL
      0100F749H   SYMBOL    CONST    ---       BS_DSISWITCH_1_4_VAL
      0100F7C9H   SYMBOL    CONST    ---       BS_DSI3_4_HV_ROUTING_VAL
      0100F849H   SYMBOL    CONST    ---       BS_DSISWITCH_1_5_VAL
      0100F8C9H   SYMBOL    CONST    ---       BS_DSI3_5_HV_ROUTING_VAL
      0100F949H   SYMBOL    CONST    ---       CH1_ADDR_DATA0
      0100F951H   SYMBOL    CONST    ---       CH2_ADDR_DATA0
      0100F959H   SYMBOL    CONST    ---       CH4_ADDR_DATA0
      0100F961H   SYMBOL    CONST    ---       CH5_ADDR_DATA0
      0100F969H   SYMBOL    CONST    ---       CH6_ADDR_DATA0
      0100F971H   SYMBOL    CONST    ---       DMA_TD_START_CMD
      020013F0H   SYMBOL    XDATA    DWORD     DMA_ZERO_VAL
      0100F976H   SYMBOL    CONST    ---       CFG_TD_LIST0
      ---         BLOCKEND  ---      ---       LVL=1
      0100CDBAH   LINE      CODE     ---       #327
      0100CDBAH   LINE      CODE     ---       #328
      0100CDBAH   LINE      CODE     ---       #552
      0100CDC5H   LINE      CODE     ---       #553
      0100CDCBH   LINE      CODE     ---       #554
      0100CDD1H   LINE      CODE     ---       #555
      0100CDD6H   LINE      CODE     ---       #556
      0100CDE2H   LINE      CODE     ---       #557
      0100CDE8H   LINE      CODE     ---       #558
      0100CDECH   LINE      CODE     ---       #559
      0100CE0EH   LINE      CODE     ---       #560
      0100CE1BH   LINE      CODE     ---       #561
      0100CE28H   LINE      CODE     ---       #562
      0100CE34H   LINE      CODE     ---       #563
      0100CE3AH   LINE      CODE     ---       #564
      0100CE3FH   LINE      CODE     ---       #565
      0100CE45H   LINE      CODE     ---       #566
      0100CE4BH   LINE      CODE     ---       #567
      0100CE51H   LINE      CODE     ---       #569
      0100CE51H   LINE      CODE     ---       #570
      0100CE57H   LINE      CODE     ---       #571
      0100CE57H   LINE      CODE     ---       #574
      0100CE5FH   LINE      CODE     ---       #575
      0100CE67H   LINE      CODE     ---       #576
      0100CE6FH   LINE      CODE     ---       #577
      0100CE77H   LINE      CODE     ---       #578
      0100CE7FH   LINE      CODE     ---       #579
      0100CE87H   LINE      CODE     ---       #582
      0100CEA2H   LINE      CODE     ---       #584
      ---         BLOCKEND  ---      ---       LVL=0

      0100C00BH   BLOCK     CODE     ---       LVL=0
      0100C00BH   BLOCK     CODE     NEAR LAB  LVL=1
      02000000H   SYMBOL    XDATA    DWORD     timeout
      02000004H   SYMBOL    XDATA    BYTE      pllLock
LX51 LINKER/LOCATER V4.64.0.0                                                         04/06/2018  15:41:10  PAGE 95


      ---         BLOCKEND  ---      ---       LVL=1
      0100C00BH   LINE      CODE     ---       #602
      0100C00BH   LINE      CODE     ---       #603
      0100C00BH   LINE      CODE     ---       #609
      0100C018H   LINE      CODE     ---       #610
      0100C01EH   LINE      CODE     ---       #611
      0100C02AH   LINE      CODE     ---       #612
      0100C030H   LINE      CODE     ---       #613
      0100C03DH   LINE      CODE     ---       #614
      0100C043H   LINE      CODE     ---       #615
      0100C050H   LINE      CODE     ---       #616
      0100C056H   LINE      CODE     ---       #617
      0100C063H   LINE      CODE     ---       #618
      0100C069H   LINE      CODE     ---       #619
      0100C076H   LINE      CODE     ---       #620
      0100C07CH   LINE      CODE     ---       #621
      0100C089H   LINE      CODE     ---       #622
      0100C08FH   LINE      CODE     ---       #625
      0100C0A7H   LINE      CODE     ---       #628
      0100C0ADH   LINE      CODE     ---       #631
      0100C0B3H   LINE      CODE     ---       #632
      0100C0C1H   LINE      CODE     ---       #635
      0100C0CEH   LINE      CODE     ---       #636
      0100C0DBH   LINE      CODE     ---       #638
      0100C0E0H   LINE      CODE     ---       #639
      0100C105H   LINE      CODE     ---       #640
      0100C105H   LINE      CODE     ---       #641
      0100C116H   LINE      CODE     ---       #642
      0100C120H   LINE      CODE     ---       #643
      0100C148H   LINE      CODE     ---       #645
      0100C156H   LINE      CODE     ---       #646
      0100C156H   LINE      CODE     ---       #647
      0100C15BH   LINE      CODE     ---       #648
      0100C15BH   LINE      CODE     ---       #651
      0100C168H   LINE      CODE     ---       #652
      0100C16EH   LINE      CODE     ---       #653
      0100C173H   LINE      CODE     ---       #654
      0100C179H   LINE      CODE     ---       #655
      0100C17EH   LINE      CODE     ---       #658
      0100C182H   LINE      CODE     ---       #659
      0100C188H   LINE      CODE     ---       #660
      0100C18EH   LINE      CODE     ---       #662
      0100C195H   LINE      CODE     ---       #663
      0100C19CH   LINE      CODE     ---       #664
      0100C1A3H   LINE      CODE     ---       #665
      ---         BLOCKEND  ---      ---       LVL=0

      0100EA3EH   BLOCK     CODE     ---       LVL=0
      0100EA3EH   BLOCK     CODE     NEAR LAB  LVL=1
      00000007H   SYMBOL    DATA     BYTE      bg_xover_inl_trim
      ---         BLOCKEND  ---      ---       LVL=1
      0100EA3EH   LINE      CODE     ---       #687
      0100EA3EH   LINE      CODE     ---       #688
      0100EA3EH   LINE      CODE     ---       #689
      0100EA47H   LINE      CODE     ---       #690
      0100EA4EH   LINE      CODE     ---       #691
      0100EA54H   LINE      CODE     ---       #692
      0100EA5AH   LINE      CODE     ---       #693
      0100EA60H   LINE      CODE     ---       #694
      0100EA66H   LINE      CODE     ---       #695
      0100EA6CH   LINE      CODE     ---       #696
      0100EA72H   LINE      CODE     ---       #697
      0100EA78H   LINE      CODE     ---       #698
      ---         BLOCKEND  ---      ---       LVL=0
      00000007H   SYMBOL    DATA     BYTE      enabled
LX51 LINKER/LOCATER V4.64.0.0                                                         04/06/2018  15:41:10  PAGE 96


      00000006H   SYMBOL    DATA     BYTE      regValue

      0100EC9FH   BLOCK     CODE     ---       LVL=0
      00000007H   SYMBOL    DATA     BYTE      channel
      0100EC9FH   LINE      CODE     ---       #761
      0100EC9FH   LINE      CODE     ---       #762
      0100EC9FH   LINE      CODE     ---       #763
      0100ECA5H   LINE      CODE     ---       #764
      0100ECA5H   LINE      CODE     ---       #765
      0100ECCEH   LINE      CODE     ---       #766
      0100ECCEH   LINE      CODE     ---       #767
      ---         BLOCKEND  ---      ---       LVL=0

      0100EC3DH   BLOCK     CODE     ---       LVL=0
      00000007H   SYMBOL    DATA     BYTE      channel
      0100EC3DH   LINE      CODE     ---       #783
      0100EC3DH   LINE      CODE     ---       #784
      0100EC3DH   LINE      CODE     ---       #785
      0100EC43H   LINE      CODE     ---       #786
      0100EC43H   LINE      CODE     ---       #787
      0100EC6DH   LINE      CODE     ---       #788
      0100EC6DH   LINE      CODE     ---       #789
      ---         BLOCKEND  ---      ---       LVL=0

      0100CCA1H   BLOCK     CODE     ---       LVL=0
      0100CCA1H   BLOCK     CODE     NEAR LAB  LVL=1
      0100FC44H   SYMBOL    CONST    ---       BS_IOPINS0_7_VAL
      0100FC4CH   SYMBOL    CONST    ---       BS_IOPINS0_8_VAL
      0100FC56H   SYMBOL    CONST    ---       BS_IOPINS0_1_VAL
      0100FC60H   SYMBOL    CONST    ---       BS_IOPINS0_2_VAL
      0100FC68H   SYMBOL    CONST    ---       BS_PHUB_CFGMEM10_VAL
      ---         BLOCKEND  ---      ---       LVL=1
      0100CCA1H   LINE      CODE     ---       #810
      0100CCA1H   LINE      CODE     ---       #811
      0100CCA1H   LINE      CODE     ---       #833
      0100CCB7H   LINE      CODE     ---       #835
      0100CCB7H   LINE      CODE     ---       #836
      0100CCBAH   LINE      CODE     ---       #839
      0100CCC0H   LINE      CODE     ---       #840
      0100CCD1H   LINE      CODE     ---       #843
      0100CCE7H   LINE      CODE     ---       #844
      0100CCFDH   LINE      CODE     ---       #847
      0100CD04H   LINE      CODE     ---       #848
      0100CD0BH   LINE      CODE     ---       #849
      0100CD0BH   LINE      CODE     ---       #853
      0100CD25H   LINE      CODE     ---       #854
      0100CD36H   LINE      CODE     ---       #855
      0100CD47H   LINE      CODE     ---       #856
      0100CD58H   LINE      CODE     ---       #857
      0100CD69H   LINE      CODE     ---       #858
      0100CD6FH   LINE      CODE     ---       #860
      0100CD76H   LINE      CODE     ---       #861
      0100CD7FH   LINE      CODE     ---       #862
      0100CD7FH   LINE      CODE     ---       #863
      0100CD85H   LINE      CODE     ---       #864
      0100CD85H   LINE      CODE     ---       #868
      0100CD8BH   LINE      CODE     ---       #870
      0100CD8EH   LINE      CODE     ---       #873
      0100CD91H   LINE      CODE     ---       #876
      0100CDB2H   LINE      CODE     ---       #877
      0100CDB9H   LINE      CODE     ---       #878
      ---         BLOCKEND  ---      ---       LVL=0

      ---         MODULE    ---      ---       CLOCK_UART
      0100F384H   PUBLIC    CODE     ---       CLOCK_UART_GetSourceRegister
LX51 LINKER/LOCATER V4.64.0.0                                                         04/06/2018  15:41:10  PAGE 97


      0100F30CH   PUBLIC    CODE     ---       CLOCK_UART_GetDividerRegister
      0100C6D7H   PUBLIC    CODE     ---       _CLOCK_UART_SetDividerRegister
      00000007H   SYMBOL    DATA     BYTE      state

      0100C6D7H   BLOCK     CODE     ---       LVL=0
      02000020H   SYMBOL    XDATA    WORD      clkDivider
      02000022H   SYMBOL    XDATA    BYTE      restart
      0100C6E2H   BLOCK     CODE     NEAR LAB  LVL=1
      02000023H   SYMBOL    XDATA    BYTE      enabled
      02000024H   SYMBOL    XDATA    BYTE      currSrc
      02000025H   SYMBOL    XDATA    WORD      oldDivider
      ---         BLOCKEND  ---      ---       LVL=1
      0100C6D7H   LINE      CODE     ---       #193
      0100C6E2H   LINE      CODE     ---       #195
      0100C6E2H   LINE      CODE     ---       #198
      0100C6EAH   LINE      CODE     ---       #199
      0100C6F5H   LINE      CODE     ---       #201
      0100C707H   LINE      CODE     ---       #202
      0100C707H   LINE      CODE     ---       #203
      0100C711H   LINE      CODE     ---       #205
      0100C722H   LINE      CODE     ---       #206
      0100C722H   LINE      CODE     ---       #208
      0100C726H   LINE      CODE     ---       #209
      0100C726H   LINE      CODE     ---       #213
      0100C72FH   LINE      CODE     ---       #214
      0100C736H   LINE      CODE     ---       #215
      0100C737H   LINE      CODE     ---       #217
      0100C737H   LINE      CODE     ---       #220
      0100C73EH   LINE      CODE     ---       #221
      0100C74FH   LINE      CODE     ---       #222
      0100C74FH   LINE      CODE     ---       #223
      0100C750H   LINE      CODE     ---       #225
      0100C750H   LINE      CODE     ---       #227
      0100C756H   LINE      CODE     ---       #228
      0100C756H   LINE      CODE     ---       #229
      0100C75BH   LINE      CODE     ---       #236
      0100C760H   LINE      CODE     ---       #237
      0100C765H   LINE      CODE     ---       #240
      0100C76CH   LINE      CODE     ---       #243
      0100C77EH   LINE      CODE     ---       #244
      0100C77EH   LINE      CODE     ---       #246
      0100C78FH   LINE      CODE     ---       #247
      0100C795H   LINE      CODE     ---       #250
      0100C79DH   LINE      CODE     ---       #253
      0100C7A4H   LINE      CODE     ---       #257
      0100C7A9H   LINE      CODE     ---       #259
      0100C7A9H   LINE      CODE     ---       #260
      0100C7A9H   LINE      CODE     ---       #263
      0100C7B1H   LINE      CODE     ---       #264
      0100C7B1H   LINE      CODE     ---       #266
      0100C7C2H   LINE      CODE     ---       #268
      0100C7D5H   LINE      CODE     ---       #269
      0100C7DFH   LINE      CODE     ---       #270
      0100C7E0H   LINE      CODE     ---       #272
      0100C7E0H   LINE      CODE     ---       #274
      0100C7F1H   LINE      CODE     ---       #275
      0100C806H   LINE      CODE     ---       #276
      0100C806H   LINE      CODE     ---       #277
      0100C806H   LINE      CODE     ---       #278
      0100C806H   LINE      CODE     ---       #279
      ---         BLOCKEND  ---      ---       LVL=0

      0100F30CH   BLOCK     CODE     ---       LVL=0
      0100F30CH   LINE      CODE     ---       #297
      0100F30CH   LINE      CODE     ---       #298
LX51 LINKER/LOCATER V4.64.0.0                                                         04/06/2018  15:41:10  PAGE 98


      0100F30CH   LINE      CODE     ---       #299
      0100F315H   LINE      CODE     ---       #300
      ---         BLOCKEND  ---      ---       LVL=0
      00000007H   SYMBOL    DATA     BYTE      modeBitMask
      00000007H   SYMBOL    DATA     BYTE      modeBitMask
      00000007H   SYMBOL    DATA     BYTE      oldSrc

      0100F384H   BLOCK     CODE     ---       LVL=0
      0100F384H   LINE      CODE     ---       #464
      0100F384H   LINE      CODE     ---       #465
      0100F384H   LINE      CODE     ---       #466
      0100F38BH   LINE      CODE     ---       #467
      ---         BLOCKEND  ---      ---       LVL=0

      ---         MODULE    ---      ---       ISR_RS485_RX
      0100F3CBH   PUBLIC    CODE     ---       ISR_RS485_RX_Disable
      0100F3C4H   PUBLIC    CODE     ---       ISR_RS485_RX_Enable
      0100F316H   PUBLIC    CODE     ---       _ISR_RS485_RX_SetPriority
      0100F20AH   PUBLIC    CODE     ---       _ISR_RS485_RX_SetVector
      0100F4C3H   PUBLIC    CODE     ---       ISR_RS485_RX_Interrupt
      0100EEF9H   PUBLIC    CODE     ---       _ISR_RS485_RX_StartEx
      000000CAH   SFRSYM    DATA     BYTE      SFRPRT5SEL
      000000DAH   SFRSYM    DATA     BYTE      SFRPRT6SEL
      000000D0H.6 SFRSYM    DATA     BIT       AC
      000000A8H.7 SFRSYM    DATA     BIT       EA
      000000A8H   SFRSYM    DATA     BYTE      IE
      00000085H   SFRSYM    DATA     BYTE      DPH1
      00000084H   SFRSYM    DATA     BYTE      DPL1
      000000D0H.7 SFRSYM    DATA     BIT       CY
      000000A0H   SFRSYM    DATA     BYTE      P2AX
      00000095H   SFRSYM    DATA     BYTE      DPX1
      00000081H   SFRSYM    DATA     BYTE      SP
      000000D0H.2 SFRSYM    DATA     BIT       OV
      00000080H   SFRSYM    DATA     BYTE      SFRPRT0DR
      00000090H   SFRSYM    DATA     BYTE      SFRPRT1DR
      000000F2H   SFRSYM    DATA     BYTE      SFRPRT12SEL
      00000098H   SFRSYM    DATA     BYTE      SFRPRT2DR
      000000B0H   SFRSYM    DATA     BYTE      SFRPRT3DR
      000000C0H   SFRSYM    DATA     BYTE      SFRPRT4DR
      000000FAH   SFRSYM    DATA     BYTE      SFRPRT15SEL
      000000C8H   SFRSYM    DATA     BYTE      SFRPRT5DR
      000000D8H   SFRSYM    DATA     BYTE      SFRPRT6DR
      00000089H   SFRSYM    DATA     BYTE      SFRPRT0PS
      00000091H   SFRSYM    DATA     BYTE      SFRPRT1PS
      00000099H   SFRSYM    DATA     BYTE      SFRPRT2PS
      000000B1H   SFRSYM    DATA     BYTE      SFRPRT3PS
      000000C1H   SFRSYM    DATA     BYTE      SFRPRT4PS
      000000C9H   SFRSYM    DATA     BYTE      SFRPRT5PS
      000000D9H   SFRSYM    DATA     BYTE      SFRPRT6PS
      000000EAH   SFRSYM    DATA     BYTE      MXAX
      000000F0H   SFRSYM    DATA     BYTE      B
      000000E0H   SFRSYM    DATA     BYTE      ACC
      000000D0H   SFRSYM    DATA     BIT       P
      000000D0H.3 SFRSYM    DATA     BIT       RS0
      000000D0H.4 SFRSYM    DATA     BIT       RS1
      00000083H   SFRSYM    DATA     BYTE      DPH
      000000E8H   SFRSYM    DATA     BYTE      SFRPRT12DR
      00000082H   SFRSYM    DATA     BYTE      DPL
      000000F8H   SFRSYM    DATA     BYTE      SFRPRT15DR
      00000086H   SFRSYM    DATA     BYTE      DPS
      000000E9H   SFRSYM    DATA     BYTE      SFRPRT12PS
      00000093H   SFRSYM    DATA     BYTE      DPX
      000000F9H   SFRSYM    DATA     BYTE      SFRPRT15PS
      000000D0H.5 SFRSYM    DATA     BIT       F0
      000000D0H.1 SFRSYM    DATA     BIT       F1
LX51 LINKER/LOCATER V4.64.0.0                                                         04/06/2018  15:41:10  PAGE 99


      0000008AH   SFRSYM    DATA     BYTE      SFRPRT0SEL
      000000D0H   SFRSYM    DATA     BYTE      PSW
      000000A2H   SFRSYM    DATA     BYTE      SFRPRT1SEL
      0000009AH   SFRSYM    DATA     BYTE      SFRPRT2SEL
      000000B2H   SFRSYM    DATA     BYTE      SFRPRT3SEL
      000000C2H   SFRSYM    DATA     BYTE      SFRPRT4SEL

      0100EEF9H   BLOCK     CODE     ---       LVL=0
      02000002H   SYMBOL    XDATA    ---       address
      0100EEF9H   LINE      CODE     ---       #94
      0100EF01H   LINE      CODE     ---       #95
      0100EF01H   LINE      CODE     ---       #97
      0100EF04H   LINE      CODE     ---       #100
      0100EF0FH   LINE      CODE     ---       #103
      0100EF14H   LINE      CODE     ---       #106
      0100EF17H   LINE      CODE     ---       #107
      ---         BLOCKEND  ---      ---       LVL=0

      0100F4C3H   BLOCK     CODE     ---       LVL=0
      0100F4C3H   LINE      CODE     ---       #151
      0100F4C3H   LINE      CODE     ---       #168
      ---         BLOCKEND  ---      ---       LVL=0

      0100F20AH   BLOCK     CODE     ---       LVL=0
      00000006H   SYMBOL    DATA     ---       address
      0100F20AH   LINE      CODE     ---       #198
      0100F20AH   LINE      CODE     ---       #199
      0100F20AH   LINE      CODE     ---       #200
      0100F217H   LINE      CODE     ---       #201
      ---         BLOCKEND  ---      ---       LVL=0

      0100F316H   BLOCK     CODE     ---       LVL=0
      00000007H   SYMBOL    DATA     BYTE      priority
      0100F316H   LINE      CODE     ---       #248
      0100F316H   LINE      CODE     ---       #249
      0100F316H   LINE      CODE     ---       #250
      0100F31FH   LINE      CODE     ---       #251
      ---         BLOCKEND  ---      ---       LVL=0
      00000007H   SYMBOL    DATA     BYTE      priority

      0100F3C4H   BLOCK     CODE     ---       LVL=0
      0100F3C4H   LINE      CODE     ---       #297
      0100F3C4H   LINE      CODE     ---       #298
      0100F3C4H   LINE      CODE     ---       #300
      0100F3CAH   LINE      CODE     ---       #301
      ---         BLOCKEND  ---      ---       LVL=0

      0100F3CBH   BLOCK     CODE     ---       LVL=0
      0100F3CBH   LINE      CODE     ---       #339
      0100F3CBH   LINE      CODE     ---       #340
      0100F3CBH   LINE      CODE     ---       #342
      0100F3D1H   LINE      CODE     ---       #343
      ---         BLOCKEND  ---      ---       LVL=0

      ---         MODULE    ---      ---       PWM_MOTORS
      020013F6H   PUBLIC    XDATA    BYTE      PWM_MOTORS_initVar
      0100F3F9H   PUBLIC    CODE     ---       _PWM_MOTORS_WriteCompare2
      0100F3F3H   PUBLIC    CODE     ---       _PWM_MOTORS_WriteCompare1
      0100F3EDH   PUBLIC    CODE     ---       _PWM_MOTORS_WritePeriod
      0100F3E7H   PUBLIC    CODE     ---       _PWM_MOTORS_WriteCounter
      0100F38CH   PUBLIC    CODE     ---       PWM_MOTORS_Enable
      0100EE07H   PUBLIC    CODE     ---       PWM_MOTORS_Init
      0100F0B5H   PUBLIC    CODE     ---       PWM_MOTORS_Start
      000000CAH   SFRSYM    DATA     BYTE      SFRPRT5SEL
      000000DAH   SFRSYM    DATA     BYTE      SFRPRT6SEL
LX51 LINKER/LOCATER V4.64.0.0                                                         04/06/2018  15:41:10  PAGE 100


      000000D0H.6 SFRSYM    DATA     BIT       AC
      000000A8H.7 SFRSYM    DATA     BIT       EA
      000000A8H   SFRSYM    DATA     BYTE      IE
      00000085H   SFRSYM    DATA     BYTE      DPH1
      00000084H   SFRSYM    DATA     BYTE      DPL1
      000000D0H.7 SFRSYM    DATA     BIT       CY
      000000A0H   SFRSYM    DATA     BYTE      P2AX
      00000095H   SFRSYM    DATA     BYTE      DPX1
      00000081H   SFRSYM    DATA     BYTE      SP
      000000D0H.2 SFRSYM    DATA     BIT       OV
      00000080H   SFRSYM    DATA     BYTE      SFRPRT0DR
      00000090H   SFRSYM    DATA     BYTE      SFRPRT1DR
      000000F2H   SFRSYM    DATA     BYTE      SFRPRT12SEL
      00000098H   SFRSYM    DATA     BYTE      SFRPRT2DR
      000000B0H   SFRSYM    DATA     BYTE      SFRPRT3DR
      000000C0H   SFRSYM    DATA     BYTE      SFRPRT4DR
      000000FAH   SFRSYM    DATA     BYTE      SFRPRT15SEL
      000000C8H   SFRSYM    DATA     BYTE      SFRPRT5DR
      000000D8H   SFRSYM    DATA     BYTE      SFRPRT6DR
      00000089H   SFRSYM    DATA     BYTE      SFRPRT0PS
      00000091H   SFRSYM    DATA     BYTE      SFRPRT1PS
      00000099H   SFRSYM    DATA     BYTE      SFRPRT2PS
      000000B1H   SFRSYM    DATA     BYTE      SFRPRT3PS
      000000C1H   SFRSYM    DATA     BYTE      SFRPRT4PS
      000000C9H   SFRSYM    DATA     BYTE      SFRPRT5PS
      000000D9H   SFRSYM    DATA     BYTE      SFRPRT6PS
      000000EAH   SFRSYM    DATA     BYTE      MXAX
      000000F0H   SFRSYM    DATA     BYTE      B
      000000E0H   SFRSYM    DATA     BYTE      ACC
      000000D0H   SFRSYM    DATA     BIT       P
      000000D0H.3 SFRSYM    DATA     BIT       RS0
      000000D0H.4 SFRSYM    DATA     BIT       RS1
      00000083H   SFRSYM    DATA     BYTE      DPH
      000000E8H   SFRSYM    DATA     BYTE      SFRPRT12DR
      00000082H   SFRSYM    DATA     BYTE      DPL
      000000F8H   SFRSYM    DATA     BYTE      SFRPRT15DR
      00000086H   SFRSYM    DATA     BYTE      DPS
      000000E9H   SFRSYM    DATA     BYTE      SFRPRT12PS
      00000093H   SFRSYM    DATA     BYTE      DPX
      000000F9H   SFRSYM    DATA     BYTE      SFRPRT15PS
      000000D0H.5 SFRSYM    DATA     BIT       F0
      000000D0H.1 SFRSYM    DATA     BIT       F1
      0000008AH   SFRSYM    DATA     BYTE      SFRPRT0SEL
      000000D0H   SFRSYM    DATA     BYTE      PSW
      000000A2H   SFRSYM    DATA     BYTE      SFRPRT1SEL
      0000009AH   SFRSYM    DATA     BYTE      SFRPRT2SEL
      000000B2H   SFRSYM    DATA     BYTE      SFRPRT3SEL
      000000C2H   SFRSYM    DATA     BYTE      SFRPRT4SEL

      0100F0B5H   BLOCK     CODE     ---       LVL=0
      0100F0B5H   LINE      CODE     ---       #55
      0100F0B5H   LINE      CODE     ---       #56
      0100F0B5H   LINE      CODE     ---       #58
      0100F0BBH   LINE      CODE     ---       #59
      0100F0BBH   LINE      CODE     ---       #60
      0100F0BEH   LINE      CODE     ---       #61
      0100F0C4H   LINE      CODE     ---       #62
      0100F0C4H   LINE      CODE     ---       #63
      0100F0C7H   LINE      CODE     ---       #65
      ---         BLOCKEND  ---      ---       LVL=0

      0100EE07H   BLOCK     CODE     ---       LVL=0
      0100EE07H   BLOCK     CODE     NEAR LAB  LVL=1
      00000007H   SYMBOL    DATA     BYTE      ctrl
      ---         BLOCKEND  ---      ---       LVL=1
LX51 LINKER/LOCATER V4.64.0.0                                                         04/06/2018  15:41:10  PAGE 101


      0100EE07H   LINE      CODE     ---       #84
      0100EE07H   LINE      CODE     ---       #85
      0100EE07H   LINE      CODE     ---       #118
      0100EE0EH   LINE      CODE     ---       #120
      0100EE11H   LINE      CODE     ---       #126
      0100EE18H   LINE      CODE     ---       #133
      0100EE1DH   LINE      CODE     ---       #136
      0100EE22H   LINE      CODE     ---       #141
      0100EE27H   LINE      CODE     ---       #142
      0100EE2CH   LINE      CODE     ---       #179
      ---         BLOCKEND  ---      ---       LVL=0

      0100F38CH   BLOCK     CODE     ---       LVL=0
      0100F38CH   LINE      CODE     ---       #199
      0100F38CH   LINE      CODE     ---       #200
      0100F38CH   LINE      CODE     ---       #209
      0100F393H   LINE      CODE     ---       #211
      ---         BLOCKEND  ---      ---       LVL=0

      0100F3E7H   BLOCK     CODE     ---       LVL=0
      00000007H   SYMBOL    DATA     BYTE      counter
      0100F3E7H   LINE      CODE     ---       #403
      0100F3E7H   LINE      CODE     ---       #405
      0100F3E7H   LINE      CODE     ---       #406
      0100F3ECH   LINE      CODE     ---       #407
      ---         BLOCKEND  ---      ---       LVL=0

      0100F3EDH   BLOCK     CODE     ---       LVL=0
      00000007H   SYMBOL    DATA     BYTE      period
      0100F3EDH   LINE      CODE     ---       #482
      0100F3EDH   LINE      CODE     ---       #483
      0100F3EDH   LINE      CODE     ---       #487
      0100F3F2H   LINE      CODE     ---       #489
      ---         BLOCKEND  ---      ---       LVL=0

      0100F3F3H   BLOCK     CODE     ---       LVL=0
      00000007H   SYMBOL    DATA     BYTE      compare
      0100F3F3H   LINE      CODE     ---       #555
      0100F3F3H   LINE      CODE     ---       #557
      0100F3F3H   LINE      CODE     ---       #561
      0100F3F8H   LINE      CODE     ---       #563
      ---         BLOCKEND  ---      ---       LVL=0

      0100F3F9H   BLOCK     CODE     ---       LVL=0
      00000007H   SYMBOL    DATA     BYTE      compare
      0100F3F9H   LINE      CODE     ---       #584
      0100F3F9H   LINE      CODE     ---       #586
      0100F3F9H   LINE      CODE     ---       #590
      0100F3FEH   LINE      CODE     ---       #592
      ---         BLOCKEND  ---      ---       LVL=0
      00000007H   SYMBOL    DATA     BYTE      result
      00000007H   SYMBOL    DATA     BYTE      control

      ---         MODULE    ---      ---       PACER_TIMER
      020013F7H   PUBLIC    XDATA    BYTE      PACER_TIMER_initVar
      0100F226H   PUBLIC    CODE     ---       _PACER_TIMER_WriteCounter
      0100F218H   PUBLIC    CODE     ---       _PACER_TIMER_WritePeriod
      0100F3FFH   PUBLIC    CODE     ---       _PACER_TIMER_SetInterruptMode
      0100F0C8H   PUBLIC    CODE     ---       PACER_TIMER_Start
      0100F00DH   PUBLIC    CODE     ---       PACER_TIMER_Enable
      0100E98CH   PUBLIC    CODE     ---       PACER_TIMER_Init
      000000CAH   SFRSYM    DATA     BYTE      SFRPRT5SEL
      000000DAH   SFRSYM    DATA     BYTE      SFRPRT6SEL
      000000D0H.6 SFRSYM    DATA     BIT       AC
      000000A8H.7 SFRSYM    DATA     BIT       EA
LX51 LINKER/LOCATER V4.64.0.0                                                         04/06/2018  15:41:10  PAGE 102


      000000A8H   SFRSYM    DATA     BYTE      IE
      00000085H   SFRSYM    DATA     BYTE      DPH1
      00000084H   SFRSYM    DATA     BYTE      DPL1
      000000D0H.7 SFRSYM    DATA     BIT       CY
      000000A0H   SFRSYM    DATA     BYTE      P2AX
      00000095H   SFRSYM    DATA     BYTE      DPX1
      00000081H   SFRSYM    DATA     BYTE      SP
      000000D0H.2 SFRSYM    DATA     BIT       OV
      00000080H   SFRSYM    DATA     BYTE      SFRPRT0DR
      00000090H   SFRSYM    DATA     BYTE      SFRPRT1DR
      000000F2H   SFRSYM    DATA     BYTE      SFRPRT12SEL
      00000098H   SFRSYM    DATA     BYTE      SFRPRT2DR
      000000B0H   SFRSYM    DATA     BYTE      SFRPRT3DR
      000000C0H   SFRSYM    DATA     BYTE      SFRPRT4DR
      000000FAH   SFRSYM    DATA     BYTE      SFRPRT15SEL
      000000C8H   SFRSYM    DATA     BYTE      SFRPRT5DR
      000000D8H   SFRSYM    DATA     BYTE      SFRPRT6DR
      00000089H   SFRSYM    DATA     BYTE      SFRPRT0PS
      00000091H   SFRSYM    DATA     BYTE      SFRPRT1PS
      00000099H   SFRSYM    DATA     BYTE      SFRPRT2PS
      000000B1H   SFRSYM    DATA     BYTE      SFRPRT3PS
      000000C1H   SFRSYM    DATA     BYTE      SFRPRT4PS
      000000C9H   SFRSYM    DATA     BYTE      SFRPRT5PS
      000000D9H   SFRSYM    DATA     BYTE      SFRPRT6PS
      000000EAH   SFRSYM    DATA     BYTE      MXAX
      000000F0H   SFRSYM    DATA     BYTE      B
      000000E0H   SFRSYM    DATA     BYTE      ACC
      000000D0H   SFRSYM    DATA     BIT       P
      000000D0H.3 SFRSYM    DATA     BIT       RS0
      000000D0H.4 SFRSYM    DATA     BIT       RS1
      00000083H   SFRSYM    DATA     BYTE      DPH
      000000E8H   SFRSYM    DATA     BYTE      SFRPRT12DR
      00000082H   SFRSYM    DATA     BYTE      DPL
      000000F8H   SFRSYM    DATA     BYTE      SFRPRT15DR
      00000086H   SFRSYM    DATA     BYTE      DPS
      000000E9H   SFRSYM    DATA     BYTE      SFRPRT12PS
      00000093H   SFRSYM    DATA     BYTE      DPX
      000000F9H   SFRSYM    DATA     BYTE      SFRPRT15PS
      000000D0H.5 SFRSYM    DATA     BIT       F0
      000000D0H.1 SFRSYM    DATA     BIT       F1
      0000008AH   SFRSYM    DATA     BYTE      SFRPRT0SEL
      000000D0H   SFRSYM    DATA     BYTE      PSW
      000000A2H   SFRSYM    DATA     BYTE      SFRPRT1SEL
      0000009AH   SFRSYM    DATA     BYTE      SFRPRT2SEL
      000000B2H   SFRSYM    DATA     BYTE      SFRPRT3SEL
      000000C2H   SFRSYM    DATA     BYTE      SFRPRT4SEL

      0100E98CH   BLOCK     CODE     ---       LVL=0
      0100E98CH   LINE      CODE     ---       #43
      0100E98CH   LINE      CODE     ---       #44
      0100E98CH   LINE      CODE     ---       #52
      0100E993H   LINE      CODE     ---       #60
      0100E99AH   LINE      CODE     ---       #106
      0100E9A1H   LINE      CODE     ---       #107
      0100E9A5H   LINE      CODE     ---       #110
      0100E9A9H   LINE      CODE     ---       #111
      0100E9ADH   LINE      CODE     ---       #114
      0100E9B4H   LINE      CODE     ---       #118
      0100E9BBH   LINE      CODE     ---       #119
      0100E9C2H   LINE      CODE     ---       #162
      0100E9C7H   LINE      CODE     ---       #163
      ---         BLOCKEND  ---      ---       LVL=0

      0100F00DH   BLOCK     CODE     ---       LVL=0
      0100F00DH   LINE      CODE     ---       #180
LX51 LINKER/LOCATER V4.64.0.0                                                         04/06/2018  15:41:10  PAGE 103


      0100F00DH   LINE      CODE     ---       #181
      0100F00DH   LINE      CODE     ---       #184
      0100F014H   LINE      CODE     ---       #185
      0100F01BH   LINE      CODE     ---       #190
      0100F022H   LINE      CODE     ---       #192
      ---         BLOCKEND  ---      ---       LVL=0

      0100F0C8H   BLOCK     CODE     ---       LVL=0
      0100F0C8H   LINE      CODE     ---       #215
      0100F0C8H   LINE      CODE     ---       #216
      0100F0C8H   LINE      CODE     ---       #217
      0100F0CEH   LINE      CODE     ---       #218
      0100F0CEH   LINE      CODE     ---       #219
      0100F0D1H   LINE      CODE     ---       #221
      0100F0D7H   LINE      CODE     ---       #222
      0100F0D7H   LINE      CODE     ---       #225
      0100F0DAH   LINE      CODE     ---       #226
      ---         BLOCKEND  ---      ---       LVL=0

      0100F3FFH   BLOCK     CODE     ---       LVL=0
      00000007H   SYMBOL    DATA     BYTE      interruptMode
      0100F3FFH   LINE      CODE     ---       #279
      0100F3FFH   LINE      CODE     ---       #280
      0100F3FFH   LINE      CODE     ---       #281
      0100F404H   LINE      CODE     ---       #282
      ---         BLOCKEND  ---      ---       LVL=0
      00000007H   SYMBOL    DATA     BYTE      control

      0100F218H   BLOCK     CODE     ---       LVL=0
      00000006H   SYMBOL    DATA     WORD      period
      0100F218H   BLOCK     CODE     NEAR LAB  LVL=1
      00000006H   SYMBOL    DATA     WORD      period_temp
      ---         BLOCKEND  ---      ---       LVL=1
      0100F218H   LINE      CODE     ---       #431
      0100F218H   LINE      CODE     ---       #432
      0100F218H   LINE      CODE     ---       #434
      0100F218H   LINE      CODE     ---       #435
      0100F225H   LINE      CODE     ---       #439
      ---         BLOCKEND  ---      ---       LVL=0

      0100F226H   BLOCK     CODE     ---       LVL=0
      00000006H   SYMBOL    DATA     WORD      counter
      0100F226H   LINE      CODE     ---       #480
      0100F226H   LINE      CODE     ---       #481
      0100F226H   LINE      CODE     ---       #486
      0100F233H   LINE      CODE     ---       #491
      ---         BLOCKEND  ---      ---       LVL=0

      ---         MODULE    ---      ---       UART_RS485
      020013C5H   PUBLIC    XDATA    BYTE      UART_RS485_errorStatus
      020013C4H   PUBLIC    XDATA    BYTE      UART_RS485_rxBufferOverflow
      020013C3H   PUBLIC    XDATA    BYTE      UART_RS485_initVar
      020013C2H   PUBLIC    XDATA    BYTE      UART_RS485_rxBufferWrite
      020013A2H   PUBLIC    XDATA    ---       UART_RS485_rxBuffer
      020013A1H   PUBLIC    XDATA    BYTE      UART_RS485_rxBufferRead
      020013A0H   PUBLIC    XDATA    BYTE      UART_RS485_rxBufferLoopDetect
      0100F186H   PUBLIC    CODE     ---       UART_RS485_ClearTxBuffer
      0100EB70H   PUBLIC    CODE     ---       _UART_RS485_PutString
      0100F27AH   PUBLIC    CODE     ---       _UART_RS485_PutChar
      0100F405H   PUBLIC    CODE     ---       UART_RS485_ReadTxStatus
      0100ECFFH   PUBLIC    CODE     ---       UART_RS485_ClearRxBuffer
      0100E606H   PUBLIC    CODE     ---       UART_RS485_GetRxBufferSize
      0100E405H   PUBLIC    CODE     ---       UART_RS485_GetChar
      0100F0A1H   PUBLIC    CODE     ---       UART_RS485_ReadRxStatus
      0100EE75H   PUBLIC    CODE     ---       UART_RS485_Stop
LX51 LINKER/LOCATER V4.64.0.0                                                         04/06/2018  15:41:10  PAGE 104


      0100EE53H   PUBLIC    CODE     ---       UART_RS485_Enable
      0100EBD8H   PUBLIC    CODE     ---       UART_RS485_Init
      0100F0DBH   PUBLIC    CODE     ---       UART_RS485_Start
      000000CAH   SFRSYM    DATA     BYTE      SFRPRT5SEL
      000000DAH   SFRSYM    DATA     BYTE      SFRPRT6SEL
      000000D0H.6 SFRSYM    DATA     BIT       AC
      000000A8H.7 SFRSYM    DATA     BIT       EA
      000000A8H   SFRSYM    DATA     BYTE      IE
      00000085H   SFRSYM    DATA     BYTE      DPH1
      00000084H   SFRSYM    DATA     BYTE      DPL1
      000000D0H.7 SFRSYM    DATA     BIT       CY
      000000A0H   SFRSYM    DATA     BYTE      P2AX
      00000095H   SFRSYM    DATA     BYTE      DPX1
      00000081H   SFRSYM    DATA     BYTE      SP
      000000D0H.2 SFRSYM    DATA     BIT       OV
      00000080H   SFRSYM    DATA     BYTE      SFRPRT0DR
      00000090H   SFRSYM    DATA     BYTE      SFRPRT1DR
      000000F2H   SFRSYM    DATA     BYTE      SFRPRT12SEL
      00000098H   SFRSYM    DATA     BYTE      SFRPRT2DR
      000000B0H   SFRSYM    DATA     BYTE      SFRPRT3DR
      000000C0H   SFRSYM    DATA     BYTE      SFRPRT4DR
      000000FAH   SFRSYM    DATA     BYTE      SFRPRT15SEL
      000000C8H   SFRSYM    DATA     BYTE      SFRPRT5DR
      000000D8H   SFRSYM    DATA     BYTE      SFRPRT6DR
      00000089H   SFRSYM    DATA     BYTE      SFRPRT0PS
      00000091H   SFRSYM    DATA     BYTE      SFRPRT1PS
      00000099H   SFRSYM    DATA     BYTE      SFRPRT2PS
      000000B1H   SFRSYM    DATA     BYTE      SFRPRT3PS
      000000C1H   SFRSYM    DATA     BYTE      SFRPRT4PS
      000000C9H   SFRSYM    DATA     BYTE      SFRPRT5PS
      000000D9H   SFRSYM    DATA     BYTE      SFRPRT6PS
      000000EAH   SFRSYM    DATA     BYTE      MXAX
      000000F0H   SFRSYM    DATA     BYTE      B
      000000E0H   SFRSYM    DATA     BYTE      ACC
      000000D0H   SFRSYM    DATA     BIT       P
      000000D0H.3 SFRSYM    DATA     BIT       RS0
      000000D0H.4 SFRSYM    DATA     BIT       RS1
      00000083H   SFRSYM    DATA     BYTE      DPH
      000000E8H   SFRSYM    DATA     BYTE      SFRPRT12DR
      00000082H   SFRSYM    DATA     BYTE      DPL
      000000F8H   SFRSYM    DATA     BYTE      SFRPRT15DR
      00000086H   SFRSYM    DATA     BYTE      DPS
      000000E9H   SFRSYM    DATA     BYTE      SFRPRT12PS
      00000093H   SFRSYM    DATA     BYTE      DPX
      000000F9H   SFRSYM    DATA     BYTE      SFRPRT15PS
      000000D0H.5 SFRSYM    DATA     BIT       F0
      000000D0H.1 SFRSYM    DATA     BIT       F1
      0000008AH   SFRSYM    DATA     BYTE      SFRPRT0SEL
      000000D0H   SFRSYM    DATA     BYTE      PSW
      000000A2H   SFRSYM    DATA     BYTE      SFRPRT1SEL
      0000009AH   SFRSYM    DATA     BYTE      SFRPRT2SEL
      000000B2H   SFRSYM    DATA     BYTE      SFRPRT3SEL
      000000C2H   SFRSYM    DATA     BYTE      SFRPRT4SEL

      0100F0DBH   BLOCK     CODE     ---       LVL=0
      0100F0DBH   LINE      CODE     ---       #76
      0100F0DBH   LINE      CODE     ---       #77
      0100F0DBH   LINE      CODE     ---       #79
      0100F0E1H   LINE      CODE     ---       #80
      0100F0E1H   LINE      CODE     ---       #81
      0100F0E4H   LINE      CODE     ---       #82
      0100F0EAH   LINE      CODE     ---       #83
      0100F0EAH   LINE      CODE     ---       #85
      0100F0EDH   LINE      CODE     ---       #86
      ---         BLOCKEND  ---      ---       LVL=0
LX51 LINKER/LOCATER V4.64.0.0                                                         04/06/2018  15:41:10  PAGE 105



      0100EBD8H   BLOCK     CODE     ---       LVL=0
      0100EBD8H   LINE      CODE     ---       #106
      0100EBD8H   LINE      CODE     ---       #107
      0100EBD8H   LINE      CODE     ---       #112
      0100EBE1H   LINE      CODE     ---       #113
      0100EBE8H   LINE      CODE     ---       #114
      0100EBEDH   LINE      CODE     ---       #124
      0100EBF3H   LINE      CODE     ---       #126
      0100EBF9H   LINE      CODE     ---       #138
      0100EBFFH   LINE      CODE     ---       #139
      0100EC05H   LINE      CODE     ---       #150
      0100EC0AH   LINE      CODE     ---       #160
      ---         BLOCKEND  ---      ---       LVL=0

      0100EE53H   BLOCK     CODE     ---       LVL=0
      0100EE53H   BLOCK     CODE     NEAR LAB  LVL=1
      00000007H   SYMBOL    DATA     BYTE      enableInterrupts
      ---         BLOCKEND  ---      ---       LVL=1
      0100EE53H   LINE      CODE     ---       #183
      0100EE53H   LINE      CODE     ---       #184
      0100EE53H   LINE      CODE     ---       #186
      0100EE56H   LINE      CODE     ---       #190
      0100EE5DH   LINE      CODE     ---       #193
      0100EE64H   LINE      CODE     ---       #196
      0100EE6AH   LINE      CODE     ---       #211
      0100EE71H   LINE      CODE     ---       #222
      0100EE74H   LINE      CODE     ---       #223
      ---         BLOCKEND  ---      ---       LVL=0

      0100EE75H   BLOCK     CODE     ---       LVL=0
      0100EE75H   BLOCK     CODE     NEAR LAB  LVL=1
      00000007H   SYMBOL    DATA     BYTE      enableInterrupts
      ---         BLOCKEND  ---      ---       LVL=1
      0100EE75H   LINE      CODE     ---       #240
      0100EE75H   LINE      CODE     ---       #241
      0100EE75H   LINE      CODE     ---       #243
      0100EE78H   LINE      CODE     ---       #247
      0100EE7FH   LINE      CODE     ---       #262
      0100EE86H   LINE      CODE     ---       #265
      0100EE8CH   LINE      CODE     ---       #270
      0100EE93H   LINE      CODE     ---       #277
      0100EE96H   LINE      CODE     ---       #278
      ---         BLOCKEND  ---      ---       LVL=0
      00000007H   SYMBOL    DATA     BYTE      intSrc
      00000007H   SYMBOL    DATA     BYTE      rxData
      00000006H   SYMBOL    DATA     BYTE      locRxBufferRead
      00000005H   SYMBOL    DATA     BYTE      locRxBufferWrite

      0100F0A1H   BLOCK     CODE     ---       LVL=0
      0100F0A1H   BLOCK     CODE     NEAR LAB  LVL=1
      00000007H   SYMBOL    DATA     BYTE      status
      ---         BLOCKEND  ---      ---       LVL=1
      0100F0A1H   LINE      CODE     ---       #485
      0100F0A1H   LINE      CODE     ---       #486
      0100F0A1H   LINE      CODE     ---       #489
      0100F0A8H   LINE      CODE     ---       #492
      0100F0AEH   LINE      CODE     ---       #493
      0100F0AEH   LINE      CODE     ---       #494
      0100F0B2H   LINE      CODE     ---       #495
      0100F0B4H   LINE      CODE     ---       #496
      0100F0B4H   LINE      CODE     ---       #499
      0100F0B4H   LINE      CODE     ---       #500
      ---         BLOCKEND  ---      ---       LVL=0

LX51 LINKER/LOCATER V4.64.0.0                                                         04/06/2018  15:41:10  PAGE 106


      0100E405H   BLOCK     CODE     ---       LVL=0
      0100E405H   BLOCK     CODE     NEAR LAB  LVL=1
      00000007H   SYMBOL    DATA     BYTE      rxData
      00000006H   SYMBOL    DATA     BYTE      rxStatus
      00000006H   SYMBOL    DATA     BYTE      locRxBufferRead
      00000005H   SYMBOL    DATA     BYTE      locRxBufferWrite
      ---         BLOCKEND  ---      ---       LVL=1
      0100E405H   LINE      CODE     ---       #532
      0100E405H   LINE      CODE     ---       #533
      0100E405H   LINE      CODE     ---       #534
      0100E407H   LINE      CODE     ---       #542
      0100E40DH   LINE      CODE     ---       #544
      0100E412H   LINE      CODE     ---       #545
      0100E417H   LINE      CODE     ---       #547
      0100E421H   LINE      CODE     ---       #548
      0100E421H   LINE      CODE     ---       #549
      0100E42DH   LINE      CODE     ---       #550
      0100E42EH   LINE      CODE     ---       #551
      0100E434H   LINE      CODE     ---       #552
      0100E434H   LINE      CODE     ---       #553
      0100E436H   LINE      CODE     ---       #554
      0100E436H   LINE      CODE     ---       #556
      0100E43BH   LINE      CODE     ---       #558
      0100E441H   LINE      CODE     ---       #559
      0100E441H   LINE      CODE     ---       #560
      0100E443H   LINE      CODE     ---       #575
      0100E443H   LINE      CODE     ---       #577
      0100E445H   LINE      CODE     ---       #579
      0100E44AH   LINE      CODE     ---       #580
      0100E44DH   LINE      CODE     ---       #581
      0100E44DH   LINE      CODE     ---       #582
      0100E452H   LINE      CODE     ---       #585
      0100E457H   LINE      CODE     ---       #586
      0100E457H   LINE      CODE     ---       #587
      0100E459H   LINE      CODE     ---       #588
      0100E459H   LINE      CODE     ---       #589
      0100E459H   LINE      CODE     ---       #590
      0100E459H   LINE      CODE     ---       #592
      0100E45FH   LINE      CODE     ---       #611
      0100E45FH   LINE      CODE     ---       #612
      ---         BLOCKEND  ---      ---       LVL=0
      00000002H   SYMBOL    DATA     WORD      locErrorStatus

      0100E606H   BLOCK     CODE     ---       LVL=0
      0100E606H   BLOCK     CODE     NEAR LAB  LVL=1
      00000007H   SYMBOL    DATA     BYTE      size
      ---         BLOCKEND  ---      ---       LVL=1
      0100E606H   LINE      CODE     ---       #683
      0100E606H   LINE      CODE     ---       #685
      0100E606H   LINE      CODE     ---       #691
      0100E60CH   LINE      CODE     ---       #693
      0100E618H   LINE      CODE     ---       #694
      0100E618H   LINE      CODE     ---       #695
      0100E61EH   LINE      CODE     ---       #696
      0100E61EH   LINE      CODE     ---       #697
      0100E620H   LINE      CODE     ---       #698
      0100E622H   LINE      CODE     ---       #700
      0100E622H   LINE      CODE     ---       #701
      0100E624H   LINE      CODE     ---       #702
      0100E624H   LINE      CODE     ---       #703
      0100E626H   LINE      CODE     ---       #704
      0100E633H   LINE      CODE     ---       #705
      0100E633H   LINE      CODE     ---       #706
      0100E63CH   LINE      CODE     ---       #707
      0100E63EH   LINE      CODE     ---       #709
LX51 LINKER/LOCATER V4.64.0.0                                                         04/06/2018  15:41:10  PAGE 107


      0100E63EH   LINE      CODE     ---       #710
      0100E64EH   LINE      CODE     ---       #711
      0100E64EH   LINE      CODE     ---       #713
      0100E654H   LINE      CODE     ---       #722
      0100E654H   LINE      CODE     ---       #723
      ---         BLOCKEND  ---      ---       LVL=0

      0100ECFFH   BLOCK     CODE     ---       LVL=0
      0100ECFFH   BLOCK     CODE     NEAR LAB  LVL=1
      00000007H   SYMBOL    DATA     BYTE      enableInterrupts
      ---         BLOCKEND  ---      ---       LVL=1
      0100ECFFH   LINE      CODE     ---       #757
      0100ECFFH   LINE      CODE     ---       #758
      0100ECFFH   LINE      CODE     ---       #762
      0100ED02H   LINE      CODE     ---       #763
      0100ED09H   LINE      CODE     ---       #764
      0100ED0DH   LINE      CODE     ---       #765
      0100ED10H   LINE      CODE     ---       #770
      0100ED16H   LINE      CODE     ---       #772
      0100ED1BH   LINE      CODE     ---       #773
      0100ED1FH   LINE      CODE     ---       #774
      0100ED23H   LINE      CODE     ---       #775
      0100ED27H   LINE      CODE     ---       #777
      0100ED2DH   LINE      CODE     ---       #781
      ---         BLOCKEND  ---      ---       LVL=0
      00000007H   SYMBOL    DATA     BYTE      address
      00000007H   SYMBOL    DATA     BYTE      address
      00000007H   SYMBOL    DATA     BYTE      intSrc
      00000007H   SYMBOL    DATA     BYTE      txDataByte

      0100F405H   BLOCK     CODE     ---       LVL=0
      0100F405H   LINE      CODE     ---       #1003
      0100F405H   LINE      CODE     ---       #1004
      0100F405H   LINE      CODE     ---       #1005
      0100F40AH   LINE      CODE     ---       #1006
      ---         BLOCKEND  ---      ---       LVL=0

      0100F27AH   BLOCK     CODE     ---       LVL=0
      00000007H   SYMBOL    DATA     BYTE      txDataByte
      0100F27AH   LINE      CODE     ---       #1041
      0100F27AH   LINE      CODE     ---       #1042
      0100F27AH   LINE      CODE     ---       #1107
      0100F281H   LINE      CODE     ---       #1108
      0100F281H   LINE      CODE     ---       #1110
      0100F281H   LINE      CODE     ---       #1113
      0100F286H   LINE      CODE     ---       #1116
      ---         BLOCKEND  ---      ---       LVL=0

      0100EB70H   BLOCK     CODE     ---       LVL=0
      020006C6H   SYMBOL    XDATA    ---       string
      0100EB7BH   BLOCK     CODE     NEAR LAB  LVL=1
      00000004H   SYMBOL    DATA     WORD      bufIndex
      ---         BLOCKEND  ---      ---       LVL=1
      0100EB70H   LINE      CODE     ---       #1145
      0100EB7BH   LINE      CODE     ---       #1146
      0100EB7BH   LINE      CODE     ---       #1147
      0100EB7EH   LINE      CODE     ---       #1150
      0100EB84H   LINE      CODE     ---       #1151
      0100EB84H   LINE      CODE     ---       #1153
      0100EB99H   LINE      CODE     ---       #1154
      0100EB99H   LINE      CODE     ---       #1155
      0100EB9CH   LINE      CODE     ---       #1156
      0100EBA1H   LINE      CODE     ---       #1157
      0100EBA3H   LINE      CODE     ---       #1158
      0100EBA3H   LINE      CODE     ---       #1159
LX51 LINKER/LOCATER V4.64.0.0                                                         04/06/2018  15:41:10  PAGE 108


      ---         BLOCKEND  ---      ---       LVL=0
      00000005H   SYMBOL    DATA     BYTE      byteCount
      00000006H   SYMBOL    DATA     BYTE      bufIndex
      00000007H   SYMBOL    DATA     BYTE      txDataByte
      00000007H   SYMBOL    DATA     BYTE      size

      0100F186H   BLOCK     CODE     ---       LVL=0
      0100F186H   BLOCK     CODE     NEAR LAB  LVL=1
      00000007H   SYMBOL    DATA     BYTE      enableInterrupts
      ---         BLOCKEND  ---      ---       LVL=1
      0100F186H   LINE      CODE     ---       #1354
      0100F186H   LINE      CODE     ---       #1355
      0100F186H   LINE      CODE     ---       #1358
      0100F189H   LINE      CODE     ---       #1360
      0100F190H   LINE      CODE     ---       #1361
      0100F194H   LINE      CODE     ---       #1362
      0100F197H   LINE      CODE     ---       #1376
      ---         BLOCKEND  ---      ---       LVL=0
      00000007H   SYMBOL    DATA     BYTE      retMode
      0200139FH   SYMBOL    XDATA    BYTE      txPeriod

      ---         MODULE    ---      ---       MOTOR_DIR
      0100F40BH   PUBLIC    CODE     ---       _MOTOR_DIR_Write

      0100F40BH   BLOCK     CODE     ---       LVL=0
      00000007H   SYMBOL    DATA     BYTE      control
      0100F40BH   LINE      CODE     ---       #37
      0100F40BH   LINE      CODE     ---       #38
      0100F40BH   LINE      CODE     ---       #39
      0100F410H   LINE      CODE     ---       #40
      ---         BLOCKEND  ---      ---       LVL=0

      ---         MODULE    ---      ---       COUNTER_ENC
      020013F8H   PUBLIC    XDATA    BYTE      COUNTER_ENC_initVar
      0100F287H   PUBLIC    CODE     ---       COUNTER_ENC_ClearFIFO
      0100F42FH   PUBLIC    CODE     ---       _COUNTER_ENC_WriteCompare
      0100F429H   PUBLIC    CODE     ---       _COUNTER_ENC_WritePeriod
      0100F423H   PUBLIC    CODE     ---       COUNTER_ENC_ReadCapture
      0100F41DH   PUBLIC    CODE     ---       _COUNTER_ENC_WriteCounter
      0100F417H   PUBLIC    CODE     ---       COUNTER_ENC_ReadStatusRegister
      0100F411H   PUBLIC    CODE     ---       _COUNTER_ENC_SetInterruptMode
      0100F0EEH   PUBLIC    CODE     ---       COUNTER_ENC_Start
      0100F394H   PUBLIC    CODE     ---       COUNTER_ENC_Enable
      0100EB3BH   PUBLIC    CODE     ---       COUNTER_ENC_Init
      000000CAH   SFRSYM    DATA     BYTE      SFRPRT5SEL
      000000DAH   SFRSYM    DATA     BYTE      SFRPRT6SEL
      000000D0H.6 SFRSYM    DATA     BIT       AC
      000000A8H.7 SFRSYM    DATA     BIT       EA
      000000A8H   SFRSYM    DATA     BYTE      IE
      00000085H   SFRSYM    DATA     BYTE      DPH1
      00000084H   SFRSYM    DATA     BYTE      DPL1
      000000D0H.7 SFRSYM    DATA     BIT       CY
      000000A0H   SFRSYM    DATA     BYTE      P2AX
      00000095H   SFRSYM    DATA     BYTE      DPX1
      00000081H   SFRSYM    DATA     BYTE      SP
      000000D0H.2 SFRSYM    DATA     BIT       OV
      00000080H   SFRSYM    DATA     BYTE      SFRPRT0DR
      00000090H   SFRSYM    DATA     BYTE      SFRPRT1DR
      000000F2H   SFRSYM    DATA     BYTE      SFRPRT12SEL
      00000098H   SFRSYM    DATA     BYTE      SFRPRT2DR
      000000B0H   SFRSYM    DATA     BYTE      SFRPRT3DR
      000000C0H   SFRSYM    DATA     BYTE      SFRPRT4DR
      000000FAH   SFRSYM    DATA     BYTE      SFRPRT15SEL
      000000C8H   SFRSYM    DATA     BYTE      SFRPRT5DR
      000000D8H   SFRSYM    DATA     BYTE      SFRPRT6DR
LX51 LINKER/LOCATER V4.64.0.0                                                         04/06/2018  15:41:10  PAGE 109


      00000089H   SFRSYM    DATA     BYTE      SFRPRT0PS
      00000091H   SFRSYM    DATA     BYTE      SFRPRT1PS
      00000099H   SFRSYM    DATA     BYTE      SFRPRT2PS
      000000B1H   SFRSYM    DATA     BYTE      SFRPRT3PS
      000000C1H   SFRSYM    DATA     BYTE      SFRPRT4PS
      000000C9H   SFRSYM    DATA     BYTE      SFRPRT5PS
      000000D9H   SFRSYM    DATA     BYTE      SFRPRT6PS
      000000EAH   SFRSYM    DATA     BYTE      MXAX
      000000F0H   SFRSYM    DATA     BYTE      B
      000000E0H   SFRSYM    DATA     BYTE      ACC
      000000D0H   SFRSYM    DATA     BIT       P
      000000D0H.3 SFRSYM    DATA     BIT       RS0
      000000D0H.4 SFRSYM    DATA     BIT       RS1
      00000083H   SFRSYM    DATA     BYTE      DPH
      000000E8H   SFRSYM    DATA     BYTE      SFRPRT12DR
      00000082H   SFRSYM    DATA     BYTE      DPL
      000000F8H   SFRSYM    DATA     BYTE      SFRPRT15DR
      00000086H   SFRSYM    DATA     BYTE      DPS
      000000E9H   SFRSYM    DATA     BYTE      SFRPRT12PS
      00000093H   SFRSYM    DATA     BYTE      DPX
      000000F9H   SFRSYM    DATA     BYTE      SFRPRT15PS
      000000D0H.5 SFRSYM    DATA     BIT       F0
      000000D0H.1 SFRSYM    DATA     BIT       F1
      0000008AH   SFRSYM    DATA     BYTE      SFRPRT0SEL
      000000D0H   SFRSYM    DATA     BYTE      PSW
      000000A2H   SFRSYM    DATA     BYTE      SFRPRT1SEL
      0000009AH   SFRSYM    DATA     BYTE      SFRPRT2SEL
      000000B2H   SFRSYM    DATA     BYTE      SFRPRT3SEL
      000000C2H   SFRSYM    DATA     BYTE      SFRPRT4SEL

      0100EB3BH   BLOCK     CODE     ---       LVL=0
      0100EB3BH   BLOCK     CODE     NEAR LAB  LVL=1
      00000007H   SYMBOL    DATA     BYTE      ctrl
      00000007H   SYMBOL    DATA     BYTE      COUNTER_ENC_interruptState
      ---         BLOCKEND  ---      ---       LVL=1
      0100EB3BH   LINE      CODE     ---       #37
      0100EB3BH   LINE      CODE     ---       #38
      0100EB3BH   LINE      CODE     ---       #79
      0100EB42H   LINE      CODE     ---       #80
      0100EB43H   LINE      CODE     ---       #83
      0100EB47H   LINE      CODE     ---       #88
      0100EB48H   LINE      CODE     ---       #96
      0100EB4BH   LINE      CODE     ---       #100
      0100EB50H   LINE      CODE     ---       #102
      0100EB55H   LINE      CODE     ---       #104
      0100EB5AH   LINE      CODE     ---       #108
      0100EB5DH   LINE      CODE     ---       #110
      0100EB62H   LINE      CODE     ---       #115
      0100EB65H   LINE      CODE     ---       #117
      0100EB6CH   LINE      CODE     ---       #120
      0100EB6FH   LINE      CODE     ---       #123
      ---         BLOCKEND  ---      ---       LVL=0

      0100F394H   BLOCK     CODE     ---       LVL=0
      0100F394H   LINE      CODE     ---       #143
      0100F394H   LINE      CODE     ---       #144
      0100F394H   LINE      CODE     ---       #155
      0100F39BH   LINE      CODE     ---       #158
      ---         BLOCKEND  ---      ---       LVL=0

      0100F0EEH   BLOCK     CODE     ---       LVL=0
      0100F0EEH   LINE      CODE     ---       #178
      0100F0EEH   LINE      CODE     ---       #179
      0100F0EEH   LINE      CODE     ---       #180
      0100F0F4H   LINE      CODE     ---       #181
LX51 LINKER/LOCATER V4.64.0.0                                                         04/06/2018  15:41:10  PAGE 110


      0100F0F4H   LINE      CODE     ---       #182
      0100F0F7H   LINE      CODE     ---       #184
      0100F0FDH   LINE      CODE     ---       #185
      0100F0FDH   LINE      CODE     ---       #188
      0100F100H   LINE      CODE     ---       #189
      ---         BLOCKEND  ---      ---       LVL=0

      0100F411H   BLOCK     CODE     ---       LVL=0
      00000007H   SYMBOL    DATA     BYTE      interruptsMask
      0100F411H   LINE      CODE     ---       #237
      0100F411H   LINE      CODE     ---       #238
      0100F411H   LINE      CODE     ---       #239
      0100F416H   LINE      CODE     ---       #240
      ---         BLOCKEND  ---      ---       LVL=0

      0100F417H   BLOCK     CODE     ---       LVL=0
      0100F417H   LINE      CODE     ---       #261
      0100F417H   LINE      CODE     ---       #262
      0100F417H   LINE      CODE     ---       #263
      0100F41CH   LINE      CODE     ---       #264
      ---         BLOCKEND  ---      ---       LVL=0
      00000007H   SYMBOL    DATA     BYTE      control

      0100F41DH   BLOCK     CODE     ---       LVL=0
      00000007H   SYMBOL    DATA     BYTE      counter
      0100F41DH   LINE      CODE     ---       #326
      0100F41DH   LINE      CODE     ---       #328
      0100F41DH   LINE      CODE     ---       #337
      0100F422H   LINE      CODE     ---       #339
      ---         BLOCKEND  ---      ---       LVL=0

      0100F423H   BLOCK     CODE     ---       LVL=0
      0100F423H   LINE      CODE     ---       #390
      0100F423H   LINE      CODE     ---       #391
      0100F423H   LINE      CODE     ---       #395
      0100F428H   LINE      CODE     ---       #397
      ---         BLOCKEND  ---      ---       LVL=0

      0100F429H   BLOCK     CODE     ---       LVL=0
      00000007H   SYMBOL    DATA     BYTE      period
      0100F429H   LINE      CODE     ---       #415
      0100F429H   LINE      CODE     ---       #416
      0100F429H   LINE      CODE     ---       #420
      0100F42EH   LINE      CODE     ---       #422
      ---         BLOCKEND  ---      ---       LVL=0

      0100F42FH   BLOCK     CODE     ---       LVL=0
      00000007H   SYMBOL    DATA     BYTE      compare
      0100F42FH   LINE      CODE     ---       #465
      0100F42FH   LINE      CODE     ---       #467
      0100F42FH   LINE      CODE     ---       #471
      0100F434H   LINE      CODE     ---       #473
      ---         BLOCKEND  ---      ---       LVL=0

      0100F287H   BLOCK     CODE     ---       LVL=0
      0100F287H   LINE      CODE     ---       #558
      0100F287H   LINE      CODE     ---       #559
      0100F287H   LINE      CODE     ---       #561
      0100F28EH   LINE      CODE     ---       #562
      0100F28EH   LINE      CODE     ---       #563
      0100F291H   LINE      CODE     ---       #564
      0100F293H   LINE      CODE     ---       #566
      ---         BLOCKEND  ---      ---       LVL=0

      ---         MODULE    ---      ---       SHIFTREG_ENC_3
LX51 LINKER/LOCATER V4.64.0.0                                                         04/06/2018  15:41:10  PAGE 111


      020013F9H   PUBLIC    XDATA    BYTE      SHIFTREG_ENC_3_initVar
      0100F320H   PUBLIC    CODE     ---       SHIFTREG_ENC_3_ReadData
      0100F1AAH   PUBLIC    CODE     ---       _SHIFTREG_ENC_3_SetIntMode
      0100F234H   PUBLIC    CODE     ---       SHIFTREG_ENC_3_EnableInt
      0100F435H   PUBLIC    CODE     ---       SHIFTREG_ENC_3_Init
      0100F2EBH   PUBLIC    CODE     ---       SHIFTREG_ENC_3_Enable
      0100F101H   PUBLIC    CODE     ---       SHIFTREG_ENC_3_Start
      000000CAH   SFRSYM    DATA     BYTE      SFRPRT5SEL
      000000DAH   SFRSYM    DATA     BYTE      SFRPRT6SEL
      000000D0H.6 SFRSYM    DATA     BIT       AC
      000000A8H.7 SFRSYM    DATA     BIT       EA
      000000A8H   SFRSYM    DATA     BYTE      IE
      00000085H   SFRSYM    DATA     BYTE      DPH1
      00000084H   SFRSYM    DATA     BYTE      DPL1
      000000D0H.7 SFRSYM    DATA     BIT       CY
      000000A0H   SFRSYM    DATA     BYTE      P2AX
      00000095H   SFRSYM    DATA     BYTE      DPX1
      00000081H   SFRSYM    DATA     BYTE      SP
      000000D0H.2 SFRSYM    DATA     BIT       OV
      00000080H   SFRSYM    DATA     BYTE      SFRPRT0DR
      00000090H   SFRSYM    DATA     BYTE      SFRPRT1DR
      000000F2H   SFRSYM    DATA     BYTE      SFRPRT12SEL
      00000098H   SFRSYM    DATA     BYTE      SFRPRT2DR
      000000B0H   SFRSYM    DATA     BYTE      SFRPRT3DR
      000000C0H   SFRSYM    DATA     BYTE      SFRPRT4DR
      000000FAH   SFRSYM    DATA     BYTE      SFRPRT15SEL
      000000C8H   SFRSYM    DATA     BYTE      SFRPRT5DR
      000000D8H   SFRSYM    DATA     BYTE      SFRPRT6DR
      00000089H   SFRSYM    DATA     BYTE      SFRPRT0PS
      00000091H   SFRSYM    DATA     BYTE      SFRPRT1PS
      00000099H   SFRSYM    DATA     BYTE      SFRPRT2PS
      000000B1H   SFRSYM    DATA     BYTE      SFRPRT3PS
      000000C1H   SFRSYM    DATA     BYTE      SFRPRT4PS
      000000C9H   SFRSYM    DATA     BYTE      SFRPRT5PS
      000000D9H   SFRSYM    DATA     BYTE      SFRPRT6PS
      000000EAH   SFRSYM    DATA     BYTE      MXAX
      000000F0H   SFRSYM    DATA     BYTE      B
      000000E0H   SFRSYM    DATA     BYTE      ACC
      000000D0H   SFRSYM    DATA     BIT       P
      000000D0H.3 SFRSYM    DATA     BIT       RS0
      000000D0H.4 SFRSYM    DATA     BIT       RS1
      00000083H   SFRSYM    DATA     BYTE      DPH
      000000E8H   SFRSYM    DATA     BYTE      SFRPRT12DR
      00000082H   SFRSYM    DATA     BYTE      DPL
      000000F8H   SFRSYM    DATA     BYTE      SFRPRT15DR
      00000086H   SFRSYM    DATA     BYTE      DPS
      000000E9H   SFRSYM    DATA     BYTE      SFRPRT12PS
      00000093H   SFRSYM    DATA     BYTE      DPX
      000000F9H   SFRSYM    DATA     BYTE      SFRPRT15PS
      000000D0H.5 SFRSYM    DATA     BIT       F0
      000000D0H.1 SFRSYM    DATA     BIT       F1
      0000008AH   SFRSYM    DATA     BYTE      SFRPRT0SEL
      000000D0H   SFRSYM    DATA     BYTE      PSW
      000000A2H   SFRSYM    DATA     BYTE      SFRPRT1SEL
      0000009AH   SFRSYM    DATA     BYTE      SFRPRT2SEL
      000000B2H   SFRSYM    DATA     BYTE      SFRPRT3SEL
      000000C2H   SFRSYM    DATA     BYTE      SFRPRT4SEL

      0100F101H   BLOCK     CODE     ---       LVL=0
      0100F101H   LINE      CODE     ---       #43
      0100F101H   LINE      CODE     ---       #44
      0100F101H   LINE      CODE     ---       #45
      0100F107H   LINE      CODE     ---       #46
      0100F107H   LINE      CODE     ---       #47
      0100F10AH   LINE      CODE     ---       #48
LX51 LINKER/LOCATER V4.64.0.0                                                         04/06/2018  15:41:10  PAGE 112


      0100F110H   LINE      CODE     ---       #49
      0100F110H   LINE      CODE     ---       #51
      0100F113H   LINE      CODE     ---       #52
      ---         BLOCKEND  ---      ---       LVL=0

      0100F2EBH   BLOCK     CODE     ---       LVL=0
      0100F2EBH   LINE      CODE     ---       #69
      0100F2EBH   LINE      CODE     ---       #70
      0100F2EBH   LINE      CODE     ---       #73
      0100F2F2H   LINE      CODE     ---       #75
      0100F2F5H   LINE      CODE     ---       #76
      ---         BLOCKEND  ---      ---       LVL=0

      0100F435H   BLOCK     CODE     ---       LVL=0
      0100F435H   LINE      CODE     ---       #93
      0100F435H   LINE      CODE     ---       #94
      0100F435H   LINE      CODE     ---       #95
      0100F43AH   LINE      CODE     ---       #96
      ---         BLOCKEND  ---      ---       LVL=0

      0100F234H   BLOCK     CODE     ---       LVL=0
      0100F234H   BLOCK     CODE     NEAR LAB  LVL=1
      00000007H   SYMBOL    DATA     BYTE      interruptState
      ---         BLOCKEND  ---      ---       LVL=1
      0100F234H   LINE      CODE     ---       #135
      0100F234H   LINE      CODE     ---       #136
      0100F234H   LINE      CODE     ---       #139
      0100F237H   LINE      CODE     ---       #140
      0100F23EH   LINE      CODE     ---       #141
      0100F241H   LINE      CODE     ---       #142
      ---         BLOCKEND  ---      ---       LVL=0
      00000007H   SYMBOL    DATA     BYTE      interruptState
      00000007H   SYMBOL    DATA     BYTE      fifoId
      00000005H   SYMBOL    DATA     BYTE      result

      0100F1AAH   BLOCK     CODE     ---       LVL=0
      00000007H   SYMBOL    DATA     BYTE      interruptSource
      0100F1AAH   LINE      CODE     ---       #261
      0100F1AAH   LINE      CODE     ---       #262
      0100F1AAH   LINE      CODE     ---       #263
      0100F1B1H   LINE      CODE     ---       #264
      0100F1BAH   LINE      CODE     ---       #265
      ---         BLOCKEND  ---      ---       LVL=0
      00000004H   SYMBOL    DATA     DWORD     shiftData

      0100F320H   BLOCK     CODE     ---       LVL=0
      0100F320H   LINE      CODE     ---       #366
      0100F320H   LINE      CODE     ---       #367
      0100F320H   LINE      CODE     ---       #368
      0100F329H   LINE      CODE     ---       #369
      ---         BLOCKEND  ---      ---       LVL=0

      ---         MODULE    ---      ---       SHIFTREG_ENC_2
      020013FAH   PUBLIC    XDATA    BYTE      SHIFTREG_ENC_2_initVar
      0100F32AH   PUBLIC    CODE     ---       SHIFTREG_ENC_2_ReadData
      0100F1BBH   PUBLIC    CODE     ---       _SHIFTREG_ENC_2_SetIntMode
      0100F242H   PUBLIC    CODE     ---       SHIFTREG_ENC_2_EnableInt
      0100F43BH   PUBLIC    CODE     ---       SHIFTREG_ENC_2_Init
      0100F2F6H   PUBLIC    CODE     ---       SHIFTREG_ENC_2_Enable
      0100F114H   PUBLIC    CODE     ---       SHIFTREG_ENC_2_Start
      000000CAH   SFRSYM    DATA     BYTE      SFRPRT5SEL
      000000DAH   SFRSYM    DATA     BYTE      SFRPRT6SEL
      000000D0H.6 SFRSYM    DATA     BIT       AC
      000000A8H.7 SFRSYM    DATA     BIT       EA
      000000A8H   SFRSYM    DATA     BYTE      IE
LX51 LINKER/LOCATER V4.64.0.0                                                         04/06/2018  15:41:10  PAGE 113


      00000085H   SFRSYM    DATA     BYTE      DPH1
      00000084H   SFRSYM    DATA     BYTE      DPL1
      000000D0H.7 SFRSYM    DATA     BIT       CY
      000000A0H   SFRSYM    DATA     BYTE      P2AX
      00000095H   SFRSYM    DATA     BYTE      DPX1
      00000081H   SFRSYM    DATA     BYTE      SP
      000000D0H.2 SFRSYM    DATA     BIT       OV
      00000080H   SFRSYM    DATA     BYTE      SFRPRT0DR
      00000090H   SFRSYM    DATA     BYTE      SFRPRT1DR
      000000F2H   SFRSYM    DATA     BYTE      SFRPRT12SEL
      00000098H   SFRSYM    DATA     BYTE      SFRPRT2DR
      000000B0H   SFRSYM    DATA     BYTE      SFRPRT3DR
      000000C0H   SFRSYM    DATA     BYTE      SFRPRT4DR
      000000FAH   SFRSYM    DATA     BYTE      SFRPRT15SEL
      000000C8H   SFRSYM    DATA     BYTE      SFRPRT5DR
      000000D8H   SFRSYM    DATA     BYTE      SFRPRT6DR
      00000089H   SFRSYM    DATA     BYTE      SFRPRT0PS
      00000091H   SFRSYM    DATA     BYTE      SFRPRT1PS
      00000099H   SFRSYM    DATA     BYTE      SFRPRT2PS
      000000B1H   SFRSYM    DATA     BYTE      SFRPRT3PS
      000000C1H   SFRSYM    DATA     BYTE      SFRPRT4PS
      000000C9H   SFRSYM    DATA     BYTE      SFRPRT5PS
      000000D9H   SFRSYM    DATA     BYTE      SFRPRT6PS
      000000EAH   SFRSYM    DATA     BYTE      MXAX
      000000F0H   SFRSYM    DATA     BYTE      B
      000000E0H   SFRSYM    DATA     BYTE      ACC
      000000D0H   SFRSYM    DATA     BIT       P
      000000D0H.3 SFRSYM    DATA     BIT       RS0
      000000D0H.4 SFRSYM    DATA     BIT       RS1
      00000083H   SFRSYM    DATA     BYTE      DPH
      000000E8H   SFRSYM    DATA     BYTE      SFRPRT12DR
      00000082H   SFRSYM    DATA     BYTE      DPL
      000000F8H   SFRSYM    DATA     BYTE      SFRPRT15DR
      00000086H   SFRSYM    DATA     BYTE      DPS
      000000E9H   SFRSYM    DATA     BYTE      SFRPRT12PS
      00000093H   SFRSYM    DATA     BYTE      DPX
      000000F9H   SFRSYM    DATA     BYTE      SFRPRT15PS
      000000D0H.5 SFRSYM    DATA     BIT       F0
      000000D0H.1 SFRSYM    DATA     BIT       F1
      0000008AH   SFRSYM    DATA     BYTE      SFRPRT0SEL
      000000D0H   SFRSYM    DATA     BYTE      PSW
      000000A2H   SFRSYM    DATA     BYTE      SFRPRT1SEL
      0000009AH   SFRSYM    DATA     BYTE      SFRPRT2SEL
      000000B2H   SFRSYM    DATA     BYTE      SFRPRT3SEL
      000000C2H   SFRSYM    DATA     BYTE      SFRPRT4SEL

      0100F114H   BLOCK     CODE     ---       LVL=0
      0100F114H   LINE      CODE     ---       #43
      0100F114H   LINE      CODE     ---       #44
      0100F114H   LINE      CODE     ---       #45
      0100F11AH   LINE      CODE     ---       #46
      0100F11AH   LINE      CODE     ---       #47
      0100F11DH   LINE      CODE     ---       #48
      0100F123H   LINE      CODE     ---       #49
      0100F123H   LINE      CODE     ---       #51
      0100F126H   LINE      CODE     ---       #52
      ---         BLOCKEND  ---      ---       LVL=0

      0100F2F6H   BLOCK     CODE     ---       LVL=0
      0100F2F6H   LINE      CODE     ---       #69
      0100F2F6H   LINE      CODE     ---       #70
      0100F2F6H   LINE      CODE     ---       #73
      0100F2FDH   LINE      CODE     ---       #75
      0100F300H   LINE      CODE     ---       #76
      ---         BLOCKEND  ---      ---       LVL=0
LX51 LINKER/LOCATER V4.64.0.0                                                         04/06/2018  15:41:10  PAGE 114



      0100F43BH   BLOCK     CODE     ---       LVL=0
      0100F43BH   LINE      CODE     ---       #93
      0100F43BH   LINE      CODE     ---       #94
      0100F43BH   LINE      CODE     ---       #95
      0100F440H   LINE      CODE     ---       #96
      ---         BLOCKEND  ---      ---       LVL=0

      0100F242H   BLOCK     CODE     ---       LVL=0
      0100F242H   BLOCK     CODE     NEAR LAB  LVL=1
      00000007H   SYMBOL    DATA     BYTE      interruptState
      ---         BLOCKEND  ---      ---       LVL=1
      0100F242H   LINE      CODE     ---       #135
      0100F242H   LINE      CODE     ---       #136
      0100F242H   LINE      CODE     ---       #139
      0100F245H   LINE      CODE     ---       #140
      0100F24CH   LINE      CODE     ---       #141
      0100F24FH   LINE      CODE     ---       #142
      ---         BLOCKEND  ---      ---       LVL=0
      00000007H   SYMBOL    DATA     BYTE      interruptState
      00000007H   SYMBOL    DATA     BYTE      fifoId
      00000005H   SYMBOL    DATA     BYTE      result

      0100F1BBH   BLOCK     CODE     ---       LVL=0
      00000007H   SYMBOL    DATA     BYTE      interruptSource
      0100F1BBH   LINE      CODE     ---       #261
      0100F1BBH   LINE      CODE     ---       #262
      0100F1BBH   LINE      CODE     ---       #263
      0100F1C2H   LINE      CODE     ---       #264
      0100F1CBH   LINE      CODE     ---       #265
      ---         BLOCKEND  ---      ---       LVL=0
      00000004H   SYMBOL    DATA     DWORD     shiftData

      0100F32AH   BLOCK     CODE     ---       LVL=0
      0100F32AH   LINE      CODE     ---       #366
      0100F32AH   LINE      CODE     ---       #367
      0100F32AH   LINE      CODE     ---       #368
      0100F333H   LINE      CODE     ---       #369
      ---         BLOCKEND  ---      ---       LVL=0

      ---         MODULE    ---      ---       EEPROM
      0100CEA3H   PUBLIC    CODE     ---       _EEPROM_Write
      0100F4B3H   PUBLIC    CODE     ---       EEPROM_Start
      0100F3D2H   PUBLIC    CODE     ---       EEPROM_Enable
      000000CAH   SFRSYM    DATA     BYTE      SFRPRT5SEL
      000000DAH   SFRSYM    DATA     BYTE      SFRPRT6SEL
      000000D0H.6 SFRSYM    DATA     BIT       AC
      000000A8H.7 SFRSYM    DATA     BIT       EA
      000000A8H   SFRSYM    DATA     BYTE      IE
      00000085H   SFRSYM    DATA     BYTE      DPH1
      00000084H   SFRSYM    DATA     BYTE      DPL1
      000000D0H.7 SFRSYM    DATA     BIT       CY
      000000A0H   SFRSYM    DATA     BYTE      P2AX
      00000095H   SFRSYM    DATA     BYTE      DPX1
      00000081H   SFRSYM    DATA     BYTE      SP
      000000D0H.2 SFRSYM    DATA     BIT       OV
      00000080H   SFRSYM    DATA     BYTE      SFRPRT0DR
      00000090H   SFRSYM    DATA     BYTE      SFRPRT1DR
      000000F2H   SFRSYM    DATA     BYTE      SFRPRT12SEL
      00000098H   SFRSYM    DATA     BYTE      SFRPRT2DR
      000000B0H   SFRSYM    DATA     BYTE      SFRPRT3DR
      000000C0H   SFRSYM    DATA     BYTE      SFRPRT4DR
      000000FAH   SFRSYM    DATA     BYTE      SFRPRT15SEL
      000000C8H   SFRSYM    DATA     BYTE      SFRPRT5DR
      000000D8H   SFRSYM    DATA     BYTE      SFRPRT6DR
LX51 LINKER/LOCATER V4.64.0.0                                                         04/06/2018  15:41:10  PAGE 115


      00000089H   SFRSYM    DATA     BYTE      SFRPRT0PS
      00000091H   SFRSYM    DATA     BYTE      SFRPRT1PS
      00000099H   SFRSYM    DATA     BYTE      SFRPRT2PS
      000000B1H   SFRSYM    DATA     BYTE      SFRPRT3PS
      000000C1H   SFRSYM    DATA     BYTE      SFRPRT4PS
      000000C9H   SFRSYM    DATA     BYTE      SFRPRT5PS
      000000D9H   SFRSYM    DATA     BYTE      SFRPRT6PS
      000000EAH   SFRSYM    DATA     BYTE      MXAX
      000000F0H   SFRSYM    DATA     BYTE      B
      000000E0H   SFRSYM    DATA     BYTE      ACC
      000000D0H   SFRSYM    DATA     BIT       P
      000000D0H.3 SFRSYM    DATA     BIT       RS0
      000000D0H.4 SFRSYM    DATA     BIT       RS1
      00000083H   SFRSYM    DATA     BYTE      DPH
      000000E8H   SFRSYM    DATA     BYTE      SFRPRT12DR
      00000082H   SFRSYM    DATA     BYTE      DPL
      000000F8H   SFRSYM    DATA     BYTE      SFRPRT15DR
      00000086H   SFRSYM    DATA     BYTE      DPS
      000000E9H   SFRSYM    DATA     BYTE      SFRPRT12PS
      00000093H   SFRSYM    DATA     BYTE      DPX
      000000F9H   SFRSYM    DATA     BYTE      SFRPRT15PS
      000000D0H.5 SFRSYM    DATA     BIT       F0
      000000D0H.1 SFRSYM    DATA     BIT       F1
      0000008AH   SFRSYM    DATA     BYTE      SFRPRT0SEL
      000000D0H   SFRSYM    DATA     BYTE      PSW
      000000A2H   SFRSYM    DATA     BYTE      SFRPRT1SEL
      0000009AH   SFRSYM    DATA     BYTE      SFRPRT2SEL
      000000B2H   SFRSYM    DATA     BYTE      SFRPRT3SEL
      000000C2H   SFRSYM    DATA     BYTE      SFRPRT4SEL

      0100F3D2H   BLOCK     CODE     ---       LVL=0
      0100F3D2H   LINE      CODE     ---       #33
      0100F3D2H   LINE      CODE     ---       #34
      0100F3D2H   LINE      CODE     ---       #36
      0100F3D5H   LINE      CODE     ---       #39
      0100F3D8H   LINE      CODE     ---       #40
      ---         BLOCKEND  ---      ---       LVL=0

      0100F4B3H   BLOCK     CODE     ---       LVL=0
      0100F4B3H   LINE      CODE     ---       #57
      0100F4B3H   LINE      CODE     ---       #58
      0100F4B3H   LINE      CODE     ---       #59
      0100F4B6H   LINE      CODE     ---       #60
      ---         BLOCKEND  ---      ---       LVL=0

      0100CEA3H   BLOCK     CODE     ---       LVL=0
      02000037H   SYMBOL    XDATA    ---       rowData
      0200003AH   SYMBOL    XDATA    BYTE      rowNumber
      0100CEB1H   BLOCK     CODE     NEAR LAB  LVL=1
      0200003BH   SYMBOL    XDATA    BYTE      status
      ---         BLOCKEND  ---      ---       LVL=1
      0100CEA3H   LINE      CODE     ---       #345
      0100CEB1H   LINE      CODE     ---       #346
      0100CEB1H   LINE      CODE     ---       #349
      0100CEB4H   LINE      CODE     ---       #351
      0100CEC0H   LINE      CODE     ---       #352
      0100CEC0H   LINE      CODE     ---       #354
      0100CEC9H   LINE      CODE     ---       #355
      0100CEC9H   LINE      CODE     ---       #357
      0100CECFH   LINE      CODE     ---       #360
      0100CEEDH   LINE      CODE     ---       #361
      0100CEEDH   LINE      CODE     ---       #362
      0100CEF5H   LINE      CODE     ---       #363
      0100CEF5H   LINE      CODE     ---       #365
      0100CEF5H   LINE      CODE     ---       #368
LX51 LINKER/LOCATER V4.64.0.0                                                         04/06/2018  15:41:10  PAGE 116


      0100CF0BH   LINE      CODE     ---       #369
      0100CF0BH   LINE      CODE     ---       #370
      0100CF0FH   LINE      CODE     ---       #371
      0100CF0FH   LINE      CODE     ---       #374
      0100CF15H   LINE      CODE     ---       #375
      0100CF15H   LINE      CODE     ---       #376
      0100CF31H   LINE      CODE     ---       #378
      0100CF31H   LINE      CODE     ---       #380
      0100CF37H   LINE      CODE     ---       #382
      0100CF3FH   LINE      CODE     ---       #383
      0100CF3FH   LINE      CODE     ---       #385
      0100CF3FH   LINE      CODE     ---       #388
      0100CF55H   LINE      CODE     ---       #389
      0100CF55H   LINE      CODE     ---       #390
      0100CF59H   LINE      CODE     ---       #391
      0100CF59H   LINE      CODE     ---       #392
      0100CF5BH   LINE      CODE     ---       #394
      0100CF5BH   LINE      CODE     ---       #395
      0100CF61H   LINE      CODE     ---       #396
      0100CF61H   LINE      CODE     ---       #397
      0100CF63H   LINE      CODE     ---       #399
      0100CF63H   LINE      CODE     ---       #400
      0100CF69H   LINE      CODE     ---       #401
      0100CF69H   LINE      CODE     ---       #402
      0100CF69H   LINE      CODE     ---       #405
      0100CF6CH   LINE      CODE     ---       #406
      0100CF6EH   LINE      CODE     ---       #408
      0100CF6EH   LINE      CODE     ---       #409
      0100CF74H   LINE      CODE     ---       #410
      0100CF74H   LINE      CODE     ---       #411
      0100CF76H   LINE      CODE     ---       #413
      0100CF76H   LINE      CODE     ---       #414
      0100CF7CH   LINE      CODE     ---       #415
      0100CF7CH   LINE      CODE     ---       #417
      0100CF81H   LINE      CODE     ---       #418
      ---         BLOCKEND  ---      ---       LVL=0

      ---         MODULE    ---      ---       ADC
      020013D2H   PUBLIC    XDATA    LONG      ADC_CountsPerVolt
      020013D1H   PUBLIC    XDATA    BYTE      ADC_convDone
      020013CDH   PUBLIC    XDATA    BYTE      ADC_started
      020013CCH   PUBLIC    XDATA    BYTE      ADC_stopConversion
      020013C8H   PUBLIC    XDATA    LONG      ADC_Offset
      020013C7H   PUBLIC    XDATA    BYTE      ADC_initVar
      020013C6H   PUBLIC    XDATA    BYTE      ADC_Config
      0100EAE7H   PUBLIC    CODE     ---       ADC_Start
      0100D71FH   PUBLIC    CODE     ---       ADC_Enable
      0100D34BH   PUBLIC    CODE     ---       ADC_Init
      000000CAH   SFRSYM    DATA     BYTE      SFRPRT5SEL
      000000DAH   SFRSYM    DATA     BYTE      SFRPRT6SEL
      000000D0H.6 SFRSYM    DATA     BIT       AC
      000000A8H.7 SFRSYM    DATA     BIT       EA
      000000A8H   SFRSYM    DATA     BYTE      IE
      00000085H   SFRSYM    DATA     BYTE      DPH1
      00000084H   SFRSYM    DATA     BYTE      DPL1
      000000D0H.7 SFRSYM    DATA     BIT       CY
      000000A0H   SFRSYM    DATA     BYTE      P2AX
      00000095H   SFRSYM    DATA     BYTE      DPX1
      00000081H   SFRSYM    DATA     BYTE      SP
      000000D0H.2 SFRSYM    DATA     BIT       OV
      00000080H   SFRSYM    DATA     BYTE      SFRPRT0DR
      00000090H   SFRSYM    DATA     BYTE      SFRPRT1DR
      000000F2H   SFRSYM    DATA     BYTE      SFRPRT12SEL
      00000098H   SFRSYM    DATA     BYTE      SFRPRT2DR
      000000B0H   SFRSYM    DATA     BYTE      SFRPRT3DR
LX51 LINKER/LOCATER V4.64.0.0                                                         04/06/2018  15:41:10  PAGE 117


      000000C0H   SFRSYM    DATA     BYTE      SFRPRT4DR
      000000FAH   SFRSYM    DATA     BYTE      SFRPRT15SEL
      000000C8H   SFRSYM    DATA     BYTE      SFRPRT5DR
      000000D8H   SFRSYM    DATA     BYTE      SFRPRT6DR
      00000089H   SFRSYM    DATA     BYTE      SFRPRT0PS
      00000091H   SFRSYM    DATA     BYTE      SFRPRT1PS
      00000099H   SFRSYM    DATA     BYTE      SFRPRT2PS
      000000B1H   SFRSYM    DATA     BYTE      SFRPRT3PS
      000000C1H   SFRSYM    DATA     BYTE      SFRPRT4PS
      000000C9H   SFRSYM    DATA     BYTE      SFRPRT5PS
      000000D9H   SFRSYM    DATA     BYTE      SFRPRT6PS
      000000EAH   SFRSYM    DATA     BYTE      MXAX
      000000F0H   SFRSYM    DATA     BYTE      B
      000000E0H   SFRSYM    DATA     BYTE      ACC
      000000D0H   SFRSYM    DATA     BIT       P
      000000D0H.3 SFRSYM    DATA     BIT       RS0
      000000D0H.4 SFRSYM    DATA     BIT       RS1
      00000083H   SFRSYM    DATA     BYTE      DPH
      000000E8H   SFRSYM    DATA     BYTE      SFRPRT12DR
      00000082H   SFRSYM    DATA     BYTE      DPL
      000000F8H   SFRSYM    DATA     BYTE      SFRPRT15DR
      00000086H   SFRSYM    DATA     BYTE      DPS
      000000E9H   SFRSYM    DATA     BYTE      SFRPRT12PS
      00000093H   SFRSYM    DATA     BYTE      DPX
      000000F9H   SFRSYM    DATA     BYTE      SFRPRT15PS
      000000D0H.5 SFRSYM    DATA     BIT       F0
      000000D0H.1 SFRSYM    DATA     BIT       F1
      0000008AH   SFRSYM    DATA     BYTE      SFRPRT0SEL
      000000D0H   SFRSYM    DATA     BYTE      PSW
      000000A2H   SFRSYM    DATA     BYTE      SFRPRT1SEL
      0000009AH   SFRSYM    DATA     BYTE      SFRPRT2SEL
      000000B2H   SFRSYM    DATA     BYTE      SFRPRT3SEL
      000000C2H   SFRSYM    DATA     BYTE      SFRPRT4SEL
      0100D4ADH   SYMBOL    CODE     ---       _ADC_InitConfig
      0100BE6AH   SYMBOL    CODE     ---       _ADC_GainCompensation
      0100E94FH   SYMBOL    CODE     ---       _ADC_SetDSMRef0Reg
      020013CEH   SYMBOL    XDATA    ---       ADC_gcor

      0100D34BH   BLOCK     CODE     ---       LVL=0
      0100D34BH   LINE      CODE     ---       #91
      0100D34BH   LINE      CODE     ---       #92
      0100D34BH   LINE      CODE     ---       #94
      0100D351H   LINE      CODE     ---       #95
      0100D356H   LINE      CODE     ---       #97
      0100D35BH   LINE      CODE     ---       #101
      0100D360H   LINE      CODE     ---       #106
      0100D367H   LINE      CODE     ---       #110
      0100D36DH   LINE      CODE     ---       #111
      0100D370H   LINE      CODE     ---       #112
      0100D374H   LINE      CODE     ---       #113
      0100D37BH   LINE      CODE     ---       #114
      0100D380H   LINE      CODE     ---       #116
      0100D384H   LINE      CODE     ---       #117
      0100D386H   LINE      CODE     ---       #119
      0100D38CH   LINE      CODE     ---       #120
      0100D38FH   LINE      CODE     ---       #124
      0100D393H   LINE      CODE     ---       #126
      0100D399H   LINE      CODE     ---       #127
      0100D39CH   LINE      CODE     ---       #128
      0100D3A1H   LINE      CODE     ---       #130
      0100D3A7H   LINE      CODE     ---       #133
      0100D3BEH   LINE      CODE     ---       #161
      0100D3D4H   LINE      CODE     ---       #162
      0100D3F3H   LINE      CODE     ---       #165
      0100D3FBH   LINE      CODE     ---       #166
LX51 LINKER/LOCATER V4.64.0.0                                                         04/06/2018  15:41:10  PAGE 118


      ---         BLOCKEND  ---      ---       LVL=0

      0100D71FH   BLOCK     CODE     ---       LVL=0
      0100D71FH   BLOCK     CODE     NEAR LAB  LVL=1
      02000002H   SYMBOL    XDATA    BYTE      config
      02000003H   SYMBOL    XDATA    BYTE      enableInterrupts
      ---         BLOCKEND  ---      ---       LVL=1
      0100D71FH   LINE      CODE     ---       #184
      0100D71FH   LINE      CODE     ---       #185
      0100D71FH   LINE      CODE     ---       #188
      0100D727H   LINE      CODE     ---       #191
      0100D72FH   LINE      CODE     ---       #194
      0100D736H   LINE      CODE     ---       #195
      0100D73AH   LINE      CODE     ---       #198
      0100D741H   LINE      CODE     ---       #199
      0100D745H   LINE      CODE     ---       #202
      0100D74CH   LINE      CODE     ---       #203
      0100D751H   LINE      CODE     ---       #205
      0100D758H   LINE      CODE     ---       #265
      0100D758H   LINE      CODE     ---       #266
      0100D758H   LINE      CODE     ---       #268
      0100D758H   LINE      CODE     ---       #271
      0100D75FH   LINE      CODE     ---       #274
      0100D766H   LINE      CODE     ---       #275
      0100D76BH   LINE      CODE     ---       #278
      0100D772H   LINE      CODE     ---       #281
      0100D778H   LINE      CODE     ---       #285
      0100D77FH   LINE      CODE     ---       #286
      0100D786H   LINE      CODE     ---       #290
      0100D78DH   LINE      CODE     ---       #291
      0100D794H   LINE      CODE     ---       #295
      0100D79AH   LINE      CODE     ---       #297
      0100D79EH   LINE      CODE     ---       #300
      0100D7A6H   LINE      CODE     ---       #302
      ---         BLOCKEND  ---      ---       LVL=0

      0100EAE7H   BLOCK     CODE     ---       LVL=0
      0100EAE7H   LINE      CODE     ---       #329
      0100EAE7H   LINE      CODE     ---       #330
      0100EAE7H   LINE      CODE     ---       #331
      0100EAEDH   LINE      CODE     ---       #332
      0100EAEDH   LINE      CODE     ---       #333
      0100EAF3H   LINE      CODE     ---       #334
      0100EAF3H   LINE      CODE     ---       #335
      0100EAF6H   LINE      CODE     ---       #336
      0100EAF6H   LINE      CODE     ---       #337
      0100EAFCH   LINE      CODE     ---       #338
      0100EAFCH   LINE      CODE     ---       #341
      0100EAFFH   LINE      CODE     ---       #342
      ---         BLOCKEND  ---      ---       LVL=0
      00000007H   SYMBOL    DATA     BYTE      gain
      00000006H   SYMBOL    DATA     BYTE      tmpReg
      00000007H   SYMBOL    DATA     BYTE      coherency
      00000006H   SYMBOL    DATA     BYTE      tmpReg
      00000004H   SYMBOL    DATA     WORD      gcorValue
      00000007H   SYMBOL    DATA     BYTE      retMode
      00000006H   SYMBOL    DATA     BYTE      status
      00000006H   SYMBOL    DATA     CHAR      result
      00000007H   SYMBOL    DATA     BYTE      coherency
      00000004H   SYMBOL    DATA     LONG      offset
      00000004H   SYMBOL    DATA     LONG      adcGain
      00000006H   SYMBOL    DATA     INT       mVolts
      00000004H   SYMBOL    DATA     FLOAT     Volts
      00000004H   SYMBOL    DATA     LONG      uVolts

LX51 LINKER/LOCATER V4.64.0.0                                                         04/06/2018  15:41:10  PAGE 119


      0100D4ADH   BLOCK     CODE     ---       LVL=0
      00000007H   SYMBOL    DATA     BYTE      config
      0100D4ADH   LINE      CODE     ---       #1242
      0100D4ADH   LINE      CODE     ---       #1243
      0100D4ADH   LINE      CODE     ---       #1244
      0100D4B2H   LINE      CODE     ---       #1246
      0100D4BAH   LINE      CODE     ---       #1247
      0100D4BAH   LINE      CODE     ---       #1249
      0100D4C0H   LINE      CODE     ---       #1250
      0100D4C6H   LINE      CODE     ---       #1251
      0100D4CAH   LINE      CODE     ---       #1252
      0100D4CDH   LINE      CODE     ---       #1253
      0100D4CFH   LINE      CODE     ---       #1254
      0100D4D3H   LINE      CODE     ---       #1255
      0100D4D8H   LINE      CODE     ---       #1256
      0100D4DAH   LINE      CODE     ---       #1257
      0100D4DCH   LINE      CODE     ---       #1258
      0100D4E1H   LINE      CODE     ---       #1260
      0100D4E7H   LINE      CODE     ---       #1261
      0100D4EBH   LINE      CODE     ---       #1262
      0100D4EFH   LINE      CODE     ---       #1263
      0100D4F2H   LINE      CODE     ---       #1264
      0100D4F8H   LINE      CODE     ---       #1265
      0100D4FCH   LINE      CODE     ---       #1266
      0100D500H   LINE      CODE     ---       #1267
      0100D505H   LINE      CODE     ---       #1268
      0100D509H   LINE      CODE     ---       #1269
      0100D50DH   LINE      CODE     ---       #1270
      0100D511H   LINE      CODE     ---       #1272
      0100D516H   LINE      CODE     ---       #1273
      0100D51CH   LINE      CODE     ---       #1274
      0100D51FH   LINE      CODE     ---       #1276
      0100D524H   LINE      CODE     ---       #1277
      0100D526H   LINE      CODE     ---       #1278
      0100D529H   LINE      CODE     ---       #1279
      0100D52DH   LINE      CODE     ---       #1288
      0100D532H   LINE      CODE     ---       #1300
      0100D53FH   LINE      CODE     ---       #1302
      0100D548H   LINE      CODE     ---       #1306
      0100D551H   LINE      CODE     ---       #1311
      0100D55AH   LINE      CODE     ---       #1313
      0100D55AH   LINE      CODE     ---       #1526
      ---         BLOCKEND  ---      ---       LVL=0

      0100BE6AH   BLOCK     CODE     ---       LVL=0
      00000007H   SYMBOL    DATA     BYTE      inputRange
      02000003H   SYMBOL    XDATA    WORD      idealDecGain
      02000005H   SYMBOL    XDATA    WORD      idealOddDecGain
      02000007H   SYMBOL    XDATA    BYTE      resolution
      02000008H   SYMBOL    XDATA    BYTE      config
      0100BE78H   BLOCK     CODE     NEAR LAB  LVL=1
      02000009H   SYMBOL    XDATA    CHAR      flash
      00000004H   SYMBOL    DATA     LONG      normalised
      00000004H   SYMBOL    DATA     WORD      gcorValue
      00000004H   SYMBOL    DATA     DWORD     gcorTmp
      ---         BLOCKEND  ---      ---       LVL=1
      0100BE6AH   LINE      CODE     ---       #1617
      0100BE78H   LINE      CODE     ---       #1619
      0100BE78H   LINE      CODE     ---       #1625
      0100BE8EH   LINE      CODE     ---       #1626
      0100BE8EH   LINE      CODE     ---       #1627
      0100BEA8H   LINE      CODE     ---       #1628
      0100BEA8H   LINE      CODE     ---       #1629
      0100BEA8H   LINE      CODE     ---       #1630
      0100BEA8H   LINE      CODE     ---       #1632
LX51 LINKER/LOCATER V4.64.0.0                                                         04/06/2018  15:41:10  PAGE 120


      0100BEB1H   LINE      CODE     ---       #1633
      0100BEB1H   LINE      CODE     ---       #1634
      0100BEBFH   LINE      CODE     ---       #1635
      0100BEC2H   LINE      CODE     ---       #1637
      0100BEC2H   LINE      CODE     ---       #1638
      0100BED0H   LINE      CODE     ---       #1639
      0100BED0H   LINE      CODE     ---       #1640
      0100BED3H   LINE      CODE     ---       #1642
      0100BED3H   LINE      CODE     ---       #1644
      0100BEDCH   LINE      CODE     ---       #1645
      0100BEDCH   LINE      CODE     ---       #1646
      0100BEEAH   LINE      CODE     ---       #1647
      0100BEECH   LINE      CODE     ---       #1649
      0100BEECH   LINE      CODE     ---       #1650
      0100BEFAH   LINE      CODE     ---       #1651
      0100BEFAH   LINE      CODE     ---       #1652
      0100BEFCH   LINE      CODE     ---       #1654
      0100BEFCH   LINE      CODE     ---       #1656
      0100BF05H   LINE      CODE     ---       #1657
      0100BF05H   LINE      CODE     ---       #1658
      0100BF13H   LINE      CODE     ---       #1659
      0100BF15H   LINE      CODE     ---       #1661
      0100BF15H   LINE      CODE     ---       #1662
      0100BF23H   LINE      CODE     ---       #1663
      0100BF23H   LINE      CODE     ---       #1664
      0100BF25H   LINE      CODE     ---       #1666
      0100BF25H   LINE      CODE     ---       #1668
      0100BF2EH   LINE      CODE     ---       #1669
      0100BF2EH   LINE      CODE     ---       #1670
      0100BF3CH   LINE      CODE     ---       #1671
      0100BF3EH   LINE      CODE     ---       #1673
      0100BF3EH   LINE      CODE     ---       #1674
      0100BF4CH   LINE      CODE     ---       #1675
      0100BF4CH   LINE      CODE     ---       #1676
      0100BF4EH   LINE      CODE     ---       #1678
      0100BF4EH   LINE      CODE     ---       #1679
      0100BF53H   LINE      CODE     ---       #1680
      0100BF53H   LINE      CODE     ---       #1681
      0100BF53H   LINE      CODE     ---       #1684
      0100BF86H   LINE      CODE     ---       #1685
      0100BF99H   LINE      CODE     ---       #1686
      0100BFA6H   LINE      CODE     ---       #1688
      0100BFAFH   LINE      CODE     ---       #1689
      0100BFAFH   LINE      CODE     ---       #1690
      0100BFC6H   LINE      CODE     ---       #1691
      0100BFDCH   LINE      CODE     ---       #1692
      0100BFDEH   LINE      CODE     ---       #1694
      0100BFDEH   LINE      CODE     ---       #1696
      0100BFF2H   LINE      CODE     ---       #1697
      0100BFF2H   LINE      CODE     ---       #1700
      0100C00AH   LINE      CODE     ---       #1701
      0100C00AH   LINE      CODE     ---       #1703
      0100C00AH   LINE      CODE     ---       #1706
      0100C00AH   LINE      CODE     ---       #1707
      ---         BLOCKEND  ---      ---       LVL=0

      0100E94FH   BLOCK     CODE     ---       LVL=0
      02000002H   SYMBOL    XDATA    BYTE      value
      0100E954H   BLOCK     CODE     NEAR LAB  LVL=1
      02000003H   SYMBOL    XDATA    BYTE      enableInterrupts
      ---         BLOCKEND  ---      ---       LVL=1
      0100E94FH   LINE      CODE     ---       #1724
      0100E954H   LINE      CODE     ---       #1725
      0100E954H   LINE      CODE     ---       #1727
      0100E95CH   LINE      CODE     ---       #1730
LX51 LINKER/LOCATER V4.64.0.0                                                         04/06/2018  15:41:10  PAGE 121


      0100E963H   LINE      CODE     ---       #1731
      0100E968H   LINE      CODE     ---       #1732
      0100E970H   LINE      CODE     ---       #1735
      0100E977H   LINE      CODE     ---       #1737
      0100E97EH   LINE      CODE     ---       #1738
      0100E983H   LINE      CODE     ---       #1740
      0100E98BH   LINE      CODE     ---       #1741
      ---         BLOCKEND  ---      ---       LVL=0
      00000007H   SYMBOL    DATA     CHAR      result
      00000006H   SYMBOL    DATA     INT       result
      00000004H   SYMBOL    DATA     LONG      result

      ---         MODULE    ---      ---       RS485_CTS
      0100F441H   PUBLIC    CODE     ---       _RS485_CTS_Write

      0100F441H   BLOCK     CODE     ---       LVL=0
      00000007H   SYMBOL    DATA     BYTE      control
      0100F441H   LINE      CODE     ---       #37
      0100F441H   LINE      CODE     ---       #38
      0100F441H   LINE      CODE     ---       #39
      0100F446H   LINE      CODE     ---       #40
      ---         BLOCKEND  ---      ---       LVL=0

      ---         MODULE    ---      ---       BOOTLOADABLE
      0100F334H   PUBLIC    CODE     ---       Bootloadable_Load
      000000CAH   SFRSYM    DATA     BYTE      SFRPRT5SEL
      000000DAH   SFRSYM    DATA     BYTE      SFRPRT6SEL
      000000D0H.6 SFRSYM    DATA     BIT       AC
      000000A8H.7 SFRSYM    DATA     BIT       EA
      000000A8H   SFRSYM    DATA     BYTE      IE
      00000085H   SFRSYM    DATA     BYTE      DPH1
      00000084H   SFRSYM    DATA     BYTE      DPL1
      000000D0H.7 SFRSYM    DATA     BIT       CY
      000000A0H   SFRSYM    DATA     BYTE      P2AX
      00000095H   SFRSYM    DATA     BYTE      DPX1
      00000081H   SFRSYM    DATA     BYTE      SP
      000000D0H.2 SFRSYM    DATA     BIT       OV
      00000080H   SFRSYM    DATA     BYTE      SFRPRT0DR
      00000090H   SFRSYM    DATA     BYTE      SFRPRT1DR
      000000F2H   SFRSYM    DATA     BYTE      SFRPRT12SEL
      00000098H   SFRSYM    DATA     BYTE      SFRPRT2DR
      000000B0H   SFRSYM    DATA     BYTE      SFRPRT3DR
      000000C0H   SFRSYM    DATA     BYTE      SFRPRT4DR
      000000FAH   SFRSYM    DATA     BYTE      SFRPRT15SEL
      000000C8H   SFRSYM    DATA     BYTE      SFRPRT5DR
      000000D8H   SFRSYM    DATA     BYTE      SFRPRT6DR
      00000089H   SFRSYM    DATA     BYTE      SFRPRT0PS
      00000091H   SFRSYM    DATA     BYTE      SFRPRT1PS
      00000099H   SFRSYM    DATA     BYTE      SFRPRT2PS
      000000B1H   SFRSYM    DATA     BYTE      SFRPRT3PS
      000000C1H   SFRSYM    DATA     BYTE      SFRPRT4PS
      000000C9H   SFRSYM    DATA     BYTE      SFRPRT5PS
      000000D9H   SFRSYM    DATA     BYTE      SFRPRT6PS
      000000EAH   SFRSYM    DATA     BYTE      MXAX
      000000F0H   SFRSYM    DATA     BYTE      B
      000000E0H   SFRSYM    DATA     BYTE      ACC
      000000D0H   SFRSYM    DATA     BIT       P
      000000D0H.3 SFRSYM    DATA     BIT       RS0
      000000D0H.4 SFRSYM    DATA     BIT       RS1
      00000083H   SFRSYM    DATA     BYTE      DPH
      000000E8H   SFRSYM    DATA     BYTE      SFRPRT12DR
      00000082H   SFRSYM    DATA     BYTE      DPL
      000000F8H   SFRSYM    DATA     BYTE      SFRPRT15DR
      00000086H   SFRSYM    DATA     BYTE      DPS
      000000E9H   SFRSYM    DATA     BYTE      SFRPRT12PS
LX51 LINKER/LOCATER V4.64.0.0                                                         04/06/2018  15:41:10  PAGE 122


      00000093H   SFRSYM    DATA     BYTE      DPX
      000000F9H   SFRSYM    DATA     BYTE      SFRPRT15PS
      000000D0H.5 SFRSYM    DATA     BIT       F0
      000000D0H.1 SFRSYM    DATA     BIT       F1
      0000008AH   SFRSYM    DATA     BYTE      SFRPRT0SEL
      000000D0H   SFRSYM    DATA     BYTE      PSW
      000000A2H   SFRSYM    DATA     BYTE      SFRPRT1SEL
      0000009AH   SFRSYM    DATA     BYTE      SFRPRT2SEL
      000000B2H   SFRSYM    DATA     BYTE      SFRPRT3SEL
      000000C2H   SFRSYM    DATA     BYTE      SFRPRT4SEL

      0100F334H   BLOCK     CODE     ---       LVL=0
      0100F334H   LINE      CODE     ---       #41
      0100F334H   LINE      CODE     ---       #42
      0100F334H   LINE      CODE     ---       #44
      0100F33AH   LINE      CODE     ---       #46
      0100F33DH   LINE      CODE     ---       #47
      ---         BLOCKEND  ---      ---       LVL=0
      00000002H   SYMBOL    DATA     WORD      idx

      ---         MODULE    ---      ---       MOTOR_ON_OFF
      0100F447H   PUBLIC    CODE     ---       _MOTOR_ON_OFF_Write

      0100F447H   BLOCK     CODE     ---       LVL=0
      00000007H   SYMBOL    DATA     BYTE      control
      0100F447H   LINE      CODE     ---       #37
      0100F447H   LINE      CODE     ---       #38
      0100F447H   LINE      CODE     ---       #39
      0100F44CH   LINE      CODE     ---       #40
      ---         BLOCKEND  ---      ---       LVL=0

      ---         MODULE    ---      ---       FTDI_ENABLE_REG
      0100F44DH   PUBLIC    CODE     ---       _FTDI_ENABLE_REG_Write

      0100F44DH   BLOCK     CODE     ---       LVL=0
      00000007H   SYMBOL    DATA     BYTE      control
      0100F44DH   LINE      CODE     ---       #37
      0100F44DH   LINE      CODE     ---       #38
      0100F44DH   LINE      CODE     ---       #39
      0100F452H   LINE      CODE     ---       #40
      ---         BLOCKEND  ---      ---       LVL=0

      ---         MODULE    ---      ---       RESET_FF
      0100F453H   PUBLIC    CODE     ---       _RESET_FF_Write

      0100F453H   BLOCK     CODE     ---       LVL=0
      00000007H   SYMBOL    DATA     BYTE      control
      0100F453H   LINE      CODE     ---       #37
      0100F453H   LINE      CODE     ---       #38
      0100F453H   LINE      CODE     ---       #39
      0100F458H   LINE      CODE     ---       #40
      ---         BLOCKEND  ---      ---       LVL=0

      ---         MODULE    ---      ---       FF_STATUS
      0100F459H   PUBLIC    CODE     ---       FF_STATUS_Read
      000000CAH   SFRSYM    DATA     BYTE      SFRPRT5SEL
      000000DAH   SFRSYM    DATA     BYTE      SFRPRT6SEL
      000000D0H.6 SFRSYM    DATA     BIT       AC
      000000A8H.7 SFRSYM    DATA     BIT       EA
      000000A8H   SFRSYM    DATA     BYTE      IE
      00000085H   SFRSYM    DATA     BYTE      DPH1
      00000084H   SFRSYM    DATA     BYTE      DPL1
      000000D0H.7 SFRSYM    DATA     BIT       CY
      000000A0H   SFRSYM    DATA     BYTE      P2AX
      00000095H   SFRSYM    DATA     BYTE      DPX1
LX51 LINKER/LOCATER V4.64.0.0                                                         04/06/2018  15:41:10  PAGE 123


      00000081H   SFRSYM    DATA     BYTE      SP
      000000D0H.2 SFRSYM    DATA     BIT       OV
      00000080H   SFRSYM    DATA     BYTE      SFRPRT0DR
      00000090H   SFRSYM    DATA     BYTE      SFRPRT1DR
      000000F2H   SFRSYM    DATA     BYTE      SFRPRT12SEL
      00000098H   SFRSYM    DATA     BYTE      SFRPRT2DR
      000000B0H   SFRSYM    DATA     BYTE      SFRPRT3DR
      000000C0H   SFRSYM    DATA     BYTE      SFRPRT4DR
      000000FAH   SFRSYM    DATA     BYTE      SFRPRT15SEL
      000000C8H   SFRSYM    DATA     BYTE      SFRPRT5DR
      000000D8H   SFRSYM    DATA     BYTE      SFRPRT6DR
      00000089H   SFRSYM    DATA     BYTE      SFRPRT0PS
      00000091H   SFRSYM    DATA     BYTE      SFRPRT1PS
      00000099H   SFRSYM    DATA     BYTE      SFRPRT2PS
      000000B1H   SFRSYM    DATA     BYTE      SFRPRT3PS
      000000C1H   SFRSYM    DATA     BYTE      SFRPRT4PS
      000000C9H   SFRSYM    DATA     BYTE      SFRPRT5PS
      000000D9H   SFRSYM    DATA     BYTE      SFRPRT6PS
      000000EAH   SFRSYM    DATA     BYTE      MXAX
      000000F0H   SFRSYM    DATA     BYTE      B
      000000E0H   SFRSYM    DATA     BYTE      ACC
      000000D0H   SFRSYM    DATA     BIT       P
      000000D0H.3 SFRSYM    DATA     BIT       RS0
      000000D0H.4 SFRSYM    DATA     BIT       RS1
      00000083H   SFRSYM    DATA     BYTE      DPH
      000000E8H   SFRSYM    DATA     BYTE      SFRPRT12DR
      00000082H   SFRSYM    DATA     BYTE      DPL
      000000F8H   SFRSYM    DATA     BYTE      SFRPRT15DR
      00000086H   SFRSYM    DATA     BYTE      DPS
      000000E9H   SFRSYM    DATA     BYTE      SFRPRT12PS
      00000093H   SFRSYM    DATA     BYTE      DPX
      000000F9H   SFRSYM    DATA     BYTE      SFRPRT15PS
      000000D0H.5 SFRSYM    DATA     BIT       F0
      000000D0H.1 SFRSYM    DATA     BIT       F1
      0000008AH   SFRSYM    DATA     BYTE      SFRPRT0SEL
      000000D0H   SFRSYM    DATA     BYTE      PSW
      000000A2H   SFRSYM    DATA     BYTE      SFRPRT1SEL
      0000009AH   SFRSYM    DATA     BYTE      SFRPRT2SEL
      000000B2H   SFRSYM    DATA     BYTE      SFRPRT3SEL
      000000C2H   SFRSYM    DATA     BYTE      SFRPRT4SEL

      0100F459H   BLOCK     CODE     ---       LVL=0
      0100F459H   LINE      CODE     ---       #37
      0100F459H   LINE      CODE     ---       #38
      0100F459H   LINE      CODE     ---       #39
      0100F45EH   LINE      CODE     ---       #40
      ---         BLOCKEND  ---      ---       LVL=0
      00000007H   SYMBOL    DATA     BYTE      interruptState
      00000007H   SYMBOL    DATA     BYTE      interruptState
      00000007H   SYMBOL    DATA     BYTE      mask

      ---         MODULE    ---      ---       MY_TIMER
      020013FBH   PUBLIC    XDATA    BYTE      MY_TIMER_initVar
      0100F294H   PUBLIC    CODE     ---       MY_TIMER_ClearFIFO
      0100F1DDH   PUBLIC    CODE     ---       MY_TIMER_ReadCounter
      0100F352H   PUBLIC    CODE     ---       _MY_TIMER_WriteCounter
      0100F348H   PUBLIC    CODE     ---       MY_TIMER_ReadCapture
      0100F33EH   PUBLIC    CODE     ---       _MY_TIMER_WritePeriod
      0100F465H   PUBLIC    CODE     ---       MY_TIMER_ReadStatusRegister
      0100F45FH   PUBLIC    CODE     ---       _MY_TIMER_SetInterruptMode
      0100F127H   PUBLIC    CODE     ---       MY_TIMER_Start
      0100F39CH   PUBLIC    CODE     ---       MY_TIMER_Enable
      0100ED89H   PUBLIC    CODE     ---       MY_TIMER_Init
      000000CAH   SFRSYM    DATA     BYTE      SFRPRT5SEL
      000000DAH   SFRSYM    DATA     BYTE      SFRPRT6SEL
LX51 LINKER/LOCATER V4.64.0.0                                                         04/06/2018  15:41:10  PAGE 124


      000000D0H.6 SFRSYM    DATA     BIT       AC
      000000A8H.7 SFRSYM    DATA     BIT       EA
      000000A8H   SFRSYM    DATA     BYTE      IE
      00000085H   SFRSYM    DATA     BYTE      DPH1
      00000084H   SFRSYM    DATA     BYTE      DPL1
      000000D0H.7 SFRSYM    DATA     BIT       CY
      000000A0H   SFRSYM    DATA     BYTE      P2AX
      00000095H   SFRSYM    DATA     BYTE      DPX1
      00000081H   SFRSYM    DATA     BYTE      SP
      000000D0H.2 SFRSYM    DATA     BIT       OV
      00000080H   SFRSYM    DATA     BYTE      SFRPRT0DR
      00000090H   SFRSYM    DATA     BYTE      SFRPRT1DR
      000000F2H   SFRSYM    DATA     BYTE      SFRPRT12SEL
      00000098H   SFRSYM    DATA     BYTE      SFRPRT2DR
      000000B0H   SFRSYM    DATA     BYTE      SFRPRT3DR
      000000C0H   SFRSYM    DATA     BYTE      SFRPRT4DR
      000000FAH   SFRSYM    DATA     BYTE      SFRPRT15SEL
      000000C8H   SFRSYM    DATA     BYTE      SFRPRT5DR
      000000D8H   SFRSYM    DATA     BYTE      SFRPRT6DR
      00000089H   SFRSYM    DATA     BYTE      SFRPRT0PS
      00000091H   SFRSYM    DATA     BYTE      SFRPRT1PS
      00000099H   SFRSYM    DATA     BYTE      SFRPRT2PS
      000000B1H   SFRSYM    DATA     BYTE      SFRPRT3PS
      000000C1H   SFRSYM    DATA     BYTE      SFRPRT4PS
      000000C9H   SFRSYM    DATA     BYTE      SFRPRT5PS
      000000D9H   SFRSYM    DATA     BYTE      SFRPRT6PS
      000000EAH   SFRSYM    DATA     BYTE      MXAX
      000000F0H   SFRSYM    DATA     BYTE      B
      000000E0H   SFRSYM    DATA     BYTE      ACC
      000000D0H   SFRSYM    DATA     BIT       P
      000000D0H.3 SFRSYM    DATA     BIT       RS0
      000000D0H.4 SFRSYM    DATA     BIT       RS1
      00000083H   SFRSYM    DATA     BYTE      DPH
      000000E8H   SFRSYM    DATA     BYTE      SFRPRT12DR
      00000082H   SFRSYM    DATA     BYTE      DPL
      000000F8H   SFRSYM    DATA     BYTE      SFRPRT15DR
      00000086H   SFRSYM    DATA     BYTE      DPS
      000000E9H   SFRSYM    DATA     BYTE      SFRPRT12PS
      00000093H   SFRSYM    DATA     BYTE      DPX
      000000F9H   SFRSYM    DATA     BYTE      SFRPRT15PS
      000000D0H.5 SFRSYM    DATA     BIT       F0
      000000D0H.1 SFRSYM    DATA     BIT       F1
      0000008AH   SFRSYM    DATA     BYTE      SFRPRT0SEL
      000000D0H   SFRSYM    DATA     BYTE      PSW
      000000A2H   SFRSYM    DATA     BYTE      SFRPRT1SEL
      0000009AH   SFRSYM    DATA     BYTE      SFRPRT2SEL
      000000B2H   SFRSYM    DATA     BYTE      SFRPRT3SEL
      000000C2H   SFRSYM    DATA     BYTE      SFRPRT4SEL

      0100ED89H   BLOCK     CODE     ---       LVL=0
      0100ED89H   BLOCK     CODE     NEAR LAB  LVL=1
      00000007H   SYMBOL    DATA     BYTE      MY_TIMER_interruptState
      ---         BLOCKEND  ---      ---       LVL=1
      0100ED89H   LINE      CODE     ---       #43
      0100ED89H   LINE      CODE     ---       #44
      0100ED89H   LINE      CODE     ---       #118
      0100ED94H   LINE      CODE     ---       #119
      0100ED9FH   LINE      CODE     ---       #142
      0100EDA2H   LINE      CODE     ---       #145
      0100EDA9H   LINE      CODE     ---       #148
      0100EDACH   LINE      CODE     ---       #159
      0100EDAFH   LINE      CODE     ---       #162
      0100EDB4H   LINE      CODE     ---       #163
      ---         BLOCKEND  ---      ---       LVL=0

LX51 LINKER/LOCATER V4.64.0.0                                                         04/06/2018  15:41:10  PAGE 125


      0100F39CH   BLOCK     CODE     ---       LVL=0
      0100F39CH   LINE      CODE     ---       #180
      0100F39CH   LINE      CODE     ---       #181
      0100F39CH   LINE      CODE     ---       #190
      0100F3A3H   LINE      CODE     ---       #192
      ---         BLOCKEND  ---      ---       LVL=0

      0100F127H   BLOCK     CODE     ---       LVL=0
      0100F127H   LINE      CODE     ---       #215
      0100F127H   LINE      CODE     ---       #216
      0100F127H   LINE      CODE     ---       #217
      0100F12DH   LINE      CODE     ---       #218
      0100F12DH   LINE      CODE     ---       #219
      0100F130H   LINE      CODE     ---       #221
      0100F136H   LINE      CODE     ---       #222
      0100F136H   LINE      CODE     ---       #225
      0100F139H   LINE      CODE     ---       #226
      ---         BLOCKEND  ---      ---       LVL=0

      0100F45FH   BLOCK     CODE     ---       LVL=0
      00000007H   SYMBOL    DATA     BYTE      interruptMode
      0100F45FH   LINE      CODE     ---       #279
      0100F45FH   LINE      CODE     ---       #280
      0100F45FH   LINE      CODE     ---       #281
      0100F464H   LINE      CODE     ---       #282
      ---         BLOCKEND  ---      ---       LVL=0

      0100F465H   BLOCK     CODE     ---       LVL=0
      0100F465H   LINE      CODE     ---       #333
      0100F465H   LINE      CODE     ---       #334
      0100F465H   LINE      CODE     ---       #335
      0100F46AH   LINE      CODE     ---       #336
      ---         BLOCKEND  ---      ---       LVL=0
      00000007H   SYMBOL    DATA     BYTE      control

      0100F33EH   BLOCK     CODE     ---       LVL=0
      00000004H   SYMBOL    DATA     DWORD     period
      0100F33EH   LINE      CODE     ---       #431
      0100F33EH   LINE      CODE     ---       #432
      0100F33EH   LINE      CODE     ---       #437
      0100F347H   LINE      CODE     ---       #439
      ---         BLOCKEND  ---      ---       LVL=0

      0100F348H   BLOCK     CODE     ---       LVL=0
      0100F348H   LINE      CODE     ---       #456
      0100F348H   LINE      CODE     ---       #457
      0100F348H   LINE      CODE     ---       #461
      0100F351H   LINE      CODE     ---       #463
      ---         BLOCKEND  ---      ---       LVL=0

      0100F352H   BLOCK     CODE     ---       LVL=0
      00000004H   SYMBOL    DATA     DWORD     counter
      0100F352H   LINE      CODE     ---       #480
      0100F352H   LINE      CODE     ---       #481
      0100F352H   LINE      CODE     ---       #489
      0100F35BH   LINE      CODE     ---       #491
      ---         BLOCKEND  ---      ---       LVL=0

      0100F1DDH   BLOCK     CODE     ---       LVL=0
      0100F1DDH   LINE      CODE     ---       #508
      0100F1DDH   LINE      CODE     ---       #509
      0100F1DDH   LINE      CODE     ---       #516
      0100F1E2H   LINE      CODE     ---       #523
      0100F1EBH   LINE      CODE     ---       #525
      ---         BLOCKEND  ---      ---       LVL=0
LX51 LINKER/LOCATER V4.64.0.0                                                         04/06/2018  15:41:10  PAGE 126



      0100F294H   BLOCK     CODE     ---       LVL=0
      0100F294H   LINE      CODE     ---       #763
      0100F294H   LINE      CODE     ---       #764
      0100F294H   LINE      CODE     ---       #765
      0100F29BH   LINE      CODE     ---       #766
      0100F29BH   LINE      CODE     ---       #767
      0100F29EH   LINE      CODE     ---       #768
      0100F2A0H   LINE      CODE     ---       #769
      ---         BLOCKEND  ---      ---       LVL=0

      ---         MODULE    ---      ---       SHIFTREG_ENC_1
      020013FCH   PUBLIC    XDATA    BYTE      SHIFTREG_ENC_1_initVar
      0100F35CH   PUBLIC    CODE     ---       SHIFTREG_ENC_1_ReadData
      0100F1CCH   PUBLIC    CODE     ---       _SHIFTREG_ENC_1_SetIntMode
      0100F250H   PUBLIC    CODE     ---       SHIFTREG_ENC_1_EnableInt
      0100F46BH   PUBLIC    CODE     ---       SHIFTREG_ENC_1_Init
      0100F301H   PUBLIC    CODE     ---       SHIFTREG_ENC_1_Enable
      0100F13AH   PUBLIC    CODE     ---       SHIFTREG_ENC_1_Start
      000000CAH   SFRSYM    DATA     BYTE      SFRPRT5SEL
      000000DAH   SFRSYM    DATA     BYTE      SFRPRT6SEL
      000000D0H.6 SFRSYM    DATA     BIT       AC
      000000A8H.7 SFRSYM    DATA     BIT       EA
      000000A8H   SFRSYM    DATA     BYTE      IE
      00000085H   SFRSYM    DATA     BYTE      DPH1
      00000084H   SFRSYM    DATA     BYTE      DPL1
      000000D0H.7 SFRSYM    DATA     BIT       CY
      000000A0H   SFRSYM    DATA     BYTE      P2AX
      00000095H   SFRSYM    DATA     BYTE      DPX1
      00000081H   SFRSYM    DATA     BYTE      SP
      000000D0H.2 SFRSYM    DATA     BIT       OV
      00000080H   SFRSYM    DATA     BYTE      SFRPRT0DR
      00000090H   SFRSYM    DATA     BYTE      SFRPRT1DR
      000000F2H   SFRSYM    DATA     BYTE      SFRPRT12SEL
      00000098H   SFRSYM    DATA     BYTE      SFRPRT2DR
      000000B0H   SFRSYM    DATA     BYTE      SFRPRT3DR
      000000C0H   SFRSYM    DATA     BYTE      SFRPRT4DR
      000000FAH   SFRSYM    DATA     BYTE      SFRPRT15SEL
      000000C8H   SFRSYM    DATA     BYTE      SFRPRT5DR
      000000D8H   SFRSYM    DATA     BYTE      SFRPRT6DR
      00000089H   SFRSYM    DATA     BYTE      SFRPRT0PS
      00000091H   SFRSYM    DATA     BYTE      SFRPRT1PS
      00000099H   SFRSYM    DATA     BYTE      SFRPRT2PS
      000000B1H   SFRSYM    DATA     BYTE      SFRPRT3PS
      000000C1H   SFRSYM    DATA     BYTE      SFRPRT4PS
      000000C9H   SFRSYM    DATA     BYTE      SFRPRT5PS
      000000D9H   SFRSYM    DATA     BYTE      SFRPRT6PS
      000000EAH   SFRSYM    DATA     BYTE      MXAX
      000000F0H   SFRSYM    DATA     BYTE      B
      000000E0H   SFRSYM    DATA     BYTE      ACC
      000000D0H   SFRSYM    DATA     BIT       P
      000000D0H.3 SFRSYM    DATA     BIT       RS0
      000000D0H.4 SFRSYM    DATA     BIT       RS1
      00000083H   SFRSYM    DATA     BYTE      DPH
      000000E8H   SFRSYM    DATA     BYTE      SFRPRT12DR
      00000082H   SFRSYM    DATA     BYTE      DPL
      000000F8H   SFRSYM    DATA     BYTE      SFRPRT15DR
      00000086H   SFRSYM    DATA     BYTE      DPS
      000000E9H   SFRSYM    DATA     BYTE      SFRPRT12PS
      00000093H   SFRSYM    DATA     BYTE      DPX
      000000F9H   SFRSYM    DATA     BYTE      SFRPRT15PS
      000000D0H.5 SFRSYM    DATA     BIT       F0
      000000D0H.1 SFRSYM    DATA     BIT       F1
      0000008AH   SFRSYM    DATA     BYTE      SFRPRT0SEL
      000000D0H   SFRSYM    DATA     BYTE      PSW
LX51 LINKER/LOCATER V4.64.0.0                                                         04/06/2018  15:41:10  PAGE 127


      000000A2H   SFRSYM    DATA     BYTE      SFRPRT1SEL
      0000009AH   SFRSYM    DATA     BYTE      SFRPRT2SEL
      000000B2H   SFRSYM    DATA     BYTE      SFRPRT3SEL
      000000C2H   SFRSYM    DATA     BYTE      SFRPRT4SEL

      0100F13AH   BLOCK     CODE     ---       LVL=0
      0100F13AH   LINE      CODE     ---       #43
      0100F13AH   LINE      CODE     ---       #44
      0100F13AH   LINE      CODE     ---       #45
      0100F140H   LINE      CODE     ---       #46
      0100F140H   LINE      CODE     ---       #47
      0100F143H   LINE      CODE     ---       #48
      0100F149H   LINE      CODE     ---       #49
      0100F149H   LINE      CODE     ---       #51
      0100F14CH   LINE      CODE     ---       #52
      ---         BLOCKEND  ---      ---       LVL=0

      0100F301H   BLOCK     CODE     ---       LVL=0
      0100F301H   LINE      CODE     ---       #69
      0100F301H   LINE      CODE     ---       #70
      0100F301H   LINE      CODE     ---       #73
      0100F308H   LINE      CODE     ---       #75
      0100F30BH   LINE      CODE     ---       #76
      ---         BLOCKEND  ---      ---       LVL=0

      0100F46BH   BLOCK     CODE     ---       LVL=0
      0100F46BH   LINE      CODE     ---       #93
      0100F46BH   LINE      CODE     ---       #94
      0100F46BH   LINE      CODE     ---       #95
      0100F470H   LINE      CODE     ---       #96
      ---         BLOCKEND  ---      ---       LVL=0

      0100F250H   BLOCK     CODE     ---       LVL=0
      0100F250H   BLOCK     CODE     NEAR LAB  LVL=1
      00000007H   SYMBOL    DATA     BYTE      interruptState
      ---         BLOCKEND  ---      ---       LVL=1
      0100F250H   LINE      CODE     ---       #135
      0100F250H   LINE      CODE     ---       #136
      0100F250H   LINE      CODE     ---       #139
      0100F253H   LINE      CODE     ---       #140
      0100F25AH   LINE      CODE     ---       #141
      0100F25DH   LINE      CODE     ---       #142
      ---         BLOCKEND  ---      ---       LVL=0
      00000007H   SYMBOL    DATA     BYTE      interruptState
      00000007H   SYMBOL    DATA     BYTE      fifoId
      00000005H   SYMBOL    DATA     BYTE      result

      0100F1CCH   BLOCK     CODE     ---       LVL=0
      00000007H   SYMBOL    DATA     BYTE      interruptSource
      0100F1CCH   LINE      CODE     ---       #261
      0100F1CCH   LINE      CODE     ---       #262
      0100F1CCH   LINE      CODE     ---       #263
      0100F1D3H   LINE      CODE     ---       #264
      0100F1DCH   LINE      CODE     ---       #265
      ---         BLOCKEND  ---      ---       LVL=0
      00000004H   SYMBOL    DATA     DWORD     shiftData

      0100F35CH   BLOCK     CODE     ---       LVL=0
      0100F35CH   LINE      CODE     ---       #366
      0100F35CH   LINE      CODE     ---       #367
      0100F35CH   LINE      CODE     ---       #368
      0100F365H   LINE      CODE     ---       #369
      ---         BLOCKEND  ---      ---       LVL=0

      ---         MODULE    ---      ---       RESET_COUNTERS
LX51 LINKER/LOCATER V4.64.0.0                                                         04/06/2018  15:41:10  PAGE 128


      0100F471H   PUBLIC    CODE     ---       _RESET_COUNTERS_Write

      0100F471H   BLOCK     CODE     ---       LVL=0
      00000007H   SYMBOL    DATA     BYTE      control
      0100F471H   LINE      CODE     ---       #37
      0100F471H   LINE      CODE     ---       #38
      0100F471H   LINE      CODE     ---       #39
      0100F476H   LINE      CODE     ---       #40
      ---         BLOCKEND  ---      ---       LVL=0

      ---         MODULE    ---      ---       ADC_STATUS
      0100F477H   PUBLIC    CODE     ---       ADC_STATUS_Read
      000000CAH   SFRSYM    DATA     BYTE      SFRPRT5SEL
      000000DAH   SFRSYM    DATA     BYTE      SFRPRT6SEL
      000000D0H.6 SFRSYM    DATA     BIT       AC
      000000A8H.7 SFRSYM    DATA     BIT       EA
      000000A8H   SFRSYM    DATA     BYTE      IE
      00000085H   SFRSYM    DATA     BYTE      DPH1
      00000084H   SFRSYM    DATA     BYTE      DPL1
      000000D0H.7 SFRSYM    DATA     BIT       CY
      000000A0H   SFRSYM    DATA     BYTE      P2AX
      00000095H   SFRSYM    DATA     BYTE      DPX1
      00000081H   SFRSYM    DATA     BYTE      SP
      000000D0H.2 SFRSYM    DATA     BIT       OV
      00000080H   SFRSYM    DATA     BYTE      SFRPRT0DR
      00000090H   SFRSYM    DATA     BYTE      SFRPRT1DR
      000000F2H   SFRSYM    DATA     BYTE      SFRPRT12SEL
      00000098H   SFRSYM    DATA     BYTE      SFRPRT2DR
      000000B0H   SFRSYM    DATA     BYTE      SFRPRT3DR
      000000C0H   SFRSYM    DATA     BYTE      SFRPRT4DR
      000000FAH   SFRSYM    DATA     BYTE      SFRPRT15SEL
      000000C8H   SFRSYM    DATA     BYTE      SFRPRT5DR
      000000D8H   SFRSYM    DATA     BYTE      SFRPRT6DR
      00000089H   SFRSYM    DATA     BYTE      SFRPRT0PS
      00000091H   SFRSYM    DATA     BYTE      SFRPRT1PS
      00000099H   SFRSYM    DATA     BYTE      SFRPRT2PS
      000000B1H   SFRSYM    DATA     BYTE      SFRPRT3PS
      000000C1H   SFRSYM    DATA     BYTE      SFRPRT4PS
      000000C9H   SFRSYM    DATA     BYTE      SFRPRT5PS
      000000D9H   SFRSYM    DATA     BYTE      SFRPRT6PS
      000000EAH   SFRSYM    DATA     BYTE      MXAX
      000000F0H   SFRSYM    DATA     BYTE      B
      000000E0H   SFRSYM    DATA     BYTE      ACC
      000000D0H   SFRSYM    DATA     BIT       P
      000000D0H.3 SFRSYM    DATA     BIT       RS0
      000000D0H.4 SFRSYM    DATA     BIT       RS1
      00000083H   SFRSYM    DATA     BYTE      DPH
      000000E8H   SFRSYM    DATA     BYTE      SFRPRT12DR
      00000082H   SFRSYM    DATA     BYTE      DPL
      000000F8H   SFRSYM    DATA     BYTE      SFRPRT15DR
      00000086H   SFRSYM    DATA     BYTE      DPS
      000000E9H   SFRSYM    DATA     BYTE      SFRPRT12PS
      00000093H   SFRSYM    DATA     BYTE      DPX
      000000F9H   SFRSYM    DATA     BYTE      SFRPRT15PS
      000000D0H.5 SFRSYM    DATA     BIT       F0
      000000D0H.1 SFRSYM    DATA     BIT       F1
      0000008AH   SFRSYM    DATA     BYTE      SFRPRT0SEL
      000000D0H   SFRSYM    DATA     BYTE      PSW
      000000A2H   SFRSYM    DATA     BYTE      SFRPRT1SEL
      0000009AH   SFRSYM    DATA     BYTE      SFRPRT2SEL
      000000B2H   SFRSYM    DATA     BYTE      SFRPRT3SEL
      000000C2H   SFRSYM    DATA     BYTE      SFRPRT4SEL

      0100F477H   BLOCK     CODE     ---       LVL=0
      0100F477H   LINE      CODE     ---       #37
LX51 LINKER/LOCATER V4.64.0.0                                                         04/06/2018  15:41:10  PAGE 129


      0100F477H   LINE      CODE     ---       #38
      0100F477H   LINE      CODE     ---       #39
      0100F47CH   LINE      CODE     ---       #40
      ---         BLOCKEND  ---      ---       LVL=0
      00000007H   SYMBOL    DATA     BYTE      interruptState
      00000007H   SYMBOL    DATA     BYTE      interruptState
      00000007H   SYMBOL    DATA     BYTE      mask

      ---         MODULE    ---      ---       DMA_DMA
      020013FDH   PUBLIC    XDATA    BYTE      DMA_DmaHandle
      02000002H   PUBLIC    XDATA    BYTE      ?_DMA_DmaInitialize?BYTE
      0100E6EDH   PUBLIC    CODE     ---       _DMA_DmaInitialize
      000000CAH   SFRSYM    DATA     BYTE      SFRPRT5SEL
      000000DAH   SFRSYM    DATA     BYTE      SFRPRT6SEL
      000000D0H.6 SFRSYM    DATA     BIT       AC
      000000A8H.7 SFRSYM    DATA     BIT       EA
      000000A8H   SFRSYM    DATA     BYTE      IE
      00000085H   SFRSYM    DATA     BYTE      DPH1
      00000084H   SFRSYM    DATA     BYTE      DPL1
      000000D0H.7 SFRSYM    DATA     BIT       CY
      000000A0H   SFRSYM    DATA     BYTE      P2AX
      00000095H   SFRSYM    DATA     BYTE      DPX1
      00000081H   SFRSYM    DATA     BYTE      SP
      000000D0H.2 SFRSYM    DATA     BIT       OV
      00000080H   SFRSYM    DATA     BYTE      SFRPRT0DR
      00000090H   SFRSYM    DATA     BYTE      SFRPRT1DR
      000000F2H   SFRSYM    DATA     BYTE      SFRPRT12SEL
      00000098H   SFRSYM    DATA     BYTE      SFRPRT2DR
      000000B0H   SFRSYM    DATA     BYTE      SFRPRT3DR
      000000C0H   SFRSYM    DATA     BYTE      SFRPRT4DR
      000000FAH   SFRSYM    DATA     BYTE      SFRPRT15SEL
      000000C8H   SFRSYM    DATA     BYTE      SFRPRT5DR
      000000D8H   SFRSYM    DATA     BYTE      SFRPRT6DR
      00000089H   SFRSYM    DATA     BYTE      SFRPRT0PS
      00000091H   SFRSYM    DATA     BYTE      SFRPRT1PS
      00000099H   SFRSYM    DATA     BYTE      SFRPRT2PS
      000000B1H   SFRSYM    DATA     BYTE      SFRPRT3PS
      000000C1H   SFRSYM    DATA     BYTE      SFRPRT4PS
      000000C9H   SFRSYM    DATA     BYTE      SFRPRT5PS
      000000D9H   SFRSYM    DATA     BYTE      SFRPRT6PS
      000000EAH   SFRSYM    DATA     BYTE      MXAX
      000000F0H   SFRSYM    DATA     BYTE      B
      000000E0H   SFRSYM    DATA     BYTE      ACC
      000000D0H   SFRSYM    DATA     BIT       P
      000000D0H.3 SFRSYM    DATA     BIT       RS0
      000000D0H.4 SFRSYM    DATA     BIT       RS1
      00000083H   SFRSYM    DATA     BYTE      DPH
      000000E8H   SFRSYM    DATA     BYTE      SFRPRT12DR
      00000082H   SFRSYM    DATA     BYTE      DPL
      000000F8H   SFRSYM    DATA     BYTE      SFRPRT15DR
      00000086H   SFRSYM    DATA     BYTE      DPS
      000000E9H   SFRSYM    DATA     BYTE      SFRPRT12PS
      00000093H   SFRSYM    DATA     BYTE      DPX
      000000F9H   SFRSYM    DATA     BYTE      SFRPRT15PS
      000000D0H.5 SFRSYM    DATA     BIT       F0
      000000D0H.1 SFRSYM    DATA     BIT       F1
      0000008AH   SFRSYM    DATA     BYTE      SFRPRT0SEL
      000000D0H   SFRSYM    DATA     BYTE      PSW
      000000A2H   SFRSYM    DATA     BYTE      SFRPRT1SEL
      0000009AH   SFRSYM    DATA     BYTE      SFRPRT2SEL
      000000B2H   SFRSYM    DATA     BYTE      SFRPRT3SEL
      000000C2H   SFRSYM    DATA     BYTE      SFRPRT4SEL

      0100E6EDH   BLOCK     CODE     ---       LVL=0
      00000007H   SYMBOL    DATA     BYTE      BurstCount
LX51 LINKER/LOCATER V4.64.0.0                                                         04/06/2018  15:41:10  PAGE 130


      00000006H   SYMBOL    DATA     BYTE      ReqestPerBurst
      02000004H   SYMBOL    XDATA    WORD      UpperSrcAddress
      02000006H   SYMBOL    XDATA    WORD      UpperDestAddress
      0100E6EDH   LINE      CODE     ---       #97
      0100E6F7H   LINE      CODE     ---       #98
      0100E6F7H   LINE      CODE     ---       #101
      0100E6FDH   LINE      CODE     ---       #109
      0100E711H   LINE      CODE     ---       #112
      0100E727H   LINE      CODE     ---       #115
      0100E731H   LINE      CODE     ---       #117
      0100E736H   LINE      CODE     ---       #118
      ---         BLOCKEND  ---      ---       LVL=0

      ---         MODULE    ---      ---       ADC_SOC
      0100F47DH   PUBLIC    CODE     ---       _ADC_SOC_Write

      0100F47DH   BLOCK     CODE     ---       LVL=0
      00000007H   SYMBOL    DATA     BYTE      control
      0100F47DH   LINE      CODE     ---       #37
      0100F47DH   LINE      CODE     ---       #38
      0100F47DH   LINE      CODE     ---       #39
      0100F482H   LINE      CODE     ---       #40
      ---         BLOCKEND  ---      ---       LVL=0

      ---         MODULE    ---      ---       ISR_WATCHDOG
      0100F3E0H   PUBLIC    CODE     ---       ISR_WATCHDOG_Disable
      0100F3D9H   PUBLIC    CODE     ---       ISR_WATCHDOG_Enable
      0100F366H   PUBLIC    CODE     ---       _ISR_WATCHDOG_SetPriority
      0100F25EH   PUBLIC    CODE     ---       _ISR_WATCHDOG_SetVector
      0100F4C4H   PUBLIC    CODE     ---       ISR_WATCHDOG_Interrupt
      0100EF18H   PUBLIC    CODE     ---       _ISR_WATCHDOG_StartEx
      000000CAH   SFRSYM    DATA     BYTE      SFRPRT5SEL
      000000DAH   SFRSYM    DATA     BYTE      SFRPRT6SEL
      000000D0H.6 SFRSYM    DATA     BIT       AC
      000000A8H.7 SFRSYM    DATA     BIT       EA
      000000A8H   SFRSYM    DATA     BYTE      IE
      00000085H   SFRSYM    DATA     BYTE      DPH1
      00000084H   SFRSYM    DATA     BYTE      DPL1
      000000D0H.7 SFRSYM    DATA     BIT       CY
      000000A0H   SFRSYM    DATA     BYTE      P2AX
      00000095H   SFRSYM    DATA     BYTE      DPX1
      00000081H   SFRSYM    DATA     BYTE      SP
      000000D0H.2 SFRSYM    DATA     BIT       OV
      00000080H   SFRSYM    DATA     BYTE      SFRPRT0DR
      00000090H   SFRSYM    DATA     BYTE      SFRPRT1DR
      000000F2H   SFRSYM    DATA     BYTE      SFRPRT12SEL
      00000098H   SFRSYM    DATA     BYTE      SFRPRT2DR
      000000B0H   SFRSYM    DATA     BYTE      SFRPRT3DR
      000000C0H   SFRSYM    DATA     BYTE      SFRPRT4DR
      000000FAH   SFRSYM    DATA     BYTE      SFRPRT15SEL
      000000C8H   SFRSYM    DATA     BYTE      SFRPRT5DR
      000000D8H   SFRSYM    DATA     BYTE      SFRPRT6DR
      00000089H   SFRSYM    DATA     BYTE      SFRPRT0PS
      00000091H   SFRSYM    DATA     BYTE      SFRPRT1PS
      00000099H   SFRSYM    DATA     BYTE      SFRPRT2PS
      000000B1H   SFRSYM    DATA     BYTE      SFRPRT3PS
      000000C1H   SFRSYM    DATA     BYTE      SFRPRT4PS
      000000C9H   SFRSYM    DATA     BYTE      SFRPRT5PS
      000000D9H   SFRSYM    DATA     BYTE      SFRPRT6PS
      000000EAH   SFRSYM    DATA     BYTE      MXAX
      000000F0H   SFRSYM    DATA     BYTE      B
      000000E0H   SFRSYM    DATA     BYTE      ACC
      000000D0H   SFRSYM    DATA     BIT       P
      000000D0H.3 SFRSYM    DATA     BIT       RS0
      000000D0H.4 SFRSYM    DATA     BIT       RS1
LX51 LINKER/LOCATER V4.64.0.0                                                         04/06/2018  15:41:10  PAGE 131


      00000083H   SFRSYM    DATA     BYTE      DPH
      000000E8H   SFRSYM    DATA     BYTE      SFRPRT12DR
      00000082H   SFRSYM    DATA     BYTE      DPL
      000000F8H   SFRSYM    DATA     BYTE      SFRPRT15DR
      00000086H   SFRSYM    DATA     BYTE      DPS
      000000E9H   SFRSYM    DATA     BYTE      SFRPRT12PS
      00000093H   SFRSYM    DATA     BYTE      DPX
      000000F9H   SFRSYM    DATA     BYTE      SFRPRT15PS
      000000D0H.5 SFRSYM    DATA     BIT       F0
      000000D0H.1 SFRSYM    DATA     BIT       F1
      0000008AH   SFRSYM    DATA     BYTE      SFRPRT0SEL
      000000D0H   SFRSYM    DATA     BYTE      PSW
      000000A2H   SFRSYM    DATA     BYTE      SFRPRT1SEL
      0000009AH   SFRSYM    DATA     BYTE      SFRPRT2SEL
      000000B2H   SFRSYM    DATA     BYTE      SFRPRT3SEL
      000000C2H   SFRSYM    DATA     BYTE      SFRPRT4SEL

      0100EF18H   BLOCK     CODE     ---       LVL=0
      02000002H   SYMBOL    XDATA    ---       address
      0100EF18H   LINE      CODE     ---       #94
      0100EF20H   LINE      CODE     ---       #95
      0100EF20H   LINE      CODE     ---       #97
      0100EF23H   LINE      CODE     ---       #100
      0100EF2EH   LINE      CODE     ---       #103
      0100EF33H   LINE      CODE     ---       #106
      0100EF36H   LINE      CODE     ---       #107
      ---         BLOCKEND  ---      ---       LVL=0

      0100F4C4H   BLOCK     CODE     ---       LVL=0
      0100F4C4H   LINE      CODE     ---       #151
      0100F4C4H   LINE      CODE     ---       #168
      ---         BLOCKEND  ---      ---       LVL=0

      0100F25EH   BLOCK     CODE     ---       LVL=0
      00000006H   SYMBOL    DATA     ---       address
      0100F25EH   LINE      CODE     ---       #198
      0100F25EH   LINE      CODE     ---       #199
      0100F25EH   LINE      CODE     ---       #200
      0100F26BH   LINE      CODE     ---       #201
      ---         BLOCKEND  ---      ---       LVL=0

      0100F366H   BLOCK     CODE     ---       LVL=0
      00000007H   SYMBOL    DATA     BYTE      priority
      0100F366H   LINE      CODE     ---       #248
      0100F366H   LINE      CODE     ---       #249
      0100F366H   LINE      CODE     ---       #250
      0100F36FH   LINE      CODE     ---       #251
      ---         BLOCKEND  ---      ---       LVL=0
      00000007H   SYMBOL    DATA     BYTE      priority

      0100F3D9H   BLOCK     CODE     ---       LVL=0
      0100F3D9H   LINE      CODE     ---       #297
      0100F3D9H   LINE      CODE     ---       #298
      0100F3D9H   LINE      CODE     ---       #300
      0100F3DFH   LINE      CODE     ---       #301
      ---         BLOCKEND  ---      ---       LVL=0

      0100F3E0H   BLOCK     CODE     ---       LVL=0
      0100F3E0H   LINE      CODE     ---       #339
      0100F3E0H   LINE      CODE     ---       #340
      0100F3E0H   LINE      CODE     ---       #342
      0100F3E6H   LINE      CODE     ---       #343
      ---         BLOCKEND  ---      ---       LVL=0

      ---         MODULE    ---      ---       WATCHDOG_COUNTER
LX51 LINKER/LOCATER V4.64.0.0                                                         04/06/2018  15:41:10  PAGE 132


      020013FEH   PUBLIC    XDATA    BYTE      WATCHDOG_COUNTER_initVar
      0100F26CH   PUBLIC    CODE     ---       _WATCHDOG_COUNTER_WritePeriod
      0100EF74H   PUBLIC    CODE     ---       _WATCHDOG_COUNTER_WriteCounter
      0100F483H   PUBLIC    CODE     ---       _WATCHDOG_COUNTER_SetInterruptMode
      0100F14DH   PUBLIC    CODE     ---       WATCHDOG_COUNTER_Start
      0100F023H   PUBLIC    CODE     ---       WATCHDOG_COUNTER_Enable
      0100EA79H   PUBLIC    CODE     ---       WATCHDOG_COUNTER_Init
      000000CAH   SFRSYM    DATA     BYTE      SFRPRT5SEL
      000000DAH   SFRSYM    DATA     BYTE      SFRPRT6SEL
      000000D0H.6 SFRSYM    DATA     BIT       AC
      000000A8H.7 SFRSYM    DATA     BIT       EA
      000000A8H   SFRSYM    DATA     BYTE      IE
      00000085H   SFRSYM    DATA     BYTE      DPH1
      00000084H   SFRSYM    DATA     BYTE      DPL1
      000000D0H.7 SFRSYM    DATA     BIT       CY
      000000A0H   SFRSYM    DATA     BYTE      P2AX
      00000095H   SFRSYM    DATA     BYTE      DPX1
      00000081H   SFRSYM    DATA     BYTE      SP
      000000D0H.2 SFRSYM    DATA     BIT       OV
      00000080H   SFRSYM    DATA     BYTE      SFRPRT0DR
      00000090H   SFRSYM    DATA     BYTE      SFRPRT1DR
      000000F2H   SFRSYM    DATA     BYTE      SFRPRT12SEL
      00000098H   SFRSYM    DATA     BYTE      SFRPRT2DR
      000000B0H   SFRSYM    DATA     BYTE      SFRPRT3DR
      000000C0H   SFRSYM    DATA     BYTE      SFRPRT4DR
      000000FAH   SFRSYM    DATA     BYTE      SFRPRT15SEL
      000000C8H   SFRSYM    DATA     BYTE      SFRPRT5DR
      000000D8H   SFRSYM    DATA     BYTE      SFRPRT6DR
      00000089H   SFRSYM    DATA     BYTE      SFRPRT0PS
      00000091H   SFRSYM    DATA     BYTE      SFRPRT1PS
      00000099H   SFRSYM    DATA     BYTE      SFRPRT2PS
      000000B1H   SFRSYM    DATA     BYTE      SFRPRT3PS
      000000C1H   SFRSYM    DATA     BYTE      SFRPRT4PS
      000000C9H   SFRSYM    DATA     BYTE      SFRPRT5PS
      000000D9H   SFRSYM    DATA     BYTE      SFRPRT6PS
      000000EAH   SFRSYM    DATA     BYTE      MXAX
      000000F0H   SFRSYM    DATA     BYTE      B
      000000E0H   SFRSYM    DATA     BYTE      ACC
      000000D0H   SFRSYM    DATA     BIT       P
      000000D0H.3 SFRSYM    DATA     BIT       RS0
      000000D0H.4 SFRSYM    DATA     BIT       RS1
      00000083H   SFRSYM    DATA     BYTE      DPH
      000000E8H   SFRSYM    DATA     BYTE      SFRPRT12DR
      00000082H   SFRSYM    DATA     BYTE      DPL
      000000F8H   SFRSYM    DATA     BYTE      SFRPRT15DR
      00000086H   SFRSYM    DATA     BYTE      DPS
      000000E9H   SFRSYM    DATA     BYTE      SFRPRT12PS
      00000093H   SFRSYM    DATA     BYTE      DPX
      000000F9H   SFRSYM    DATA     BYTE      SFRPRT15PS
      000000D0H.5 SFRSYM    DATA     BIT       F0
      000000D0H.1 SFRSYM    DATA     BIT       F1
      0000008AH   SFRSYM    DATA     BYTE      SFRPRT0SEL
      000000D0H   SFRSYM    DATA     BYTE      PSW
      000000A2H   SFRSYM    DATA     BYTE      SFRPRT1SEL
      0000009AH   SFRSYM    DATA     BYTE      SFRPRT2SEL
      000000B2H   SFRSYM    DATA     BYTE      SFRPRT3SEL
      000000C2H   SFRSYM    DATA     BYTE      SFRPRT4SEL

      0100EA79H   BLOCK     CODE     ---       LVL=0
      0100EA79H   LINE      CODE     ---       #37
      0100EA79H   LINE      CODE     ---       #38
      0100EA79H   LINE      CODE     ---       #50
      0100EA80H   LINE      CODE     ---       #57
      0100EA87H   LINE      CODE     ---       #66
      0100EA8EH   LINE      CODE     ---       #69
LX51 LINKER/LOCATER V4.64.0.0                                                         04/06/2018  15:41:10  PAGE 133


      0100EA95H   LINE      CODE     ---       #70
      0100EA99H   LINE      CODE     ---       #73
      0100EA9DH   LINE      CODE     ---       #74
      0100EAA1H   LINE      CODE     ---       #100
      0100EAA6H   LINE      CODE     ---       #102
      0100EAABH   LINE      CODE     ---       #104
      0100EAB0H   LINE      CODE     ---       #123
      ---         BLOCKEND  ---      ---       LVL=0

      0100F023H   BLOCK     CODE     ---       LVL=0
      0100F023H   LINE      CODE     ---       #143
      0100F023H   LINE      CODE     ---       #144
      0100F023H   LINE      CODE     ---       #147
      0100F02AH   LINE      CODE     ---       #148
      0100F031H   LINE      CODE     ---       #155
      0100F038H   LINE      CODE     ---       #158
      ---         BLOCKEND  ---      ---       LVL=0

      0100F14DH   BLOCK     CODE     ---       LVL=0
      0100F14DH   LINE      CODE     ---       #178
      0100F14DH   LINE      CODE     ---       #179
      0100F14DH   LINE      CODE     ---       #180
      0100F153H   LINE      CODE     ---       #181
      0100F153H   LINE      CODE     ---       #182
      0100F156H   LINE      CODE     ---       #184
      0100F15CH   LINE      CODE     ---       #185
      0100F15CH   LINE      CODE     ---       #188
      0100F15FH   LINE      CODE     ---       #189
      ---         BLOCKEND  ---      ---       LVL=0

      0100F483H   BLOCK     CODE     ---       LVL=0
      00000007H   SYMBOL    DATA     BYTE      interruptsMask
      0100F483H   LINE      CODE     ---       #237
      0100F483H   LINE      CODE     ---       #238
      0100F483H   LINE      CODE     ---       #239
      0100F488H   LINE      CODE     ---       #240
      ---         BLOCKEND  ---      ---       LVL=0
      00000007H   SYMBOL    DATA     BYTE      control

      0100EF74H   BLOCK     CODE     ---       LVL=0
      00000007H   SYMBOL    DATA     BYTE      counter
      0100EF74H   LINE      CODE     ---       #326
      0100EF74H   LINE      CODE     ---       #328
      0100EF74H   LINE      CODE     ---       #333
      0100EF7BH   LINE      CODE     ---       #334
      0100EF88H   LINE      CODE     ---       #335
      0100EF8FH   LINE      CODE     ---       #339
      ---         BLOCKEND  ---      ---       LVL=0

      0100F26CH   BLOCK     CODE     ---       LVL=0
      00000007H   SYMBOL    DATA     BYTE      period
      0100F26CH   LINE      CODE     ---       #415
      0100F26CH   LINE      CODE     ---       #416
      0100F26CH   LINE      CODE     ---       #418
      0100F279H   LINE      CODE     ---       #422
      ---         BLOCKEND  ---      ---       LVL=0

      ---         MODULE    ---      ---       WATCHDOG_ENABLER
      0100F489H   PUBLIC    CODE     ---       _WATCHDOG_ENABLER_Write

      0100F489H   BLOCK     CODE     ---       LVL=0
      00000007H   SYMBOL    DATA     BYTE      control
      0100F489H   LINE      CODE     ---       #37
      0100F489H   LINE      CODE     ---       #38
      0100F489H   LINE      CODE     ---       #39
LX51 LINKER/LOCATER V4.64.0.0                                                         04/06/2018  15:41:10  PAGE 134


      0100F48EH   LINE      CODE     ---       #40
      ---         BLOCKEND  ---      ---       LVL=0

      ---         MODULE    ---      ---       WATCHDOG_REFRESH
      0100F48FH   PUBLIC    CODE     ---       _WATCHDOG_REFRESH_Write

      0100F48FH   BLOCK     CODE     ---       LVL=0
      00000007H   SYMBOL    DATA     BYTE      control
      0100F48FH   LINE      CODE     ---       #37
      0100F48FH   LINE      CODE     ---       #38
      0100F48FH   LINE      CODE     ---       #39
      0100F494H   LINE      CODE     ---       #40
      ---         BLOCKEND  ---      ---       LVL=0

      ---         MODULE    ---      ---       CYDMAC
      0100DF41H   PUBLIC    CODE     ---       _CyDmaTdSetAddress
      02000002H   PUBLIC    XDATA    BYTE      ?_CyDmaTdSetConfiguration?BYTE
      0100D82FH   PUBLIC    CODE     ---       _CyDmaTdSetConfiguration
      0100E911H   PUBLIC    CODE     ---       CyDmaTdAllocate
      02000008H   PUBLIC    XDATA    BYTE      ?_CyDmaChSetConfiguration?BYTE
      0100DE50H   PUBLIC    CODE     ---       _CyDmaChSetConfiguration
      0100EF56H   PUBLIC    CODE     ---       _CyDmaChSetInitialTd
      0100DEC9H   PUBLIC    CODE     ---       _CyDmaChSetExtendedAddress
      0100E8D1H   PUBLIC    CODE     ---       _CyDmaChPriority
      0100E6A2H   PUBLIC    CODE     ---       _CyDmaChEnable
      0100EAB1H   PUBLIC    CODE     ---       CyDmacConfigure
      000000CAH   SFRSYM    DATA     BYTE      SFRPRT5SEL
      000000DAH   SFRSYM    DATA     BYTE      SFRPRT6SEL
      000000D0H.6 SFRSYM    DATA     BIT       AC
      000000A8H.7 SFRSYM    DATA     BIT       EA
      000000A8H   SFRSYM    DATA     BYTE      IE
      00000085H   SFRSYM    DATA     BYTE      DPH1
      00000084H   SFRSYM    DATA     BYTE      DPL1
      000000D0H.7 SFRSYM    DATA     BIT       CY
      000000A0H   SFRSYM    DATA     BYTE      P2AX
      00000095H   SFRSYM    DATA     BYTE      DPX1
      00000081H   SFRSYM    DATA     BYTE      SP
      000000D0H.2 SFRSYM    DATA     BIT       OV
      00000080H   SFRSYM    DATA     BYTE      SFRPRT0DR
      00000090H   SFRSYM    DATA     BYTE      SFRPRT1DR
      000000F2H   SFRSYM    DATA     BYTE      SFRPRT12SEL
      00000098H   SFRSYM    DATA     BYTE      SFRPRT2DR
      000000B0H   SFRSYM    DATA     BYTE      SFRPRT3DR
      000000C0H   SFRSYM    DATA     BYTE      SFRPRT4DR
      000000FAH   SFRSYM    DATA     BYTE      SFRPRT15SEL
      000000C8H   SFRSYM    DATA     BYTE      SFRPRT5DR
      000000D8H   SFRSYM    DATA     BYTE      SFRPRT6DR
      00000089H   SFRSYM    DATA     BYTE      SFRPRT0PS
      00000091H   SFRSYM    DATA     BYTE      SFRPRT1PS
      00000099H   SFRSYM    DATA     BYTE      SFRPRT2PS
      000000B1H   SFRSYM    DATA     BYTE      SFRPRT3PS
      000000C1H   SFRSYM    DATA     BYTE      SFRPRT4PS
      000000C9H   SFRSYM    DATA     BYTE      SFRPRT5PS
      000000D9H   SFRSYM    DATA     BYTE      SFRPRT6PS
      000000EAH   SFRSYM    DATA     BYTE      MXAX
      000000F0H   SFRSYM    DATA     BYTE      B
      000000E0H   SFRSYM    DATA     BYTE      ACC
      000000D0H   SFRSYM    DATA     BIT       P
      000000D0H.3 SFRSYM    DATA     BIT       RS0
      000000D0H.4 SFRSYM    DATA     BIT       RS1
      00000083H   SFRSYM    DATA     BYTE      DPH
      000000E8H   SFRSYM    DATA     BYTE      SFRPRT12DR
      00000082H   SFRSYM    DATA     BYTE      DPL
      000000F8H   SFRSYM    DATA     BYTE      SFRPRT15DR
      00000086H   SFRSYM    DATA     BYTE      DPS
LX51 LINKER/LOCATER V4.64.0.0                                                         04/06/2018  15:41:10  PAGE 135


      000000E9H   SFRSYM    DATA     BYTE      SFRPRT12PS
      00000093H   SFRSYM    DATA     BYTE      DPX
      000000F9H   SFRSYM    DATA     BYTE      SFRPRT15PS
      000000D0H.5 SFRSYM    DATA     BIT       F0
      000000D0H.1 SFRSYM    DATA     BIT       F1
      0000008AH   SFRSYM    DATA     BYTE      SFRPRT0SEL
      000000D0H   SFRSYM    DATA     BYTE      PSW
      000000A2H   SFRSYM    DATA     BYTE      SFRPRT1SEL
      0000009AH   SFRSYM    DATA     BYTE      SFRPRT2SEL
      000000B2H   SFRSYM    DATA     BYTE      SFRPRT3SEL
      000000C2H   SFRSYM    DATA     BYTE      SFRPRT4SEL
      020013E5H   SYMBOL    XDATA    DWORD     CyDmaChannels
      020013E9H   SYMBOL    XDATA    BYTE      CyDmaTdFreeIndex
      020013EAH   SYMBOL    XDATA    BYTE      CyDmaTdCurrentNumber

      0100EAB1H   BLOCK     CODE     ---       LVL=0
      0100EAB1H   BLOCK     CODE     NEAR LAB  LVL=1
      00000007H   SYMBOL    DATA     BYTE      dmaIndex
      ---         BLOCKEND  ---      ---       LVL=1
      0100EAB1H   LINE      CODE     ---       #53
      0100EAB1H   LINE      CODE     ---       #54
      0100EAB1H   LINE      CODE     ---       #58
      0100EAB7H   LINE      CODE     ---       #59
      0100EABAH   LINE      CODE     ---       #62
      0100EABFH   LINE      CODE     ---       #63
      0100EABFH   LINE      CODE     ---       #64
      0100EAD2H   LINE      CODE     ---       #65
      0100EAD5H   LINE      CODE     ---       #68
      0100EAE6H   LINE      CODE     ---       #69
      ---         BLOCKEND  ---      ---       LVL=0
      00000007H   SYMBOL    DATA     BYTE      error

      0100E6A2H   BLOCK     CODE     ---       LVL=0
      00000007H   SYMBOL    DATA     BYTE      chHandle
      00000005H   SYMBOL    DATA     BYTE      preserveTds
      0100E6A2H   BLOCK     CODE     NEAR LAB  LVL=1
      00000006H   SYMBOL    DATA     BYTE      status
      ---         BLOCKEND  ---      ---       LVL=1
      0100E6A2H   LINE      CODE     ---       #269
      0100E6A2H   LINE      CODE     ---       #270
      0100E6A2H   LINE      CODE     ---       #271
      0100E6A4H   LINE      CODE     ---       #273
      0100E6AAH   LINE      CODE     ---       #274
      0100E6AAH   LINE      CODE     ---       #275
      0100E6ADH   LINE      CODE     ---       #276
      0100E6ADH   LINE      CODE     ---       #280
      0100E6C0H   LINE      CODE     ---       #281
      0100E6C2H   LINE      CODE     ---       #283
      0100E6C2H   LINE      CODE     ---       #285
      0100E6D5H   LINE      CODE     ---       #286
      0100E6D5H   LINE      CODE     ---       #289
      0100E6E8H   LINE      CODE     ---       #291
      0100E6EAH   LINE      CODE     ---       #292
      0100E6EAH   LINE      CODE     ---       #294
      0100E6ECH   LINE      CODE     ---       #295
      ---         BLOCKEND  ---      ---       LVL=0
      00000007H   SYMBOL    DATA     BYTE      chHandle
      00000006H   SYMBOL    DATA     BYTE      status
      00000007H   SYMBOL    DATA     BYTE      chHandle
      00000006H   SYMBOL    DATA     BYTE      status

      0100E8D1H   BLOCK     CODE     ---       LVL=0
      00000004H   SYMBOL    DATA     BYTE      chHandle
      00000005H   SYMBOL    DATA     BYTE      priority
      0100E8D3H   BLOCK     CODE     NEAR LAB  LVL=1
LX51 LINKER/LOCATER V4.64.0.0                                                         04/06/2018  15:41:10  PAGE 136


      00000002H   SYMBOL    DATA     BYTE      value
      00000003H   SYMBOL    DATA     BYTE      status
      ---         BLOCKEND  ---      ---       LVL=1
      0100E8D1H   LINE      CODE     ---       #383
      0100E8D3H   LINE      CODE     ---       #384
      0100E8D3H   LINE      CODE     ---       #386
      0100E8D5H   LINE      CODE     ---       #388
      0100E8DBH   LINE      CODE     ---       #389
      0100E8DBH   LINE      CODE     ---       #390
      0100E8EEH   LINE      CODE     ---       #392
      0100E90CH   LINE      CODE     ---       #394
      0100E90EH   LINE      CODE     ---       #395
      0100E90EH   LINE      CODE     ---       #397
      0100E910H   LINE      CODE     ---       #398
      ---         BLOCKEND  ---      ---       LVL=0

      0100DEC9H   BLOCK     CODE     ---       LVL=0
      02000008H   SYMBOL    XDATA    BYTE      chHandle
      02000009H   SYMBOL    XDATA    WORD      source
      0200000BH   SYMBOL    XDATA    WORD      destination
      0100DEDCH   BLOCK     CODE     NEAR LAB  LVL=1
      0200000DH   SYMBOL    XDATA    BYTE      status
      0200000EH   SYMBOL    XDATA    ---       convert
      ---         BLOCKEND  ---      ---       LVL=1
      0100DEC9H   LINE      CODE     ---       #419
      0100DEDCH   LINE      CODE     ---       #421
      0100DEDCH   LINE      CODE     ---       #422
      0100DEE2H   LINE      CODE     ---       #441
      0100DEE8H   LINE      CODE     ---       #442
      0100DEE8H   LINE      CODE     ---       #444
      0100DEFFH   LINE      CODE     ---       #445
      0100DF0FH   LINE      CODE     ---       #448
      0100DF26H   LINE      CODE     ---       #449
      0100DF36H   LINE      CODE     ---       #450
      0100DF3BH   LINE      CODE     ---       #451
      0100DF3BH   LINE      CODE     ---       #453
      0100DF40H   LINE      CODE     ---       #454
      ---         BLOCKEND  ---      ---       LVL=0

      0100EF56H   BLOCK     CODE     ---       LVL=0
      00000007H   SYMBOL    DATA     BYTE      chHandle
      00000005H   SYMBOL    DATA     BYTE      startTd
      0100EF56H   BLOCK     CODE     NEAR LAB  LVL=1
      00000006H   SYMBOL    DATA     BYTE      status
      ---         BLOCKEND  ---      ---       LVL=1
      0100EF56H   LINE      CODE     ---       #474
      0100EF56H   LINE      CODE     ---       #475
      0100EF56H   LINE      CODE     ---       #476
      0100EF58H   LINE      CODE     ---       #478
      0100EF5EH   LINE      CODE     ---       #479
      0100EF5EH   LINE      CODE     ---       #480
      0100EF6FH   LINE      CODE     ---       #481
      0100EF71H   LINE      CODE     ---       #482
      0100EF71H   LINE      CODE     ---       #484
      0100EF73H   LINE      CODE     ---       #485
      ---         BLOCKEND  ---      ---       LVL=0
      00000007H   SYMBOL    DATA     BYTE      chHandle
      00000005H   SYMBOL    DATA     BYTE      request
      00000006H   SYMBOL    DATA     BYTE      status
      00000007H   SYMBOL    DATA     BYTE      chHandle
      00000003H   SYMBOL    DATA     BYTE      status
      00000007H   SYMBOL    DATA     BYTE      chHandle
      00000006H   SYMBOL    DATA     BYTE      status

      0100DE50H   BLOCK     CODE     ---       LVL=0
LX51 LINKER/LOCATER V4.64.0.0                                                         04/06/2018  15:41:10  PAGE 137


      00000004H   SYMBOL    DATA     BYTE      chHandle
      00000005H   SYMBOL    DATA     BYTE      burstCount
      00000003H   SYMBOL    DATA     BYTE      requestPerBurst
      0200000BH   SYMBOL    XDATA    BYTE      tdDone0
      0200000CH   SYMBOL    XDATA    BYTE      tdDone1
      0200000DH   SYMBOL    XDATA    BYTE      tdStop
      0100DE52H   BLOCK     CODE     NEAR LAB  LVL=1
      00000002H   SYMBOL    DATA     BYTE      status
      ---         BLOCKEND  ---      ---       LVL=1
      0100DE50H   LINE      CODE     ---       #647
      0100DE52H   LINE      CODE     ---       #649
      0100DE52H   LINE      CODE     ---       #650
      0100DE54H   LINE      CODE     ---       #652
      0100DE5AH   LINE      CODE     ---       #653
      0100DE5AH   LINE      CODE     ---       #654
      0100DE78H   LINE      CODE     ---       #655
      0100DE9CH   LINE      CODE     ---       #656
      0100DEB4H   LINE      CODE     ---       #657
      0100DEC5H   LINE      CODE     ---       #659
      0100DEC6H   LINE      CODE     ---       #660
      0100DEC6H   LINE      CODE     ---       #662
      0100DEC8H   LINE      CODE     ---       #663
      ---         BLOCKEND  ---      ---       LVL=0

      0100E911H   BLOCK     CODE     ---       LVL=0
      0100E911H   BLOCK     CODE     NEAR LAB  LVL=1
      00000007H   SYMBOL    DATA     BYTE      interruptState
      02000002H   SYMBOL    XDATA    BYTE      element
      ---         BLOCKEND  ---      ---       LVL=1
      0100E911H   LINE      CODE     ---       #679
      0100E911H   LINE      CODE     ---       #680
      0100E911H   LINE      CODE     ---       #682
      0100E917H   LINE      CODE     ---       #685
      0100E91AH   LINE      CODE     ---       #687
      0100E923H   LINE      CODE     ---       #688
      0100E923H   LINE      CODE     ---       #690
      0100E92CH   LINE      CODE     ---       #693
      0100E932H   LINE      CODE     ---       #696
      0100E946H   LINE      CODE     ---       #697
      0100E946H   LINE      CODE     ---       #700
      0100E949H   LINE      CODE     ---       #702
      0100E94EH   LINE      CODE     ---       #703
      ---         BLOCKEND  ---      ---       LVL=0

      0100D82FH   BLOCK     CODE     ---       LVL=0
      02000002H   SYMBOL    XDATA    BYTE      tdHandle
      02000003H   SYMBOL    XDATA    WORD      transferCount
      02000005H   SYMBOL    XDATA    BYTE      nextTd
      02000006H   SYMBOL    XDATA    BYTE      configuration
      0100D83FH   BLOCK     CODE     NEAR LAB  LVL=1
      02000007H   SYMBOL    XDATA    BYTE      status
      0100D854H   BLOCK     CODE     NEAR LAB  LVL=2
      02000008H   SYMBOL    XDATA    ---       convert
      ---         BLOCKEND  ---      ---       LVL=2
      ---         BLOCKEND  ---      ---       LVL=1
      0100D82FH   LINE      CODE     ---       #807
      0100D83FH   LINE      CODE     ---       #809
      0100D83FH   LINE      CODE     ---       #810
      0100D845H   LINE      CODE     ---       #812
      0100D854H   LINE      CODE     ---       #813
      0100D854H   LINE      CODE     ---       #815
      0100D86BH   LINE      CODE     ---       #816
      0100D87BH   LINE      CODE     ---       #819
      0100D895H   LINE      CODE     ---       #822
      0100D8ABH   LINE      CODE     ---       #824
LX51 LINKER/LOCATER V4.64.0.0                                                         04/06/2018  15:41:10  PAGE 138


      0100D8B0H   LINE      CODE     ---       #825
      0100D8B0H   LINE      CODE     ---       #827
      0100D8B5H   LINE      CODE     ---       #828
      ---         BLOCKEND  ---      ---       LVL=0

      0100DF41H   BLOCK     CODE     ---       LVL=0
      02000002H   SYMBOL    XDATA    BYTE      tdHandle
      02000003H   SYMBOL    XDATA    WORD      source
      02000005H   SYMBOL    XDATA    WORD      destination
      0100DF54H   BLOCK     CODE     NEAR LAB  LVL=1
      02000007H   SYMBOL    XDATA    BYTE      status
      02000008H   SYMBOL    XDATA    ---       convert
      ---         BLOCKEND  ---      ---       LVL=1
      0100DF41H   LINE      CODE     ---       #922
      0100DF54H   LINE      CODE     ---       #923
      0100DF54H   LINE      CODE     ---       #924
      0100DF5AH   LINE      CODE     ---       #927
      0100DF60H   LINE      CODE     ---       #928
      0100DF60H   LINE      CODE     ---       #930
      0100DF77H   LINE      CODE     ---       #931
      0100DF87H   LINE      CODE     ---       #934
      0100DF9EH   LINE      CODE     ---       #935
      0100DFAEH   LINE      CODE     ---       #937
      0100DFB3H   LINE      CODE     ---       #938
      0100DFB3H   LINE      CODE     ---       #940
      0100DFB8H   LINE      CODE     ---       #941
      ---         BLOCKEND  ---      ---       LVL=0
      00000007H   SYMBOL    DATA     BYTE      chHandle
      00000005H   SYMBOL    DATA     BYTE      enableRR
      00000006H   SYMBOL    DATA     BYTE      status

      ---         MODULE    ---      ---       CYFLASH
      020013EEH   PUBLIC    XDATA    ---       dieTemperature
      0100EC6EH   PUBLIC    CODE     ---       CyEEPROM_Start
      0100EFDDH   PUBLIC    CODE     ---       CySetTemp
      000000CAH   SFRSYM    DATA     BYTE      SFRPRT5SEL
      000000DAH   SFRSYM    DATA     BYTE      SFRPRT6SEL
      000000D0H.6 SFRSYM    DATA     BIT       AC
      000000A8H.7 SFRSYM    DATA     BIT       EA
      000000A8H   SFRSYM    DATA     BYTE      IE
      00000085H   SFRSYM    DATA     BYTE      DPH1
      00000084H   SFRSYM    DATA     BYTE      DPL1
      000000D0H.7 SFRSYM    DATA     BIT       CY
      000000A0H   SFRSYM    DATA     BYTE      P2AX
      00000095H   SFRSYM    DATA     BYTE      DPX1
      00000081H   SFRSYM    DATA     BYTE      SP
      000000D0H.2 SFRSYM    DATA     BIT       OV
      00000080H   SFRSYM    DATA     BYTE      SFRPRT0DR
      00000090H   SFRSYM    DATA     BYTE      SFRPRT1DR
      000000F2H   SFRSYM    DATA     BYTE      SFRPRT12SEL
      00000098H   SFRSYM    DATA     BYTE      SFRPRT2DR
      000000B0H   SFRSYM    DATA     BYTE      SFRPRT3DR
      000000C0H   SFRSYM    DATA     BYTE      SFRPRT4DR
      000000FAH   SFRSYM    DATA     BYTE      SFRPRT15SEL
      000000C8H   SFRSYM    DATA     BYTE      SFRPRT5DR
      000000D8H   SFRSYM    DATA     BYTE      SFRPRT6DR
      00000089H   SFRSYM    DATA     BYTE      SFRPRT0PS
      00000091H   SFRSYM    DATA     BYTE      SFRPRT1PS
      00000099H   SFRSYM    DATA     BYTE      SFRPRT2PS
      000000B1H   SFRSYM    DATA     BYTE      SFRPRT3PS
      000000C1H   SFRSYM    DATA     BYTE      SFRPRT4PS
      000000C9H   SFRSYM    DATA     BYTE      SFRPRT5PS
      000000D9H   SFRSYM    DATA     BYTE      SFRPRT6PS
      000000EAH   SFRSYM    DATA     BYTE      MXAX
      000000F0H   SFRSYM    DATA     BYTE      B
LX51 LINKER/LOCATER V4.64.0.0                                                         04/06/2018  15:41:10  PAGE 139


      000000E0H   SFRSYM    DATA     BYTE      ACC
      000000D0H   SFRSYM    DATA     BIT       P
      000000D0H.3 SFRSYM    DATA     BIT       RS0
      000000D0H.4 SFRSYM    DATA     BIT       RS1
      00000083H   SFRSYM    DATA     BYTE      DPH
      000000E8H   SFRSYM    DATA     BYTE      SFRPRT12DR
      00000082H   SFRSYM    DATA     BYTE      DPL
      000000F8H   SFRSYM    DATA     BYTE      SFRPRT15DR
      00000086H   SFRSYM    DATA     BYTE      DPS
      000000E9H   SFRSYM    DATA     BYTE      SFRPRT12PS
      00000093H   SFRSYM    DATA     BYTE      DPX
      000000F9H   SFRSYM    DATA     BYTE      SFRPRT15PS
      000000D0H.5 SFRSYM    DATA     BIT       F0
      000000D0H.1 SFRSYM    DATA     BIT       F1
      0000008AH   SFRSYM    DATA     BYTE      SFRPRT0SEL
      000000D0H   SFRSYM    DATA     BYTE      PSW
      000000A2H   SFRSYM    DATA     BYTE      SFRPRT1SEL
      0000009AH   SFRSYM    DATA     BYTE      SFRPRT2SEL
      000000B2H   SFRSYM    DATA     BYTE      SFRPRT3SEL
      000000C2H   SFRSYM    DATA     BYTE      SFRPRT4SEL
      0100E5B6H   SYMBOL    CODE     ---       CyFlashGetSpcAlgorithm
      0100E4B8H   SYMBOL    CODE     ---       CySetTempInt
      020013EBH   SYMBOL    XDATA    ---       rowBuffer
      00000007H   SYMBOL    DATA     BYTE      interruptState
      00000007H   SYMBOL    DATA     BYTE      interruptState

      0100E4B8H   BLOCK     CODE     ---       LVL=0
      0100E4B8H   BLOCK     CODE     NEAR LAB  LVL=1
      02000038H   SYMBOL    XDATA    BYTE      status
      ---         BLOCKEND  ---      ---       LVL=1
      0100E4B8H   LINE      CODE     ---       #135
      0100E4B8H   LINE      CODE     ---       #136
      0100E4B8H   LINE      CODE     ---       #140
      0100E4BBH   LINE      CODE     ---       #143
      0100E4C1H   LINE      CODE     ---       #145
      0100E4C7H   LINE      CODE     ---       #146
      0100E4C7H   LINE      CODE     ---       #148
      0100E4D1H   LINE      CODE     ---       #149
      0100E4D1H   LINE      CODE     ---       #151
      0100E4D1H   LINE      CODE     ---       #152
      0100E4E0H   LINE      CODE     ---       #153
      0100E4E0H   LINE      CODE     ---       #154
      0100E4E5H   LINE      CODE     ---       #156
      0100E4EDH   LINE      CODE     ---       #157
      0100E4EDH   LINE      CODE     ---       #159
      0100E4F3H   LINE      CODE     ---       #160
      0100E4F5H   LINE      CODE     ---       #161
      0100E4F5H   LINE      CODE     ---       #162
      0100E4F5H   LINE      CODE     ---       #164
      0100E4FDH   LINE      CODE     ---       #165
      0100E4FDH   LINE      CODE     ---       #167
      0100E500H   LINE      CODE     ---       #168
      0100E502H   LINE      CODE     ---       #170
      0100E502H   LINE      CODE     ---       #171
      0100E508H   LINE      CODE     ---       #172
      0100E508H   LINE      CODE     ---       #174
      0100E50DH   LINE      CODE     ---       #175
      ---         BLOCKEND  ---      ---       LVL=0

      0100E5B6H   BLOCK     CODE     ---       LVL=0
      0100E5B6H   BLOCK     CODE     NEAR LAB  LVL=1
      02000038H   SYMBOL    XDATA    BYTE      status
      ---         BLOCKEND  ---      ---       LVL=1
      0100E5B6H   LINE      CODE     ---       #191
      0100E5B6H   LINE      CODE     ---       #192
LX51 LINKER/LOCATER V4.64.0.0                                                         04/06/2018  15:41:10  PAGE 140


      0100E5B6H   LINE      CODE     ---       #196
      0100E5B9H   LINE      CODE     ---       #198
      0100E5BFH   LINE      CODE     ---       #199
      0100E5BFH   LINE      CODE     ---       #200
      0100E5C7H   LINE      CODE     ---       #202
      0100E5CBH   LINE      CODE     ---       #203
      0100E5CBH   LINE      CODE     ---       #204
      0100E5D3H   LINE      CODE     ---       #205
      0100E5D3H   LINE      CODE     ---       #207
      0100E5D9H   LINE      CODE     ---       #208
      0100E5DBH   LINE      CODE     ---       #210
      0100E5F1H   LINE      CODE     ---       #211
      0100E5F1H   LINE      CODE     ---       #212
      0100E5F5H   LINE      CODE     ---       #213
      0100E5F5H   LINE      CODE     ---       #214
      0100E5F5H   LINE      CODE     ---       #215
      0100E5F8H   LINE      CODE     ---       #216
      0100E5FAH   LINE      CODE     ---       #218
      0100E5FAH   LINE      CODE     ---       #219
      0100E600H   LINE      CODE     ---       #220
      0100E600H   LINE      CODE     ---       #222
      0100E605H   LINE      CODE     ---       #223
      ---         BLOCKEND  ---      ---       LVL=0

      0100EFDDH   BLOCK     CODE     ---       LVL=0
      0100EFDDH   BLOCK     CODE     NEAR LAB  LVL=1
      02000037H   SYMBOL    XDATA    BYTE      status
      ---         BLOCKEND  ---      ---       LVL=1
      0100EFDDH   LINE      CODE     ---       #245
      0100EFDDH   LINE      CODE     ---       #246
      0100EFDDH   LINE      CODE     ---       #247
      0100EFE5H   LINE      CODE     ---       #249
      0100EFE7H   LINE      CODE     ---       #250
      0100EFE7H   LINE      CODE     ---       #251
      0100EFEFH   LINE      CODE     ---       #252
      0100EFEFH   LINE      CODE     ---       #254
      0100EFF4H   LINE      CODE     ---       #255
      ---         BLOCKEND  ---      ---       LVL=0
      00000004H   SYMBOL    DATA     WORD      rowAddress
      00000001H   SYMBOL    DATA     ---       rowData
      00000007H   SYMBOL    DATA     BYTE      status
      00000007H   SYMBOL    DATA     BYTE      interruptState

      0100EC6EH   BLOCK     CODE     ---       LVL=0
      0100EC6EH   BLOCK     CODE     NEAR LAB  LVL=1
      00000007H   SYMBOL    DATA     BYTE      interruptState
      ---         BLOCKEND  ---      ---       LVL=1
      0100EC6EH   LINE      CODE     ---       #588
      0100EC6EH   LINE      CODE     ---       #589
      0100EC6EH   LINE      CODE     ---       #592
      0100EC71H   LINE      CODE     ---       #599
      0100EC78H   LINE      CODE     ---       #600
      0100EC7FH   LINE      CODE     ---       #613
      0100EC85H   LINE      CODE     ---       #620
      0100EC8CH   LINE      CODE     ---       #621
      0100EC93H   LINE      CODE     ---       #623
      0100EC9BH   LINE      CODE     ---       #624
      0100EC9BH   LINE      CODE     ---       #626
      0100EC9BH   LINE      CODE     ---       #628
      0100EC9EH   LINE      CODE     ---       #629
      ---         BLOCKEND  ---      ---       LVL=0
      00000007H   SYMBOL    DATA     BYTE      interruptState

      ---         MODULE    ---      ---       CYLIB
      020013E1H   PUBLIC    XDATA    DWORD     cydelay_32k_ms
LX51 LINKER/LOCATER V4.64.0.0                                                         04/06/2018  15:41:10  PAGE 141


      020013E0H   PUBLIC    XDATA    BYTE      CyResetStatus
      020013DCH   PUBLIC    XDATA    DWORD     cydelay_freq_hz
      020013DBH   PUBLIC    XDATA    BYTE      cydelay_freq_mhz
      020013D7H   PUBLIC    XDATA    DWORD     cydelay_freq_khz
      0100EFABH   PUBLIC    CODE     ---       _CyIntSetPriority
      0100E50EH   PUBLIC    CODE     ---       _CyIntSetVector
      0100ECCFH   PUBLIC    CODE     ---       CyIntInitVectors
      0100F4C0H   PUBLIC    CODE     ---       IntDefaultHandler
      0100D7A7H   PUBLIC    CODE     ---       _?CyDelay
      0100F3A4H   PUBLIC    CODE     ---       CySoftwareReset
      000000CAH   SFRSYM    DATA     BYTE      SFRPRT5SEL
      000000DAH   SFRSYM    DATA     BYTE      SFRPRT6SEL
      000000D0H.6 SFRSYM    DATA     BIT       AC
      000000A8H.7 SFRSYM    DATA     BIT       EA
      000000A8H   SFRSYM    DATA     BYTE      IE
      00000085H   SFRSYM    DATA     BYTE      DPH1
      00000084H   SFRSYM    DATA     BYTE      DPL1
      000000D0H.7 SFRSYM    DATA     BIT       CY
      000000A0H   SFRSYM    DATA     BYTE      P2AX
      00000095H   SFRSYM    DATA     BYTE      DPX1
      00000081H   SFRSYM    DATA     BYTE      SP
      000000D0H.2 SFRSYM    DATA     BIT       OV
      00000080H   SFRSYM    DATA     BYTE      SFRPRT0DR
      00000090H   SFRSYM    DATA     BYTE      SFRPRT1DR
      000000F2H   SFRSYM    DATA     BYTE      SFRPRT12SEL
      00000098H   SFRSYM    DATA     BYTE      SFRPRT2DR
      000000B0H   SFRSYM    DATA     BYTE      SFRPRT3DR
      000000C0H   SFRSYM    DATA     BYTE      SFRPRT4DR
      000000FAH   SFRSYM    DATA     BYTE      SFRPRT15SEL
      000000C8H   SFRSYM    DATA     BYTE      SFRPRT5DR
      000000D8H   SFRSYM    DATA     BYTE      SFRPRT6DR
      00000089H   SFRSYM    DATA     BYTE      SFRPRT0PS
      00000091H   SFRSYM    DATA     BYTE      SFRPRT1PS
      00000099H   SFRSYM    DATA     BYTE      SFRPRT2PS
      000000B1H   SFRSYM    DATA     BYTE      SFRPRT3PS
      000000C1H   SFRSYM    DATA     BYTE      SFRPRT4PS
      000000C9H   SFRSYM    DATA     BYTE      SFRPRT5PS
      000000D9H   SFRSYM    DATA     BYTE      SFRPRT6PS
      000000EAH   SFRSYM    DATA     BYTE      MXAX
      000000F0H   SFRSYM    DATA     BYTE      B
      000000E0H   SFRSYM    DATA     BYTE      ACC
      000000D0H   SFRSYM    DATA     BIT       P
      000000D0H.3 SFRSYM    DATA     BIT       RS0
      000000D0H.4 SFRSYM    DATA     BIT       RS1
      00000083H   SFRSYM    DATA     BYTE      DPH
      000000E8H   SFRSYM    DATA     BYTE      SFRPRT12DR
      00000082H   SFRSYM    DATA     BYTE      DPL
      000000F8H   SFRSYM    DATA     BYTE      SFRPRT15DR
      00000086H   SFRSYM    DATA     BYTE      DPS
      000000E9H   SFRSYM    DATA     BYTE      SFRPRT12PS
      00000093H   SFRSYM    DATA     BYTE      DPX
      000000F9H   SFRSYM    DATA     BYTE      SFRPRT15PS
      000000D0H.5 SFRSYM    DATA     BIT       F0
      000000D0H.1 SFRSYM    DATA     BIT       F1
      0000008AH   SFRSYM    DATA     BYTE      SFRPRT0SEL
      000000D0H   SFRSYM    DATA     BYTE      PSW
      000000A2H   SFRSYM    DATA     BYTE      SFRPRT1SEL
      0000009AH   SFRSYM    DATA     BYTE      SFRPRT2SEL
      000000B2H   SFRSYM    DATA     BYTE      SFRPRT3SEL
      000000C2H   SFRSYM    DATA     BYTE      SFRPRT4SEL
      00000007H   SYMBOL    DATA     BYTE      wait
      00000007H   SYMBOL    DATA     BYTE      pDiv
      00000005H   SYMBOL    DATA     BYTE      qDiv
      00000003H   SYMBOL    DATA     BYTE      current
      00000007H   SYMBOL    DATA     BYTE      source
LX51 LINKER/LOCATER V4.64.0.0                                                         04/06/2018  15:41:10  PAGE 142


      00000007H   SYMBOL    DATA     BYTE      wait
      00000007H   SYMBOL    DATA     BYTE      poweredOn
      00000006H   SYMBOL    DATA     BYTE      freq
      00000007H   SYMBOL    DATA     BYTE      source
      00000007H   SYMBOL    DATA     BYTE      source
      00000007H   SYMBOL    DATA     BYTE      divider
      00000006H   SYMBOL    DATA     WORD      divider
      00000005H   SYMBOL    DATA     BYTE      masterClkDiv
      00000006H   SYMBOL    DATA     WORD      busClkDiv
      00000001H   SYMBOL    DATA     BYTE      interruptState
      00000007H   SYMBOL    DATA     BYTE      divider
      00000007H   SYMBOL    DATA     BYTE      source
      00000007H   SYMBOL    DATA     BYTE      source
      00000007H   SYMBOL    DATA     BYTE      mode
      00000006H   SYMBOL    DATA     BYTE      state
      00000007H   SYMBOL    DATA     BYTE      mode
      00000007H   SYMBOL    DATA     BYTE      wait
      00000007H   SYMBOL    DATA     BYTE      setting
      00000007H   SYMBOL    DATA     BYTE      setting
      00000007H   SYMBOL    DATA     BYTE      setting
      00000000H   SYMBOL    XSTK     BYTE      reason

      0100F3A4H   BLOCK     CODE     ---       LVL=0
      0100F3A4H   LINE      CODE     ---       #1438
      0100F3A4H   LINE      CODE     ---       #1439
      0100F3A4H   LINE      CODE     ---       #1440
      0100F3ABH   LINE      CODE     ---       #1441
      ---         BLOCKEND  ---      ---       LVL=0

      0100D7A7H   BLOCK     CODE     ---       LVL=0
      00000000H   SYMBOL    XSTK     DWORD     milliseconds
      0100D7A7H   LINE      CODE     ---       #1459
      0100D7B0H   LINE      CODE     ---       #1461
      0100D7C6H   LINE      CODE     ---       #1462
      0100D7C6H   LINE      CODE     ---       #1467
      0100D7D7H   LINE      CODE     ---       #1468
      0100D801H   LINE      CODE     ---       #1469
      0100D803H   LINE      CODE     ---       #1471
      0100D828H   LINE      CODE     ---       #1472
      ---         BLOCKEND  ---      ---       LVL=0
      00000000H   SYMBOL    XSTK     DWORD     freq
      00000007H   SYMBOL    DATA     BYTE      ticks
      00000005H   SYMBOL    DATA     BYTE      lpMode
      020013D6H   SYMBOL    XDATA    BYTE      interruptStatus
      00000005H   SYMBOL    DATA     BYTE      interruptState
      00000005H   SYMBOL    DATA     BYTE      interruptState
      00000003H   SYMBOL    DATA     BYTE      interruptState

      0100F4C0H   BLOCK     CODE     ---       LVL=0
      0100F4C0H   LINE      CODE     ---       #2304
      0100F4C0H   LINE      CODE     ---       #2310
      0100F4C0H   LINE      CODE     ---       #2311
      0100F4C0H   LINE      CODE     ---       #2316
      ---         BLOCKEND  ---      ---       LVL=0

      0100ECCFH   BLOCK     CODE     ---       LVL=0
      0100ECCFH   BLOCK     CODE     NEAR LAB  LVL=1
      02000000H   SYMBOL    XDATA    BYTE      i
      ---         BLOCKEND  ---      ---       LVL=1
      0100ECCFH   LINE      CODE     ---       #2328
      0100ECCFH   LINE      CODE     ---       #2329
      0100ECCFH   LINE      CODE     ---       #2332
      0100ECDEH   LINE      CODE     ---       #2333
      0100ECDEH   LINE      CODE     ---       #2334
      0100ECF6H   LINE      CODE     ---       #2335
LX51 LINKER/LOCATER V4.64.0.0                                                         04/06/2018  15:41:10  PAGE 143


      0100ECFEH   LINE      CODE     ---       #2336
      ---         BLOCKEND  ---      ---       LVL=0

      0100E50EH   BLOCK     CODE     ---       LVL=0
      02000002H   SYMBOL    XDATA    BYTE      number
      02000003H   SYMBOL    XDATA    ---       address
      0100E51BH   BLOCK     CODE     NEAR LAB  LVL=1
      02000005H   SYMBOL    XDATA    ---       oldIsr
      ---         BLOCKEND  ---      ---       LVL=1
      0100E50EH   LINE      CODE     ---       #2352
      0100E51BH   LINE      CODE     ---       #2353
      0100E51BH   LINE      CODE     ---       #2359
      0100E539H   LINE      CODE     ---       #2363
      0100E559H   LINE      CODE     ---       #2365
      0100E561H   LINE      CODE     ---       #2366
      ---         BLOCKEND  ---      ---       LVL=0
      00000007H   SYMBOL    DATA     BYTE      number

      0100EFABH   BLOCK     CODE     ---       LVL=0
      00000004H   SYMBOL    DATA     BYTE      number
      00000005H   SYMBOL    DATA     BYTE      priority
      0100EFABH   LINE      CODE     ---       #2400
      0100EFADH   LINE      CODE     ---       #2401
      0100EFADH   LINE      CODE     ---       #2406
      0100EFC3H   LINE      CODE     ---       #2408
      ---         BLOCKEND  ---      ---       LVL=0
      00000007H   SYMBOL    DATA     BYTE      number
      00000007H   SYMBOL    DATA     BYTE      priority
      00000005H   SYMBOL    DATA     BYTE      number
      00000006H   SYMBOL    DATA     ---       stateReg

      ---         MODULE    ---      ---       LED_BLINK
      020013FFH   PUBLIC    XDATA    BYTE      LED_BLINK_initVar
      0100F4A1H   PUBLIC    CODE     ---       _LED_BLINK_WriteCompare
      0100F49BH   PUBLIC    CODE     ---       _LED_BLINK_WritePeriod
      0100F495H   PUBLIC    CODE     ---       _LED_BLINK_WriteCounter
      0100F3ACH   PUBLIC    CODE     ---       LED_BLINK_Enable
      0100EE97H   PUBLIC    CODE     ---       LED_BLINK_Init
      0100F160H   PUBLIC    CODE     ---       LED_BLINK_Start
      000000CAH   SFRSYM    DATA     BYTE      SFRPRT5SEL
      000000DAH   SFRSYM    DATA     BYTE      SFRPRT6SEL
      000000D0H.6 SFRSYM    DATA     BIT       AC
      000000A8H.7 SFRSYM    DATA     BIT       EA
      000000A8H   SFRSYM    DATA     BYTE      IE
      00000085H   SFRSYM    DATA     BYTE      DPH1
      00000084H   SFRSYM    DATA     BYTE      DPL1
      000000D0H.7 SFRSYM    DATA     BIT       CY
      000000A0H   SFRSYM    DATA     BYTE      P2AX
      00000095H   SFRSYM    DATA     BYTE      DPX1
      00000081H   SFRSYM    DATA     BYTE      SP
      000000D0H.2 SFRSYM    DATA     BIT       OV
      00000080H   SFRSYM    DATA     BYTE      SFRPRT0DR
      00000090H   SFRSYM    DATA     BYTE      SFRPRT1DR
      000000F2H   SFRSYM    DATA     BYTE      SFRPRT12SEL
      00000098H   SFRSYM    DATA     BYTE      SFRPRT2DR
      000000B0H   SFRSYM    DATA     BYTE      SFRPRT3DR
      000000C0H   SFRSYM    DATA     BYTE      SFRPRT4DR
      000000FAH   SFRSYM    DATA     BYTE      SFRPRT15SEL
      000000C8H   SFRSYM    DATA     BYTE      SFRPRT5DR
      000000D8H   SFRSYM    DATA     BYTE      SFRPRT6DR
      00000089H   SFRSYM    DATA     BYTE      SFRPRT0PS
      00000091H   SFRSYM    DATA     BYTE      SFRPRT1PS
      00000099H   SFRSYM    DATA     BYTE      SFRPRT2PS
      000000B1H   SFRSYM    DATA     BYTE      SFRPRT3PS
      000000C1H   SFRSYM    DATA     BYTE      SFRPRT4PS
LX51 LINKER/LOCATER V4.64.0.0                                                         04/06/2018  15:41:10  PAGE 144


      000000C9H   SFRSYM    DATA     BYTE      SFRPRT5PS
      000000D9H   SFRSYM    DATA     BYTE      SFRPRT6PS
      000000EAH   SFRSYM    DATA     BYTE      MXAX
      000000F0H   SFRSYM    DATA     BYTE      B
      000000E0H   SFRSYM    DATA     BYTE      ACC
      000000D0H   SFRSYM    DATA     BIT       P
      000000D0H.3 SFRSYM    DATA     BIT       RS0
      000000D0H.4 SFRSYM    DATA     BIT       RS1
      00000083H   SFRSYM    DATA     BYTE      DPH
      000000E8H   SFRSYM    DATA     BYTE      SFRPRT12DR
      00000082H   SFRSYM    DATA     BYTE      DPL
      000000F8H   SFRSYM    DATA     BYTE      SFRPRT15DR
      00000086H   SFRSYM    DATA     BYTE      DPS
      000000E9H   SFRSYM    DATA     BYTE      SFRPRT12PS
      00000093H   SFRSYM    DATA     BYTE      DPX
      000000F9H   SFRSYM    DATA     BYTE      SFRPRT15PS
      000000D0H.5 SFRSYM    DATA     BIT       F0
      000000D0H.1 SFRSYM    DATA     BIT       F1
      0000008AH   SFRSYM    DATA     BYTE      SFRPRT0SEL
      000000D0H   SFRSYM    DATA     BYTE      PSW
      000000A2H   SFRSYM    DATA     BYTE      SFRPRT1SEL
      0000009AH   SFRSYM    DATA     BYTE      SFRPRT2SEL
      000000B2H   SFRSYM    DATA     BYTE      SFRPRT3SEL
      000000C2H   SFRSYM    DATA     BYTE      SFRPRT4SEL

      0100F160H   BLOCK     CODE     ---       LVL=0
      0100F160H   LINE      CODE     ---       #55
      0100F160H   LINE      CODE     ---       #56
      0100F160H   LINE      CODE     ---       #58
      0100F166H   LINE      CODE     ---       #59
      0100F166H   LINE      CODE     ---       #60
      0100F169H   LINE      CODE     ---       #61
      0100F16FH   LINE      CODE     ---       #62
      0100F16FH   LINE      CODE     ---       #63
      0100F172H   LINE      CODE     ---       #65
      ---         BLOCKEND  ---      ---       LVL=0

      0100EE97H   BLOCK     CODE     ---       LVL=0
      0100EE97H   BLOCK     CODE     NEAR LAB  LVL=1
      00000007H   SYMBOL    DATA     BYTE      ctrl
      ---         BLOCKEND  ---      ---       LVL=1
      0100EE97H   LINE      CODE     ---       #84
      0100EE97H   LINE      CODE     ---       #85
      0100EE97H   LINE      CODE     ---       #118
      0100EE9EH   LINE      CODE     ---       #120
      0100EEA1H   LINE      CODE     ---       #126
      0100EEA8H   LINE      CODE     ---       #133
      0100EEADH   LINE      CODE     ---       #136
      0100EEB2H   LINE      CODE     ---       #139
      0100EEB7H   LINE      CODE     ---       #179
      ---         BLOCKEND  ---      ---       LVL=0

      0100F3ACH   BLOCK     CODE     ---       LVL=0
      0100F3ACH   LINE      CODE     ---       #199
      0100F3ACH   LINE      CODE     ---       #200
      0100F3ACH   LINE      CODE     ---       #209
      0100F3B3H   LINE      CODE     ---       #211
      ---         BLOCKEND  ---      ---       LVL=0

      0100F495H   BLOCK     CODE     ---       LVL=0
      00000007H   SYMBOL    DATA     BYTE      counter
      0100F495H   LINE      CODE     ---       #403
      0100F495H   LINE      CODE     ---       #405
      0100F495H   LINE      CODE     ---       #406
      0100F49AH   LINE      CODE     ---       #407
LX51 LINKER/LOCATER V4.64.0.0                                                         04/06/2018  15:41:10  PAGE 145


      ---         BLOCKEND  ---      ---       LVL=0

      0100F49BH   BLOCK     CODE     ---       LVL=0
      00000007H   SYMBOL    DATA     BYTE      period
      0100F49BH   LINE      CODE     ---       #482
      0100F49BH   LINE      CODE     ---       #483
      0100F49BH   LINE      CODE     ---       #487
      0100F4A0H   LINE      CODE     ---       #489
      ---         BLOCKEND  ---      ---       LVL=0

      0100F4A1H   BLOCK     CODE     ---       LVL=0
      00000007H   SYMBOL    DATA     BYTE      compare
      0100F4A1H   LINE      CODE     ---       #516
      0100F4A1H   LINE      CODE     ---       #518
      0100F4A1H   LINE      CODE     ---       #522
      0100F4A6H   LINE      CODE     ---       #532
      ---         BLOCKEND  ---      ---       LVL=0
      00000007H   SYMBOL    DATA     BYTE      result
      00000007H   SYMBOL    DATA     BYTE      control

      ---         MODULE    ---      ---       LED_CTRL
      0100F4A7H   PUBLIC    CODE     ---       _LED_CTRL_Write

      0100F4A7H   BLOCK     CODE     ---       LVL=0
      00000007H   SYMBOL    DATA     BYTE      control
      0100F4A7H   LINE      CODE     ---       #37
      0100F4A7H   LINE      CODE     ---       #38
      0100F4A7H   LINE      CODE     ---       #39
      0100F4ACH   LINE      CODE     ---       #40
      ---         BLOCKEND  ---      ---       LVL=0

      ---         MODULE    ---      ---       LED_BLINK_EN
      0100F4ADH   PUBLIC    CODE     ---       _LED_BLINK_EN_Write

      0100F4ADH   BLOCK     CODE     ---       LVL=0
      00000007H   SYMBOL    DATA     BYTE      control
      0100F4ADH   LINE      CODE     ---       #37
      0100F4ADH   LINE      CODE     ---       #38
      0100F4ADH   LINE      CODE     ---       #39
      0100F4B2H   LINE      CODE     ---       #40
      ---         BLOCKEND  ---      ---       LVL=0

      ---         MODULE    ---      ---       CYBOOTASMKEIL
      0100F04EH   PUBLIC    CODE     NEAR LAB  CyEnterCriticalSection
      0100EB00H   PUBLIC    CODE     NEAR LAB  _CyDelayCycles
      0100ED5CH   PUBLIC    CODE     NEAR LAB  _CyDelayUs
      0100EFF5H   PUBLIC    CODE     NEAR LAB  _CyExitCriticalSection

      ---         MODULE    ---      ---       CYMEM
      02000005H   PUBLIC    XDATA    BYTE      ?_cyconfigcpy?BYTE
      0100EBA4H   PUBLIC    CODE     NEAR LAB  _cyconfigcpy
      0100EE2DH   PUBLIC    CODE     NEAR LAB  _cyconfigcpycode
      0100F1ECH   PUBLIC    CODE     NEAR LAB  _cyread16
      0100F1EEH   PUBLIC    CODE     NEAR LAB  _cyread16_nodpx
      0100F173H   PUBLIC    CODE     NEAR LAB  _cyread24
      0100F175H   PUBLIC    CODE     NEAR LAB  _cyread24_nodpx
      0100F2BBH   PUBLIC    CODE     NEAR LAB  _cyread8
      0100F2BDH   PUBLIC    CODE     NEAR LAB  _cyread8_nodpx
      0100F1FBH   PUBLIC    CODE     NEAR LAB  _cywrite16
      0100F1FDH   PUBLIC    CODE     NEAR LAB  _cywrite16_nodpx
      0100F198H   PUBLIC    CODE     NEAR LAB  _cywrite24
      0100F19AH   PUBLIC    CODE     NEAR LAB  _cywrite24_nodpx
      0100F2C7H   PUBLIC    CODE     NEAR LAB  _cywrite8
      0100F2C9H   PUBLIC    CODE     NEAR LAB  _cywrite8_nodpx

LX51 LINKER/LOCATER V4.64.0.0                                                         04/06/2018  15:41:10  PAGE 146


      ---         MODULE    ---      ---       ?C_STARTUP
      00000000H   PUBLIC    NUMBER   ---       ?C?XPAGE1RST
      00000093H   PUBLIC    DATA     BYTE      ?C?XPAGE1SFR
      01002600H   PUBLIC    CODE     NEAR LAB  ?C_STARTUP
      0100CA65H   PUBLIC    CODE     NEAR LAB  STARTUP1
      01002604H   PUBLIC    CODE     NEAR LAB  _dma_wait

      ---         MODULE    ---      ---       UART_RS485_INT
      0100D3FCH   PUBLIC    CODE     ---       UART_RS485_RXISR
      000000CAH   SFRSYM    DATA     BYTE      SFRPRT5SEL
      000000DAH   SFRSYM    DATA     BYTE      SFRPRT6SEL
      000000D0H.6 SFRSYM    DATA     BIT       AC
      000000A8H.7 SFRSYM    DATA     BIT       EA
      000000A8H   SFRSYM    DATA     BYTE      IE
      00000085H   SFRSYM    DATA     BYTE      DPH1
      00000084H   SFRSYM    DATA     BYTE      DPL1
      000000D0H.7 SFRSYM    DATA     BIT       CY
      000000A0H   SFRSYM    DATA     BYTE      P2AX
      00000095H   SFRSYM    DATA     BYTE      DPX1
      00000081H   SFRSYM    DATA     BYTE      SP
      000000D0H.2 SFRSYM    DATA     BIT       OV
      00000080H   SFRSYM    DATA     BYTE      SFRPRT0DR
      00000090H   SFRSYM    DATA     BYTE      SFRPRT1DR
      000000F2H   SFRSYM    DATA     BYTE      SFRPRT12SEL
      00000098H   SFRSYM    DATA     BYTE      SFRPRT2DR
      000000B0H   SFRSYM    DATA     BYTE      SFRPRT3DR
      000000C0H   SFRSYM    DATA     BYTE      SFRPRT4DR
      000000FAH   SFRSYM    DATA     BYTE      SFRPRT15SEL
      000000C8H   SFRSYM    DATA     BYTE      SFRPRT5DR
      000000D8H   SFRSYM    DATA     BYTE      SFRPRT6DR
      00000089H   SFRSYM    DATA     BYTE      SFRPRT0PS
      00000091H   SFRSYM    DATA     BYTE      SFRPRT1PS
      00000099H   SFRSYM    DATA     BYTE      SFRPRT2PS
      000000B1H   SFRSYM    DATA     BYTE      SFRPRT3PS
      000000C1H   SFRSYM    DATA     BYTE      SFRPRT4PS
      000000C9H   SFRSYM    DATA     BYTE      SFRPRT5PS
      000000D9H   SFRSYM    DATA     BYTE      SFRPRT6PS
      000000EAH   SFRSYM    DATA     BYTE      MXAX
      000000F0H   SFRSYM    DATA     BYTE      B
      000000E0H   SFRSYM    DATA     BYTE      ACC
      000000D0H   SFRSYM    DATA     BIT       P
      000000D0H.3 SFRSYM    DATA     BIT       RS0
      000000D0H.4 SFRSYM    DATA     BIT       RS1
      00000083H   SFRSYM    DATA     BYTE      DPH
      000000E8H   SFRSYM    DATA     BYTE      SFRPRT12DR
      00000082H   SFRSYM    DATA     BYTE      DPL
      000000F8H   SFRSYM    DATA     BYTE      SFRPRT15DR
      00000086H   SFRSYM    DATA     BYTE      DPS
      000000E9H   SFRSYM    DATA     BYTE      SFRPRT12PS
      00000093H   SFRSYM    DATA     BYTE      DPX
      000000F9H   SFRSYM    DATA     BYTE      SFRPRT15PS
      000000D0H.5 SFRSYM    DATA     BIT       F0
      000000D0H.1 SFRSYM    DATA     BIT       F1
      0000008AH   SFRSYM    DATA     BYTE      SFRPRT0SEL
      000000D0H   SFRSYM    DATA     BYTE      PSW
      000000A2H   SFRSYM    DATA     BYTE      SFRPRT1SEL
      0000009AH   SFRSYM    DATA     BYTE      SFRPRT2SEL
      000000B2H   SFRSYM    DATA     BYTE      SFRPRT3SEL
      000000C2H   SFRSYM    DATA     BYTE      SFRPRT4SEL

      0100D3FCH   BLOCK     CODE     ---       LVL=0
      0100D41FH   BLOCK     CODE     NEAR LAB  LVL=1
      00000006H   SYMBOL    DATA     BYTE      readData
      00000007H   SYMBOL    DATA     BYTE      readStatus
      00000003H   SYMBOL    DATA     BYTE      increment_pointer
LX51 LINKER/LOCATER V4.64.0.0                                                         04/06/2018  15:41:10  PAGE 147


      00000002H   SYMBOL    DATA     BYTE      int_en
      ---         BLOCKEND  ---      ---       LVL=1
      0100D3FCH   LINE      CODE     ---       #59
      0100D41FH   LINE      CODE     ---       #63
      0100D421H   LINE      CODE     ---       #79
      0100D425H   LINE      CODE     ---       #80
      0100D42DH   LINE      CODE     ---       #84
      0100D42DH   LINE      CODE     ---       #86
      0100D432H   LINE      CODE     ---       #90
      0100D433H   LINE      CODE     ---       #95
      0100D438H   LINE      CODE     ---       #96
      0100D438H   LINE      CODE     ---       #101
      0100D43EH   LINE      CODE     ---       #109
      0100D43EH   LINE      CODE     ---       #111
      0100D442H   LINE      CODE     ---       #112
      0100D442H   LINE      CODE     ---       #114
      0100D447H   LINE      CODE     ---       #141
      0100D456H   LINE      CODE     ---       #142
      0100D458H   LINE      CODE     ---       #146
      0100D45BH   LINE      CODE     ---       #147
      0100D45BH   LINE      CODE     ---       #148
      0100D461H   LINE      CODE     ---       #149
      0100D461H   LINE      CODE     ---       #150
      0100D467H   LINE      CODE     ---       #151
      0100D467H   LINE      CODE     ---       #153
      0100D46DH   LINE      CODE     ---       #156
      0100D473H   LINE      CODE     ---       #157
      0100D473H   LINE      CODE     ---       #158
      0100D475H   LINE      CODE     ---       #159
      0100D475H   LINE      CODE     ---       #162
      0100D481H   LINE      CODE     ---       #163
      0100D481H   LINE      CODE     ---       #164
      0100D487H   LINE      CODE     ---       #172
      0100D487H   LINE      CODE     ---       #173
      0100D487H   LINE      CODE     ---       #174
      0100D487H   LINE      CODE     ---       #175
      0100D48BH   LINE      CODE     ---       #187
      0100D492H   LINE      CODE     ---       #189
      ---         BLOCKEND  ---      ---       LVL=0

      ---         MODULE    ---      ---       ADC_INT
      0100F4C8H   PUBLIC    CODE     ---       ADC_ISR4
      0100F4C7H   PUBLIC    CODE     ---       ADC_ISR3
      0100F4C6H   PUBLIC    CODE     ---       ADC_ISR2
      0100F4C5H   PUBLIC    CODE     ---       ADC_ISR1
      000000CAH   SFRSYM    DATA     BYTE      SFRPRT5SEL
      000000DAH   SFRSYM    DATA     BYTE      SFRPRT6SEL
      000000D0H.6 SFRSYM    DATA     BIT       AC
      000000A8H.7 SFRSYM    DATA     BIT       EA
      000000A8H   SFRSYM    DATA     BYTE      IE
      00000085H   SFRSYM    DATA     BYTE      DPH1
      00000084H   SFRSYM    DATA     BYTE      DPL1
      000000D0H.7 SFRSYM    DATA     BIT       CY
      000000A0H   SFRSYM    DATA     BYTE      P2AX
      00000095H   SFRSYM    DATA     BYTE      DPX1
      00000081H   SFRSYM    DATA     BYTE      SP
      000000D0H.2 SFRSYM    DATA     BIT       OV
      00000080H   SFRSYM    DATA     BYTE      SFRPRT0DR
      00000090H   SFRSYM    DATA     BYTE      SFRPRT1DR
      000000F2H   SFRSYM    DATA     BYTE      SFRPRT12SEL
      00000098H   SFRSYM    DATA     BYTE      SFRPRT2DR
      000000B0H   SFRSYM    DATA     BYTE      SFRPRT3DR
      000000C0H   SFRSYM    DATA     BYTE      SFRPRT4DR
      000000FAH   SFRSYM    DATA     BYTE      SFRPRT15SEL
      000000C8H   SFRSYM    DATA     BYTE      SFRPRT5DR
LX51 LINKER/LOCATER V4.64.0.0                                                         04/06/2018  15:41:10  PAGE 148


      000000D8H   SFRSYM    DATA     BYTE      SFRPRT6DR
      00000089H   SFRSYM    DATA     BYTE      SFRPRT0PS
      00000091H   SFRSYM    DATA     BYTE      SFRPRT1PS
      00000099H   SFRSYM    DATA     BYTE      SFRPRT2PS
      000000B1H   SFRSYM    DATA     BYTE      SFRPRT3PS
      000000C1H   SFRSYM    DATA     BYTE      SFRPRT4PS
      000000C9H   SFRSYM    DATA     BYTE      SFRPRT5PS
      000000D9H   SFRSYM    DATA     BYTE      SFRPRT6PS
      000000EAH   SFRSYM    DATA     BYTE      MXAX
      000000F0H   SFRSYM    DATA     BYTE      B
      000000E0H   SFRSYM    DATA     BYTE      ACC
      000000D0H   SFRSYM    DATA     BIT       P
      000000D0H.3 SFRSYM    DATA     BIT       RS0
      000000D0H.4 SFRSYM    DATA     BIT       RS1
      00000083H   SFRSYM    DATA     BYTE      DPH
      000000E8H   SFRSYM    DATA     BYTE      SFRPRT12DR
      00000082H   SFRSYM    DATA     BYTE      DPL
      000000F8H   SFRSYM    DATA     BYTE      SFRPRT15DR
      00000086H   SFRSYM    DATA     BYTE      DPS
      000000E9H   SFRSYM    DATA     BYTE      SFRPRT12PS
      00000093H   SFRSYM    DATA     BYTE      DPX
      000000F9H   SFRSYM    DATA     BYTE      SFRPRT15PS
      000000D0H.5 SFRSYM    DATA     BIT       F0
      000000D0H.1 SFRSYM    DATA     BIT       F1
      0000008AH   SFRSYM    DATA     BYTE      SFRPRT0SEL
      000000D0H   SFRSYM    DATA     BYTE      PSW
      000000A2H   SFRSYM    DATA     BYTE      SFRPRT1SEL
      0000009AH   SFRSYM    DATA     BYTE      SFRPRT2SEL
      000000B2H   SFRSYM    DATA     BYTE      SFRPRT3SEL
      000000C2H   SFRSYM    DATA     BYTE      SFRPRT4SEL

      0100F4C5H   BLOCK     CODE     ---       LVL=0
      0100F4C5H   LINE      CODE     ---       #51
      0100F4C5H   LINE      CODE     ---       #81
      ---         BLOCKEND  ---      ---       LVL=0

      0100F4C6H   BLOCK     CODE     ---       LVL=0
      0100F4C6H   LINE      CODE     ---       #101
      0100F4C6H   LINE      CODE     ---       #131
      ---         BLOCKEND  ---      ---       LVL=0

      0100F4C7H   BLOCK     CODE     ---       LVL=0
      0100F4C7H   LINE      CODE     ---       #151
      0100F4C7H   LINE      CODE     ---       #181
      ---         BLOCKEND  ---      ---       LVL=0

      0100F4C8H   BLOCK     CODE     ---       LVL=0
      0100F4C8H   LINE      CODE     ---       #201
      0100F4C8H   LINE      CODE     ---       #231
      ---         BLOCKEND  ---      ---       LVL=0

      ---         MODULE    ---      ---       ADC_AMUX
      0100EFC4H   PUBLIC    CODE     ---       _ADC_AMux_Select
      0100EEB8H   PUBLIC    CODE     ---       ADC_AMux_Start
      02001400H   SYMBOL    XDATA    BYTE      ADC_AMux_lastChannel

      0100EEB8H   BLOCK     CODE     ---       LVL=0
      0100EEB8H   BLOCK     CODE     NEAR LAB  LVL=1
      02000003H   SYMBOL    XDATA    BYTE      chan
      ---         BLOCKEND  ---      ---       LVL=1
      0100EEB8H   LINE      CODE     ---       #36
      0100EEB8H   LINE      CODE     ---       #37
      0100EEB8H   LINE      CODE     ---       #40
      0100EEC7H   LINE      CODE     ---       #41
      0100EEC7H   LINE      CODE     ---       #43
LX51 LINKER/LOCATER V4.64.0.0                                                         04/06/2018  15:41:10  PAGE 149


      0100EECAH   LINE      CODE     ---       #48
      0100EED2H   LINE      CODE     ---       #50
      0100EED8H   LINE      CODE     ---       #51
      ---         BLOCKEND  ---      ---       LVL=0

      0100EFC4H   BLOCK     CODE     ---       LVL=0
      02000002H   SYMBOL    XDATA    BYTE      channel
      0100EFC4H   LINE      CODE     ---       #69
      0100EFC9H   LINE      CODE     ---       #70
      0100EFC9H   LINE      CODE     ---       #71
      0100EFCCH   LINE      CODE     ---       #72
      0100EFD4H   LINE      CODE     ---       #73
      0100EFDCH   LINE      CODE     ---       #74
      ---         BLOCKEND  ---      ---       LVL=0

      ---         MODULE    ---      ---       ADC_EXT_CP_CLK
      0100F3B4H   PUBLIC    CODE     ---       ADC_Ext_CP_Clk_GetSourceRegister
      0100F2A1H   PUBLIC    CODE     ---       _ADC_Ext_CP_Clk_SetModeRegister
      0100F370H   PUBLIC    CODE     ---       ADC_Ext_CP_Clk_GetDividerRegister
      0100C476H   PUBLIC    CODE     ---       _ADC_Ext_CP_Clk_SetDividerRegister
      00000007H   SYMBOL    DATA     BYTE      state

      0100C476H   BLOCK     CODE     ---       LVL=0
      02000002H   SYMBOL    XDATA    WORD      clkDivider
      02000004H   SYMBOL    XDATA    BYTE      restart
      0100C481H   BLOCK     CODE     NEAR LAB  LVL=1
      02000005H   SYMBOL    XDATA    BYTE      enabled
      02000006H   SYMBOL    XDATA    BYTE      currSrc
      02000007H   SYMBOL    XDATA    WORD      oldDivider
      ---         BLOCKEND  ---      ---       LVL=1
      0100C476H   LINE      CODE     ---       #193
      0100C481H   LINE      CODE     ---       #195
      0100C481H   LINE      CODE     ---       #198
      0100C489H   LINE      CODE     ---       #199
      0100C494H   LINE      CODE     ---       #201
      0100C4A6H   LINE      CODE     ---       #202
      0100C4A6H   LINE      CODE     ---       #203
      0100C4B0H   LINE      CODE     ---       #205
      0100C4C1H   LINE      CODE     ---       #206
      0100C4C1H   LINE      CODE     ---       #208
      0100C4C5H   LINE      CODE     ---       #209
      0100C4C5H   LINE      CODE     ---       #213
      0100C4CEH   LINE      CODE     ---       #214
      0100C4D5H   LINE      CODE     ---       #215
      0100C4D6H   LINE      CODE     ---       #217
      0100C4D6H   LINE      CODE     ---       #220
      0100C4DDH   LINE      CODE     ---       #221
      0100C4EEH   LINE      CODE     ---       #222
      0100C4EEH   LINE      CODE     ---       #223
      0100C4EFH   LINE      CODE     ---       #225
      0100C4EFH   LINE      CODE     ---       #227
      0100C4F5H   LINE      CODE     ---       #228
      0100C4F5H   LINE      CODE     ---       #229
      0100C4FAH   LINE      CODE     ---       #236
      0100C500H   LINE      CODE     ---       #237
      0100C505H   LINE      CODE     ---       #240
      0100C50CH   LINE      CODE     ---       #243
      0100C51EH   LINE      CODE     ---       #244
      0100C51EH   LINE      CODE     ---       #246
      0100C52FH   LINE      CODE     ---       #247
      0100C535H   LINE      CODE     ---       #250
      0100C53DH   LINE      CODE     ---       #253
      0100C544H   LINE      CODE     ---       #257
      0100C549H   LINE      CODE     ---       #259
      0100C549H   LINE      CODE     ---       #260
LX51 LINKER/LOCATER V4.64.0.0                                                         04/06/2018  15:41:10  PAGE 150


      0100C549H   LINE      CODE     ---       #263
      0100C551H   LINE      CODE     ---       #264
      0100C551H   LINE      CODE     ---       #266
      0100C562H   LINE      CODE     ---       #268
      0100C575H   LINE      CODE     ---       #269
      0100C57FH   LINE      CODE     ---       #270
      0100C580H   LINE      CODE     ---       #272
      0100C580H   LINE      CODE     ---       #274
      0100C591H   LINE      CODE     ---       #275
      0100C5A6H   LINE      CODE     ---       #276
      0100C5A6H   LINE      CODE     ---       #277
      0100C5A6H   LINE      CODE     ---       #278
      0100C5A6H   LINE      CODE     ---       #279
      ---         BLOCKEND  ---      ---       LVL=0

      0100F370H   BLOCK     CODE     ---       LVL=0
      0100F370H   LINE      CODE     ---       #297
      0100F370H   LINE      CODE     ---       #298
      0100F370H   LINE      CODE     ---       #299
      0100F379H   LINE      CODE     ---       #300
      ---         BLOCKEND  ---      ---       LVL=0

      0100F2A1H   BLOCK     CODE     ---       LVL=0
      00000007H   SYMBOL    DATA     BYTE      modeBitMask
      0100F2A1H   LINE      CODE     ---       #332
      0100F2A1H   LINE      CODE     ---       #333
      0100F2A1H   LINE      CODE     ---       #334
      0100F2ADH   LINE      CODE     ---       #335
      ---         BLOCKEND  ---      ---       LVL=0
      00000007H   SYMBOL    DATA     BYTE      modeBitMask
      00000007H   SYMBOL    DATA     BYTE      oldSrc

      0100F3B4H   BLOCK     CODE     ---       LVL=0
      0100F3B4H   LINE      CODE     ---       #464
      0100F3B4H   LINE      CODE     ---       #465
      0100F3B4H   LINE      CODE     ---       #466
      0100F3BBH   LINE      CODE     ---       #467
      ---         BLOCKEND  ---      ---       LVL=0

      ---         MODULE    ---      ---       ADC_THEACLK
      0100F3BCH   PUBLIC    CODE     ---       ADC_theACLK_GetSourceRegister
      0100F2AEH   PUBLIC    CODE     ---       _ADC_theACLK_SetModeRegister
      0100F37AH   PUBLIC    CODE     ---       ADC_theACLK_GetDividerRegister
      0100C936H   PUBLIC    CODE     ---       _ADC_theACLK_SetDividerRegister
      00000007H   SYMBOL    DATA     BYTE      state

      0100C936H   BLOCK     CODE     ---       LVL=0
      02000002H   SYMBOL    XDATA    WORD      clkDivider
      02000004H   SYMBOL    XDATA    BYTE      restart
      0100C941H   BLOCK     CODE     NEAR LAB  LVL=1
      02000005H   SYMBOL    XDATA    BYTE      enabled
      02000006H   SYMBOL    XDATA    BYTE      currSrc
      02000007H   SYMBOL    XDATA    WORD      oldDivider
      ---         BLOCKEND  ---      ---       LVL=1
      0100C936H   LINE      CODE     ---       #193
      0100C941H   LINE      CODE     ---       #195
      0100C941H   LINE      CODE     ---       #198
      0100C949H   LINE      CODE     ---       #199
      0100C954H   LINE      CODE     ---       #201
      0100C966H   LINE      CODE     ---       #202
      0100C966H   LINE      CODE     ---       #203
      0100C970H   LINE      CODE     ---       #205
      0100C981H   LINE      CODE     ---       #206
      0100C981H   LINE      CODE     ---       #208
      0100C985H   LINE      CODE     ---       #209
LX51 LINKER/LOCATER V4.64.0.0                                                         04/06/2018  15:41:10  PAGE 151


      0100C985H   LINE      CODE     ---       #213
      0100C98DH   LINE      CODE     ---       #214
      0100C994H   LINE      CODE     ---       #215
      0100C995H   LINE      CODE     ---       #217
      0100C995H   LINE      CODE     ---       #220
      0100C99CH   LINE      CODE     ---       #221
      0100C9ADH   LINE      CODE     ---       #222
      0100C9ADH   LINE      CODE     ---       #223
      0100C9AEH   LINE      CODE     ---       #225
      0100C9AEH   LINE      CODE     ---       #227
      0100C9B4H   LINE      CODE     ---       #228
      0100C9B4H   LINE      CODE     ---       #229
      0100C9B9H   LINE      CODE     ---       #233
      0100C9BEH   LINE      CODE     ---       #234
      0100C9C3H   LINE      CODE     ---       #240
      0100C9CAH   LINE      CODE     ---       #243
      0100C9DCH   LINE      CODE     ---       #244
      0100C9DCH   LINE      CODE     ---       #246
      0100C9EDH   LINE      CODE     ---       #247
      0100C9F3H   LINE      CODE     ---       #250
      0100C9FBH   LINE      CODE     ---       #253
      0100CA02H   LINE      CODE     ---       #257
      0100CA07H   LINE      CODE     ---       #259
      0100CA07H   LINE      CODE     ---       #260
      0100CA07H   LINE      CODE     ---       #263
      0100CA0FH   LINE      CODE     ---       #264
      0100CA0FH   LINE      CODE     ---       #266
      0100CA20H   LINE      CODE     ---       #268
      0100CA33H   LINE      CODE     ---       #269
      0100CA3DH   LINE      CODE     ---       #270
      0100CA3EH   LINE      CODE     ---       #272
      0100CA3EH   LINE      CODE     ---       #274
      0100CA4FH   LINE      CODE     ---       #275
      0100CA64H   LINE      CODE     ---       #276
      0100CA64H   LINE      CODE     ---       #277
      0100CA64H   LINE      CODE     ---       #278
      0100CA64H   LINE      CODE     ---       #279
      ---         BLOCKEND  ---      ---       LVL=0

      0100F37AH   BLOCK     CODE     ---       LVL=0
      0100F37AH   LINE      CODE     ---       #297
      0100F37AH   LINE      CODE     ---       #298
      0100F37AH   LINE      CODE     ---       #299
      0100F383H   LINE      CODE     ---       #300
      ---         BLOCKEND  ---      ---       LVL=0

      0100F2AEH   BLOCK     CODE     ---       LVL=0
      00000007H   SYMBOL    DATA     BYTE      modeBitMask
      0100F2AEH   LINE      CODE     ---       #332
      0100F2AEH   LINE      CODE     ---       #333
      0100F2AEH   LINE      CODE     ---       #334
      0100F2BAH   LINE      CODE     ---       #335
      ---         BLOCKEND  ---      ---       LVL=0
      00000007H   SYMBOL    DATA     BYTE      modeBitMask
      00000007H   SYMBOL    DATA     BYTE      oldSrc

      0100F3BCH   BLOCK     CODE     ---       LVL=0
      0100F3BCH   LINE      CODE     ---       #464
      0100F3BCH   LINE      CODE     ---       #465
      0100F3BCH   LINE      CODE     ---       #466
      0100F3C3H   LINE      CODE     ---       #467
      ---         BLOCKEND  ---      ---       LVL=0
      00000007H   SYMBOL    DATA     BYTE      clkPhase

      ---         MODULE    ---      ---       CYPM
LX51 LINKER/LOCATER V4.64.0.0                                                         04/06/2018  15:41:10  PAGE 152


      000000CAH   SFRSYM    DATA     BYTE      SFRPRT5SEL
      000000DAH   SFRSYM    DATA     BYTE      SFRPRT6SEL
      000000D0H.6 SFRSYM    DATA     BIT       AC
      000000A8H.7 SFRSYM    DATA     BIT       EA
      000000A8H   SFRSYM    DATA     BYTE      IE
      00000085H   SFRSYM    DATA     BYTE      DPH1
      00000084H   SFRSYM    DATA     BYTE      DPL1
      000000D0H.7 SFRSYM    DATA     BIT       CY
      000000A0H   SFRSYM    DATA     BYTE      P2AX
      00000095H   SFRSYM    DATA     BYTE      DPX1
      00000081H   SFRSYM    DATA     BYTE      SP
      000000D0H.2 SFRSYM    DATA     BIT       OV
      00000080H   SFRSYM    DATA     BYTE      SFRPRT0DR
      00000090H   SFRSYM    DATA     BYTE      SFRPRT1DR
      000000F2H   SFRSYM    DATA     BYTE      SFRPRT12SEL
      00000098H   SFRSYM    DATA     BYTE      SFRPRT2DR
      000000B0H   SFRSYM    DATA     BYTE      SFRPRT3DR
      000000C0H   SFRSYM    DATA     BYTE      SFRPRT4DR
      000000FAH   SFRSYM    DATA     BYTE      SFRPRT15SEL
      000000C8H   SFRSYM    DATA     BYTE      SFRPRT5DR
      000000D8H   SFRSYM    DATA     BYTE      SFRPRT6DR
      00000089H   SFRSYM    DATA     BYTE      SFRPRT0PS
      00000091H   SFRSYM    DATA     BYTE      SFRPRT1PS
      00000099H   SFRSYM    DATA     BYTE      SFRPRT2PS
      000000B1H   SFRSYM    DATA     BYTE      SFRPRT3PS
      000000C1H   SFRSYM    DATA     BYTE      SFRPRT4PS
      000000C9H   SFRSYM    DATA     BYTE      SFRPRT5PS
      000000D9H   SFRSYM    DATA     BYTE      SFRPRT6PS
      000000EAH   SFRSYM    DATA     BYTE      MXAX
      000000F0H   SFRSYM    DATA     BYTE      B
      000000E0H   SFRSYM    DATA     BYTE      ACC
      000000D0H   SFRSYM    DATA     BIT       P
      000000D0H.3 SFRSYM    DATA     BIT       RS0
      000000D0H.4 SFRSYM    DATA     BIT       RS1
      00000083H   SFRSYM    DATA     BYTE      DPH
      000000E8H   SFRSYM    DATA     BYTE      SFRPRT12DR
      00000082H   SFRSYM    DATA     BYTE      DPL
      000000F8H   SFRSYM    DATA     BYTE      SFRPRT15DR
      00000086H   SFRSYM    DATA     BYTE      DPS
      000000E9H   SFRSYM    DATA     BYTE      SFRPRT12PS
      00000093H   SFRSYM    DATA     BYTE      DPX
      000000F9H   SFRSYM    DATA     BYTE      SFRPRT15PS
      000000D0H.5 SFRSYM    DATA     BIT       F0
      000000D0H.1 SFRSYM    DATA     BIT       F1
      0000008AH   SFRSYM    DATA     BYTE      SFRPRT0SEL
      000000D0H   SFRSYM    DATA     BYTE      PSW
      000000A2H   SFRSYM    DATA     BYTE      SFRPRT1SEL
      0000009AH   SFRSYM    DATA     BYTE      SFRPRT2SEL
      000000B2H   SFRSYM    DATA     BYTE      SFRPRT3SEL
      000000C2H   SFRSYM    DATA     BYTE      SFRPRT4SEL
      0200135DH   SYMBOL    XDATA    ---       cyPmClockBackup
      0200136DH   SYMBOL    XDATA    ---       cyPmBackup
      00000006H   SYMBOL    DATA     WORD      clkBusDivTmp
      0200135CH   SYMBOL    XDATA    BYTE      interruptStatus
      00000005H   SYMBOL    DATA     BYTE      interruptState

      ---         MODULE    ---      ---       CYSPC
      02001401H   PUBLIC    XDATA    BYTE      SpcLockState
      0100EF90H   PUBLIC    CODE     ---       CySpcGetAlgorithm
      0100F2D3H   PUBLIC    CODE     ---       CySpcUnlock
      0100EF37H   PUBLIC    CODE     ---       CySpcLock
      0100ED2EH   PUBLIC    CODE     ---       _CySpcGetTemp
      0200003CH   PUBLIC    XDATA    BYTE      ?_CySpcWriteRow?BYTE
      0100E562H   PUBLIC    CODE     ---       _CySpcWriteRow
      0200003CH   PUBLIC    XDATA    BYTE      ?_CySpcLoadRow?BYTE
LX51 LINKER/LOCATER V4.64.0.0                                                         04/06/2018  15:41:10  PAGE 153


      0100E18FH   PUBLIC    CODE     ---       _CySpcLoadRow
      0100E3A5H   PUBLIC    CODE     ---       _CySpcReadData
      0100F063H   PUBLIC    CODE     ---       CySpcStart
      000000CAH   SFRSYM    DATA     BYTE      SFRPRT5SEL
      000000DAH   SFRSYM    DATA     BYTE      SFRPRT6SEL
      000000D0H.6 SFRSYM    DATA     BIT       AC
      000000A8H.7 SFRSYM    DATA     BIT       EA
      000000A8H   SFRSYM    DATA     BYTE      IE
      00000085H   SFRSYM    DATA     BYTE      DPH1
      00000084H   SFRSYM    DATA     BYTE      DPL1
      000000D0H.7 SFRSYM    DATA     BIT       CY
      000000A0H   SFRSYM    DATA     BYTE      P2AX
      00000095H   SFRSYM    DATA     BYTE      DPX1
      00000081H   SFRSYM    DATA     BYTE      SP
      000000D0H.2 SFRSYM    DATA     BIT       OV
      00000080H   SFRSYM    DATA     BYTE      SFRPRT0DR
      00000090H   SFRSYM    DATA     BYTE      SFRPRT1DR
      000000F2H   SFRSYM    DATA     BYTE      SFRPRT12SEL
      00000098H   SFRSYM    DATA     BYTE      SFRPRT2DR
      000000B0H   SFRSYM    DATA     BYTE      SFRPRT3DR
      000000C0H   SFRSYM    DATA     BYTE      SFRPRT4DR
      000000FAH   SFRSYM    DATA     BYTE      SFRPRT15SEL
      000000C8H   SFRSYM    DATA     BYTE      SFRPRT5DR
      000000D8H   SFRSYM    DATA     BYTE      SFRPRT6DR
      00000089H   SFRSYM    DATA     BYTE      SFRPRT0PS
      00000091H   SFRSYM    DATA     BYTE      SFRPRT1PS
      00000099H   SFRSYM    DATA     BYTE      SFRPRT2PS
      000000B1H   SFRSYM    DATA     BYTE      SFRPRT3PS
      000000C1H   SFRSYM    DATA     BYTE      SFRPRT4PS
      000000C9H   SFRSYM    DATA     BYTE      SFRPRT5PS
      000000D9H   SFRSYM    DATA     BYTE      SFRPRT6PS
      000000EAH   SFRSYM    DATA     BYTE      MXAX
      000000F0H   SFRSYM    DATA     BYTE      B
      000000E0H   SFRSYM    DATA     BYTE      ACC
      000000D0H   SFRSYM    DATA     BIT       P
      000000D0H.3 SFRSYM    DATA     BIT       RS0
      000000D0H.4 SFRSYM    DATA     BIT       RS1
      00000083H   SFRSYM    DATA     BYTE      DPH
      000000E8H   SFRSYM    DATA     BYTE      SFRPRT12DR
      00000082H   SFRSYM    DATA     BYTE      DPL
      000000F8H   SFRSYM    DATA     BYTE      SFRPRT15DR
      00000086H   SFRSYM    DATA     BYTE      DPS
      000000E9H   SFRSYM    DATA     BYTE      SFRPRT12PS
      00000093H   SFRSYM    DATA     BYTE      DPX
      000000F9H   SFRSYM    DATA     BYTE      SFRPRT15PS
      000000D0H.5 SFRSYM    DATA     BIT       F0
      000000D0H.1 SFRSYM    DATA     BIT       F1
      0000008AH   SFRSYM    DATA     BYTE      SFRPRT0SEL
      000000D0H   SFRSYM    DATA     BYTE      PSW
      000000A2H   SFRSYM    DATA     BYTE      SFRPRT1SEL
      0000009AH   SFRSYM    DATA     BYTE      SFRPRT2SEL
      000000B2H   SFRSYM    DATA     BYTE      SFRPRT3SEL
      000000C2H   SFRSYM    DATA     BYTE      SFRPRT4SEL

      0100F063H   BLOCK     CODE     ---       LVL=0
      0100F063H   BLOCK     CODE     NEAR LAB  LVL=1
      00000007H   SYMBOL    DATA     BYTE      interruptState
      ---         BLOCKEND  ---      ---       LVL=1
      0100F063H   LINE      CODE     ---       #71
      0100F063H   LINE      CODE     ---       #72
      0100F063H   LINE      CODE     ---       #74
      0100F066H   LINE      CODE     ---       #76
      0100F06DH   LINE      CODE     ---       #77
      0100F074H   LINE      CODE     ---       #80
      0100F077H   LINE      CODE     ---       #81
LX51 LINKER/LOCATER V4.64.0.0                                                         04/06/2018  15:41:10  PAGE 154


      ---         BLOCKEND  ---      ---       LVL=0
      00000007H   SYMBOL    DATA     BYTE      interruptState

      0100E3A5H   BLOCK     CODE     ---       LVL=0
      02000039H   SYMBOL    XDATA    ---       buffer
      0200003CH   SYMBOL    XDATA    BYTE      size
      0100E3B3H   BLOCK     CODE     NEAR LAB  LVL=1
      0200003DH   SYMBOL    XDATA    BYTE      i
      ---         BLOCKEND  ---      ---       LVL=1
      0100E3A5H   LINE      CODE     ---       #119
      0100E3B3H   LINE      CODE     ---       #120
      0100E3B3H   LINE      CODE     ---       #123
      0100E3C1H   LINE      CODE     ---       #124
      0100E3C1H   LINE      CODE     ---       #125
      0100E3CFH   LINE      CODE     ---       #126
      0100E3CFH   LINE      CODE     ---       #127
      0100E3D6H   LINE      CODE     ---       #128
      0100E3D8H   LINE      CODE     ---       #129
      0100E3F7H   LINE      CODE     ---       #130
      0100E3FFH   LINE      CODE     ---       #132
      0100E404H   LINE      CODE     ---       #133
      ---         BLOCKEND  ---      ---       LVL=0
      00000005H   SYMBOL    DATA     BYTE      status
      00000007H   SYMBOL    DATA     BYTE      i

      0100E18FH   BLOCK     CODE     ---       LVL=0
      00000007H   SYMBOL    DATA     BYTE      array
      0200003DH   SYMBOL    XDATA    ---       buffer
      02000040H   SYMBOL    XDATA    WORD      size
      0100E19AH   BLOCK     CODE     NEAR LAB  LVL=1
      02000042H   SYMBOL    XDATA    BYTE      status
      00000006H   SYMBOL    DATA     WORD      i
      ---         BLOCKEND  ---      ---       LVL=1
      0100E18FH   LINE      CODE     ---       #238
      0100E19AH   LINE      CODE     ---       #239
      0100E19AH   LINE      CODE     ---       #240
      0100E1A0H   LINE      CODE     ---       #244
      0100E1A8H   LINE      CODE     ---       #245
      0100E1A8H   LINE      CODE     ---       #246
      0100E1AEH   LINE      CODE     ---       #247
      0100E1B1H   LINE      CODE     ---       #248
      0100E1B4H   LINE      CODE     ---       #251
      0100E1BCH   LINE      CODE     ---       #252
      0100E1BCH   LINE      CODE     ---       #253
      0100E1C1H   LINE      CODE     ---       #255
      0100E1D1H   LINE      CODE     ---       #256
      0100E1D1H   LINE      CODE     ---       #257
      0100E1E7H   LINE      CODE     ---       #258
      0100E1EEH   LINE      CODE     ---       #259
      0100E1EEH   LINE      CODE     ---       #261
      0100E1EEH   LINE      CODE     ---       #262
      0100E1F4H   LINE      CODE     ---       #263
      0100E1F4H   LINE      CODE     ---       #264
      0100E1F6H   LINE      CODE     ---       #266
      0100E1F6H   LINE      CODE     ---       #267
      0100E1FCH   LINE      CODE     ---       #268
      0100E1FCH   LINE      CODE     ---       #270
      0100E201H   LINE      CODE     ---       #271
      ---         BLOCKEND  ---      ---       LVL=0

      0100E562H   BLOCK     CODE     ---       LVL=0
      00000004H   SYMBOL    DATA     BYTE      array
      0200003DH   SYMBOL    XDATA    WORD      address
      00000003H   SYMBOL    DATA     BYTE      tempPolarity
      02000040H   SYMBOL    XDATA    BYTE      tempMagnitude
LX51 LINKER/LOCATER V4.64.0.0                                                         04/06/2018  15:41:10  PAGE 155


      0100E56CH   BLOCK     CODE     NEAR LAB  LVL=1
      00000005H   SYMBOL    DATA     BYTE      status
      ---         BLOCKEND  ---      ---       LVL=1
      0100E562H   LINE      CODE     ---       #440
      0100E56CH   LINE      CODE     ---       #442
      0100E56CH   LINE      CODE     ---       #443
      0100E56EH   LINE      CODE     ---       #446
      0100E576H   LINE      CODE     ---       #447
      0100E576H   LINE      CODE     ---       #448
      0100E57CH   LINE      CODE     ---       #449
      0100E57FH   LINE      CODE     ---       #450
      0100E582H   LINE      CODE     ---       #453
      0100E58AH   LINE      CODE     ---       #454
      0100E58AH   LINE      CODE     ---       #455
      0100E58FH   LINE      CODE     ---       #456
      0100E597H   LINE      CODE     ---       #457
      0100E5A1H   LINE      CODE     ---       #458
      0100E5A3H   LINE      CODE     ---       #459
      0100E5ABH   LINE      CODE     ---       #460
      0100E5ADH   LINE      CODE     ---       #462
      0100E5ADH   LINE      CODE     ---       #463
      0100E5AFH   LINE      CODE     ---       #464
      0100E5AFH   LINE      CODE     ---       #465
      0100E5B1H   LINE      CODE     ---       #467
      0100E5B1H   LINE      CODE     ---       #468
      0100E5B3H   LINE      CODE     ---       #469
      0100E5B3H   LINE      CODE     ---       #471
      0100E5B5H   LINE      CODE     ---       #472
      ---         BLOCKEND  ---      ---       LVL=0
      00000007H   SYMBOL    DATA     BYTE      array
      00000005H   SYMBOL    DATA     BYTE      sectorNumber
      00000006H   SYMBOL    DATA     BYTE      status

      0100ED2EH   BLOCK     CODE     ---       LVL=0
      00000007H   SYMBOL    DATA     BYTE      numSamples
      0100ED2EH   BLOCK     CODE     NEAR LAB  LVL=1
      00000006H   SYMBOL    DATA     BYTE      status
      ---         BLOCKEND  ---      ---       LVL=1
      0100ED2EH   LINE      CODE     ---       #545
      0100ED2EH   LINE      CODE     ---       #546
      0100ED2EH   LINE      CODE     ---       #547
      0100ED30H   LINE      CODE     ---       #550
      0100ED38H   LINE      CODE     ---       #551
      0100ED38H   LINE      CODE     ---       #552
      0100ED3EH   LINE      CODE     ---       #553
      0100ED41H   LINE      CODE     ---       #554
      0100ED44H   LINE      CODE     ---       #557
      0100ED4CH   LINE      CODE     ---       #558
      0100ED4CH   LINE      CODE     ---       #559
      0100ED51H   LINE      CODE     ---       #560
      0100ED53H   LINE      CODE     ---       #562
      0100ED53H   LINE      CODE     ---       #563
      0100ED55H   LINE      CODE     ---       #564
      0100ED55H   LINE      CODE     ---       #565
      0100ED57H   LINE      CODE     ---       #567
      0100ED57H   LINE      CODE     ---       #568
      0100ED59H   LINE      CODE     ---       #569
      0100ED59H   LINE      CODE     ---       #571
      0100ED5BH   LINE      CODE     ---       #572
      ---         BLOCKEND  ---      ---       LVL=0

      0100EF37H   BLOCK     CODE     ---       LVL=0
      0100EF37H   BLOCK     CODE     NEAR LAB  LVL=1
      0200003CH   SYMBOL    XDATA    BYTE      status
      00000007H   SYMBOL    DATA     BYTE      interruptState
LX51 LINKER/LOCATER V4.64.0.0                                                         04/06/2018  15:41:10  PAGE 156


      ---         BLOCKEND  ---      ---       LVL=1
      0100EF37H   LINE      CODE     ---       #586
      0100EF37H   LINE      CODE     ---       #587
      0100EF37H   LINE      CODE     ---       #588
      0100EF3DH   LINE      CODE     ---       #592
      0100EF40H   LINE      CODE     ---       #594
      0100EF46H   LINE      CODE     ---       #595
      0100EF46H   LINE      CODE     ---       #596
      0100EF48H   LINE      CODE     ---       #597
      0100EF4DH   LINE      CODE     ---       #615
      0100EF4DH   LINE      CODE     ---       #618
      0100EF50H   LINE      CODE     ---       #620
      0100EF55H   LINE      CODE     ---       #621
      ---         BLOCKEND  ---      ---       LVL=0

      0100F2D3H   BLOCK     CODE     ---       LVL=0
      0100F2D3H   BLOCK     CODE     NEAR LAB  LVL=1
      00000007H   SYMBOL    DATA     BYTE      interruptState
      ---         BLOCKEND  ---      ---       LVL=1
      0100F2D3H   LINE      CODE     ---       #631
      0100F2D3H   LINE      CODE     ---       #632
      0100F2D3H   LINE      CODE     ---       #636
      0100F2D6H   LINE      CODE     ---       #639
      0100F2DBH   LINE      CODE     ---       #659
      0100F2DEH   LINE      CODE     ---       #660
      ---         BLOCKEND  ---      ---       LVL=0

      0100EF90H   BLOCK     CODE     ---       LVL=0
      0100EF90H   BLOCK     CODE     NEAR LAB  LVL=1
      00000007H   SYMBOL    DATA     BYTE      status
      ---         BLOCKEND  ---      ---       LVL=1
      0100EF90H   LINE      CODE     ---       #673
      0100EF90H   LINE      CODE     ---       #674
      0100EF90H   LINE      CODE     ---       #675
      0100EF92H   LINE      CODE     ---       #678
      0100EF9AH   LINE      CODE     ---       #679
      0100EF9AH   LINE      CODE     ---       #680
      0100EFA0H   LINE      CODE     ---       #681
      0100EFA3H   LINE      CODE     ---       #682
      0100EFA6H   LINE      CODE     ---       #683
      0100EFA8H   LINE      CODE     ---       #685
      0100EFA8H   LINE      CODE     ---       #686
      0100EFAAH   LINE      CODE     ---       #687
      0100EFAAH   LINE      CODE     ---       #689
      0100EFAAH   LINE      CODE     ---       #690
      ---         BLOCKEND  ---      ---       LVL=0

      ---         MODULE    ---      ---       ?C?FPADD
      01008C39H   PUBLIC    CODE     ---       ?C?FPADD
      01008C35H   PUBLIC    CODE     ---       ?C?FPSUB

      ---         MODULE    ---      ---       ?C?FPMUL
      01008D2AH   PUBLIC    CODE     ---       ?C?FPMUL

      ---         MODULE    ---      ---       ?C?FPDIV
      01008E33H   PUBLIC    CODE     ---       ?C?FPDIV

      ---         MODULE    ---      ---       ?C?FPCMP
      01008ED2H   PUBLIC    CODE     ---       ?C?FPCMP
      01008ED0H   PUBLIC    CODE     ---       ?C?FPCMP3

      ---         MODULE    ---      ---       ?C?FCAST
      01008F53H   PUBLIC    CODE     ---       ?C?FCASTC
      01008F4EH   PUBLIC    CODE     ---       ?C?FCASTI
      01008F49H   PUBLIC    CODE     ---       ?C?FCASTL
LX51 LINKER/LOCATER V4.64.0.0                                                         04/06/2018  15:41:10  PAGE 157



      ---         MODULE    ---      ---       ?C?CASTF
      01008F87H   PUBLIC    CODE     ---       ?C?CASTF

      ---         MODULE    ---      ---       PRINTF
      0200072FH   PUBLIC    XDATA    ---       ?_PRINTF?BYTE
      0200072FH   PUBLIC    XDATA    ---       ?_SPRINTF?BYTE
      0100AF40H   PUBLIC    CODE     ---       _PRINTF
      0100AF3AH   PUBLIC    CODE     ---       _SPRINTF

      ---         MODULE    ---      ---       ?C?FPGETOPN
      01008FBEH   PUBLIC    CODE     ---       ?C?FPGETOPN2
      01008FF3H   PUBLIC    CODE     ---       ?C?FPNANRESULT
      01008FFDH   PUBLIC    CODE     ---       ?C?FPOVERFLOW
      01008FD5H   PUBLIC    CODE     ---       ?C?FPRESULT
      01008FE9H   PUBLIC    CODE     ---       ?C?FPRESULT2
      01008FFAH   PUBLIC    CODE     ---       ?C?FPUNDERFLOW

      ---         MODULE    ---      ---       ?C?FPROUND
      01009008H   PUBLIC    CODE     ---       ?C?FPROUND

      ---         MODULE    ---      ---       ?C?FPCONVERT
      01009045H   PUBLIC    CODE     ---       ?C?FPCONVERT

      ---         MODULE    ---      ---       ?C?FTNPWR
      0100917AH   PUBLIC    CODE     ---       ?C?FTNPWR

      ---         MODULE    ---      ---       ?C_INIT
      0100CB40H   PUBLIC    CODE     ---       ?C_START

      ---         MODULE    ---      ---       ?C?CLDPTR
      010091BAH   PUBLIC    CODE     ---       ?C?CLDPTR

      ---         MODULE    ---      ---       ?C?CLDOPTR
      010091D3H   PUBLIC    CODE     ---       ?C?CLDOPTR

      ---         MODULE    ---      ---       ?C?CSTPTR
      01009200H   PUBLIC    CODE     ---       ?C?CSTPTR

      ---         MODULE    ---      ---       ?C?IMUL
      01009212H   PUBLIC    CODE     ---       ?C?IMUL

      ---         MODULE    ---      ---       ?C?ISTPTR
      01009224H   PUBLIC    CODE     ---       ?C?ISTPTR

      ---         MODULE    ---      ---       ?C?LMUL
      01009243H   PUBLIC    CODE     ---       ?C?LMUL

      ---         MODULE    ---      ---       ?C?ULDIV
      010092CEH   PUBLIC    CODE     ---       ?C?ULDIV

      ---         MODULE    ---      ---       ?C?SLDIV
      0100E7C8H   PUBLIC    CODE     ---       ?C?SLDIV

      ---         MODULE    ---      ---       ?C?LNOT
      01009360H   PUBLIC    CODE     ---       ?C?LNOT

      ---         MODULE    ---      ---       ?C?LNEG
      0100936DH   PUBLIC    CODE     ---       ?C?LNEG

      ---         MODULE    ---      ---       ?C?SLCMP
      0100937BH   PUBLIC    CODE     ---       ?C?SLCMP

      ---         MODULE    ---      ---       ?C?ULCMP
      01009391H   PUBLIC    CODE     ---       ?C?ULCMP
LX51 LINKER/LOCATER V4.64.0.0                                                         04/06/2018  15:41:10  PAGE 158



      ---         MODULE    ---      ---       ?C?ULSHR
      010093A2H   PUBLIC    CODE     ---       ?C?ULSHR

      ---         MODULE    ---      ---       ?C?SLSHR
      010093B5H   PUBLIC    CODE     ---       ?C?SLSHR

      ---         MODULE    ---      ---       ?C?LSHL
      010093C9H   PUBLIC    CODE     ---       ?C?LSHL

      ---         MODULE    ---      ---       ?C?LLDPTR
      010093DCH   PUBLIC    CODE     ---       ?C?LLDPTR

      ---         MODULE    ---      ---       ?C?LSTPTR
      010093FCH   PUBLIC    CODE     ---       ?C?LSTPTR

      ---         MODULE    ---      ---       ?C?LSTXDATA
      01009416H   PUBLIC    CODE     ---       ?C?LSTXDATA

      ---         MODULE    ---      ---       ?C?PLDIXDATA
      01009422H   PUBLIC    CODE     ---       ?C?PLDIXDATA

      ---         MODULE    ---      ---       ?C?PSTXDATA
      01009439H   PUBLIC    CODE     ---       ?C?PSTXDATA

      ---         MODULE    ---      ---       ?C?CCASE
      01009442H   PUBLIC    CODE     ---       ?C?CCASE

      ---         MODULE    ---      ---       ?C_XBP
      00000073H   PUBLIC    DATA     ---       ?C_XBP

      ---         MODULE    ---      ---       ?C?ADDXBP
      01009468H   PUBLIC    CODE     ---       ?C?ADDXBP

      ---         MODULE    ---      ---       ?C?LIMUL
      0100948CH   PUBLIC    CODE     ---       ?C?LIMUL

      ---         MODULE    ---      ---       PUTCHAR
      0100EDE0H   PUBLIC    CODE     ---       _PUTCHAR

      ---         MODULE    ---      ---       ABS
      0100F2DFH   PUBLIC    CODE     ---       _ABS

      ---         MODULE    ---      ---       STRCAT
      02000ED1H   PUBLIC    XDATA    ---       ?_STRCAT?BYTE
      0100E2D9H   PUBLIC    CODE     ---       _STRCAT

      ---         MODULE    ---      ---       STRLEN
      0100F078H   PUBLIC    CODE     ---       _STRLEN

      ---         MODULE    ---      ---       ?C?COPYAMD
      01009575H   PUBLIC    CODE     ---       ?C?COPYAMD

      ---         MODULE    ---      ---       ?C?STRCPYAMD
      01009653H   PUBLIC    CODE     ---       ?C?STRCPYAMD

      ---         MODULE    ---      ---       ?C?IILDX
      01009670H   PUBLIC    CODE     ---       ?C?IILDX

      ---         MODULE    ---      ---       ?C?ILDIX
      01009686H   PUBLIC    CODE     ---       ?C?ILDIX

      ---         MODULE    ---      ---       ?C?LLDIDATA
      0100969CH   PUBLIC    CODE     ---       ?C?LLDIDATA

LX51 LINKER/LOCATER V4.64.0.0                                                         04/06/2018  15:41:10  PAGE 159


      ---         MODULE    ---      ---       ?C?LLDXDATA
      010096A8H   PUBLIC    CODE     ---       ?C?LLDXDATA

      ---         MODULE    ---      ---       ?C?LLDPDATA
      010096B4H   PUBLIC    CODE     ---       ?C?LLDPDATA

      ---         MODULE    ---      ---       ?C?LLDCODE
      010096C0H   PUBLIC    CODE     ---       ?C?LLDCODE

      ---         MODULE    ---      ---       ?C?LSTIDATA
      010096D0H   PUBLIC    CODE     ---       ?C?LSTIDATA

      ---         MODULE    ---      ---       ?C?LSTPDATA
      010096DCH   PUBLIC    CODE     ---       ?C?LSTPDATA



INTER-MODULE CROSS-REFERENCE LISTING


NAME . . . . . . . . . . . . . . . . . . CLASS    MODULE NAMES
==============================================================

?_Bootloadable_SetFlashByte?BYTE . . . . XDATA    BOOTLOADABLE  
?_calc_turns_fcn?BYTE. . . . . . . . . . XDATA    UTILS  INTERRUPTIONS  
?_commWrite_old_id?BYTE. . . . . . . . . XDATA    COMMAND_PROCESSING  
?_commWriteID?BYTE . . . . . . . . . . . XDATA    COMMAND_PROCESSING  
?_cyconfigcpy?BYTE . . . . . . . . . . . XDATA    CYMEM  CYFITTER_CFG  
?_CyDmaChSetConfiguration?BYTE . . . . . XDATA    CYDMAC  DMA_DMA  
?_CyDmaChStatus?BYTE . . . . . . . . . . XDATA    CYDMAC  
?_CyDmaTdGetAddress?BYTE . . . . . . . . XDATA    CYDMAC  
?_CyDmaTdGetConfiguration?BYTE . . . . . XDATA    CYDMAC  
?_CyDmaTdSetConfiguration?BYTE . . . . . XDATA    CYDMAC  MAIN  
?_CySpcLoadMultiByte?BYTE. . . . . . . . XDATA    CYSPC  EEPROM  
?_CySpcLoadRow?BYTE. . . . . . . . . . . XDATA    CYSPC  EEPROM  
?_CySpcLoadRowFull?BYTE. . . . . . . . . XDATA    CYSPC  CYFLASH  
?_CySpcWriteRow?BYTE . . . . . . . . . . XDATA    CYSPC  CYFLASH  EEPROM  
?_CyWriteRowFull?BYTE. . . . . . . . . . XDATA    CYFLASH  
?_DMA_DmaInitialize?BYTE . . . . . . . . XDATA    DMA_DMA  MAIN  
?_my_mod?BYTE. . . . . . . . . . . . . . XDATA    UTILS  
?_PRINTF?BYTE. . . . . . . . . . . . . . XDATA    PRINTF  
?_SPRINTF?BYTE . . . . . . . . . . . . . XDATA    PRINTF  COMMAND_PROCESSING  
?_strcat?BYTE. . . . . . . . . . . . . . XDATA    STRCAT  COMMAND_PROCESSING  
?C?ADDXBP. . . . . . . . . . . . . . . . CODE     ?C?ADDXBP  CYLIB  
?C?CASTF . . . . . . . . . . . . . . . . CODE     ?C?CASTF  ADC  COMMAND_PROCESSING  INTERRUPTIONS  UTILS  
?C?CCASE . . . . . . . . . . . . . . . . CODE     ?C?CCASE  COMMAND_PROCESSING  PRINTF  
?C?CLDOPTR . . . . . . . . . . . . . . . CODE     ?C?CLDOPTR  PRINTF  
?C?CLDPTR. . . . . . . . . . . . . . . . CODE     ?C?CLDPTR  COMMAND_PROCESSING  CYSPC  PRINTF  STRCAT  STRLEN  UART_RS4
                                                  85  UTILS  
?C?CODESEG . . . . . . . . . . . . . . . NUMBER   ** LX51 GENERATED **  
?C?COPYAMD . . . . . . . . . . . . . . . CODE     ?C?COPYAMD  COMMAND_PROCESSING  INTERRUPTIONS  MAIN  
?C?CSTPTR. . . . . . . . . . . . . . . . CODE     ?C?CSTPTR  CYDMAC  CYSPC  PRINTF  STRCAT  
?C?FCASTC. . . . . . . . . . . . . . . . CODE     ?C?FCAST  
?C?FCASTI. . . . . . . . . . . . . . . . CODE     ?C?FCAST  ADC  COMMAND_PROCESSING  INTERRUPTIONS  
?C?FCASTL. . . . . . . . . . . . . . . . CODE     ?C?FCAST  ADC  COMMAND_PROCESSING  INTERRUPTIONS  UTILS  
?C?FPADD . . . . . . . . . . . . . . . . CODE     ?C?FPADD  ?C?FPCONVERT  INTERRUPTIONS  UTILS  
?C?FPCMP . . . . . . . . . . . . . . . . CODE     ?C?FPCMP  
?C?FPCMP3. . . . . . . . . . . . . . . . CODE     ?C?FPCMP  ADC  INTERRUPTIONS  UTILS  
?C?FPCONVERT . . . . . . . . . . . . . . CODE     ?C?FPCONVERT  PRINTF  
?C?FPDIV . . . . . . . . . . . . . . . . CODE     ?C?FPDIV  ?C?FPCONVERT  ADC  COMMAND_PROCESSING  INTERRUPTIONS  UTILS 
                                                   
?C?FPGETOPN2 . . . . . . . . . . . . . . CODE     ?C?FPGETOPN  ?C?FPADD  ?C?FPDIV  ?C?FPMUL  
?C?FPMUL . . . . . . . . . . . . . . . . CODE     ?C?FPMUL  ?C?FPCONVERT  ?C?FTNPWR  ADC  COMMAND_PROCESSING  INTERRUPTI
                                                  ONS  UTILS  
?C?FPNANRESULT . . . . . . . . . . . . . CODE     ?C?FPGETOPN  ?C?FPADD  ?C?FPDIV  ?C?FPMUL  
LX51 LINKER/LOCATER V4.64.0.0                                                         04/06/2018  15:41:10  PAGE 160


?C?FPOVERFLOW. . . . . . . . . . . . . . CODE     ?C?FPGETOPN  ?C?FPADD  ?C?FPDIV  ?C?FPMUL  
?C?FPRESULT. . . . . . . . . . . . . . . CODE     ?C?FPGETOPN  ?C?FPADD  ?C?FPDIV  ?C?FPMUL  
?C?FPRESULT2 . . . . . . . . . . . . . . CODE     ?C?FPGETOPN  ?C?FPDIV  ?C?FPMUL  
?C?FPROUND . . . . . . . . . . . . . . . CODE     ?C?FPROUND  PRINTF  
?C?FPSUB . . . . . . . . . . . . . . . . CODE     ?C?FPADD  
?C?FPUNDERFLOW . . . . . . . . . . . . . CODE     ?C?FPGETOPN  ?C?FPADD  ?C?FPDIV  ?C?FPMUL  
?C?FTNPWR. . . . . . . . . . . . . . . . CODE     ?C?FTNPWR  ?C?FPCONVERT  
?C?IILDX . . . . . . . . . . . . . . . . CODE     ?C?IILDX  STRCAT  
?C?ILDIX . . . . . . . . . . . . . . . . CODE     ?C?ILDIX  STRCAT  
?C?IMUL. . . . . . . . . . . . . . . . . CODE     ?C?IMUL  INTERRUPTIONS  
?C?ISTPTR. . . . . . . . . . . . . . . . CODE     ?C?ISTPTR  CYDMAC  
?C?LIMUL . . . . . . . . . . . . . . . . CODE     ?C?LIMUL  COMMAND_PROCESSING  CYSPC  
?C?LLDCODE . . . . . . . . . . . . . . . CODE     ?C?LLDCODE  ?C?LLDPTR  
?C?LLDIDATA. . . . . . . . . . . . . . . CODE     ?C?LLDIDATA  ?C?LLDPTR  
?C?LLDPDATA. . . . . . . . . . . . . . . CODE     ?C?LLDPDATA  ?C?LLDPTR  
?C?LLDPTR. . . . . . . . . . . . . . . . CODE     ?C?LLDPTR  CYLIB  
?C?LLDXDATA. . . . . . . . . . . . . . . CODE     ?C?LLDXDATA  ?C?LLDPTR  
?C?LMUL. . . . . . . . . . . . . . . . . CODE     ?C?LMUL  ADC  CYLIB  CYPM  INTERRUPTIONS  UTILS  
?C?LNEG. . . . . . . . . . . . . . . . . CODE     ?C?LNEG  ?C?CASTF  ?C?FCAST  COMMAND_PROCESSING  UTILS  
?C?LNOT. . . . . . . . . . . . . . . . . CODE     ?C?LNOT  CYDMAC  
?C?LSHL. . . . . . . . . . . . . . . . . CODE     ?C?LSHL  ADC  COMMAND_PROCESSING  CYDMAC  CYLIB  INTERRUPTIONS  UTILS 
                                                   
?C?LSTIDATA. . . . . . . . . . . . . . . CODE     ?C?LSTIDATA  ?C?LSTPTR  
?C?LSTPDATA. . . . . . . . . . . . . . . CODE     ?C?LSTPDATA  ?C?LSTPTR  
?C?LSTPTR. . . . . . . . . . . . . . . . CODE     ?C?LSTPTR  CYLIB  
?C?LSTXDATA. . . . . . . . . . . . . . . CODE     ?C?LSTXDATA  ?C?LSTPTR  ADC  BOOTLOADABLE  COMMAND_PROCESSING  CYDMAC 
                                                   CYFITTER_CFG  CYLIB  CYSPC  INTERRUPTIONS  MAIN  SHIFTREG_ENC_1  SHIF
                                                  TREG_ENC_2  SHIFTREG_ENC_3  UTILS  
?C?PLDIXDATA . . . . . . . . . . . . . . CODE     ?C?PLDIXDATA  PRINTF  
?C?PSTXDATA. . . . . . . . . . . . . . . CODE     ?C?PSTXDATA  PRINTF  
?C?SLCMP . . . . . . . . . . . . . . . . CODE     ?C?SLCMP  COMMAND_PROCESSING  INTERRUPTIONS  UTILS  
?C?SLDIV . . . . . . . . . . . . . . . . CODE     ?C?SLDIV  ADC  INTERRUPTIONS  UTILS  
?C?SLSHR . . . . . . . . . . . . . . . . CODE     ?C?SLSHR  COMMAND_PROCESSING  INTERRUPTIONS  UTILS  
?C?STRCPYAMD . . . . . . . . . . . . . . CODE     ?C?STRCPYAMD  COMMAND_PROCESSING  
?C?ULCMP . . . . . . . . . . . . . . . . CODE     ?C?ULCMP  COMMAND_PROCESSING  CYDMAC  CYFLASH  INTERRUPTIONS  UTILS  
?C?ULDIV . . . . . . . . . . . . . . . . CODE     ?C?ULDIV  ?C?SLDIV  ADC  BOOTLOADABLE  CYLIB  CYPM  INTERRUPTIONS  UTI
                                                  LS  
?C?ULSHR . . . . . . . . . . . . . . . . CODE     ?C?ULSHR  COMMAND_PROCESSING  CYLIB  INTERRUPTIONS  
?C?XDATASEG. . . . . . . . . . . . . . . NUMBER   ** LX51 GENERATED **  
?C?XPAGE1RST . . . . . . . . . . . . . . NUMBER   ?C_STARTUP  ADC_INT  CYLIB  INTERRUPTIONS  ISR_RS485_RX  ISR_WATCHDOG 
                                                   UART_RS485_INT  
?C?XPAGE1SFR . . . . . . . . . . . . . . DATA     ?C_STARTUP  ADC_INT  CYLIB  INTERRUPTIONS  ISR_RS485_RX  ISR_WATCHDOG 
                                                   UART_RS485_INT  
?C_START . . . . . . . . . . . . . . . . CODE     ?C_INIT  ?C_STARTUP  
?C_STARTUP . . . . . . . . . . . . . . . CODE     ?C_STARTUP  MAIN  
?C_XBP . . . . . . . . . . . . . . . . . DATA     ?C_XBP  ?C?ADDXBP  ?C_STARTUP  CYLIB  
_?CyDelay. . . . . . . . . . . . . . . . CODE     CYLIB  COMMAND_PROCESSING  CYBOOTASMKEIL  MAIN  
_?CyDelayFreq. . . . . . . . . . . . . . CODE     CYLIB  
_?CyHalt . . . . . . . . . . . . . . . . CODE     CYLIB  
_ABS . . . . . . . . . . . . . . . . . . CODE     ABS  INTERRUPTIONS  
_ADC_AMux_FastSelect . . . . . . . . . . CODE     ADC_AMUX  
_ADC_AMux_Select . . . . . . . . . . . . CODE     ADC_AMUX  ADC  
_ADC_AMux_Set. . . . . . . . . . . . . . CODE     CYFITTER_CFG  ADC_AMUX  
_ADC_AMux_Unset. . . . . . . . . . . . . CODE     CYFITTER_CFG  ADC_AMUX  
_ADC_CountsTo_mVolts . . . . . . . . . . CODE     ADC  
_ADC_CountsTo_uVolts . . . . . . . . . . CODE     ADC  
_ADC_CountsTo_Volts. . . . . . . . . . . CODE     ADC  
_ADC_Ext_CP_Clk_ClearModeRegister. . . . CODE     ADC_EXT_CP_CLK  
_ADC_Ext_CP_Clk_SetDividerRegister . . . CODE     ADC_EXT_CP_CLK  ADC  
_ADC_Ext_CP_Clk_SetModeRegister. . . . . CODE     ADC_EXT_CP_CLK  ADC  
_ADC_Ext_CP_Clk_SetSourceRegister. . . . CODE     ADC_EXT_CP_CLK  
_ADC_Ext_CP_Clk_StandbyPower . . . . . . CODE     ADC_EXT_CP_CLK  
_ADC_IsEndConversion . . . . . . . . . . CODE     ADC  
_ADC_SelectConfiguration . . . . . . . . CODE     ADC  
_ADC_SetBufferGain . . . . . . . . . . . CODE     ADC  
LX51 LINKER/LOCATER V4.64.0.0                                                         04/06/2018  15:41:10  PAGE 161


_ADC_SetCoherency. . . . . . . . . . . . CODE     ADC  
_ADC_SetGain . . . . . . . . . . . . . . CODE     ADC  
_ADC_SetGCOR . . . . . . . . . . . . . . CODE     ADC  
_ADC_SetOffset . . . . . . . . . . . . . CODE     ADC  
_ADC_SOC_Write . . . . . . . . . . . . . CODE     ADC_SOC  INTERRUPTIONS  MAIN  
_ADC_STATUS_WriteMask. . . . . . . . . . CODE     ADC_STATUS  
_ADC_theACLK_ClearModeRegister . . . . . CODE     ADC_THEACLK  
_ADC_theACLK_SetDividerRegister. . . . . CODE     ADC_THEACLK  ADC  
_ADC_theACLK_SetModeRegister . . . . . . CODE     ADC_THEACLK  ADC  
_ADC_theACLK_SetPhaseRegister. . . . . . CODE     ADC_THEACLK  
_ADC_theACLK_SetSourceRegister . . . . . CODE     ADC_THEACLK  
_ADC_theACLK_StandbyPower. . . . . . . . CODE     ADC_THEACLK  
_Bootloadable_SetFlashByte . . . . . . . CODE     BOOTLOADABLE  
_calc_turns_fcn. . . . . . . . . . . . . CODE     UTILS  INTERRUPTIONS  
_cfg_write_bytes . . . . . . . . . . . . CODE     CYMEM  
_cfg_write_bytes_code. . . . . . . . . . CODE     CYMEM  
_check_enc_data. . . . . . . . . . . . . CODE     UTILS  INTERRUPTIONS  
_CLOCK_UART_ClearModeRegister. . . . . . CODE     CLOCK_UART  
_CLOCK_UART_SetDividerRegister . . . . . CODE     CLOCK_UART  COMMAND_PROCESSING  
_CLOCK_UART_SetModeRegister. . . . . . . CODE     CLOCK_UART  
_CLOCK_UART_SetSourceRegister. . . . . . CODE     CLOCK_UART  
_CLOCK_UART_StandbyPower . . . . . . . . CODE     CLOCK_UART  
_commWrite . . . . . . . . . . . . . . . CODE     COMMAND_PROCESSING  
_commWrite_old_id. . . . . . . . . . . . CODE     COMMAND_PROCESSING  
_commWriteID . . . . . . . . . . . . . . CODE     COMMAND_PROCESSING  
_COUNTER_ENC_SetInterruptMode. . . . . . CODE     COUNTER_ENC  
_COUNTER_ENC_WriteCompare. . . . . . . . CODE     COUNTER_ENC  
_COUNTER_ENC_WriteControlRegister. . . . CODE     COUNTER_ENC  
_COUNTER_ENC_WriteCounter. . . . . . . . CODE     COUNTER_ENC  
_COUNTER_ENC_WritePeriod . . . . . . . . CODE     COUNTER_ENC  
_CyBusClk_SetDivider . . . . . . . . . . CODE     CYLIB  CYPM  
_cyconfigcpy . . . . . . . . . . . . . . CODE     CYMEM  CYFITTER_CFG  
_cyconfigcpycode . . . . . . . . . . . . CODE     CYMEM  CYFITTER_CFG  
_CyCpuClk_SetDivider . . . . . . . . . . CODE     CYLIB  
_CyDelay . . . . . . . . . . . . . . . . CODE     CYBOOTASMKEIL  
_CyDelayCycles . . . . . . . . . . . . . CODE     CYBOOTASMKEIL  CYFITTER_CFG  CYLIB  CYPM  
_CyDelayUs . . . . . . . . . . . . . . . CODE     CYBOOTASMKEIL  ADC  CYFLASH  CYLIB  CYPM  CYSPC  
_CyDmacClearError. . . . . . . . . . . . CODE     CYDMAC  
_CyDmaChDisable. . . . . . . . . . . . . CODE     CYDMAC  DMA_DMA  
_CyDmaChEnable . . . . . . . . . . . . . CODE     CYDMAC  MAIN  
_CyDmaChFree . . . . . . . . . . . . . . CODE     CYDMAC  
_CyDmaChGetRequest . . . . . . . . . . . CODE     CYDMAC  
_CyDmaChPriority . . . . . . . . . . . . CODE     CYDMAC  DMA_DMA  
_CyDmaChRoundRobin . . . . . . . . . . . CODE     CYDMAC  
_CyDmaChSetConfiguration . . . . . . . . CODE     CYDMAC  DMA_DMA  
_CyDmaChSetExtendedAddress . . . . . . . CODE     CYDMAC  DMA_DMA  
_CyDmaChSetInitialTd . . . . . . . . . . CODE     CYDMAC  MAIN  
_CyDmaChSetRequest . . . . . . . . . . . CODE     CYDMAC  
_CyDmaChStatus . . . . . . . . . . . . . CODE     CYDMAC  
_CyDmaClearPendingDrq. . . . . . . . . . CODE     CYDMAC  
_CyDmaTdFree . . . . . . . . . . . . . . CODE     CYDMAC  
_CyDmaTdGetAddress . . . . . . . . . . . CODE     CYDMAC  
_CyDmaTdGetConfiguration . . . . . . . . CODE     CYDMAC  
_CyDmaTdSetAddress . . . . . . . . . . . CODE     CYDMAC  MAIN  
_CyDmaTdSetConfiguration . . . . . . . . CODE     CYDMAC  MAIN  
_CyEnableInts. . . . . . . . . . . . . . CODE     CYLIB  
_CyExitCriticalSection . . . . . . . . . CODE     CYBOOTASMKEIL  ADC  ADC_STATUS  COUNTER_ENC  CYDMAC  CYFLASH  CYLIB  C
                                                  YPM  CYSPC  EEPROM  FF_STATUS  MY_TIMER  SHIFTREG_ENC_1  SHIFTREG_ENC_
                                                  2  SHIFTREG_ENC_3  UART_RS485  
_CyFlash_SetWaitCycles . . . . . . . . . CODE     CYFLASH  CYPM  
_CyGetUniqueId . . . . . . . . . . . . . CODE     CYLIB  
_CyILO_SetPowerMode. . . . . . . . . . . CODE     CYLIB  CYPM  
_CyILO_SetSource . . . . . . . . . . . . CODE     CYLIB  
_CyIMO_SetFreq . . . . . . . . . . . . . CODE     CYLIB  CYPM  
_CyIMO_SetSource . . . . . . . . . . . . CODE     CYLIB  CYPM  
LX51 LINKER/LOCATER V4.64.0.0                                                         04/06/2018  15:41:10  PAGE 162


_CyIMO_Start . . . . . . . . . . . . . . CODE     CYLIB  CYPM  
_CyIntGetPriority. . . . . . . . . . . . CODE     CYLIB  
_CyIntGetState . . . . . . . . . . . . . CODE     CYLIB  
_CyIntGetVector. . . . . . . . . . . . . CODE     CYLIB  
_CyIntSetPriority. . . . . . . . . . . . CODE     CYLIB  ADC  UART_RS485  
_CyIntSetVector. . . . . . . . . . . . . CODE     CYLIB  ADC  UART_RS485  
_CyMasterClk_SetDivider. . . . . . . . . CODE     CYLIB  CYPM  
_CyMasterClk_SetSource . . . . . . . . . CODE     CYLIB  CYPM  
_cymemzero . . . . . . . . . . . . . . . CODE     CYMEM  
_CyPLL_OUT_SetPQ . . . . . . . . . . . . CODE     CYLIB  
_CyPLL_OUT_SetSource . . . . . . . . . . CODE     CYLIB  
_CyPLL_OUT_Start . . . . . . . . . . . . CODE     CYLIB  CYPM  
_CyPmAltAct. . . . . . . . . . . . . . . CODE     CYPM  
_CyPmCtwSetInterval. . . . . . . . . . . CODE     CYPM  
_CyPmFtwSetInterval. . . . . . . . . . . CODE     CYPM  CYLIB  
_CyPmHibernateEx . . . . . . . . . . . . CODE     CYPM  
_CyPmReadStatus. . . . . . . . . . . . . CODE     CYPM  CYLIB  
_CyPmSleep . . . . . . . . . . . . . . . CODE     CYPM  
_cyread16. . . . . . . . . . . . . . . . CODE     CYMEM  
_cyread16_nodpx. . . . . . . . . . . . . CODE     CYMEM  ADC  ADC_EXT_CP_CLK  ADC_THEACLK  CLOCK_UART  CYDMAC  CYLIB  IS
                                                  R_RS485_RX  ISR_WATCHDOG  PACER_TIMER  WATCHDOG_COUNTER  
_cyread24. . . . . . . . . . . . . . . . CODE     CYMEM  
_cyread24_nodpx. . . . . . . . . . . . . CODE     CYMEM  MY_TIMER  SHIFTREG_ENC_1  SHIFTREG_ENC_2  SHIFTREG_ENC_3  
_cyread32. . . . . . . . . . . . . . . . CODE     CYMEM  
_cyread32_nodpx. . . . . . . . . . . . . CODE     CYMEM  CYDMAC  
_cyread8 . . . . . . . . . . . . . . . . CODE     CYMEM  ADC  CYFITTER_CFG  CYLIB  CYSPC  
_cyread8_nodpx . . . . . . . . . . . . . CODE     CYMEM  
_CySetFlashEEBuffer. . . . . . . . . . . CODE     CYFLASH  
_CySpcEraseSector. . . . . . . . . . . . CODE     CYSPC  EEPROM  
_CySpcGetTemp. . . . . . . . . . . . . . CODE     CYSPC  CYFLASH  
_CySpcLoadMultiByte. . . . . . . . . . . CODE     CYSPC  EEPROM  
_CySpcLoadRow. . . . . . . . . . . . . . CODE     CYSPC  EEPROM  
_CySpcLoadRowFull. . . . . . . . . . . . CODE     CYSPC  CYFLASH  
_CySpcReadData . . . . . . . . . . . . . CODE     CYSPC  CYFLASH  
_CySpcWriteRow . . . . . . . . . . . . . CODE     CYSPC  CYFLASH  EEPROM  
_CyUsbClk_SetSource. . . . . . . . . . . CODE     CYLIB  
_CyVdLvAnalogEnable. . . . . . . . . . . CODE     CYLIB  CYPM  
_CyVdLvDigitEnable . . . . . . . . . . . CODE     CYLIB  CYPM  
_CyVdStickyStatus. . . . . . . . . . . . CODE     CYLIB  
_CyWdtStart. . . . . . . . . . . . . . . CODE     CYLIB  
_cywrite16 . . . . . . . . . . . . . . . CODE     CYMEM  CYFITTER_CFG  
_cywrite16_nodpx . . . . . . . . . . . . CODE     CYMEM  ADC  ADC_EXT_CP_CLK  ADC_THEACLK  CLOCK_UART  CYDMAC  CYFITTER_
                                                  CFG  CYLIB  ISR_RS485_RX  ISR_WATCHDOG  PACER_TIMER  WATCHDOG_COUNTER 
                                                   
_cywrite24 . . . . . . . . . . . . . . . CODE     CYMEM  
_cywrite24_nodpx . . . . . . . . . . . . CODE     CYMEM  MY_TIMER  SHIFTREG_ENC_1  SHIFTREG_ENC_2  SHIFTREG_ENC_3  
_cywrite32 . . . . . . . . . . . . . . . CODE     CYMEM  
_cywrite32_nodpx . . . . . . . . . . . . CODE     CYMEM  
_cywrite8. . . . . . . . . . . . . . . . CODE     CYMEM  CYFITTER_CFG  
_cywrite8_nodpx. . . . . . . . . . . . . CODE     CYMEM  
_CyWriteRowData. . . . . . . . . . . . . CODE     CYFLASH  BOOTLOADABLE  
_CyWriteRowFull. . . . . . . . . . . . . CODE     CYFLASH  
_CyXTAL_32KHZ_SetPowerMode . . . . . . . CODE     CYLIB  
_CyXTAL_SetFbVoltage . . . . . . . . . . CODE     CYLIB  
_CyXTAL_SetStartup . . . . . . . . . . . CODE     CYLIB  
_CyXTAL_SetWdVoltage . . . . . . . . . . CODE     CYLIB  
_CyXTAL_Start. . . . . . . . . . . . . . CODE     CYLIB  CYPM  
_DMA_DmaInitialize . . . . . . . . . . . CODE     DMA_DMA  MAIN  
_dma_wait. . . . . . . . . . . . . . . . CODE     ?C_STARTUP  
_EEPROM_ByteWritePos . . . . . . . . . . CODE     EEPROM  
_EEPROM_EraseSector. . . . . . . . . . . CODE     EEPROM  
_EEPROM_ReadByte . . . . . . . . . . . . CODE     EEPROM  
_EEPROM_StartErase . . . . . . . . . . . CODE     EEPROM  
_EEPROM_StartWrite . . . . . . . . . . . CODE     EEPROM  
_EEPROM_Write. . . . . . . . . . . . . . CODE     EEPROM  COMMAND_PROCESSING  
LX51 LINKER/LOCATER V4.64.0.0                                                         04/06/2018  15:41:10  PAGE 163


_EEPROM_WriteByte. . . . . . . . . . . . CODE     EEPROM  
_encoder_reading . . . . . . . . . . . . CODE     INTERRUPTIONS  
_FF_STATUS_WriteMask . . . . . . . . . . CODE     FF_STATUS  
_filter_acc_1. . . . . . . . . . . . . . CODE     UTILS  INTERRUPTIONS  
_filter_acc_2. . . . . . . . . . . . . . CODE     UTILS  INTERRUPTIONS  
_filter_acc_3. . . . . . . . . . . . . . CODE     UTILS  INTERRUPTIONS  
_filter_ch1. . . . . . . . . . . . . . . CODE     UTILS  INTERRUPTIONS  
_filter_ch2. . . . . . . . . . . . . . . CODE     UTILS  INTERRUPTIONS  
_filter_i1 . . . . . . . . . . . . . . . CODE     UTILS  INTERRUPTIONS  
_filter_v. . . . . . . . . . . . . . . . CODE     UTILS  
_filter_vel_1. . . . . . . . . . . . . . CODE     UTILS  INTERRUPTIONS  
_filter_vel_2. . . . . . . . . . . . . . CODE     UTILS  INTERRUPTIONS  
_filter_vel_3. . . . . . . . . . . . . . CODE     UTILS  INTERRUPTIONS  
_filter_voltage. . . . . . . . . . . . . CODE     UTILS  INTERRUPTIONS  
_FTDI_ENABLE_REG_Write . . . . . . . . . CODE     FTDI_ENABLE_REG  COMMAND_PROCESSING  MAIN  
_get_param_list. . . . . . . . . . . . . CODE     COMMAND_PROCESSING  
_infoGet . . . . . . . . . . . . . . . . CODE     COMMAND_PROCESSING  INTERRUPTIONS  
_infoPrepare . . . . . . . . . . . . . . CODE     COMMAND_PROCESSING  
_ISR_RS485_RX_SetPriority. . . . . . . . CODE     ISR_RS485_RX  
_ISR_RS485_RX_SetVector. . . . . . . . . CODE     ISR_RS485_RX  
_ISR_RS485_RX_StartEx. . . . . . . . . . CODE     ISR_RS485_RX  MAIN  
_ISR_WATCHDOG_SetPriority. . . . . . . . CODE     ISR_WATCHDOG  
_ISR_WATCHDOG_SetVector. . . . . . . . . CODE     ISR_WATCHDOG  
_ISR_WATCHDOG_StartEx. . . . . . . . . . CODE     ISR_WATCHDOG  MAIN  
_LCRChecksum . . . . . . . . . . . . . . CODE     COMMAND_PROCESSING  
_LED_BLINK_EN_Write. . . . . . . . . . . CODE     LED_BLINK_EN  INTERRUPTIONS  MAIN  
_LED_BLINK_WriteCompare. . . . . . . . . CODE     LED_BLINK  MAIN  
_LED_BLINK_WriteControlRegister. . . . . CODE     LED_BLINK  
_LED_BLINK_WriteCounter. . . . . . . . . CODE     LED_BLINK  
_LED_BLINK_WritePeriod . . . . . . . . . CODE     LED_BLINK  
_LED_CTRL_Write. . . . . . . . . . . . . CODE     LED_CTRL  INTERRUPTIONS  MAIN  
_memStore. . . . . . . . . . . . . . . . CODE     COMMAND_PROCESSING  
_MOTOR_DIR_Write . . . . . . . . . . . . CODE     MOTOR_DIR  INTERRUPTIONS  MAIN  
_MOTOR_ON_OFF_Write. . . . . . . . . . . CODE     MOTOR_ON_OFF  COMMAND_PROCESSING  INTERRUPTIONS  MAIN  
_my_mod. . . . . . . . . . . . . . . . . CODE     UTILS  
_my_round. . . . . . . . . . . . . . . . CODE     UTILS  
_MY_TIMER_SetInterruptMode . . . . . . . CODE     MY_TIMER  
_MY_TIMER_WriteControlRegister . . . . . CODE     MY_TIMER  
_MY_TIMER_WriteCounter . . . . . . . . . CODE     MY_TIMER  INTERRUPTIONS  
_MY_TIMER_WritePeriod. . . . . . . . . . CODE     MY_TIMER  
_PACER_TIMER_SetInterruptMode. . . . . . CODE     PACER_TIMER  
_PACER_TIMER_WriteControlRegister. . . . CODE     PACER_TIMER  
_PACER_TIMER_WriteCounter. . . . . . . . CODE     PACER_TIMER  
_PACER_TIMER_WritePeriod . . . . . . . . CODE     PACER_TIMER  
_PRINTF. . . . . . . . . . . . . . . . . CODE     PRINTF  
_PUTCHAR . . . . . . . . . . . . . . . . CODE     PUTCHAR  PRINTF  
_PWM_MOTORS_WriteCompare1. . . . . . . . CODE     PWM_MOTORS  COMMAND_PROCESSING  INTERRUPTIONS  MAIN  
_PWM_MOTORS_WriteCompare2. . . . . . . . CODE     PWM_MOTORS  COMMAND_PROCESSING  MAIN  
_PWM_MOTORS_WriteControlRegister . . . . CODE     PWM_MOTORS  
_PWM_MOTORS_WriteCounter . . . . . . . . CODE     PWM_MOTORS  
_PWM_MOTORS_WritePeriod. . . . . . . . . CODE     PWM_MOTORS  
_RESET_COUNTERS_Write. . . . . . . . . . CODE     RESET_COUNTERS  MAIN  
_RESET_FF_Write. . . . . . . . . . . . . CODE     RESET_FF  MAIN  
_RS485_CTS_Write . . . . . . . . . . . . CODE     RS485_CTS  COMMAND_PROCESSING  INTERRUPTIONS  MAIN  
_sendAcknowledgment. . . . . . . . . . . CODE     COMMAND_PROCESSING  
_SetAnalogRoutingPumps . . . . . . . . . CODE     CYFITTER_CFG  
_SHIFTREG_ENC_1_GetFIFOStatus. . . . . . CODE     SHIFTREG_ENC_1  
_SHIFTREG_ENC_1_SetIntMode . . . . . . . CODE     SHIFTREG_ENC_1  
_SHIFTREG_ENC_1_WriteRegValue. . . . . . CODE     SHIFTREG_ENC_1  
_SHIFTREG_ENC_2_GetFIFOStatus. . . . . . CODE     SHIFTREG_ENC_2  
_SHIFTREG_ENC_2_SetIntMode . . . . . . . CODE     SHIFTREG_ENC_2  
_SHIFTREG_ENC_2_WriteRegValue. . . . . . CODE     SHIFTREG_ENC_2  
_SHIFTREG_ENC_3_GetFIFOStatus. . . . . . CODE     SHIFTREG_ENC_3  
_SHIFTREG_ENC_3_SetIntMode . . . . . . . CODE     SHIFTREG_ENC_3  
_SHIFTREG_ENC_3_WriteRegValue. . . . . . CODE     SHIFTREG_ENC_3  
LX51 LINKER/LOCATER V4.64.0.0                                                         04/06/2018  15:41:10  PAGE 164


_SPRINTF . . . . . . . . . . . . . . . . CODE     PRINTF  COMMAND_PROCESSING  
_strcat. . . . . . . . . . . . . . . . . CODE     STRCAT  COMMAND_PROCESSING  
_STRLEN. . . . . . . . . . . . . . . . . CODE     STRLEN  COMMAND_PROCESSING  
_UART_RS485_PutArray . . . . . . . . . . CODE     UART_RS485  
_UART_RS485_PutChar. . . . . . . . . . . CODE     UART_RS485  COMMAND_PROCESSING  
_UART_RS485_PutCRLF. . . . . . . . . . . CODE     UART_RS485  
_UART_RS485_PutString. . . . . . . . . . CODE     UART_RS485  COMMAND_PROCESSING  
_UART_RS485_SendBreak. . . . . . . . . . CODE     UART_RS485  
_UART_RS485_SetRxAddress1. . . . . . . . CODE     UART_RS485  
_UART_RS485_SetRxAddress2. . . . . . . . CODE     UART_RS485  
_UART_RS485_SetRxAddressMode . . . . . . CODE     UART_RS485  
_UART_RS485_SetRxInterruptMode . . . . . CODE     UART_RS485  
_UART_RS485_SetTxAddressMode . . . . . . CODE     UART_RS485  
_UART_RS485_SetTxInterruptMode . . . . . CODE     UART_RS485  
_UART_RS485_WriteControlRegister . . . . CODE     UART_RS485  
_UART_RS485_WriteTxData. . . . . . . . . CODE     UART_RS485  
_WATCHDOG_COUNTER_SetInterruptMode . . . CODE     WATCHDOG_COUNTER  
_WATCHDOG_COUNTER_WriteControlRegister . CODE     WATCHDOG_COUNTER  
_WATCHDOG_COUNTER_WriteCounter . . . . . CODE     WATCHDOG_COUNTER  
_WATCHDOG_COUNTER_WritePeriod. . . . . . CODE     WATCHDOG_COUNTER  COMMAND_PROCESSING  
_WATCHDOG_ENABLER_Write. . . . . . . . . CODE     WATCHDOG_ENABLER  COMMAND_PROCESSING  
_WATCHDOG_REFRESH_Write. . . . . . . . . CODE     WATCHDOG_REFRESH  MAIN  
AC . . . . . . . . . . . . . . . . . . . DATA     COMMAND_PROCESSING  
ACC. . . . . . . . . . . . . . . . . . . DATA     COMMAND_PROCESSING  
ADC_AMux__addrTable. . . . . . . . . . . CONST    CYFITTER_CFG  
ADC_AMux__maskTable. . . . . . . . . . . CONST    CYFITTER_CFG  
ADC_AMux_Start . . . . . . . . . . . . . CODE     ADC_AMUX  
ADC_buf. . . . . . . . . . . . . . . . . XDATA    GLOBALS  INTERRUPTIONS  MAIN  
ADC_Config . . . . . . . . . . . . . . . XDATA    ADC  
ADC_convDone . . . . . . . . . . . . . . XDATA    ADC  
ADC_CountsPerVolt. . . . . . . . . . . . XDATA    ADC  
ADC_Enable . . . . . . . . . . . . . . . CODE     ADC  
ADC_Ext_CP_Clk_GetDividerRegister. . . . CODE     ADC_EXT_CP_CLK  
ADC_Ext_CP_Clk_GetModeRegister . . . . . CODE     ADC_EXT_CP_CLK  
ADC_Ext_CP_Clk_GetSourceRegister . . . . CODE     ADC_EXT_CP_CLK  
ADC_Ext_CP_Clk_Start . . . . . . . . . . CODE     ADC_EXT_CP_CLK  
ADC_Ext_CP_Clk_Stop. . . . . . . . . . . CODE     ADC_EXT_CP_CLK  
ADC_Ext_CP_Clk_StopBlock . . . . . . . . CODE     ADC_EXT_CP_CLK  
ADC_GetResult16. . . . . . . . . . . . . CODE     ADC  
ADC_GetResult32. . . . . . . . . . . . . CODE     ADC  
ADC_GetResult8 . . . . . . . . . . . . . CODE     ADC  
ADC_Init . . . . . . . . . . . . . . . . CODE     ADC  
ADC_initVar. . . . . . . . . . . . . . . XDATA    ADC  
ADC_ISR1 . . . . . . . . . . . . . . . . CODE     ADC_INT  ADC  
ADC_ISR2 . . . . . . . . . . . . . . . . CODE     ADC_INT  
ADC_ISR3 . . . . . . . . . . . . . . . . CODE     ADC_INT  
ADC_ISR4 . . . . . . . . . . . . . . . . CODE     ADC_INT  
ADC_Offset . . . . . . . . . . . . . . . XDATA    ADC  
ADC_Read16 . . . . . . . . . . . . . . . CODE     ADC  
ADC_Read32 . . . . . . . . . . . . . . . CODE     ADC  
ADC_Read8. . . . . . . . . . . . . . . . CODE     ADC  
ADC_ReadGCOR . . . . . . . . . . . . . . CODE     ADC  
ADC_SOC_Read . . . . . . . . . . . . . . CODE     ADC_SOC  
ADC_Start. . . . . . . . . . . . . . . . CODE     ADC  MAIN  
ADC_StartConvert . . . . . . . . . . . . CODE     ADC  
ADC_started. . . . . . . . . . . . . . . XDATA    ADC  
ADC_STATUS_InterruptDisable. . . . . . . CODE     ADC_STATUS  
ADC_STATUS_InterruptEnable . . . . . . . CODE     ADC_STATUS  
ADC_STATUS_Read. . . . . . . . . . . . . CODE     ADC_STATUS  INTERRUPTIONS  
ADC_STATUS_ReadMask. . . . . . . . . . . CODE     ADC_STATUS  
ADC_Stop . . . . . . . . . . . . . . . . CODE     ADC  
ADC_stopConversion . . . . . . . . . . . XDATA    ADC  
ADC_StopConvert. . . . . . . . . . . . . CODE     ADC  
ADC_theACLK_GetDividerRegister . . . . . CODE     ADC_THEACLK  
ADC_theACLK_GetModeRegister. . . . . . . CODE     ADC_THEACLK  
LX51 LINKER/LOCATER V4.64.0.0                                                         04/06/2018  15:41:10  PAGE 165


ADC_theACLK_GetPhaseRegister . . . . . . CODE     ADC_THEACLK  
ADC_theACLK_GetSourceRegister. . . . . . CODE     ADC_THEACLK  
ADC_theACLK_Start. . . . . . . . . . . . CODE     ADC_THEACLK  
ADC_theACLK_Stop . . . . . . . . . . . . CODE     ADC_THEACLK  
ADC_theACLK_StopBlock. . . . . . . . . . CODE     ADC_THEACLK  
analog_read_end. . . . . . . . . . . . . CODE     INTERRUPTIONS  
B. . . . . . . . . . . . . . . . . . . . DATA     COMMAND_PROCESSING  
Bootloadable_Load. . . . . . . . . . . . CODE     BOOTLOADABLE  COMMAND_PROCESSING  
c_mem. . . . . . . . . . . . . . . . . . XDATA    GLOBALS  COMMAND_PROCESSING  INTERRUPTIONS  MAIN  UTILS  
calib. . . . . . . . . . . . . . . . . . XDATA    GLOBALS  COMMAND_PROCESSING  INTERRUPTIONS  UTILS  
calibration. . . . . . . . . . . . . . . CODE     UTILS  INTERRUPTIONS  
check_rest_position. . . . . . . . . . . CODE     UTILS  INTERRUPTIONS  
CLOCK_UART_GetDividerRegister. . . . . . CODE     CLOCK_UART  
CLOCK_UART_GetModeRegister . . . . . . . CODE     CLOCK_UART  
CLOCK_UART_GetSourceRegister . . . . . . CODE     CLOCK_UART  
CLOCK_UART_Start . . . . . . . . . . . . CODE     CLOCK_UART  
CLOCK_UART_Stop. . . . . . . . . . . . . CODE     CLOCK_UART  
CLOCK_UART_StopBlock . . . . . . . . . . CODE     CLOCK_UART  
cmd_activate . . . . . . . . . . . . . . CODE     COMMAND_PROCESSING  
cmd_get_activate . . . . . . . . . . . . CODE     COMMAND_PROCESSING  
cmd_get_curr_and_meas. . . . . . . . . . CODE     COMMAND_PROCESSING  
cmd_get_currents . . . . . . . . . . . . CODE     COMMAND_PROCESSING  
cmd_get_emg. . . . . . . . . . . . . . . CODE     COMMAND_PROCESSING  
cmd_get_inputs . . . . . . . . . . . . . CODE     COMMAND_PROCESSING  
cmd_get_joystick . . . . . . . . . . . . CODE     COMMAND_PROCESSING  
cmd_get_measurements . . . . . . . . . . CODE     COMMAND_PROCESSING  
cmd_ping . . . . . . . . . . . . . . . . CODE     COMMAND_PROCESSING  
cmd_set_baudrate . . . . . . . . . . . . CODE     COMMAND_PROCESSING  
cmd_set_inputs . . . . . . . . . . . . . CODE     COMMAND_PROCESSING  
cmd_set_watchdog . . . . . . . . . . . . CODE     COMMAND_PROCESSING  
cmd_store_params . . . . . . . . . . . . CODE     COMMAND_PROCESSING  
commProcess. . . . . . . . . . . . . . . CODE     COMMAND_PROCESSING  INTERRUPTIONS  
commReadMeasFromSH . . . . . . . . . . . CODE     COMMAND_PROCESSING  INTERRUPTIONS  
count_tension_valid. . . . . . . . . . . XDATA    GLOBALS  MAIN  
COUNTER_ENC_ClearFIFO. . . . . . . . . . CODE     COUNTER_ENC  
COUNTER_ENC_Enable . . . . . . . . . . . CODE     COUNTER_ENC  
COUNTER_ENC_Init . . . . . . . . . . . . CODE     COUNTER_ENC  
COUNTER_ENC_initVar. . . . . . . . . . . XDATA    COUNTER_ENC  
COUNTER_ENC_ReadCapture. . . . . . . . . CODE     COUNTER_ENC  
COUNTER_ENC_ReadCompare. . . . . . . . . CODE     COUNTER_ENC  
COUNTER_ENC_ReadControlRegister. . . . . CODE     COUNTER_ENC  
COUNTER_ENC_ReadCounter. . . . . . . . . CODE     COUNTER_ENC  
COUNTER_ENC_ReadPeriod . . . . . . . . . CODE     COUNTER_ENC  
COUNTER_ENC_ReadStatusRegister . . . . . CODE     COUNTER_ENC  
COUNTER_ENC_Start. . . . . . . . . . . . CODE     COUNTER_ENC  MAIN  
COUNTER_ENC_Stop . . . . . . . . . . . . CODE     COUNTER_ENC  
curr_pos_res . . . . . . . . . . . . . . XDATA    GLOBALS  INTERRUPTIONS  UTILS  
CY . . . . . . . . . . . . . . . . . . . DATA     COMMAND_PROCESSING  
cydelay_32k_ms . . . . . . . . . . . . . XDATA    CYLIB  
cydelay_freq_hz. . . . . . . . . . . . . XDATA    CYLIB  
cydelay_freq_khz . . . . . . . . . . . . XDATA    CYLIB  
cydelay_freq_mhz . . . . . . . . . . . . XDATA    CYLIB  CYBOOTASMKEIL  
CyDisableInts. . . . . . . . . . . . . . CODE     CYLIB  
CyDmacConfigure. . . . . . . . . . . . . CODE     CYDMAC  ?C_STARTUP  
CyDmacError. . . . . . . . . . . . . . . CODE     CYDMAC  
CyDmacErrorAddress . . . . . . . . . . . CODE     CYDMAC  
CyDmaChAlloc . . . . . . . . . . . . . . CODE     CYDMAC  
CyDmaTdAllocate. . . . . . . . . . . . . CODE     CYDMAC  MAIN  
CyDmaTdFreeCount . . . . . . . . . . . . CODE     CYDMAC  
CyEEPROM_ReadRelease . . . . . . . . . . CODE     CYFLASH  EEPROM  
CyEEPROM_ReadReserve . . . . . . . . . . CODE     CYFLASH  EEPROM  
CyEEPROM_Start . . . . . . . . . . . . . CODE     CYFLASH  EEPROM  
CyEEPROM_Stop. . . . . . . . . . . . . . CODE     CYFLASH  EEPROM  
CyEnterCriticalSection . . . . . . . . . CODE     CYBOOTASMKEIL  ADC  ADC_STATUS  COUNTER_ENC  CYDMAC  CYFLASH  CYLIB  C
                                                  YPM  CYSPC  EEPROM  FF_STATUS  MY_TIMER  SHIFTREG_ENC_1  SHIFTREG_ENC_
LX51 LINKER/LOCATER V4.64.0.0                                                         04/06/2018  15:41:10  PAGE 166


                                                  2  SHIFTREG_ENC_3  UART_RS485  
cyfitter_cfg . . . . . . . . . . . . . . CODE     CYFITTER_CFG  ?C_STARTUP  
CyFlash_Start. . . . . . . . . . . . . . CODE     CYFLASH  
CyFlash_Stop . . . . . . . . . . . . . . CODE     CYFLASH  
CyILO_Disable33K . . . . . . . . . . . . CODE     CYLIB  
CyILO_Enable33K. . . . . . . . . . . . . CODE     CYLIB  
CyILO_Start100K. . . . . . . . . . . . . CODE     CYLIB  CYPM  
CyILO_Start1K. . . . . . . . . . . . . . CODE     CYLIB  CYPM  
CyILO_Stop100K . . . . . . . . . . . . . CODE     CYLIB  
CyILO_Stop1K . . . . . . . . . . . . . . CODE     CYLIB  
CyIMO_DisableDoubler . . . . . . . . . . CODE     CYLIB  CYPM  
CyIMO_EnableDoubler. . . . . . . . . . . CODE     CYLIB  CYPM  
CyIMO_Stop . . . . . . . . . . . . . . . CODE     CYLIB  CYPM  
CyIntInitVectors . . . . . . . . . . . . CODE     CYLIB  ?C_STARTUP  
CyPLL_OUT_Stop . . . . . . . . . . . . . CODE     CYLIB  CYPM  
CyPmHibernate. . . . . . . . . . . . . . CODE     CYPM  
CyPmOppsSet. . . . . . . . . . . . . . . CODE     CYPM  
CyPmRestoreClocks. . . . . . . . . . . . CODE     CYPM  
CyPmSaveClocks . . . . . . . . . . . . . CODE     CYPM  
CyResetStatus. . . . . . . . . . . . . . XDATA    CYLIB  ?C_STARTUP  
CySetTemp. . . . . . . . . . . . . . . . CODE     CYFLASH  COMMAND_PROCESSING  EEPROM  
CySoftwareReset. . . . . . . . . . . . . CODE     CYLIB  BOOTLOADABLE  
CySpcGetAlgorithm. . . . . . . . . . . . CODE     CYSPC  CYFLASH  
CySpcLock. . . . . . . . . . . . . . . . CODE     CYSPC  CYFLASH  EEPROM  
CySpcStart . . . . . . . . . . . . . . . CODE     CYSPC  CYFLASH  EEPROM  
CySpcStop. . . . . . . . . . . . . . . . CODE     CYSPC  
CySpcUnlock. . . . . . . . . . . . . . . CODE     CYSPC  CYFLASH  EEPROM  
CyVdHvAnalogDisable. . . . . . . . . . . CODE     CYLIB  CYPM  
CyVdHvAnalogEnable . . . . . . . . . . . CODE     CYLIB  CYPM  
CyVdLvAnalogDisable. . . . . . . . . . . CODE     CYLIB  CYPM  
CyVdLvDigitDisable . . . . . . . . . . . CODE     CYLIB  CYPM  
CyVdRealTimeStatus . . . . . . . . . . . CODE     CYLIB  
CyWdtClear . . . . . . . . . . . . . . . CODE     CYLIB  
CyXTAL_32KHZ_ReadStatus. . . . . . . . . CODE     CYLIB  
CyXTAL_32KHZ_Start . . . . . . . . . . . CODE     CYLIB  CYPM  
CyXTAL_32KHZ_Stop. . . . . . . . . . . . CODE     CYLIB  
CyXTAL_DisableErrStatus. . . . . . . . . CODE     CYLIB  
CyXTAL_DisableFaultRecovery. . . . . . . CODE     CYLIB  
CyXTAL_EnableErrStatus . . . . . . . . . CODE     CYLIB  
CyXTAL_EnableFaultRecovery . . . . . . . CODE     CYLIB  
CyXTAL_ReadStatus. . . . . . . . . . . . CODE     CYLIB  
CyXTAL_Stop. . . . . . . . . . . . . . . CODE     CYLIB  CYPM  
deactivate_slaves. . . . . . . . . . . . CODE     COMMAND_PROCESSING  INTERRUPTIONS  
dev_pwm_limit. . . . . . . . . . . . . . XDATA    GLOBALS  COMMAND_PROCESSING  INTERRUPTIONS  MAIN  
dev_tension. . . . . . . . . . . . . . . XDATA    GLOBALS  COMMAND_PROCESSING  INTERRUPTIONS  
dev_tension_f. . . . . . . . . . . . . . XDATA    GLOBALS  INTERRUPTIONS  
dieTemperature . . . . . . . . . . . . . XDATA    CYFLASH  EEPROM  
DMA_DmaHandle. . . . . . . . . . . . . . XDATA    DMA_DMA  
DMA_DmaRelease . . . . . . . . . . . . . CODE     DMA_DMA  
DPH. . . . . . . . . . . . . . . . . . . DATA     COMMAND_PROCESSING  
DPH1 . . . . . . . . . . . . . . . . . . DATA     COMMAND_PROCESSING  
DPL. . . . . . . . . . . . . . . . . . . DATA     COMMAND_PROCESSING  
DPL1 . . . . . . . . . . . . . . . . . . DATA     COMMAND_PROCESSING  
DPS. . . . . . . . . . . . . . . . . . . DATA     COMMAND_PROCESSING  
DPX. . . . . . . . . . . . . . . . . . . DATA     COMMAND_PROCESSING  
DPX1 . . . . . . . . . . . . . . . . . . DATA     COMMAND_PROCESSING  
drive_force_fb . . . . . . . . . . . . . CODE     COMMAND_PROCESSING  INTERRUPTIONS  
drive_proprio_fb . . . . . . . . . . . . CODE     COMMAND_PROCESSING  INTERRUPTIONS  
drive_SH . . . . . . . . . . . . . . . . CODE     COMMAND_PROCESSING  INTERRUPTIONS  
EA . . . . . . . . . . . . . . . . . . . DATA     COMMAND_PROCESSING  
EEPROM_ADDR. . . . . . . . . . . . . . . XDATA    COMMAND_PROCESSING  
EEPROM_Enable. . . . . . . . . . . . . . CODE     EEPROM  
EEPROM_Query . . . . . . . . . . . . . . CODE     EEPROM  
EEPROM_Start . . . . . . . . . . . . . . CODE     EEPROM  MAIN  
EEPROM_Stop. . . . . . . . . . . . . . . CODE     EEPROM  
LX51 LINKER/LOCATER V4.64.0.0                                                         04/06/2018  15:41:10  PAGE 167


EEPROM_UpdateTemperature . . . . . . . . CODE     EEPROM  
F0 . . . . . . . . . . . . . . . . . . . DATA     COMMAND_PROCESSING  
F1 . . . . . . . . . . . . . . . . . . . DATA     COMMAND_PROCESSING  
FF_STATUS_InterruptDisable . . . . . . . CODE     FF_STATUS  
FF_STATUS_InterruptEnable. . . . . . . . CODE     FF_STATUS  
FF_STATUS_Read . . . . . . . . . . . . . CODE     FF_STATUS  MAIN  
FF_STATUS_ReadMask . . . . . . . . . . . CODE     FF_STATUS  
first_tension_valid. . . . . . . . . . . XDATA    GLOBALS  INTERRUPTIONS  MAIN  
forced_open. . . . . . . . . . . . . . . XDATA    GLOBALS  INTERRUPTIONS  UTILS  
FTDI_ENABLE_REG_Read . . . . . . . . . . CODE     FTDI_ENABLE_REG  
function_scheduler . . . . . . . . . . . CODE     INTERRUPTIONS  MAIN  
g_meas . . . . . . . . . . . . . . . . . XDATA    GLOBALS  COMMAND_PROCESSING  INTERRUPTIONS  MAIN  UTILS  
g_measOld. . . . . . . . . . . . . . . . XDATA    GLOBALS  COMMAND_PROCESSING  INTERRUPTIONS  
g_mem. . . . . . . . . . . . . . . . . . XDATA    GLOBALS  COMMAND_PROCESSING  INTERRUPTIONS  MAIN  UTILS  
g_ref. . . . . . . . . . . . . . . . . . XDATA    GLOBALS  COMMAND_PROCESSING  INTERRUPTIONS  MAIN  UTILS  
g_refNew . . . . . . . . . . . . . . . . XDATA    GLOBALS  COMMAND_PROCESSING  INTERRUPTIONS  MAIN  
g_refOld . . . . . . . . . . . . . . . . XDATA    GLOBALS  COMMAND_PROCESSING  INTERRUPTIONS  
g_rx . . . . . . . . . . . . . . . . . . XDATA    GLOBALS  COMMAND_PROCESSING  INTERRUPTIONS  MAIN  
IE . . . . . . . . . . . . . . . . . . . DATA     COMMAND_PROCESSING  
infoSend . . . . . . . . . . . . . . . . CODE     COMMAND_PROCESSING  
IntDefaultHandler. . . . . . . . . . . . CODE     CYLIB  
interrupt_flag . . . . . . . . . . . . . BIT      GLOBALS  COMMAND_PROCESSING  INTERRUPTIONS  MAIN  
interrupt_manager. . . . . . . . . . . . CODE     INTERRUPTIONS  COMMAND_PROCESSING  MAIN  
ISR_RS485_RX_ClearPending. . . . . . . . CODE     ISR_RS485_RX  
ISR_RS485_RX_Disable . . . . . . . . . . CODE     ISR_RS485_RX  COMMAND_PROCESSING  
ISR_RS485_RX_Enable. . . . . . . . . . . CODE     ISR_RS485_RX  COMMAND_PROCESSING  
ISR_RS485_RX_ExInterrupt . . . . . . . . CODE     INTERRUPTIONS  MAIN  
ISR_RS485_RX_GetPriority . . . . . . . . CODE     ISR_RS485_RX  
ISR_RS485_RX_GetState. . . . . . . . . . CODE     ISR_RS485_RX  
ISR_RS485_RX_GetVector . . . . . . . . . CODE     ISR_RS485_RX  
ISR_RS485_RX_Interrupt . . . . . . . . . CODE     ISR_RS485_RX  
ISR_RS485_RX_SetPending. . . . . . . . . CODE     ISR_RS485_RX  
ISR_RS485_RX_Start . . . . . . . . . . . CODE     ISR_RS485_RX  
ISR_RS485_RX_Stop. . . . . . . . . . . . CODE     ISR_RS485_RX  
ISR_WATCHDOG_ClearPending. . . . . . . . CODE     ISR_WATCHDOG  
ISR_WATCHDOG_Disable . . . . . . . . . . CODE     ISR_WATCHDOG  
ISR_WATCHDOG_Enable. . . . . . . . . . . CODE     ISR_WATCHDOG  
ISR_WATCHDOG_GetPriority . . . . . . . . CODE     ISR_WATCHDOG  
ISR_WATCHDOG_GetState. . . . . . . . . . CODE     ISR_WATCHDOG  
ISR_WATCHDOG_GetVector . . . . . . . . . CODE     ISR_WATCHDOG  
ISR_WATCHDOG_Handler . . . . . . . . . . CODE     INTERRUPTIONS  MAIN  
ISR_WATCHDOG_Interrupt . . . . . . . . . CODE     ISR_WATCHDOG  
ISR_WATCHDOG_SetPending. . . . . . . . . CODE     ISR_WATCHDOG  
ISR_WATCHDOG_Start . . . . . . . . . . . CODE     ISR_WATCHDOG  
ISR_WATCHDOG_Stop. . . . . . . . . . . . CODE     ISR_WATCHDOG  
LED_BLINK_EN_Read. . . . . . . . . . . . CODE     LED_BLINK_EN  
LED_BLINK_Enable . . . . . . . . . . . . CODE     LED_BLINK  
LED_BLINK_Init . . . . . . . . . . . . . CODE     LED_BLINK  
LED_BLINK_initVar. . . . . . . . . . . . XDATA    LED_BLINK  
LED_BLINK_ReadCapture. . . . . . . . . . CODE     LED_BLINK  
LED_BLINK_ReadCompare. . . . . . . . . . CODE     LED_BLINK  
LED_BLINK_ReadControlRegister. . . . . . CODE     LED_BLINK  
LED_BLINK_ReadCounter. . . . . . . . . . CODE     LED_BLINK  
LED_BLINK_ReadPeriod . . . . . . . . . . CODE     LED_BLINK  
LED_BLINK_Start. . . . . . . . . . . . . CODE     LED_BLINK  MAIN  
LED_BLINK_Stop . . . . . . . . . . . . . CODE     LED_BLINK  
LED_CTRL_Read. . . . . . . . . . . . . . CODE     LED_CTRL  
main . . . . . . . . . . . . . . . . . . CODE     MAIN  ?C_INIT  
master_mode. . . . . . . . . . . . . . . XDATA    GLOBALS  COMMAND_PROCESSING  INTERRUPTIONS  MAIN  UTILS  
memInit. . . . . . . . . . . . . . . . . CODE     COMMAND_PROCESSING  
memRecall. . . . . . . . . . . . . . . . CODE     COMMAND_PROCESSING  MAIN  
memRestore . . . . . . . . . . . . . . . CODE     COMMAND_PROCESSING  
motor_control. . . . . . . . . . . . . . CODE     INTERRUPTIONS  
MOTOR_DIR_Read . . . . . . . . . . . . . CODE     MOTOR_DIR  
MOTOR_ON_OFF_Read. . . . . . . . . . . . CODE     MOTOR_ON_OFF  
LX51 LINKER/LOCATER V4.64.0.0                                                         04/06/2018  15:41:10  PAGE 168


MXAX . . . . . . . . . . . . . . . . . . DATA     COMMAND_PROCESSING  
MY_TIMER_ClearFIFO . . . . . . . . . . . CODE     MY_TIMER  
MY_TIMER_Enable. . . . . . . . . . . . . CODE     MY_TIMER  
MY_TIMER_Init. . . . . . . . . . . . . . CODE     MY_TIMER  
MY_TIMER_initVar . . . . . . . . . . . . XDATA    MY_TIMER  
MY_TIMER_ReadCapture . . . . . . . . . . CODE     MY_TIMER  
MY_TIMER_ReadControlRegister . . . . . . CODE     MY_TIMER  
MY_TIMER_ReadCounter . . . . . . . . . . CODE     MY_TIMER  COMMAND_PROCESSING  INTERRUPTIONS  
MY_TIMER_ReadPeriod. . . . . . . . . . . CODE     MY_TIMER  
MY_TIMER_ReadStatusRegister. . . . . . . CODE     MY_TIMER  
MY_TIMER_SoftwareCapture . . . . . . . . CODE     MY_TIMER  
MY_TIMER_Start . . . . . . . . . . . . . CODE     MY_TIMER  MAIN  
MY_TIMER_Stop. . . . . . . . . . . . . . CODE     MY_TIMER  
OV . . . . . . . . . . . . . . . . . . . DATA     COMMAND_PROCESSING  
overcurrent_control. . . . . . . . . . . CODE     INTERRUPTIONS  
P. . . . . . . . . . . . . . . . . . . . DATA     COMMAND_PROCESSING  
P2AX . . . . . . . . . . . . . . . . . . DATA     COMMAND_PROCESSING  
PACER_TIMER_Enable . . . . . . . . . . . CODE     PACER_TIMER  
PACER_TIMER_Init . . . . . . . . . . . . CODE     PACER_TIMER  
PACER_TIMER_initVar. . . . . . . . . . . XDATA    PACER_TIMER  
PACER_TIMER_ReadCapture. . . . . . . . . CODE     PACER_TIMER  
PACER_TIMER_ReadControlRegister. . . . . CODE     PACER_TIMER  
PACER_TIMER_ReadCounter. . . . . . . . . CODE     PACER_TIMER  
PACER_TIMER_ReadPeriod . . . . . . . . . CODE     PACER_TIMER  
PACER_TIMER_ReadStatusRegister . . . . . CODE     PACER_TIMER  
PACER_TIMER_SoftwareCapture. . . . . . . CODE     PACER_TIMER  
PACER_TIMER_Start. . . . . . . . . . . . CODE     PACER_TIMER  MAIN  
PACER_TIMER_Stop . . . . . . . . . . . . CODE     PACER_TIMER  
pow_tension. . . . . . . . . . . . . . . XDATA    GLOBALS  COMMAND_PROCESSING  INTERRUPTIONS  MAIN  
PSW. . . . . . . . . . . . . . . . . . . DATA     COMMAND_PROCESSING  
pwm_limit_search . . . . . . . . . . . . CODE     INTERRUPTIONS  
PWM_MOTORS_Enable. . . . . . . . . . . . CODE     PWM_MOTORS  
PWM_MOTORS_Init. . . . . . . . . . . . . CODE     PWM_MOTORS  
PWM_MOTORS_initVar . . . . . . . . . . . XDATA    PWM_MOTORS  
PWM_MOTORS_ReadCapture . . . . . . . . . CODE     PWM_MOTORS  
PWM_MOTORS_ReadCompare1. . . . . . . . . CODE     PWM_MOTORS  
PWM_MOTORS_ReadCompare2. . . . . . . . . CODE     PWM_MOTORS  
PWM_MOTORS_ReadControlRegister . . . . . CODE     PWM_MOTORS  
PWM_MOTORS_ReadCounter . . . . . . . . . CODE     PWM_MOTORS  
PWM_MOTORS_ReadPeriod. . . . . . . . . . CODE     PWM_MOTORS  
PWM_MOTORS_Start . . . . . . . . . . . . CODE     PWM_MOTORS  MAIN  
PWM_MOTORS_Stop. . . . . . . . . . . . . CODE     PWM_MOTORS  
pwm_sign . . . . . . . . . . . . . . . . XDATA    GLOBALS  INTERRUPTIONS  
RESET_COUNTERS_Read. . . . . . . . . . . CODE     RESET_COUNTERS  
RESET_FF_Read. . . . . . . . . . . . . . CODE     RESET_FF  
reset_last_value_flag. . . . . . . . . . BIT      GLOBALS  COMMAND_PROCESSING  INTERRUPTIONS  MAIN  
rest_enabled . . . . . . . . . . . . . . XDATA    GLOBALS  INTERRUPTIONS  MAIN  UTILS  
rest_pos_curr_ref. . . . . . . . . . . . XDATA    GLOBALS  INTERRUPTIONS  UTILS  
RS0. . . . . . . . . . . . . . . . . . . DATA     COMMAND_PROCESSING  
RS1. . . . . . . . . . . . . . . . . . . DATA     COMMAND_PROCESSING  
RS485_CTS_Read . . . . . . . . . . . . . CODE     RS485_CTS  
setZeros . . . . . . . . . . . . . . . . CODE     COMMAND_PROCESSING  
SFRPRT0DR. . . . . . . . . . . . . . . . DATA     COMMAND_PROCESSING  
SFRPRT0PS. . . . . . . . . . . . . . . . DATA     COMMAND_PROCESSING  
SFRPRT0SEL . . . . . . . . . . . . . . . DATA     COMMAND_PROCESSING  
SFRPRT12DR . . . . . . . . . . . . . . . DATA     COMMAND_PROCESSING  
SFRPRT12PS . . . . . . . . . . . . . . . DATA     COMMAND_PROCESSING  
SFRPRT12SEL. . . . . . . . . . . . . . . DATA     COMMAND_PROCESSING  
SFRPRT15DR . . . . . . . . . . . . . . . DATA     COMMAND_PROCESSING  
SFRPRT15PS . . . . . . . . . . . . . . . DATA     COMMAND_PROCESSING  
SFRPRT15SEL. . . . . . . . . . . . . . . DATA     COMMAND_PROCESSING  
SFRPRT1DR. . . . . . . . . . . . . . . . DATA     COMMAND_PROCESSING  
SFRPRT1PS. . . . . . . . . . . . . . . . DATA     COMMAND_PROCESSING  
SFRPRT1SEL . . . . . . . . . . . . . . . DATA     COMMAND_PROCESSING  
SFRPRT2DR. . . . . . . . . . . . . . . . DATA     COMMAND_PROCESSING  
LX51 LINKER/LOCATER V4.64.0.0                                                         04/06/2018  15:41:10  PAGE 169


SFRPRT2PS. . . . . . . . . . . . . . . . DATA     COMMAND_PROCESSING  
SFRPRT2SEL . . . . . . . . . . . . . . . DATA     COMMAND_PROCESSING  
SFRPRT3DR. . . . . . . . . . . . . . . . DATA     COMMAND_PROCESSING  
SFRPRT3PS. . . . . . . . . . . . . . . . DATA     COMMAND_PROCESSING  
SFRPRT3SEL . . . . . . . . . . . . . . . DATA     COMMAND_PROCESSING  
SFRPRT4DR. . . . . . . . . . . . . . . . DATA     COMMAND_PROCESSING  
SFRPRT4PS. . . . . . . . . . . . . . . . DATA     COMMAND_PROCESSING  
SFRPRT4SEL . . . . . . . . . . . . . . . DATA     COMMAND_PROCESSING  
SFRPRT5DR. . . . . . . . . . . . . . . . DATA     COMMAND_PROCESSING  
SFRPRT5PS. . . . . . . . . . . . . . . . DATA     COMMAND_PROCESSING  
SFRPRT5SEL . . . . . . . . . . . . . . . DATA     COMMAND_PROCESSING  
SFRPRT6DR. . . . . . . . . . . . . . . . DATA     COMMAND_PROCESSING  
SFRPRT6PS. . . . . . . . . . . . . . . . DATA     COMMAND_PROCESSING  
SFRPRT6SEL . . . . . . . . . . . . . . . DATA     COMMAND_PROCESSING  
SHIFTREG_ENC_1_DisableInt. . . . . . . . CODE     SHIFTREG_ENC_1  
SHIFTREG_ENC_1_Enable. . . . . . . . . . CODE     SHIFTREG_ENC_1  
SHIFTREG_ENC_1_EnableInt . . . . . . . . CODE     SHIFTREG_ENC_1  
SHIFTREG_ENC_1_GetIntStatus. . . . . . . CODE     SHIFTREG_ENC_1  
SHIFTREG_ENC_1_Init. . . . . . . . . . . CODE     SHIFTREG_ENC_1  
SHIFTREG_ENC_1_initVar . . . . . . . . . XDATA    SHIFTREG_ENC_1  
SHIFTREG_ENC_1_ReadData. . . . . . . . . CODE     SHIFTREG_ENC_1  INTERRUPTIONS  
SHIFTREG_ENC_1_ReadRegValue. . . . . . . CODE     SHIFTREG_ENC_1  
SHIFTREG_ENC_1_Start . . . . . . . . . . CODE     SHIFTREG_ENC_1  MAIN  
SHIFTREG_ENC_1_Stop. . . . . . . . . . . CODE     SHIFTREG_ENC_1  
SHIFTREG_ENC_2_DisableInt. . . . . . . . CODE     SHIFTREG_ENC_2  
SHIFTREG_ENC_2_Enable. . . . . . . . . . CODE     SHIFTREG_ENC_2  
SHIFTREG_ENC_2_EnableInt . . . . . . . . CODE     SHIFTREG_ENC_2  
SHIFTREG_ENC_2_GetIntStatus. . . . . . . CODE     SHIFTREG_ENC_2  
SHIFTREG_ENC_2_Init. . . . . . . . . . . CODE     SHIFTREG_ENC_2  
SHIFTREG_ENC_2_initVar . . . . . . . . . XDATA    SHIFTREG_ENC_2  
SHIFTREG_ENC_2_ReadData. . . . . . . . . CODE     SHIFTREG_ENC_2  INTERRUPTIONS  
SHIFTREG_ENC_2_ReadRegValue. . . . . . . CODE     SHIFTREG_ENC_2  
SHIFTREG_ENC_2_Start . . . . . . . . . . CODE     SHIFTREG_ENC_2  MAIN  
SHIFTREG_ENC_2_Stop. . . . . . . . . . . CODE     SHIFTREG_ENC_2  
SHIFTREG_ENC_3_DisableInt. . . . . . . . CODE     SHIFTREG_ENC_3  
SHIFTREG_ENC_3_Enable. . . . . . . . . . CODE     SHIFTREG_ENC_3  
SHIFTREG_ENC_3_EnableInt . . . . . . . . CODE     SHIFTREG_ENC_3  
SHIFTREG_ENC_3_GetIntStatus. . . . . . . CODE     SHIFTREG_ENC_3  
SHIFTREG_ENC_3_Init. . . . . . . . . . . CODE     SHIFTREG_ENC_3  
SHIFTREG_ENC_3_initVar . . . . . . . . . XDATA    SHIFTREG_ENC_3  
SHIFTREG_ENC_3_ReadData. . . . . . . . . CODE     SHIFTREG_ENC_3  INTERRUPTIONS  
SHIFTREG_ENC_3_ReadRegValue. . . . . . . CODE     SHIFTREG_ENC_3  
SHIFTREG_ENC_3_Start . . . . . . . . . . CODE     SHIFTREG_ENC_3  MAIN  
SHIFTREG_ENC_3_Stop. . . . . . . . . . . CODE     SHIFTREG_ENC_3  
SP . . . . . . . . . . . . . . . . . . . DATA     COMMAND_PROCESSING  
SpcLockState . . . . . . . . . . . . . . XDATA    CYSPC  
STARTUP1 . . . . . . . . . . . . . . . . CODE     ?C_STARTUP  
tau_feedback . . . . . . . . . . . . . . XDATA    GLOBALS  
tension_valid. . . . . . . . . . . . . . BIT      GLOBALS  INTERRUPTIONS  MAIN  
timer_value. . . . . . . . . . . . . . . XDATA    GLOBALS  COMMAND_PROCESSING  INTERRUPTIONS  
timer_value0 . . . . . . . . . . . . . . XDATA    GLOBALS  COMMAND_PROCESSING  INTERRUPTIONS  
UART_RS485_ClearRxBuffer . . . . . . . . CODE     UART_RS485  MAIN  
UART_RS485_ClearTxBuffer . . . . . . . . CODE     UART_RS485  MAIN  
UART_RS485_Enable. . . . . . . . . . . . CODE     UART_RS485  
UART_RS485_errorStatus . . . . . . . . . XDATA    UART_RS485  UART_RS485_INT  
UART_RS485_GetByte . . . . . . . . . . . CODE     UART_RS485  
UART_RS485_GetChar . . . . . . . . . . . CODE     UART_RS485  INTERRUPTIONS  
UART_RS485_GetRxBufferSize . . . . . . . CODE     UART_RS485  INTERRUPTIONS  
UART_RS485_GetTxBufferSize . . . . . . . CODE     UART_RS485  
UART_RS485_Init. . . . . . . . . . . . . CODE     UART_RS485  MAIN  
UART_RS485_initVar . . . . . . . . . . . XDATA    UART_RS485  
UART_RS485_ReadControlRegister . . . . . CODE     UART_RS485  
UART_RS485_ReadRxData. . . . . . . . . . CODE     UART_RS485  
UART_RS485_ReadRxStatus. . . . . . . . . CODE     UART_RS485  MAIN  
UART_RS485_ReadTxStatus. . . . . . . . . CODE     UART_RS485  COMMAND_PROCESSING  
LX51 LINKER/LOCATER V4.64.0.0                                                         04/06/2018  15:41:10  PAGE 170


UART_RS485_rxBuffer. . . . . . . . . . . XDATA    UART_RS485  UART_RS485_INT  
UART_RS485_rxBufferLoopDetect. . . . . . XDATA    UART_RS485  UART_RS485_INT  
UART_RS485_rxBufferOverflow. . . . . . . XDATA    UART_RS485  UART_RS485_INT  
UART_RS485_rxBufferRead. . . . . . . . . XDATA    UART_RS485  UART_RS485_INT  
UART_RS485_rxBufferWrite . . . . . . . . XDATA    UART_RS485  UART_RS485_INT  
UART_RS485_RXISR . . . . . . . . . . . . CODE     UART_RS485_INT  UART_RS485  
UART_RS485_Start . . . . . . . . . . . . CODE     UART_RS485  MAIN  
UART_RS485_Stop. . . . . . . . . . . . . CODE     UART_RS485  MAIN  
WATCHDOG_COUNTER_Enable. . . . . . . . . CODE     WATCHDOG_COUNTER  
WATCHDOG_COUNTER_Init. . . . . . . . . . CODE     WATCHDOG_COUNTER  
WATCHDOG_COUNTER_initVar . . . . . . . . XDATA    WATCHDOG_COUNTER  
WATCHDOG_COUNTER_ReadCapture . . . . . . CODE     WATCHDOG_COUNTER  
WATCHDOG_COUNTER_ReadControlRegister . . CODE     WATCHDOG_COUNTER  
WATCHDOG_COUNTER_ReadCounter . . . . . . CODE     WATCHDOG_COUNTER  
WATCHDOG_COUNTER_ReadPeriod. . . . . . . CODE     WATCHDOG_COUNTER  
WATCHDOG_COUNTER_ReadStatusRegister. . . CODE     WATCHDOG_COUNTER  
WATCHDOG_COUNTER_Start . . . . . . . . . CODE     WATCHDOG_COUNTER  MAIN  
WATCHDOG_COUNTER_Stop. . . . . . . . . . CODE     WATCHDOG_COUNTER  
WATCHDOG_ENABLER_Read. . . . . . . . . . CODE     WATCHDOG_ENABLER  
watchdog_flag. . . . . . . . . . . . . . BIT      GLOBALS  INTERRUPTIONS  MAIN  
WATCHDOG_REFRESH_Read. . . . . . . . . . CODE     WATCHDOG_REFRESH  

Program Size: data=120.1 xdata=5122 const=1955 code=52937
LX51 RUN COMPLETE.  0 WARNING(S),  0 ERROR(S)
