LX51 LINKER/LOCATER V4.64.0.0                                                           04/13/2018  12:12:27  PAGE 1


LX51 LINKER/LOCATER V4.64.0.0, INVOKED BY:
C:\PROGRAM FILES (X86)\CYPRESS\PSOC CREATOR\4.2\PSOC CREATOR\IMPORT\KEIL\PK51\9.51\C51\BIN\LX51.EXE .\DP8051_Keil_951\Re
>> lease\command_processing.obj, .\DP8051_Keil_951\Release\globals.obj, .\DP8051_Keil_951\Release\interruptions.obj, .\D
>> P8051_Keil_951\Release\main.obj, .\DP8051_Keil_951\Release\utils.obj, .\DP8051_Keil_951\Release\cyfitter_cfg.obj, .\D
>> P8051_Keil_951\Release\hand_firmware_micro.lib, C:\Program Files (x86)\Cypress\PSoC Creator\4.2\PSoC Creator\psoc\con
>> tent\cycomponentlibrary\CyComponentLibrary.cylib\DP8051\DP8051_Keil_951\Release\CyComponentLibrary.lib TO .\DP8051_Ke
>> il_951\Release\hand_firmware_micro.omf CODE RU RC (10) DW (16) WL (2) PR (.\DP8051_Keil_951\Release/hand_firmware_mic
>> ro.map) IX CL (XDATA (X:0X0000-X:0X1FFF)) CL (CODE (C:0X2600-C:0XFFBF)) CL (CONST (C:0X2600-C:0XFFBF))


CPU MODE:     8051 MODE
MEMORY MODEL: LARGE WITH FLOATING POINT ARITHMETIC


INPUT MODULES INCLUDED:
  .\DP8051_Keil_951\Release\command_processing.obj (COMMAND_PROCESSING)
         COMMENT TYPE 0: C51 V9.51
  .\DP8051_Keil_951\Release\globals.obj (GLOBALS)
         COMMENT TYPE 0: C51 V9.51
  .\DP8051_Keil_951\Release\interruptions.obj (INTERRUPTIONS)
         COMMENT TYPE 0: C51 V9.51
  .\DP8051_Keil_951\Release\main.obj (MAIN)
         COMMENT TYPE 0: C51 V9.51
  .\DP8051_Keil_951\Release\utils.obj (UTILS)
         COMMENT TYPE 0: C51 V9.51
  .\DP8051_Keil_951\Release\cyfitter_cfg.obj (CYFITTER_CFG)
         COMMENT TYPE 0: C51 V9.51
  .\DP8051_Keil_951\Release\hand_firmware_micro.lib (CLOCK_UART)
         COMMENT TYPE 0: C51 V9.51
  .\DP8051_Keil_951\Release\hand_firmware_micro.lib (ISR_RS485_RX)
         COMMENT TYPE 0: C51 V9.51
  .\DP8051_Keil_951\Release\hand_firmware_micro.lib (PWM_MOTORS)
         COMMENT TYPE 0: C51 V9.51
  .\DP8051_Keil_951\Release\hand_firmware_micro.lib (PACER_TIMER)
         COMMENT TYPE 0: C51 V9.51
  .\DP8051_Keil_951\Release\hand_firmware_micro.lib (UART_RS485)
         COMMENT TYPE 0: C51 V9.51
  .\DP8051_Keil_951\Release\hand_firmware_micro.lib (MOTOR_DIR)
         COMMENT TYPE 0: C51 V9.51
  .\DP8051_Keil_951\Release\hand_firmware_micro.lib (COUNTER_ENC)
         COMMENT TYPE 0: C51 V9.51
  .\DP8051_Keil_951\Release\hand_firmware_micro.lib (SHIFTREG_ENC_3)
         COMMENT TYPE 0: C51 V9.51
  .\DP8051_Keil_951\Release\hand_firmware_micro.lib (SHIFTREG_ENC_2)
         COMMENT TYPE 0: C51 V9.51
  .\DP8051_Keil_951\Release\hand_firmware_micro.lib (EEPROM)
         COMMENT TYPE 0: C51 V9.51
  .\DP8051_Keil_951\Release\hand_firmware_micro.lib (ADC)
         COMMENT TYPE 0: C51 V9.51
  .\DP8051_Keil_951\Release\hand_firmware_micro.lib (RS485_CTS)
         COMMENT TYPE 0: C51 V9.51
  .\DP8051_Keil_951\Release\hand_firmware_micro.lib (BOOTLOADABLE)
         COMMENT TYPE 0: C51 V9.51
  .\DP8051_Keil_951\Release\hand_firmware_micro.lib (MOTOR_ON_OFF)
         COMMENT TYPE 0: C51 V9.51
  .\DP8051_Keil_951\Release\hand_firmware_micro.lib (FTDI_ENABLE_REG)
         COMMENT TYPE 0: C51 V9.51
  .\DP8051_Keil_951\Release\hand_firmware_micro.lib (RESET_FF)
         COMMENT TYPE 0: C51 V9.51
  .\DP8051_Keil_951\Release\hand_firmware_micro.lib (FF_STATUS)
         COMMENT TYPE 0: C51 V9.51
  .\DP8051_Keil_951\Release\hand_firmware_micro.lib (MY_TIMER)
         COMMENT TYPE 0: C51 V9.51
  .\DP8051_Keil_951\Release\hand_firmware_micro.lib (SHIFTREG_ENC_1)
         COMMENT TYPE 0: C51 V9.51
  .\DP8051_Keil_951\Release\hand_firmware_micro.lib (RESET_COUNTERS)
LX51 LINKER/LOCATER V4.64.0.0                                                         04/13/2018  12:12:27  PAGE 2


         COMMENT TYPE 0: C51 V9.51
  .\DP8051_Keil_951\Release\hand_firmware_micro.lib (ADC_STATUS)
         COMMENT TYPE 0: C51 V9.51
  .\DP8051_Keil_951\Release\hand_firmware_micro.lib (DMA_DMA)
         COMMENT TYPE 0: C51 V9.51
  .\DP8051_Keil_951\Release\hand_firmware_micro.lib (ADC_SOC)
         COMMENT TYPE 0: C51 V9.51
  .\DP8051_Keil_951\Release\hand_firmware_micro.lib (ISR_WATCHDOG)
         COMMENT TYPE 0: C51 V9.51
  .\DP8051_Keil_951\Release\hand_firmware_micro.lib (WATCHDOG_COUNTER)
         COMMENT TYPE 0: C51 V9.51
  .\DP8051_Keil_951\Release\hand_firmware_micro.lib (WATCHDOG_ENABLER)
         COMMENT TYPE 0: C51 V9.51
  .\DP8051_Keil_951\Release\hand_firmware_micro.lib (WATCHDOG_REFRESH)
         COMMENT TYPE 0: C51 V9.51
  .\DP8051_Keil_951\Release\hand_firmware_micro.lib (CYDMAC)
         COMMENT TYPE 0: C51 V9.51
  .\DP8051_Keil_951\Release\hand_firmware_micro.lib (CYFLASH)
         COMMENT TYPE 0: C51 V9.51
  .\DP8051_Keil_951\Release\hand_firmware_micro.lib (CYLIB)
         COMMENT TYPE 0: C51 V9.51
  .\DP8051_Keil_951\Release\hand_firmware_micro.lib (LED_BLINK)
         COMMENT TYPE 0: C51 V9.51
  .\DP8051_Keil_951\Release\hand_firmware_micro.lib (LED_CTRL)
         COMMENT TYPE 0: C51 V9.51
  .\DP8051_Keil_951\Release\hand_firmware_micro.lib (LED_BLINK_EN)
         COMMENT TYPE 0: C51 V9.51
  .\DP8051_Keil_951\Release\hand_firmware_micro.lib (CYBOOTASMKEIL)
         COMMENT TYPE 0: AX51 V3.07d
  .\DP8051_Keil_951\Release\hand_firmware_micro.lib (CYMEM)
         COMMENT TYPE 0: AX51 V3.07d
  .\DP8051_Keil_951\Release\hand_firmware_micro.lib (?C_STARTUP)
         COMMENT TYPE 0: AX51 V3.07d
  .\DP8051_Keil_951\Release\hand_firmware_micro.lib (UART_RS485_INT)
         COMMENT TYPE 0: C51 V9.51
  .\DP8051_Keil_951\Release\hand_firmware_micro.lib (ADC_INT)
         COMMENT TYPE 0: C51 V9.51
  .\DP8051_Keil_951\Release\hand_firmware_micro.lib (ADC_AMUX)
         COMMENT TYPE 0: C51 V9.51
  .\DP8051_Keil_951\Release\hand_firmware_micro.lib (ADC_EXT_CP_CLK)
         COMMENT TYPE 0: C51 V9.51
  .\DP8051_Keil_951\Release\hand_firmware_micro.lib (ADC_THEACLK)
         COMMENT TYPE 0: C51 V9.51
  .\DP8051_Keil_951\Release\hand_firmware_micro.lib (CYPM)
         COMMENT TYPE 0: C51 V9.51
  .\DP8051_Keil_951\Release\hand_firmware_micro.lib (CYSPC)
         COMMENT TYPE 0: C51 V9.51
  C:\PROGRAM FILES (X86)\CYPRESS\PSOC CREATOR\4.2\PSOC CREATOR\IMPORT\KEIL\PK51\9.51\C51\LIB\C51FPL.LIB (?C?FPADD)
         COMMENT TYPE 1: A51 / ASM51 Assembler
  C:\PROGRAM FILES (X86)\CYPRESS\PSOC CREATOR\4.2\PSOC CREATOR\IMPORT\KEIL\PK51\9.51\C51\LIB\C51FPL.LIB (?C?FPMUL)
         COMMENT TYPE 1: A51 / ASM51 Assembler
  C:\PROGRAM FILES (X86)\CYPRESS\PSOC CREATOR\4.2\PSOC CREATOR\IMPORT\KEIL\PK51\9.51\C51\LIB\C51FPL.LIB (?C?FPDIV)
         COMMENT TYPE 1: A51 / ASM51 Assembler
  C:\PROGRAM FILES (X86)\CYPRESS\PSOC CREATOR\4.2\PSOC CREATOR\IMPORT\KEIL\PK51\9.51\C51\LIB\C51FPL.LIB (?C?FPCMP)
         COMMENT TYPE 1: A51 / ASM51 Assembler
  C:\PROGRAM FILES (X86)\CYPRESS\PSOC CREATOR\4.2\PSOC CREATOR\IMPORT\KEIL\PK51\9.51\C51\LIB\C51FPL.LIB (?C?FCAST)
         COMMENT TYPE 1: A51 / ASM51 Assembler
  C:\PROGRAM FILES (X86)\CYPRESS\PSOC CREATOR\4.2\PSOC CREATOR\IMPORT\KEIL\PK51\9.51\C51\LIB\C51FPL.LIB (?C?CASTF)
         COMMENT TYPE 1: A51 / ASM51 Assembler
  C:\PROGRAM FILES (X86)\CYPRESS\PSOC CREATOR\4.2\PSOC CREATOR\IMPORT\KEIL\PK51\9.51\C51\LIB\C51FPL.LIB (PRINTF)
         COMMENT TYPE 1: A51 / ASM51 Assembler
  C:\PROGRAM FILES (X86)\CYPRESS\PSOC CREATOR\4.2\PSOC CREATOR\IMPORT\KEIL\PK51\9.51\C51\LIB\C51FPL.LIB (?C?FPGETOPN)
         COMMENT TYPE 1: A51 / ASM51 Assembler
  C:\PROGRAM FILES (X86)\CYPRESS\PSOC CREATOR\4.2\PSOC CREATOR\IMPORT\KEIL\PK51\9.51\C51\LIB\C51FPL.LIB (?C?FPROUND)
         COMMENT TYPE 1: A51 / ASM51 Assembler
LX51 LINKER/LOCATER V4.64.0.0                                                         04/13/2018  12:12:27  PAGE 3


  C:\PROGRAM FILES (X86)\CYPRESS\PSOC CREATOR\4.2\PSOC CREATOR\IMPORT\KEIL\PK51\9.51\C51\LIB\C51FPL.LIB (?C?FPCONVERT)
         COMMENT TYPE 1: A51 / ASM51 Assembler
  C:\PROGRAM FILES (X86)\CYPRESS\PSOC CREATOR\4.2\PSOC CREATOR\IMPORT\KEIL\PK51\9.51\C51\LIB\C51FPL.LIB (?C?FTNPWR)
         COMMENT TYPE 1: A51 / ASM51 Assembler
  C:\PROGRAM FILES (X86)\CYPRESS\PSOC CREATOR\4.2\PSOC CREATOR\IMPORT\KEIL\PK51\9.51\C51\LIB\C51L.LIB (?C_INIT)
         COMMENT TYPE 1: A51 / ASM51 Assembler
  C:\PROGRAM FILES (X86)\CYPRESS\PSOC CREATOR\4.2\PSOC CREATOR\IMPORT\KEIL\PK51\9.51\C51\LIB\C51L.LIB (?C?CLDPTR)
         COMMENT TYPE 1: A51 / ASM51 Assembler
  C:\PROGRAM FILES (X86)\CYPRESS\PSOC CREATOR\4.2\PSOC CREATOR\IMPORT\KEIL\PK51\9.51\C51\LIB\C51L.LIB (?C?CLDOPTR)
         COMMENT TYPE 1: A51 / ASM51 Assembler
  C:\PROGRAM FILES (X86)\CYPRESS\PSOC CREATOR\4.2\PSOC CREATOR\IMPORT\KEIL\PK51\9.51\C51\LIB\C51L.LIB (?C?CSTPTR)
         COMMENT TYPE 1: A51 / ASM51 Assembler
  C:\PROGRAM FILES (X86)\CYPRESS\PSOC CREATOR\4.2\PSOC CREATOR\IMPORT\KEIL\PK51\9.51\C51\LIB\C51L.LIB (?C?IMUL)
         COMMENT TYPE 1: A51 / ASM51 Assembler
  C:\PROGRAM FILES (X86)\CYPRESS\PSOC CREATOR\4.2\PSOC CREATOR\IMPORT\KEIL\PK51\9.51\C51\LIB\C51L.LIB (?C?ISTPTR)
         COMMENT TYPE 1: A51 / ASM51 Assembler
  C:\PROGRAM FILES (X86)\CYPRESS\PSOC CREATOR\4.2\PSOC CREATOR\IMPORT\KEIL\PK51\9.51\C51\LIB\C51L.LIB (?C?LMUL)
         COMMENT TYPE 1: A51 / ASM51 Assembler
  C:\PROGRAM FILES (X86)\CYPRESS\PSOC CREATOR\4.2\PSOC CREATOR\IMPORT\KEIL\PK51\9.51\C51\LIB\C51L.LIB (?C?ULDIV)
         COMMENT TYPE 1: A51 / ASM51 Assembler
  C:\PROGRAM FILES (X86)\CYPRESS\PSOC CREATOR\4.2\PSOC CREATOR\IMPORT\KEIL\PK51\9.51\C51\LIB\C51L.LIB (?C?SLDIV)
         COMMENT TYPE 1: A51 / ASM51 Assembler
  C:\PROGRAM FILES (X86)\CYPRESS\PSOC CREATOR\4.2\PSOC CREATOR\IMPORT\KEIL\PK51\9.51\C51\LIB\C51L.LIB (?C?LNOT)
         COMMENT TYPE 1: A51 / ASM51 Assembler
  C:\PROGRAM FILES (X86)\CYPRESS\PSOC CREATOR\4.2\PSOC CREATOR\IMPORT\KEIL\PK51\9.51\C51\LIB\C51L.LIB (?C?LNEG)
         COMMENT TYPE 1: A51 / ASM51 Assembler
  C:\PROGRAM FILES (X86)\CYPRESS\PSOC CREATOR\4.2\PSOC CREATOR\IMPORT\KEIL\PK51\9.51\C51\LIB\C51L.LIB (?C?SLCMP)
         COMMENT TYPE 1: A51 / ASM51 Assembler
  C:\PROGRAM FILES (X86)\CYPRESS\PSOC CREATOR\4.2\PSOC CREATOR\IMPORT\KEIL\PK51\9.51\C51\LIB\C51L.LIB (?C?ULCMP)
         COMMENT TYPE 1: A51 / ASM51 Assembler
  C:\PROGRAM FILES (X86)\CYPRESS\PSOC CREATOR\4.2\PSOC CREATOR\IMPORT\KEIL\PK51\9.51\C51\LIB\C51L.LIB (?C?ULSHR)
         COMMENT TYPE 1: A51 / ASM51 Assembler
  C:\PROGRAM FILES (X86)\CYPRESS\PSOC CREATOR\4.2\PSOC CREATOR\IMPORT\KEIL\PK51\9.51\C51\LIB\C51L.LIB (?C?SLSHR)
         COMMENT TYPE 1: A51 / ASM51 Assembler
  C:\PROGRAM FILES (X86)\CYPRESS\PSOC CREATOR\4.2\PSOC CREATOR\IMPORT\KEIL\PK51\9.51\C51\LIB\C51L.LIB (?C?LSHL)
         COMMENT TYPE 1: A51 / ASM51 Assembler
  C:\PROGRAM FILES (X86)\CYPRESS\PSOC CREATOR\4.2\PSOC CREATOR\IMPORT\KEIL\PK51\9.51\C51\LIB\C51L.LIB (?C?LLDPTR)
         COMMENT TYPE 1: A51 / ASM51 Assembler
  C:\PROGRAM FILES (X86)\CYPRESS\PSOC CREATOR\4.2\PSOC CREATOR\IMPORT\KEIL\PK51\9.51\C51\LIB\C51L.LIB (?C?LSTPTR)
         COMMENT TYPE 1: A51 / ASM51 Assembler
  C:\PROGRAM FILES (X86)\CYPRESS\PSOC CREATOR\4.2\PSOC CREATOR\IMPORT\KEIL\PK51\9.51\C51\LIB\C51L.LIB (?C?LSTXDATA)
         COMMENT TYPE 1: A51 / ASM51 Assembler
  C:\PROGRAM FILES (X86)\CYPRESS\PSOC CREATOR\4.2\PSOC CREATOR\IMPORT\KEIL\PK51\9.51\C51\LIB\C51L.LIB (?C?PLDIXDATA)
         COMMENT TYPE 1: A51 / ASM51 Assembler
  C:\PROGRAM FILES (X86)\CYPRESS\PSOC CREATOR\4.2\PSOC CREATOR\IMPORT\KEIL\PK51\9.51\C51\LIB\C51L.LIB (?C?PSTXDATA)
         COMMENT TYPE 1: A51 / ASM51 Assembler
  C:\PROGRAM FILES (X86)\CYPRESS\PSOC CREATOR\4.2\PSOC CREATOR\IMPORT\KEIL\PK51\9.51\C51\LIB\C51L.LIB (?C?CCASE)
         COMMENT TYPE 1: A51 / ASM51 Assembler
  C:\PROGRAM FILES (X86)\CYPRESS\PSOC CREATOR\4.2\PSOC CREATOR\IMPORT\KEIL\PK51\9.51\C51\LIB\C51L.LIB (?C_XBP)
         COMMENT TYPE 1: A51 / ASM51 Assembler
  C:\PROGRAM FILES (X86)\CYPRESS\PSOC CREATOR\4.2\PSOC CREATOR\IMPORT\KEIL\PK51\9.51\C51\LIB\C51L.LIB (?C?ADDXBP)
         COMMENT TYPE 1: A51 / ASM51 Assembler
  C:\PROGRAM FILES (X86)\CYPRESS\PSOC CREATOR\4.2\PSOC CREATOR\IMPORT\KEIL\PK51\9.51\C51\LIB\C51L.LIB (?C?LIMUL)
         COMMENT TYPE 1: A51 / ASM51 Assembler
  C:\PROGRAM FILES (X86)\CYPRESS\PSOC CREATOR\4.2\PSOC CREATOR\IMPORT\KEIL\PK51\9.51\C51\LIB\C51L.LIB (PUTCHAR)
         COMMENT TYPE 1: A51 / ASM51 Assembler
  C:\PROGRAM FILES (X86)\CYPRESS\PSOC CREATOR\4.2\PSOC CREATOR\IMPORT\KEIL\PK51\9.51\C51\LIB\C51L.LIB (ABS)
         COMMENT TYPE 1: A51 / ASM51 Assembler
  C:\PROGRAM FILES (X86)\CYPRESS\PSOC CREATOR\4.2\PSOC CREATOR\IMPORT\KEIL\PK51\9.51\C51\LIB\C51L.LIB (STRCAT)
         COMMENT TYPE 1: C51 Compiler
  C:\PROGRAM FILES (X86)\CYPRESS\PSOC CREATOR\4.2\PSOC CREATOR\IMPORT\KEIL\PK51\9.51\C51\LIB\C51L.LIB (STRLEN)
         COMMENT TYPE 1: A51 / ASM51 Assembler
  C:\PROGRAM FILES (X86)\CYPRESS\PSOC CREATOR\4.2\PSOC CREATOR\IMPORT\KEIL\PK51\9.51\C51\LIB\C51L.LIB (?C?COPYAMD)
         COMMENT TYPE 1: A51 / ASM51 Assembler
  C:\PROGRAM FILES (X86)\CYPRESS\PSOC CREATOR\4.2\PSOC CREATOR\IMPORT\KEIL\PK51\9.51\C51\LIB\C51L.LIB (?C?STRCPYAMD)
LX51 LINKER/LOCATER V4.64.0.0                                                         04/13/2018  12:12:27  PAGE 4


         COMMENT TYPE 1: A51 / ASM51 Assembler
  C:\PROGRAM FILES (X86)\CYPRESS\PSOC CREATOR\4.2\PSOC CREATOR\IMPORT\KEIL\PK51\9.51\C51\LIB\C51L.LIB (?C?IILDX)
         COMMENT TYPE 1: A51 / ASM51 Assembler
  C:\PROGRAM FILES (X86)\CYPRESS\PSOC CREATOR\4.2\PSOC CREATOR\IMPORT\KEIL\PK51\9.51\C51\LIB\C51L.LIB (?C?ILDIX)
         COMMENT TYPE 1: A51 / ASM51 Assembler
  C:\PROGRAM FILES (X86)\CYPRESS\PSOC CREATOR\4.2\PSOC CREATOR\IMPORT\KEIL\PK51\9.51\C51\LIB\C51L.LIB (?C?LLDIDATA)
         COMMENT TYPE 1: A51 / ASM51 Assembler
  C:\PROGRAM FILES (X86)\CYPRESS\PSOC CREATOR\4.2\PSOC CREATOR\IMPORT\KEIL\PK51\9.51\C51\LIB\C51L.LIB (?C?LLDXDATA)
         COMMENT TYPE 1: A51 / ASM51 Assembler
  C:\PROGRAM FILES (X86)\CYPRESS\PSOC CREATOR\4.2\PSOC CREATOR\IMPORT\KEIL\PK51\9.51\C51\LIB\C51L.LIB (?C?LLDPDATA)
         COMMENT TYPE 1: A51 / ASM51 Assembler
  C:\PROGRAM FILES (X86)\CYPRESS\PSOC CREATOR\4.2\PSOC CREATOR\IMPORT\KEIL\PK51\9.51\C51\LIB\C51L.LIB (?C?LLDCODE)
         COMMENT TYPE 1: A51 / ASM51 Assembler
  C:\PROGRAM FILES (X86)\CYPRESS\PSOC CREATOR\4.2\PSOC CREATOR\IMPORT\KEIL\PK51\9.51\C51\LIB\C51L.LIB (?C?LSTIDATA)
         COMMENT TYPE 1: A51 / ASM51 Assembler
  C:\PROGRAM FILES (X86)\CYPRESS\PSOC CREATOR\4.2\PSOC CREATOR\IMPORT\KEIL\PK51\9.51\C51\LIB\C51L.LIB (?C?LSTPDATA)
         COMMENT TYPE 1: A51 / ASM51 Assembler


ACTIVE MEMORY CLASSES OF MODULE:  .\DP8051_Keil_951\Release\hand_firmware_micro.omf (COMMAND_PROCESSING)

BASE        START       END         USED      MEMORY CLASS
==========================================================
X:000000H   X:000000H   X:001FFFH   001410H   XDATA
C:000000H   C:002600H   C:00FFBFH   00CF3DH   CODE
C:000000H   C:002600H   C:00FFBFH   0007A3H   CONST
I:000000H   I:000000H   I:00007FH   000072H   DATA
I:000020H.0 I:000020H.0 I:00002FH.7 000002H.1 BIT
I:000000H   I:000000H   I:0000FFH   000004H   IDATA


MEMORY MAP OF MODULE:  .\DP8051_Keil_951\Release\hand_firmware_micro.omf (COMMAND_PROCESSING)


START     STOP      LENGTH    ALIGN  RELOC    MEMORY CLASS   SEGMENT NAME
=========================================================================

* * * * * * * * * * *   D A T A   M E M O R Y   * * * * * * * * * * * * *
000000H   000007H   000008H   ---    AT..     DATA           "REG BANK 0"
000008H   00001DH   000016H   BYTE   UNIT     DATA           ?DT?INTERRUPTIONS
00001EH   00001FH   000002H   BYTE   UNIT     DATA           ?DT?COMMAND_PROCESSING
000020H.0 000021H.1 000001H.2 BIT    UNIT     BIT            _BIT_GROUP_
000021H.2 000021H.5 000000H.4 BIT    UNIT     BIT            ?BI?GLOBALS
000021H.6 000022H.0 000000H.3 BIT    UNIT     BIT            ?BI?INTERRUPTIONS
000022H.1 000022H   000000H.7 ---    ---      **GAP**
000023H   000072H   000050H   BYTE   UNIT     DATA           _DATA_GROUP_
000073H   000074H   000002H   BYTE   UNIT     DATA           ?C?LIB_DATA
000075H   000077H   000003H   BYTE   UNIT     IDATA          _IDATA_GROUP_
000078H   000078H   000001H   BYTE   UNIT     IDATA          ?STACK

* * * * * * * * * * *   C O D E   M E M O R Y   * * * * * * * * * * * * *
002600H   002619H   00001AH   ---    OFFS..   CODE           ?CO?KEILSTART?3
00261AH   0045B7H   001F9EH   BYTE   UNIT     CODE           ?PR?_GET_PARAM_LIST?COMMAND_PROCESSING
0045B8H   00622AH   001C73H   BYTE   UNIT     CODE           ?CO?COMMAND_PROCESSING
00622BH   007A78H   00184EH   BYTE   UNIT     CODE           ?PR?_INFOPREPARE?COMMAND_PROCESSING
007A79H   008C28H   0011B0H   BYTE   UNIT     CODE           ?PR?MOTOR_CONTROL?INTERRUPTIONS
008C29H   0096DEH   000AB6H   BYTE   UNIT     CODE           ?C?LIB_CODE
0096DFH   00A155H   000A77H   BYTE   UNIT     CODE           ?PR?ANALOG_READ_END?INTERRUPTIONS
00A156H   00A9C7H   000872H   BYTE   UNIT     CODE           ?PR?_ENCODER_READING?INTERRUPTIONS
00A9C8H   00AECBH   000504H   BYTE   UNIT     CODE           ?PR?CHECK_REST_POSITION?UTILS
00AECCH   00B34EH   000483H   BYTE   UNIT     CODE           ?PR?PRINTF?PRINTF
00B34FH   00B656H   000308H   BYTE   UNIT     CODE           ?PR?CMD_STORE_PARAMS?COMMAND_PROCESSING
00B657H   00B8C9H   000273H   BYTE   UNIT     CODE           ?PR?MEMINIT?COMMAND_PROCESSING
00B8CAH   00BAECH   000223H   BYTE   UNIT     CODE           ?PR?MAIN?MAIN
00BAEDH   00BCA2H   0001B6H   BYTE   UNIT     CODE           ?PR?COMMPROCESS?COMMAND_PROCESSING
LX51 LINKER/LOCATER V4.64.0.0                                                         04/13/2018  12:12:27  PAGE 5


00BCA3H   00BE56H   0001B4H   BYTE   UNIT     CODE           ?PR?CMD_SET_INPUTS?COMMAND_PROCESSING
00BE57H   00BFF7H   0001A1H   BYTE   UNIT     CODE           ?PR?_ADC_GAINCOMPENSATION?ADC
00BFF8H   00C190H   000199H   BYTE   UNIT     CODE           ?PR?CLOCKSETUP?CYFITTER_CFG
00C191H   00C318H   000188H   BYTE   UNIT     CODE           ?PR?FUNCTION_SCHEDULER?INTERRUPTIONS
00C319H   00C449H   000131H   BYTE   UNIT     CODE           ?PR?_ADC_EXT_CP_CLK_SETDIVIDERREGISTER?ADC_EXT_CP_CLK
00C44AH   00C579H   000130H   BYTE   UNIT     CODE           ?PR?CALIBRATION?UTILS
00C57AH   00C6A9H   000130H   BYTE   UNIT     CODE           ?PR?_CLOCK_UART_SETDIVIDERREGISTER?CLOCK_UART
00C6AAH   00C7D8H   00012FH   BYTE   UNIT     CODE           ?PR?INTERRUPT_MANAGER?INTERRUPTIONS
00C7D9H   00C907H   00012FH   BYTE   UNIT     CODE           ?PR?_ADC_THEACLK_SETDIVIDERREGISTER?ADC_THEACLK
00C908H   00CA27H   000120H   BYTE   UNIT     CODE           ?C_C51STARTUP
00CA28H   00CB43H   00011CH   BYTE   UNIT     CODE           ?C_INITSEG
00CB44H   00CC5CH   000119H   BYTE   UNIT     CODE           ?PR?CYFITTER_CFG?CYFITTER_CFG
00CC5DH   00CD64H   000108H   BYTE   UNIT     CODE           ?PR?DRIVE_FORCE_FB?COMMAND_PROCESSING
00CD65H   00CE4DH   0000E9H   BYTE   UNIT     CODE           ?PR?CFG_DMA_INIT?CYFITTER_CFG
00CE4EH   00CF2CH   0000DFH   BYTE   UNIT     CODE           ?PR?_EEPROM_WRITE?EEPROM
00CF2DH   00D007H   0000DBH   BYTE   UNIT     CODE           ?PR?COMMREADRESCURRFROMSH?COMMAND_PROCESSING
00D008H   00D0E2H   0000DBH   BYTE   UNIT     CODE           ?PR?_CALC_TURNS_FCN?UTILS
00D0E3H   00D1AEH   0000CCH   BYTE   UNIT     CODE           ?PR?COMMREADMEASFROMSH?COMMAND_PROCESSING
00D1AFH   00D266H   0000B8H   BYTE   UNIT     CODE           ?PR?_MEMSTORE?COMMAND_PROCESSING
00D267H   00D31BH   0000B5H   BYTE   UNIT     CODE           ?PR?_FILTER_CH1?UTILS
00D31CH   00D3D0H   0000B5H   BYTE   UNIT     CODE           ?PR?_FILTER_CH2?UTILS
00D3D1H   00D481H   0000B1H   BYTE   UNIT     CODE           ?PR?ADC_INIT?ADC
00D482H   00D532H   0000B1H   BYTE   UNIT     CODE           ?PR?UART_RS485_RXISR?UART_RS485_INT
00D533H   00D5E0H   0000AEH   BYTE   UNIT     CODE           ?PR?_ADC_INITCONFIG?ADC
00D5E1H   00D68AH   0000AAH   BYTE   UNIT     CODE           ?PR?DRIVE_SH?COMMAND_PROCESSING
00D68BH   00D717H   00008DH   BYTE   UNIT     CODE           ?PR?_COMMWRITE_OLD_ID?COMMAND_PROCESSING
00D718H   00D7A4H   00008DH   BYTE   UNIT     CODE           ?PR?_COMMWRITE?COMMAND_PROCESSING
00D7A5H   00D82CH   000088H   BYTE   UNIT     CODE           ?PR?ADC_ENABLE?ADC
00D82DH   00D8B4H   000088H   BYTE   UNIT     CODE           ?PR?_?CYDELAY?CYLIB
00D8B5H   00D93BH   000087H   BYTE   UNIT     CODE           ?PR?_CYDMATDSETCONFIGURATION?CYDMAC
00D93CH   00D9BFH   000084H   BYTE   UNIT     CODE           ?PR?CMD_GET_CURR_AND_MEAS?COMMAND_PROCESSING
00D9C0H   00DA42H   000083H   BYTE   UNIT     CODE           ?PR?SETZEROS?COMMAND_PROCESSING
00DA43H   00DAC5H   000083H   BYTE   UNIT     CODE           ?PR?_COMMWRITEID?COMMAND_PROCESSING
00DAC6H   00DB48H   000083H   BYTE   UNIT     CODE           ?PR?_FILTER_VEL_1?UTILS
00DB49H   00DBCBH   000083H   BYTE   UNIT     CODE           ?PR?_FILTER_VEL_2?UTILS
00DBCCH   00DC4EH   000083H   BYTE   UNIT     CODE           ?PR?_FILTER_VEL_3?UTILS
00DC4FH   00DCD1H   000083H   BYTE   UNIT     CODE           ?PR?_FILTER_ACC_1?UTILS
00DCD2H   00DD54H   000083H   BYTE   UNIT     CODE           ?PR?_FILTER_ACC_2?UTILS
00DD55H   00DDD7H   000083H   BYTE   UNIT     CODE           ?PR?_FILTER_ACC_3?UTILS
00DDD8H   00DE58H   000081H   BYTE   UNIT     CODE           ?PR?_MY_MOD?UTILS
00DE59H   00DED5H   00007DH   BYTE   UNIT     CODE           ?PR?_FILTER_VOLTAGE?UTILS
00DED6H   00DF4EH   000079H   BYTE   UNIT     CODE           ?PR?_CYDMACHSETCONFIGURATION?CYDMAC
00DF4FH   00DFC6H   000078H   BYTE   UNIT     CODE           ?PR?_CYDMACHSETEXTENDEDADDRESS?CYDMAC
00DFC7H   00E03EH   000078H   BYTE   UNIT     CODE           ?PR?_CYDMATDSETADDRESS?CYDMAC
00E03FH   00E0B4H   000076H   BYTE   UNIT     CODE           ?PR?PWM_LIMIT_SEARCH?INTERRUPTIONS
00E0B5H   00E129H   000075H   BYTE   UNIT     CODE           ?PR?_FILTER_I1?UTILS
00E12AH   00E19DH   000074H   BYTE   UNIT     CODE           ?PR?OVERCURRENT_CONTROL?INTERRUPTIONS
00E19EH   00E210H   000073H   BYTE   UNIT     CODE           ?PR?_CYSPCLOADROW?CYSPC
00E211H   00E27CH   00006CH   BYTE   UNIT     CODE           ?PR?CMD_GET_MEASUREMENTS?COMMAND_PROCESSING
00E27DH   00E2E7H   00006BH   BYTE   UNIT     CODE           ?PR?_CHECK_ENC_DATA?UTILS
00E2E8H   00E352H   00006BH   BYTE   UNIT     CODE           ?PR?_STRCAT?STRCAT
00E353H   00E3B7H   000065H   BYTE   UNIT     CODE           ?PR?DRIVE_PROPRIO_FB?COMMAND_PROCESSING
00E3B8H   00E418H   000061H   BYTE   UNIT     CODE           ?PR?CMD_GET_INPUTS?COMMAND_PROCESSING
00E419H   00E478H   000060H   BYTE   UNIT     CODE           ?PR?_CYSPCREADDATA?CYSPC
00E479H   00E4D3H   00005BH   BYTE   UNIT     CODE           ?PR?UART_RS485_GETCHAR?UART_RS485
00E4D4H   00E52BH   000058H   BYTE   UNIT     CODE           ?PR?DEACTIVATE_SLAVES?COMMAND_PROCESSING
00E52CH   00E581H   000056H   BYTE   UNIT     CODE           ?PR?CYSETTEMPINT?CYFLASH
00E582H   00E5D5H   000054H   BYTE   UNIT     CODE           ?PR?_CYINTSETVECTOR?CYLIB
00E5D6H   00E629H   000054H   BYTE   UNIT     CODE           ?PR?_CYSPCWRITEROW?CYSPC
00E62AH   00E679H   000050H   BYTE   UNIT     CODE           ?PR?CYFLASHGETSPCALGORITHM?CYFLASH
00E67AH   00E6C8H   00004FH   BYTE   UNIT     CODE           ?PR?UART_RS485_GETRXBUFFERSIZE?UART_RS485
00E6C9H   00E715H   00004DH   BYTE   UNIT     CODE           ?PR?MEMRECALL?COMMAND_PROCESSING
00E716H   00E760H   00004BH   BYTE   UNIT     CODE           ?PR?_CYDMACHENABLE?CYDMAC
00E761H   00E7AAH   00004AH   BYTE   UNIT     CODE           ?PR?_DMA_DMAINITIALIZE?DMA_DMA
00E7ABH   00E7F3H   000049H   BYTE   UNIT     CODE           ?PR?CMD_GET_EMG?COMMAND_PROCESSING
LX51 LINKER/LOCATER V4.64.0.0                                                         04/13/2018  12:12:27  PAGE 6


00E7F4H   00E83BH   000048H   BYTE   UNIT     CODE           ?PR?MEMRESTORE?COMMAND_PROCESSING
00E83CH   00E87FH   000044H   BYTE   UNIT     CODE           ?C?LDIV
00E880H   00E8C2H   000043H   BYTE   UNIT     CODE           ?PR?CMD_ACTIVATE?COMMAND_PROCESSING
00E8C3H   00E903H   000041H   BYTE   UNIT     CODE           ?PR?CMD_GET_JOYSTICK?COMMAND_PROCESSING
00E904H   00E944H   000041H   BYTE   UNIT     CODE           ?PR?CMD_SET_WATCHDOG?COMMAND_PROCESSING
00E945H   00E984H   000040H   BYTE   UNIT     CODE           ?PR?_CYDMACHPRIORITY?CYDMAC
00E985H   00E9C2H   00003EH   BYTE   UNIT     CODE           ?PR?CYDMATDALLOCATE?CYDMAC
00E9C3H   00E9FFH   00003DH   BYTE   UNIT     CODE           ?PR?_ADC_SETDSMREF0REG?ADC
00EA00H   00EA3BH   00003CH   BYTE   UNIT     CODE           ?PR?PACER_TIMER_INIT?PACER_TIMER
00EA3CH   00EA76H   00003BH   BYTE   UNIT     CODE           ?PR?_INFOGET?COMMAND_PROCESSING
00EA77H   00EAB1H   00003BH   BYTE   UNIT     CODE           ?PR?CMD_GET_CURRENTS?COMMAND_PROCESSING
00EAB2H   00EAECH   00003BH   BYTE   UNIT     CODE           ?PR?ANALOGSETDEFAULT?CYFITTER_CFG
00EAEDH   00EAFFH   000013H   BYTE   UNIT     CODE           ?PR?PWM_MOTORS_START?PWM_MOTORS
00EB00H   00EB3AH   00003BH   PAGE   UNIT     CODE           ?PR?CYDELAYCYCLES?CYBOOTASMKEIL
00EB3BH   00EB72H   000038H   BYTE   UNIT     CODE           ?PR?WATCHDOG_COUNTER_INIT?WATCHDOG_COUNTER
00EB73H   00EBA8H   000036H   BYTE   UNIT     CODE           ?PR?CYDMACCONFIGURE?CYDMAC
00EBA9H   00EBDDH   000035H   BYTE   UNIT     CODE           ?PR?COUNTER_ENC_INIT?COUNTER_ENC
00EBDEH   00EC11H   000034H   BYTE   UNIT     CODE           ?PR?_UART_RS485_PUTSTRING?UART_RS485
00EC12H   00EC45H   000034H   BYTE   UNIT     CODE           ?PR?_CYCONFIGCPY?CYMEM
00EC46H   00EC78H   000033H   BYTE   UNIT     CODE           ?PR?UART_RS485_INIT?UART_RS485
00EC79H   00ECAAH   000032H   BYTE   UNIT     CODE           ?PR?_LCRCHECKSUM?COMMAND_PROCESSING
00ECABH   00ECDBH   000031H   BYTE   UNIT     CODE           ?PR?_ADC_AMUX_UNSET?CYFITTER_CFG
00ECDCH   00ED0CH   000031H   BYTE   UNIT     CODE           ?PR?CYEEPROM_START?CYFLASH
00ED0DH   00ED3CH   000030H   BYTE   UNIT     CODE           ?PR?_ADC_AMUX_SET?CYFITTER_CFG
00ED3DH   00ED6CH   000030H   BYTE   UNIT     CODE           ?PR?CYINTINITVECTORS?CYLIB
00ED6DH   00ED9BH   00002FH   BYTE   UNIT     CODE           ?PR?UART_RS485_CLEARRXBUFFER?UART_RS485
00ED9CH   00EDC9H   00002EH   BYTE   UNIT     CODE           ?PR?_CYSPCGETTEMP?CYSPC
00EDCAH   00EDCAH   000001H   BYTE   UNIT     CODE           ?PR?ISR_RS485_RX_INTERRUPT?ISR_RS485_RX
00EDCBH   00EDCBH   000001H   BYTE   UNIT     CODE           ?PR?ISR_WATCHDOG_INTERRUPT?ISR_WATCHDOG
00EDCCH   00EDF8H   00002DH   DWORD  UNIT     CODE           ?PR?CYDELAYUS?CYBOOTASMKEIL
00EDF9H   00EE24H   00002CH   BYTE   UNIT     CODE           ?PR?MY_TIMER_INIT?MY_TIMER
00EE25H   00EE4FH   00002BH   BYTE   UNIT     CODE           ?PR?CMD_GET_ACTIVATE?COMMAND_PROCESSING
00EE50H   00EE76H   000027H   BYTE   UNIT     CODE           ?PR?PUTCHAR?PUTCHAR
00EE77H   00EE9CH   000026H   BYTE   UNIT     CODE           ?PR?PWM_MOTORS_INIT?PWM_MOTORS
00EE9DH   00EEC2H   000026H   BYTE   UNIT     CODE           ?PR?CYCONFIGCPYCODE?CYMEM
00EEC3H   00EEE4H   000022H   BYTE   UNIT     CODE           ?PR?UART_RS485_ENABLE?UART_RS485
00EEE5H   00EF06H   000022H   BYTE   UNIT     CODE           ?PR?UART_RS485_STOP?UART_RS485
00EF07H   00EF27H   000021H   BYTE   UNIT     CODE           ?PR?LED_BLINK_INIT?LED_BLINK
00EF28H   00EF48H   000021H   BYTE   UNIT     CODE           ?PR?ADC_AMUX_START?ADC_AMUX
00EF49H   00EF68H   000020H   BYTE   UNIT     CODE           ?PR?CMD_SET_BAUDRATE?COMMAND_PROCESSING
00EF69H   00EF87H   00001FH   BYTE   UNIT     CODE           ?PR?_ISR_RS485_RX_STARTEX?ISR_RS485_RX
00EF88H   00EFA6H   00001FH   BYTE   UNIT     CODE           ?PR?_ISR_WATCHDOG_STARTEX?ISR_WATCHDOG
00EFA7H   00EFC5H   00001FH   BYTE   UNIT     CODE           ?PR?CYSPCLOCK?CYSPC
00EFC6H   00EFE3H   00001EH   BYTE   UNIT     CODE           ?PR?_CYDMACHSETINITIALTD?CYDMAC
00EFE4H   00EFFFH   00001CH   BYTE   UNIT     CODE           ?PR?_WATCHDOG_COUNTER_WRITECOUNTER?WATCHDOG_COUNTER
00F000H   00F01AH   00001BH   BYTE   UNIT     CODE           ?PR?CYSPCGETALGORITHM?CYSPC
00F01BH   00F033H   000019H   BYTE   UNIT     CODE           ?PR?ADC_START?ADC
00F034H   00F04CH   000019H   BYTE   UNIT     CODE           ?PR?_CYINTSETPRIORITY?CYLIB
00F04DH   00F065H   000019H   BYTE   UNIT     CODE           ?PR?_ADC_AMUX_SELECT?ADC_AMUX
00F066H   00F07DH   000018H   BYTE   UNIT     CODE           ?PR?CYSETTEMP?CYFLASH
00F07EH   00F095H   000018H   BYTE   UNIT     CODE           ?PR?CYEXITCRITICALSECTION?CYBOOTASMKEIL
00F096H   00F0ABH   000016H   BYTE   UNIT     CODE           ?PR?PACER_TIMER_ENABLE?PACER_TIMER
00F0ACH   00F0C1H   000016H   BYTE   UNIT     CODE           ?PR?WATCHDOG_COUNTER_ENABLE?WATCHDOG_COUNTER
00F0C2H   00F0D6H   000015H   BYTE   UNIT     CODE           ?PR?_SENDACKNOWLEDGMENT?COMMAND_PROCESSING
00F0D7H   00F0EBH   000015H   BYTE   UNIT     CODE           ?PR?CYENTERCRITICALSECTION?CYBOOTASMKEIL
00F0ECH   00F100H   000015H   BYTE   UNIT     CODE           ?PR?CYSPCSTART?CYSPC
00F101H   00F115H   000015H   BYTE   UNIT     CODE           ?PR?_STRLEN?STRLEN
00F116H   00F129H   000014H   BYTE   UNIT     CODE           ?PR?CMD_PING?COMMAND_PROCESSING
00F12AH   00F13DH   000014H   BYTE   UNIT     CODE           ?PR?UART_RS485_READRXSTATUS?UART_RS485
00F13EH   00F150H   000013H   BYTE   UNIT     CODE           ?PR?PACER_TIMER_START?PACER_TIMER
00F151H   00F163H   000013H   BYTE   UNIT     CODE           ?PR?UART_RS485_START?UART_RS485
00F164H   00F176H   000013H   BYTE   UNIT     CODE           ?PR?COUNTER_ENC_START?COUNTER_ENC
00F177H   00F189H   000013H   BYTE   UNIT     CODE           ?PR?SHIFTREG_ENC_3_START?SHIFTREG_ENC_3
00F18AH   00F19CH   000013H   BYTE   UNIT     CODE           ?PR?SHIFTREG_ENC_2_START?SHIFTREG_ENC_2
00F19DH   00F1AFH   000013H   BYTE   UNIT     CODE           ?PR?MY_TIMER_START?MY_TIMER
LX51 LINKER/LOCATER V4.64.0.0                                                         04/13/2018  12:12:27  PAGE 7


00F1B0H   00F1C2H   000013H   BYTE   UNIT     CODE           ?PR?SHIFTREG_ENC_1_START?SHIFTREG_ENC_1
00F1C3H   00F1D5H   000013H   BYTE   UNIT     CODE           ?PR?WATCHDOG_COUNTER_START?WATCHDOG_COUNTER
00F1D6H   00F1E8H   000013H   BYTE   UNIT     CODE           ?PR?LED_BLINK_START?LED_BLINK
00F1E9H   00F1FBH   000013H   BYTE   UNIT     CODE           ?PR?CYREAD24?CYMEM
00F1FCH   00F20DH   000012H   BYTE   UNIT     CODE           ?PR?UART_RS485_CLEARTXBUFFER?UART_RS485
00F20EH   00F21FH   000012H   BYTE   UNIT     CODE           ?PR?CYWRITE24?CYMEM
00F220H   00F230H   000011H   BYTE   UNIT     CODE           ?PR?_SHIFTREG_ENC_3_SETINTMODE?SHIFTREG_ENC_3
00F231H   00F241H   000011H   BYTE   UNIT     CODE           ?PR?_SHIFTREG_ENC_2_SETINTMODE?SHIFTREG_ENC_2
00F242H   00F252H   000011H   BYTE   UNIT     CODE           ?PR?_SHIFTREG_ENC_1_SETINTMODE?SHIFTREG_ENC_1
00F253H   00F261H   00000FH   BYTE   UNIT     CODE           ?PR?MY_TIMER_READCOUNTER?MY_TIMER
00F262H   00F270H   00000FH   BYTE   UNIT     CODE           ?PR?CYREAD16?CYMEM
00F271H   00F27FH   00000FH   BYTE   UNIT     CODE           ?PR?CYWRITE16?CYMEM
00F280H   00F28DH   00000EH   BYTE   UNIT     CODE           ?PR?_ISR_RS485_RX_SETVECTOR?ISR_RS485_RX
00F28EH   00F29BH   00000EH   BYTE   UNIT     CODE           ?PR?_PACER_TIMER_WRITEPERIOD?PACER_TIMER
00F29CH   00F2A9H   00000EH   BYTE   UNIT     CODE           ?PR?_PACER_TIMER_WRITECOUNTER?PACER_TIMER
00F2AAH   00F2B7H   00000EH   BYTE   UNIT     CODE           ?PR?SHIFTREG_ENC_3_ENABLEINT?SHIFTREG_ENC_3
00F2B8H   00F2C5H   00000EH   BYTE   UNIT     CODE           ?PR?SHIFTREG_ENC_2_ENABLEINT?SHIFTREG_ENC_2
00F2C6H   00F2D3H   00000EH   BYTE   UNIT     CODE           ?PR?SHIFTREG_ENC_1_ENABLEINT?SHIFTREG_ENC_1
00F2D4H   00F2E1H   00000EH   BYTE   UNIT     CODE           ?PR?_ISR_WATCHDOG_SETVECTOR?ISR_WATCHDOG
00F2E2H   00F2EFH   00000EH   BYTE   UNIT     CODE           ?PR?_WATCHDOG_COUNTER_WRITEPERIOD?WATCHDOG_COUNTER
00F2F0H   00F2FCH   00000DH   BYTE   UNIT     CODE           ?PR?_UART_RS485_PUTCHAR?UART_RS485
00F2FDH   00F309H   00000DH   BYTE   UNIT     CODE           ?PR?COUNTER_ENC_CLEARFIFO?COUNTER_ENC
00F30AH   00F316H   00000DH   BYTE   UNIT     CODE           ?PR?MY_TIMER_CLEARFIFO?MY_TIMER
00F317H   00F323H   00000DH   BYTE   UNIT     CODE           ?PR?_ADC_EXT_CP_CLK_SETMODEREGISTER?ADC_EXT_CP_CLK
00F324H   00F330H   00000DH   BYTE   UNIT     CODE           ?PR?_ADC_THEACLK_SETMODEREGISTER?ADC_THEACLK
00F331H   00F33CH   00000CH   BYTE   UNIT     CODE           ?PR?CYREAD8?CYMEM
00F33DH   00F348H   00000CH   BYTE   UNIT     CODE           ?PR?CYWRITE8?CYMEM
00F349H   00F354H   00000CH   BYTE   UNIT     CODE           ?PR?CYSPCUNLOCK?CYSPC
00F355H   00F360H   00000CH   BYTE   UNIT     CODE           ?PR?_ABS?ABS
00F361H   00F36BH   00000BH   BYTE   UNIT     CODE           ?PR?SHIFTREG_ENC_3_ENABLE?SHIFTREG_ENC_3
00F36CH   00F376H   00000BH   BYTE   UNIT     CODE           ?PR?SHIFTREG_ENC_2_ENABLE?SHIFTREG_ENC_2
00F377H   00F381H   00000BH   BYTE   UNIT     CODE           ?PR?SHIFTREG_ENC_1_ENABLE?SHIFTREG_ENC_1
00F382H   00F38BH   00000AH   BYTE   UNIT     CODE           ?PR?CLOCK_UART_GETDIVIDERREGISTER?CLOCK_UART
00F38CH   00F395H   00000AH   BYTE   UNIT     CODE           ?PR?_ISR_RS485_RX_SETPRIORITY?ISR_RS485_RX
00F396H   00F39FH   00000AH   BYTE   UNIT     CODE           ?PR?SHIFTREG_ENC_3_READDATA?SHIFTREG_ENC_3
00F3A0H   00F3A9H   00000AH   BYTE   UNIT     CODE           ?PR?SHIFTREG_ENC_2_READDATA?SHIFTREG_ENC_2
00F3AAH   00F3B3H   00000AH   BYTE   UNIT     CODE           ?PR?BOOTLOADABLE_LOAD?BOOTLOADABLE
00F3B4H   00F3BDH   00000AH   BYTE   UNIT     CODE           ?PR?_MY_TIMER_WRITEPERIOD?MY_TIMER
00F3BEH   00F3C7H   00000AH   BYTE   UNIT     CODE           ?PR?MY_TIMER_READCAPTURE?MY_TIMER
00F3C8H   00F3D1H   00000AH   BYTE   UNIT     CODE           ?PR?_MY_TIMER_WRITECOUNTER?MY_TIMER
00F3D2H   00F3DBH   00000AH   BYTE   UNIT     CODE           ?PR?SHIFTREG_ENC_1_READDATA?SHIFTREG_ENC_1
00F3DCH   00F3E5H   00000AH   BYTE   UNIT     CODE           ?PR?_ISR_WATCHDOG_SETPRIORITY?ISR_WATCHDOG
00F3E6H   00F3EFH   00000AH   BYTE   UNIT     CODE           ?PR?ADC_EXT_CP_CLK_GETDIVIDERREGISTER?ADC_EXT_CP_CLK
00F3F0H   00F3F9H   00000AH   BYTE   UNIT     CODE           ?PR?ADC_THEACLK_GETDIVIDERREGISTER?ADC_THEACLK
00F3FAH   00F401H   000008H   BYTE   UNIT     CODE           ?PR?CLOCK_UART_GETSOURCEREGISTER?CLOCK_UART
00F402H   00F409H   000008H   BYTE   UNIT     CODE           ?PR?PWM_MOTORS_ENABLE?PWM_MOTORS
00F40AH   00F411H   000008H   BYTE   UNIT     CODE           ?PR?COUNTER_ENC_ENABLE?COUNTER_ENC
00F412H   00F419H   000008H   BYTE   UNIT     CODE           ?PR?MY_TIMER_ENABLE?MY_TIMER
00F41AH   00F421H   000008H   BYTE   UNIT     CODE           ?PR?CYSOFTWARERESET?CYLIB
00F422H   00F429H   000008H   BYTE   UNIT     CODE           ?PR?LED_BLINK_ENABLE?LED_BLINK
00F42AH   00F431H   000008H   BYTE   UNIT     CODE           ?PR?ADC_EXT_CP_CLK_GETSOURCEREGISTER?ADC_EXT_CP_CLK
00F432H   00F439H   000008H   BYTE   UNIT     CODE           ?PR?ADC_THEACLK_GETSOURCEREGISTER?ADC_THEACLK
00F43AH   00F440H   000007H   BYTE   UNIT     CODE           ?PR?ISR_RS485_RX_ENABLE?ISR_RS485_RX
00F441H   00F447H   000007H   BYTE   UNIT     CODE           ?PR?ISR_RS485_RX_DISABLE?ISR_RS485_RX
00F448H   00F44EH   000007H   BYTE   UNIT     CODE           ?PR?EEPROM_ENABLE?EEPROM
00F44FH   00F455H   000007H   BYTE   UNIT     CODE           ?PR?ISR_WATCHDOG_ENABLE?ISR_WATCHDOG
00F456H   00F45CH   000007H   BYTE   UNIT     CODE           ?PR?ISR_WATCHDOG_DISABLE?ISR_WATCHDOG
00F45DH   00F462H   000006H   BYTE   UNIT     CODE           ?PR?_PWM_MOTORS_WRITECOUNTER?PWM_MOTORS
00F463H   00F468H   000006H   BYTE   UNIT     CODE           ?PR?_PWM_MOTORS_WRITEPERIOD?PWM_MOTORS
00F469H   00F46EH   000006H   BYTE   UNIT     CODE           ?PR?_PWM_MOTORS_WRITECOMPARE1?PWM_MOTORS
00F46FH   00F474H   000006H   BYTE   UNIT     CODE           ?PR?_PWM_MOTORS_WRITECOMPARE2?PWM_MOTORS
00F475H   00F47AH   000006H   BYTE   UNIT     CODE           ?PR?_PACER_TIMER_SETINTERRUPTMODE?PACER_TIMER
00F47BH   00F480H   000006H   BYTE   UNIT     CODE           ?PR?UART_RS485_READTXSTATUS?UART_RS485
00F481H   00F486H   000006H   BYTE   UNIT     CODE           ?PR?_MOTOR_DIR_WRITE?MOTOR_DIR
00F487H   00F48CH   000006H   BYTE   UNIT     CODE           ?PR?_COUNTER_ENC_SETINTERRUPTMODE?COUNTER_ENC
LX51 LINKER/LOCATER V4.64.0.0                                                         04/13/2018  12:12:27  PAGE 8


00F48DH   00F492H   000006H   BYTE   UNIT     CODE           ?PR?COUNTER_ENC_READSTATUSREGISTER?COUNTER_ENC
00F493H   00F498H   000006H   BYTE   UNIT     CODE           ?PR?_COUNTER_ENC_WRITECOUNTER?COUNTER_ENC
00F499H   00F49EH   000006H   BYTE   UNIT     CODE           ?PR?COUNTER_ENC_READCAPTURE?COUNTER_ENC
00F49FH   00F4A4H   000006H   BYTE   UNIT     CODE           ?PR?_COUNTER_ENC_WRITEPERIOD?COUNTER_ENC
00F4A5H   00F4AAH   000006H   BYTE   UNIT     CODE           ?PR?_COUNTER_ENC_WRITECOMPARE?COUNTER_ENC
00F4ABH   00F4B0H   000006H   BYTE   UNIT     CODE           ?PR?SHIFTREG_ENC_3_INIT?SHIFTREG_ENC_3
00F4B1H   00F4B6H   000006H   BYTE   UNIT     CODE           ?PR?SHIFTREG_ENC_2_INIT?SHIFTREG_ENC_2
00F4B7H   00F4BCH   000006H   BYTE   UNIT     CODE           ?PR?_RS485_CTS_WRITE?RS485_CTS
00F4BDH   00F4C2H   000006H   BYTE   UNIT     CODE           ?PR?_MOTOR_ON_OFF_WRITE?MOTOR_ON_OFF
00F4C3H   00F4C8H   000006H   BYTE   UNIT     CODE           ?PR?_FTDI_ENABLE_REG_WRITE?FTDI_ENABLE_REG
00F4C9H   00F4CEH   000006H   BYTE   UNIT     CODE           ?PR?_RESET_FF_WRITE?RESET_FF
00F4CFH   00F4D4H   000006H   BYTE   UNIT     CODE           ?PR?FF_STATUS_READ?FF_STATUS
00F4D5H   00F4DAH   000006H   BYTE   UNIT     CODE           ?PR?_MY_TIMER_SETINTERRUPTMODE?MY_TIMER
00F4DBH   00F4E0H   000006H   BYTE   UNIT     CODE           ?PR?MY_TIMER_READSTATUSREGISTER?MY_TIMER
00F4E1H   00F4E6H   000006H   BYTE   UNIT     CODE           ?PR?SHIFTREG_ENC_1_INIT?SHIFTREG_ENC_1
00F4E7H   00F4ECH   000006H   BYTE   UNIT     CODE           ?PR?_RESET_COUNTERS_WRITE?RESET_COUNTERS
00F4EDH   00F4F2H   000006H   BYTE   UNIT     CODE           ?PR?ADC_STATUS_READ?ADC_STATUS
00F4F3H   00F4F8H   000006H   BYTE   UNIT     CODE           ?PR?_ADC_SOC_WRITE?ADC_SOC
00F4F9H   00F4FEH   000006H   BYTE   UNIT     CODE           ?PR?_WATCHDOG_COUNTER_SETINTERRUPTMODE?WATCHDOG_COUNTER
00F4FFH   00F504H   000006H   BYTE   UNIT     CODE           ?PR?_WATCHDOG_ENABLER_WRITE?WATCHDOG_ENABLER
00F505H   00F50AH   000006H   BYTE   UNIT     CODE           ?PR?_WATCHDOG_REFRESH_WRITE?WATCHDOG_REFRESH
00F50BH   00F510H   000006H   BYTE   UNIT     CODE           ?PR?_LED_BLINK_WRITECOUNTER?LED_BLINK
00F511H   00F516H   000006H   BYTE   UNIT     CODE           ?PR?_LED_BLINK_WRITEPERIOD?LED_BLINK
00F517H   00F51CH   000006H   BYTE   UNIT     CODE           ?PR?_LED_BLINK_WRITECOMPARE?LED_BLINK
00F51DH   00F522H   000006H   BYTE   UNIT     CODE           ?PR?_LED_CTRL_WRITE?LED_CTRL
00F523H   00F528H   000006H   BYTE   UNIT     CODE           ?PR?_LED_BLINK_EN_WRITE?LED_BLINK_EN
00F529H   00F52CH   000004H   BYTE   UNIT     CODE           ?PR?EEPROM_START?EEPROM
00F52DH   00F52FH   000003H   BYTE   UNIT     CODE           ?PR?ISR_WATCHDOG_HANDLER?INTERRUPTIONS
00F530H   00F532H   000003H   BYTE   UNIT     CODE           ?PR?ISR_RS485_RX_EXINTERRUPT?INTERRUPTIONS
00F533H   00F535H   000003H   BYTE   UNIT     CODE           ?PR?_CYCLOCKSTARTUPERROR?CYFITTER_CFG
00F536H   00F538H   000003H   BYTE   UNIT     CODE           ?PR?INTDEFAULTHANDLER?CYLIB
00F539H   00F539H   000001H   BYTE   UNIT     CODE           ?PR?ADC_ISR1?ADC_INT
00F53AH   00F53AH   000001H   BYTE   UNIT     CODE           ?PR?ADC_ISR2?ADC_INT
00F53BH   00F53BH   000001H   BYTE   UNIT     CODE           ?PR?ADC_ISR3?ADC_INT
00F53CH   00F53CH   000001H   BYTE   UNIT     CODE           ?PR?ADC_ISR4?ADC_INT
00F53DH   00FCDFH   0007A3H   BYTE   UNIT     CONST          ?CO?CYFITTER_CFG

* * * * * * * * * * *  X D A T A   M E M O R Y  * * * * * * * * * * * * *
000000H   000EE3H   000EE4H   BYTE   UNIT     XDATA          _XDATA_GROUP_
000EE4H   0011E7H   000304H   BYTE   UNIT     XDATA          ?XD?GLOBALS
0011E8H   0012F8H   000111H   BYTE   UNIT     XDATA          ?XD?INTERRUPTIONS
0012F9H   001369H   000071H   BYTE   UNIT     XDATA          ?XD?UTILS
00136AH   0013ACH   000043H   BYTE   UNIT     XDATA          ?XD?CYPM
0013ADH   0013D3H   000027H   BYTE   UNIT     XDATA          ?XD?UART_RS485
0013D4H   0013E3H   000010H   BYTE   UNIT     XDATA          ?XD?ADC
0013E4H   0013F2H   00000FH   BYTE   UNIT     XDATA          ?XD?CYLIB
0013F3H   0013F8H   000006H   BYTE   UNIT     XDATA          ?XD?CYDMAC
0013F9H   0013FDH   000005H   BYTE   UNIT     XDATA          ?XD?CYFLASH
0013FEH   001401H   000004H   BYTE   UNIT     XDATA          ?XD?CYFITTER_CFG
001402H   001403H   000002H   BYTE   UNIT     XDATA          ?XD?COMMAND_PROCESSING
001404H   001404H   000001H   BYTE   UNIT     XDATA          ?XD?PWM_MOTORS
001405H   001405H   000001H   BYTE   UNIT     XDATA          ?XD?PACER_TIMER
001406H   001406H   000001H   BYTE   UNIT     XDATA          ?XD?COUNTER_ENC
001407H   001407H   000001H   BYTE   UNIT     XDATA          ?XD?SHIFTREG_ENC_3
001408H   001408H   000001H   BYTE   UNIT     XDATA          ?XD?SHIFTREG_ENC_2
001409H   001409H   000001H   BYTE   UNIT     XDATA          ?XD?MY_TIMER
00140AH   00140AH   000001H   BYTE   UNIT     XDATA          ?XD?SHIFTREG_ENC_1
00140BH   00140BH   000001H   BYTE   UNIT     XDATA          ?XD?DMA_DMA
00140CH   00140CH   000001H   BYTE   UNIT     XDATA          ?XD?WATCHDOG_COUNTER
00140DH   00140DH   000001H   BYTE   UNIT     XDATA          ?XD?LED_BLINK
00140EH   00140EH   000001H   BYTE   UNIT     XDATA          ?XD?ADC_AMUX
00140FH   00140FH   000001H   BYTE   UNIT     XDATA          ?XD?CYSPC

* * * * * * * * *   R E M O V E D     S E G M E N T S   * * * * * * * *
   *DEL*:           000013H   BYTE   UNIT     CODE           ?PR?INFOSEND?COMMAND_PROCESSING
LX51 LINKER/LOCATER V4.64.0.0                                                         04/13/2018  12:12:27  PAGE 9


   *DEL*:           0005DCH   BYTE   UNIT     XDATA          ?XD?INFOSEND?COMMAND_PROCESSING
   *DEL*:           000075H   BYTE   UNIT     CODE           ?PR?_FILTER_V?UTILS
   *DEL*:           000054H   BYTE   UNIT     CODE           ?PR?_MY_ROUND?UTILS
   *DEL*:           000004H   BYTE   UNIT     XDATA          ?XD?_MY_ROUND?UTILS
   *DEL*:           00001AH   BYTE   UNIT     CODE           ?PR?_SETANALOGROUTINGPUMPS?CYFITTER_CFG
   *DEL*:           00000FH   BYTE   UNIT     CODE           ?PR?CLOCK_UART_START?CLOCK_UART
   *DEL*:           00000FH   BYTE   UNIT     CODE           ?PR?CLOCK_UART_STOP?CLOCK_UART
   *DEL*:           00006DH   BYTE   UNIT     CODE           ?PR?CLOCK_UART_STOPBLOCK?CLOCK_UART
   *DEL*:           000002H   BYTE   UNIT     XDATA          ?XD?CLOCK_UART_STOPBLOCK?CLOCK_UART
   *DEL*:           000013H   BYTE   UNIT     CODE           ?PR?_CLOCK_UART_STANDBYPOWER?CLOCK_UART
   *DEL*:           00000DH   BYTE   UNIT     CODE           ?PR?_CLOCK_UART_SETMODEREGISTER?CLOCK_UART
   *DEL*:           00000EH   BYTE   UNIT     CODE           ?PR?_CLOCK_UART_CLEARMODEREGISTER?CLOCK_UART
   *DEL*:           000008H   BYTE   UNIT     CODE           ?PR?CLOCK_UART_GETMODEREGISTER?CLOCK_UART
   *DEL*:           000062H   BYTE   UNIT     CODE           ?PR?_CLOCK_UART_SETSOURCEREGISTER?CLOCK_UART
   *DEL*:           000003H   BYTE   UNIT     XDATA          ?XD?_CLOCK_UART_SETSOURCEREGISTER?CLOCK_UART
   *DEL*:           000013H   BYTE   UNIT     CODE           ?PR?ISR_RS485_RX_START?ISR_RS485_RX
   *DEL*:           000004H   BYTE   UNIT     CODE           ?PR?ISR_RS485_RX_STOP?ISR_RS485_RX
   *DEL*:           00000AH   BYTE   UNIT     CODE           ?PR?ISR_RS485_RX_GETVECTOR?ISR_RS485_RX
   *DEL*:           00000BH   BYTE   UNIT     CODE           ?PR?ISR_RS485_RX_GETPRIORITY?ISR_RS485_RX
   *DEL*:           00000EH   BYTE   UNIT     CODE           ?PR?ISR_RS485_RX_GETSTATE?ISR_RS485_RX
   *DEL*:           000007H   BYTE   UNIT     CODE           ?PR?ISR_RS485_RX_SETPENDING?ISR_RS485_RX
   *DEL*:           000007H   BYTE   UNIT     CODE           ?PR?ISR_RS485_RX_CLEARPENDING?ISR_RS485_RX
   *DEL*:           000008H   BYTE   UNIT     CODE           ?PR?PWM_MOTORS_STOP?PWM_MOTORS
   *DEL*:           00000BH   BYTE   UNIT     CODE           ?PR?PWM_MOTORS_READCOUNTER?PWM_MOTORS
   *DEL*:           000006H   BYTE   UNIT     CODE           ?PR?PWM_MOTORS_READCONTROLREGISTER?PWM_MOTORS
   *DEL*:           000006H   BYTE   UNIT     CODE           ?PR?_PWM_MOTORS_WRITECONTROLREGISTER?PWM_MOTORS
   *DEL*:           000006H   BYTE   UNIT     CODE           ?PR?PWM_MOTORS_READCAPTURE?PWM_MOTORS
   *DEL*:           000006H   BYTE   UNIT     CODE           ?PR?PWM_MOTORS_READCOMPARE1?PWM_MOTORS
   *DEL*:           000006H   BYTE   UNIT     CODE           ?PR?PWM_MOTORS_READCOMPARE2?PWM_MOTORS
   *DEL*:           000006H   BYTE   UNIT     CODE           ?PR?PWM_MOTORS_READPERIOD?PWM_MOTORS
   *DEL*:           000016H   BYTE   UNIT     CODE           ?PR?PACER_TIMER_STOP?PACER_TIMER
   *DEL*:           00000AH   BYTE   UNIT     CODE           ?PR?PACER_TIMER_SOFTWARECAPTURE?PACER_TIMER
   *DEL*:           000006H   BYTE   UNIT     CODE           ?PR?PACER_TIMER_READSTATUSREGISTER?PACER_TIMER
   *DEL*:           000006H   BYTE   UNIT     CODE           ?PR?PACER_TIMER_READCONTROLREGISTER?PACER_TIMER
   *DEL*:           000006H   BYTE   UNIT     CODE           ?PR?_PACER_TIMER_WRITECONTROLREGISTER?PACER_TIMER
   *DEL*:           00000AH   BYTE   UNIT     CODE           ?PR?PACER_TIMER_READPERIOD?PACER_TIMER
   *DEL*:           00000AH   BYTE   UNIT     CODE           ?PR?PACER_TIMER_READCAPTURE?PACER_TIMER
   *DEL*:           000013H   BYTE   UNIT     CODE           ?PR?PACER_TIMER_READCOUNTER?PACER_TIMER
   *DEL*:           000003H   BYTE   UNIT     CODE           ?PR?UART_RS485_READCONTROLREGISTER?UART_RS485
   *DEL*:           000006H   BYTE   UNIT     CODE           ?PR?_UART_RS485_WRITECONTROLREGISTER?UART_RS485
   *DEL*:           000001H   BYTE   UNIT     XDATA          ?XD?_UART_RS485_WRITECONTROLREGISTER?UART_RS485
   *DEL*:           000006H   BYTE   UNIT     CODE           ?PR?_UART_RS485_SETRXINTERRUPTMODE?UART_RS485
   *DEL*:           00004AH   BYTE   UNIT     CODE           ?PR?UART_RS485_READRXDATA?UART_RS485
   *DEL*:           00001FH   BYTE   UNIT     CODE           ?PR?UART_RS485_GETBYTE?UART_RS485
   *DEL*:           000006H   BYTE   UNIT     CODE           ?PR?_UART_RS485_SETRXADDRESSMODE?UART_RS485
   *DEL*:           000001H   BYTE   UNIT     XDATA          ?XD?_UART_RS485_SETRXADDRESSMODE?UART_RS485
   *DEL*:           000006H   BYTE   UNIT     CODE           ?PR?_UART_RS485_SETRXADDRESS1?UART_RS485
   *DEL*:           000006H   BYTE   UNIT     CODE           ?PR?_UART_RS485_SETRXADDRESS2?UART_RS485
   *DEL*:           000006H   BYTE   UNIT     CODE           ?PR?_UART_RS485_SETTXINTERRUPTMODE?UART_RS485
   *DEL*:           00000CH   BYTE   UNIT     CODE           ?PR?_UART_RS485_WRITETXDATA?UART_RS485
   *DEL*:           000032H   BYTE   UNIT     CODE           ?PR?_UART_RS485_PUTARRAY?UART_RS485
   *DEL*:           000003H   BYTE   UNIT     XDATA          ?XD?_UART_RS485_PUTARRAY?UART_RS485
   *DEL*:           000014H   BYTE   UNIT     CODE           ?PR?_UART_RS485_PUTCRLF?UART_RS485
   *DEL*:           000017H   BYTE   UNIT     CODE           ?PR?UART_RS485_GETTXBUFFERSIZE?UART_RS485
   *DEL*:           000059H   BYTE   UNIT     CODE           ?PR?_UART_RS485_SENDBREAK?UART_RS485
   *DEL*:           000001H   BYTE   UNIT     XDATA          ?XD?_UART_RS485_SENDBREAK?UART_RS485
   *DEL*:           000006H   BYTE   UNIT     CODE           ?PR?_UART_RS485_SETTXADDRESSMODE?UART_RS485
   *DEL*:           000001H   BYTE   UNIT     XDATA          ?XD?_UART_RS485_SETTXADDRESSMODE?UART_RS485
   *DEL*:           000006H   BYTE   UNIT     CODE           ?PR?MOTOR_DIR_READ?MOTOR_DIR
   *DEL*:           000008H   BYTE   UNIT     CODE           ?PR?COUNTER_ENC_STOP?COUNTER_ENC
   *DEL*:           000006H   BYTE   UNIT     CODE           ?PR?COUNTER_ENC_READCONTROLREGISTER?COUNTER_ENC
   *DEL*:           000006H   BYTE   UNIT     CODE           ?PR?_COUNTER_ENC_WRITECONTROLREGISTER?COUNTER_ENC
   *DEL*:           00000BH   BYTE   UNIT     CODE           ?PR?COUNTER_ENC_READCOUNTER?COUNTER_ENC
   *DEL*:           000006H   BYTE   UNIT     CODE           ?PR?COUNTER_ENC_READPERIOD?COUNTER_ENC
   *DEL*:           000006H   BYTE   UNIT     CODE           ?PR?COUNTER_ENC_READCOMPARE?COUNTER_ENC
LX51 LINKER/LOCATER V4.64.0.0                                                         04/13/2018  12:12:27  PAGE 10


   *DEL*:           00000BH   BYTE   UNIT     CODE           ?PR?SHIFTREG_ENC_3_STOP?SHIFTREG_ENC_3
   *DEL*:           00000EH   BYTE   UNIT     CODE           ?PR?SHIFTREG_ENC_3_DISABLEINT?SHIFTREG_ENC_3
   *DEL*:           000036H   BYTE   UNIT     CODE           ?PR?_SHIFTREG_ENC_3_GETFIFOSTATUS?SHIFTREG_ENC_3
   *DEL*:           000008H   BYTE   UNIT     CODE           ?PR?SHIFTREG_ENC_3_GETINTSTATUS?SHIFTREG_ENC_3
   *DEL*:           00000AH   BYTE   UNIT     CODE           ?PR?_SHIFTREG_ENC_3_WRITEREGVALUE?SHIFTREG_ENC_3
   *DEL*:           000053H   BYTE   UNIT     CODE           ?PR?SHIFTREG_ENC_3_READREGVALUE?SHIFTREG_ENC_3
   *DEL*:           000004H   BYTE   UNIT     XDATA          ?XD?SHIFTREG_ENC_3_READREGVALUE?SHIFTREG_ENC_3
   *DEL*:           00000BH   BYTE   UNIT     CODE           ?PR?SHIFTREG_ENC_2_STOP?SHIFTREG_ENC_2
   *DEL*:           00000EH   BYTE   UNIT     CODE           ?PR?SHIFTREG_ENC_2_DISABLEINT?SHIFTREG_ENC_2
   *DEL*:           000036H   BYTE   UNIT     CODE           ?PR?_SHIFTREG_ENC_2_GETFIFOSTATUS?SHIFTREG_ENC_2
   *DEL*:           000008H   BYTE   UNIT     CODE           ?PR?SHIFTREG_ENC_2_GETINTSTATUS?SHIFTREG_ENC_2
   *DEL*:           00000AH   BYTE   UNIT     CODE           ?PR?_SHIFTREG_ENC_2_WRITEREGVALUE?SHIFTREG_ENC_2
   *DEL*:           000053H   BYTE   UNIT     CODE           ?PR?SHIFTREG_ENC_2_READREGVALUE?SHIFTREG_ENC_2
   *DEL*:           000004H   BYTE   UNIT     XDATA          ?XD?SHIFTREG_ENC_2_READREGVALUE?SHIFTREG_ENC_2
   *DEL*:           000004H   BYTE   UNIT     CODE           ?PR?EEPROM_STOP?EEPROM
   *DEL*:           000124H   BYTE   UNIT     CODE           ?PR?_EEPROM_WRITEBYTE?EEPROM
   *DEL*:           000008H   BYTE   UNIT     XDATA          ?XD?_EEPROM_WRITEBYTE?EEPROM
   *DEL*:           00003AH   BYTE   UNIT     CODE           ?PR?_EEPROM_READBYTE?EEPROM
   *DEL*:           000004H   BYTE   UNIT     XDATA          ?XD?_EEPROM_READBYTE?EEPROM
   *DEL*:           000004H   BYTE   UNIT     CODE           ?PR?EEPROM_UPDATETEMPERATURE?EEPROM
   *DEL*:           00006FH   BYTE   UNIT     CODE           ?PR?_EEPROM_ERASESECTOR?EEPROM
   *DEL*:           000002H   BYTE   UNIT     XDATA          ?XD?_EEPROM_ERASESECTOR?EEPROM
   *DEL*:           0000B9H   BYTE   UNIT     CODE           ?PR?_EEPROM_STARTWRITE?EEPROM
   *DEL*:           000005H   BYTE   UNIT     XDATA          ?XD?_EEPROM_STARTWRITE?EEPROM
   *DEL*:           000046H   BYTE   UNIT     CODE           ?PR?_EEPROM_STARTERASE?EEPROM
   *DEL*:           000002H   BYTE   UNIT     XDATA          ?XD?_EEPROM_STARTERASE?EEPROM
   *DEL*:           00003BH   BYTE   UNIT     CODE           ?PR?EEPROM_QUERY?EEPROM
   *DEL*:           000001H   BYTE   UNIT     XDATA          ?XD?EEPROM_QUERY?EEPROM
   *DEL*:           0000E5H   BYTE   UNIT     CODE           ?PR?_EEPROM_BYTEWRITEPOS?EEPROM
   *DEL*:           000004H   BYTE   UNIT     XDATA          ?XD?_EEPROM_BYTEWRITEPOS?EEPROM
   *DEL*:           000088H   BYTE   UNIT     CODE           ?PR?ADC_STOP?ADC
   *DEL*:           000001H   BYTE   UNIT     XDATA          ?XD?ADC_STOP?ADC
   *DEL*:           000012H   BYTE   UNIT     CODE           ?PR?_ADC_SETBUFFERGAIN?ADC
   *DEL*:           00000EH   BYTE   UNIT     CODE           ?PR?_ADC_SETCOHERENCY?ADC
   *DEL*:           0000F2H   BYTE   UNIT     CODE           ?PR?_ADC_SETGCOR?ADC
   *DEL*:           00000BH   BYTE   UNIT     XDATA          ?XD?_ADC_SETGCOR?ADC
   *DEL*:           000039H   BYTE   UNIT     CODE           ?PR?ADC_READGCOR?ADC
   *DEL*:           000001H   BYTE   UNIT     XDATA          ?XD?ADC_READGCOR?ADC
   *DEL*:           000008H   BYTE   UNIT     CODE           ?PR?ADC_STARTCONVERT?ADC
   *DEL*:           000008H   BYTE   UNIT     CODE           ?PR?ADC_STOPCONVERT?ADC
   *DEL*:           00001FH   BYTE   UNIT     CODE           ?PR?_ADC_ISENDCONVERSION?ADC
   *DEL*:           00002CH   BYTE   UNIT     CODE           ?PR?ADC_GETRESULT8?ADC
   *DEL*:           000060H   BYTE   UNIT     CODE           ?PR?ADC_GETRESULT16?ADC
   *DEL*:           000003H   BYTE   UNIT     XDATA          ?XD?ADC_GETRESULT16?ADC
   *DEL*:           0001B4H   BYTE   UNIT     CODE           ?PR?ADC_GETRESULT32?ADC
   *DEL*:           000007H   BYTE   UNIT     XDATA          ?XD?ADC_GETRESULT32?ADC
   *DEL*:           000007H   BYTE   UNIT     CODE           ?PR?_ADC_SETOFFSET?ADC
   *DEL*:           000007H   BYTE   UNIT     CODE           ?PR?_ADC_SETGAIN?ADC
   *DEL*:           00005FH   BYTE   UNIT     CODE           ?PR?_ADC_COUNTSTO_MVOLTS?ADC
   *DEL*:           000004H   BYTE   UNIT     XDATA          ?XD?_ADC_COUNTSTO_MVOLTS?ADC
   *DEL*:           00006DH   BYTE   UNIT     CODE           ?PR?_ADC_COUNTSTO_VOLTS?ADC
   *DEL*:           000004H   BYTE   UNIT     XDATA          ?XD?_ADC_COUNTSTO_VOLTS?ADC
   *DEL*:           000137H   BYTE   UNIT     CODE           ?PR?_ADC_COUNTSTO_UVOLTS?ADC
   *DEL*:           00000DH   BYTE   UNIT     XDATA          ?XD?_ADC_COUNTSTO_UVOLTS?ADC
   *DEL*:           000072H   BYTE   UNIT     CODE           ?PR?_ADC_SELECTCONFIGURATION?ADC
   *DEL*:           000002H   BYTE   UNIT     XDATA          ?XD?_ADC_SELECTCONFIGURATION?ADC
   *DEL*:           000016H   BYTE   UNIT     CODE           ?PR?ADC_READ8?ADC
   *DEL*:           000016H   BYTE   UNIT     CODE           ?PR?ADC_READ16?ADC
   *DEL*:           000016H   BYTE   UNIT     CODE           ?PR?ADC_READ32?ADC
   *DEL*:           000006H   BYTE   UNIT     CODE           ?PR?RS485_CTS_READ?RS485_CTS
   *DEL*:           0000FBH   BYTE   UNIT     CODE           ?PR?_BOOTLOADABLE_SETFLASHBYTE?BOOTLOADABLE
   *DEL*:           000110H   BYTE   UNIT     XDATA          ?XD?_BOOTLOADABLE_SETFLASHBYTE?BOOTLOADABLE
   *DEL*:           000006H   BYTE   UNIT     CODE           ?PR?MOTOR_ON_OFF_READ?MOTOR_ON_OFF
   *DEL*:           000006H   BYTE   UNIT     CODE           ?PR?FTDI_ENABLE_REG_READ?FTDI_ENABLE_REG
   *DEL*:           000006H   BYTE   UNIT     CODE           ?PR?RESET_FF_READ?RESET_FF
LX51 LINKER/LOCATER V4.64.0.0                                                         04/13/2018  12:12:27  PAGE 11


   *DEL*:           00000EH   BYTE   UNIT     CODE           ?PR?FF_STATUS_INTERRUPTENABLE?FF_STATUS
   *DEL*:           00000EH   BYTE   UNIT     CODE           ?PR?FF_STATUS_INTERRUPTDISABLE?FF_STATUS
   *DEL*:           000009H   BYTE   UNIT     CODE           ?PR?_FF_STATUS_WRITEMASK?FF_STATUS
   *DEL*:           000006H   BYTE   UNIT     CODE           ?PR?FF_STATUS_READMASK?FF_STATUS
   *DEL*:           000008H   BYTE   UNIT     CODE           ?PR?MY_TIMER_STOP?MY_TIMER
   *DEL*:           000006H   BYTE   UNIT     CODE           ?PR?MY_TIMER_SOFTWARECAPTURE?MY_TIMER
   *DEL*:           000006H   BYTE   UNIT     CODE           ?PR?MY_TIMER_READCONTROLREGISTER?MY_TIMER
   *DEL*:           000006H   BYTE   UNIT     CODE           ?PR?_MY_TIMER_WRITECONTROLREGISTER?MY_TIMER
   *DEL*:           00000AH   BYTE   UNIT     CODE           ?PR?MY_TIMER_READPERIOD?MY_TIMER
   *DEL*:           00000BH   BYTE   UNIT     CODE           ?PR?SHIFTREG_ENC_1_STOP?SHIFTREG_ENC_1
   *DEL*:           00000EH   BYTE   UNIT     CODE           ?PR?SHIFTREG_ENC_1_DISABLEINT?SHIFTREG_ENC_1
   *DEL*:           000036H   BYTE   UNIT     CODE           ?PR?_SHIFTREG_ENC_1_GETFIFOSTATUS?SHIFTREG_ENC_1
   *DEL*:           000008H   BYTE   UNIT     CODE           ?PR?SHIFTREG_ENC_1_GETINTSTATUS?SHIFTREG_ENC_1
   *DEL*:           00000AH   BYTE   UNIT     CODE           ?PR?_SHIFTREG_ENC_1_WRITEREGVALUE?SHIFTREG_ENC_1
   *DEL*:           000053H   BYTE   UNIT     CODE           ?PR?SHIFTREG_ENC_1_READREGVALUE?SHIFTREG_ENC_1
   *DEL*:           000004H   BYTE   UNIT     XDATA          ?XD?SHIFTREG_ENC_1_READREGVALUE?SHIFTREG_ENC_1
   *DEL*:           000006H   BYTE   UNIT     CODE           ?PR?RESET_COUNTERS_READ?RESET_COUNTERS
   *DEL*:           00000EH   BYTE   UNIT     CODE           ?PR?ADC_STATUS_INTERRUPTENABLE?ADC_STATUS
   *DEL*:           00000EH   BYTE   UNIT     CODE           ?PR?ADC_STATUS_INTERRUPTDISABLE?ADC_STATUS
   *DEL*:           000009H   BYTE   UNIT     CODE           ?PR?_ADC_STATUS_WRITEMASK?ADC_STATUS
   *DEL*:           000006H   BYTE   UNIT     CODE           ?PR?ADC_STATUS_READMASK?ADC_STATUS
   *DEL*:           000009H   BYTE   UNIT     CODE           ?PR?DMA_DMARELEASE?DMA_DMA
   *DEL*:           000006H   BYTE   UNIT     CODE           ?PR?ADC_SOC_READ?ADC_SOC
   *DEL*:           000013H   BYTE   UNIT     CODE           ?PR?ISR_WATCHDOG_START?ISR_WATCHDOG
   *DEL*:           000004H   BYTE   UNIT     CODE           ?PR?ISR_WATCHDOG_STOP?ISR_WATCHDOG
   *DEL*:           00000AH   BYTE   UNIT     CODE           ?PR?ISR_WATCHDOG_GETVECTOR?ISR_WATCHDOG
   *DEL*:           00000BH   BYTE   UNIT     CODE           ?PR?ISR_WATCHDOG_GETPRIORITY?ISR_WATCHDOG
   *DEL*:           00000EH   BYTE   UNIT     CODE           ?PR?ISR_WATCHDOG_GETSTATE?ISR_WATCHDOG
   *DEL*:           000007H   BYTE   UNIT     CODE           ?PR?ISR_WATCHDOG_SETPENDING?ISR_WATCHDOG
   *DEL*:           000007H   BYTE   UNIT     CODE           ?PR?ISR_WATCHDOG_CLEARPENDING?ISR_WATCHDOG
   *DEL*:           000016H   BYTE   UNIT     CODE           ?PR?WATCHDOG_COUNTER_STOP?WATCHDOG_COUNTER
   *DEL*:           000006H   BYTE   UNIT     CODE           ?PR?WATCHDOG_COUNTER_READSTATUSREGISTER?WATCHDOG_COUNTER
   *DEL*:           000006H   BYTE   UNIT     CODE           ?PR?WATCHDOG_COUNTER_READCONTROLREGISTER?WATCHDOG_COUNTER
   *DEL*:           000006H   BYTE   UNIT     CODE           ?PR?_WATCHDOG_COUNTER_WRITECONTROLREGISTER?WATCHDOG_COUNTE
                                                             -R
   *DEL*:           000013H   BYTE   UNIT     CODE           ?PR?WATCHDOG_COUNTER_READCOUNTER?WATCHDOG_COUNTER
   *DEL*:           00000AH   BYTE   UNIT     CODE           ?PR?WATCHDOG_COUNTER_READCAPTURE?WATCHDOG_COUNTER
   *DEL*:           00000AH   BYTE   UNIT     CODE           ?PR?WATCHDOG_COUNTER_READPERIOD?WATCHDOG_COUNTER
   *DEL*:           000006H   BYTE   UNIT     CODE           ?PR?WATCHDOG_ENABLER_READ?WATCHDOG_ENABLER
   *DEL*:           000006H   BYTE   UNIT     CODE           ?PR?WATCHDOG_REFRESH_READ?WATCHDOG_REFRESH
   *DEL*:           000012H   BYTE   UNIT     CODE           ?PR?CYDMACERROR?CYDMAC
   *DEL*:           000010H   BYTE   UNIT     CODE           ?PR?_CYDMACCLEARERROR?CYDMAC
   *DEL*:           00000AH   BYTE   UNIT     CODE           ?PR?CYDMACERRORADDRESS?CYDMAC
   *DEL*:           0000BEH   BYTE   UNIT     CODE           ?PR?CYDMACHALLOC?CYDMAC
   *DEL*:           000006H   BYTE   UNIT     XDATA          ?XD?CYDMACHALLOC?CYDMAC
   *DEL*:           000064H   BYTE   UNIT     CODE           ?PR?_CYDMACHFREE?CYDMAC
   *DEL*:           000003H   BYTE   UNIT     XDATA          ?XD?_CYDMACHFREE?CYDMAC
   *DEL*:           000033H   BYTE   UNIT     CODE           ?PR?_CYDMACHDISABLE?CYDMAC
   *DEL*:           000033H   BYTE   UNIT     CODE           ?PR?_CYDMACLEARPENDINGDRQ?CYDMAC
   *DEL*:           000025H   BYTE   UNIT     CODE           ?PR?_CYDMACHSETREQUEST?CYDMAC
   *DEL*:           000024H   BYTE   UNIT     CODE           ?PR?_CYDMACHGETREQUEST?CYDMAC
   *DEL*:           000072H   BYTE   UNIT     CODE           ?PR?_CYDMACHSTATUS?CYDMAC
   *DEL*:           000007H   BYTE   UNIT     XDATA          ?XD?_CYDMACHSTATUS?CYDMAC
   *DEL*:           00003EH   BYTE   UNIT     CODE           ?PR?_CYDMATDFREE?CYDMAC
   *DEL*:           000002H   BYTE   UNIT     XDATA          ?XD?_CYDMATDFREE?CYDMAC
   *DEL*:           000009H   BYTE   UNIT     CODE           ?PR?CYDMATDFREECOUNT?CYDMAC
   *DEL*:           0000C9H   BYTE   UNIT     CODE           ?PR?_CYDMATDGETCONFIGURATION?CYDMAC
   *DEL*:           00000DH   BYTE   UNIT     XDATA          ?XD?_CYDMATDGETCONFIGURATION?CYDMAC
   *DEL*:           0000A6H   BYTE   UNIT     CODE           ?PR?_CYDMATDGETADDRESS?CYDMAC
   *DEL*:           00000AH   BYTE   UNIT     XDATA          ?XD?_CYDMATDGETADDRESS?CYDMAC
   *DEL*:           000038H   BYTE   UNIT     CODE           ?PR?_CYDMACHROUNDROBIN?CYDMAC
   *DEL*:           000031H   BYTE   UNIT     CODE           ?PR?CYFLASH_START?CYFLASH
   *DEL*:           000015H   BYTE   UNIT     CODE           ?PR?CYFLASH_STOP?CYFLASH
   *DEL*:           00007DH   BYTE   UNIT     CODE           ?PR?_CYSETFLASHEEBUFFER?CYFLASH
   *DEL*:           000004H   BYTE   UNIT     XDATA          ?XD?_CYSETFLASHEEBUFFER?CYFLASH
LX51 LINKER/LOCATER V4.64.0.0                                                         04/13/2018  12:12:27  PAGE 12


   *DEL*:           000034H   BYTE   UNIT     CODE           ?PR?_CYWRITEROWDATA?CYFLASH
   *DEL*:           000003H   BYTE   UNIT     XDATA          ?XD?_CYWRITEROWDATA?CYFLASH
   *DEL*:           000190H   BYTE   UNIT     CODE           ?PR?_CYWRITEROWFULL?CYFLASH
   *DEL*:           000009H   BYTE   UNIT     XDATA          ?XD?_CYWRITEROWFULL?CYFLASH
   *DEL*:           000044H   BYTE   UNIT     CODE           ?PR?_CYFLASH_SETWAITCYCLES?CYFLASH
   *DEL*:           000001H   BYTE   UNIT     XDATA          ?XD?_CYFLASH_SETWAITCYCLES?CYFLASH
   *DEL*:           000015H   BYTE   UNIT     CODE           ?PR?CYEEPROM_STOP?CYFLASH
   *DEL*:           000010H   BYTE   UNIT     CODE           ?PR?CYEEPROM_READRESERVE?CYFLASH
   *DEL*:           000008H   BYTE   UNIT     CODE           ?PR?CYEEPROM_READRELEASE?CYFLASH
   *DEL*:           00006EH   BYTE   UNIT     CODE           ?PR?_CYPLL_OUT_START?CYLIB
   *DEL*:           000004H   BYTE   UNIT     XDATA          ?XD?_CYPLL_OUT_START?CYLIB
   *DEL*:           000008H   BYTE   UNIT     CODE           ?PR?CYPLL_OUT_STOP?CYLIB
   *DEL*:           000036H   BYTE   UNIT     CODE           ?PR?_CYPLL_OUT_SETPQ?CYLIB
   *DEL*:           000010H   BYTE   UNIT     CODE           ?PR?_CYPLL_OUT_SETSOURCE?CYLIB
   *DEL*:           000053H   BYTE   UNIT     CODE           ?PR?_CYIMO_START?CYLIB
   *DEL*:           000003H   BYTE   UNIT     XDATA          ?XD?_CYIMO_START?CYLIB
   *DEL*:           00000FH   BYTE   UNIT     CODE           ?PR?CYIMO_STOP?CYLIB
   *DEL*:           000027H   BYTE   UNIT     CODE           ?PR?CYUSB_POWERONCHECK?CYLIB
   *DEL*:           0000B6H   BYTE   UNIT     CODE           ?PR?_CYIMO_SETTRIMVALUE?CYLIB
   *DEL*:           000001H   BYTE   UNIT     XDATA          ?XD?_CYIMO_SETTRIMVALUE?CYLIB
   *DEL*:           000118H   BYTE   UNIT     CODE           ?PR?_CYIMO_SETFREQ?CYLIB
   *DEL*:           000003H   BYTE   UNIT     XDATA          ?XD?_CYIMO_SETFREQ?CYLIB
   *DEL*:           00002FH   BYTE   UNIT     CODE           ?PR?_CYIMO_SETSOURCE?CYLIB
   *DEL*:           000008H   BYTE   UNIT     CODE           ?PR?CYIMO_ENABLEDOUBLER?CYLIB
   *DEL*:           000008H   BYTE   UNIT     CODE           ?PR?CYIMO_DISABLEDOUBLER?CYLIB
   *DEL*:           00000DH   BYTE   UNIT     CODE           ?PR?_CYMASTERCLK_SETSOURCE?CYLIB
   *DEL*:           000006H   BYTE   UNIT     CODE           ?PR?_CYMASTERCLK_SETDIVIDER?CYLIB
   *DEL*:           000023H   BYTE   UNIT     CODE           ?PR?_CYBUSCLK_INTERNAL_SETDIVIDER?CYLIB
   *DEL*:           00007AH   BYTE   UNIT     CODE           ?PR?_CYBUSCLK_SETDIVIDER?CYLIB
   *DEL*:           000002H   BYTE   UNIT     XDATA          ?XD?_CYBUSCLK_SETDIVIDER?CYLIB
   *DEL*:           00000EH   BYTE   UNIT     CODE           ?PR?_CYCPUCLK_SETDIVIDER?CYLIB
   *DEL*:           00000DH   BYTE   UNIT     CODE           ?PR?_CYUSBCLK_SETSOURCE?CYLIB
   *DEL*:           000008H   BYTE   UNIT     CODE           ?PR?CYILO_START1K?CYLIB
   *DEL*:           000008H   BYTE   UNIT     CODE           ?PR?CYILO_STOP1K?CYLIB
   *DEL*:           000008H   BYTE   UNIT     CODE           ?PR?CYILO_START100K?CYLIB
   *DEL*:           000008H   BYTE   UNIT     CODE           ?PR?CYILO_STOP100K?CYLIB
   *DEL*:           000008H   BYTE   UNIT     CODE           ?PR?CYILO_ENABLE33K?CYLIB
   *DEL*:           000008H   BYTE   UNIT     CODE           ?PR?CYILO_DISABLE33K?CYLIB
   *DEL*:           000011H   BYTE   UNIT     CODE           ?PR?_CYILO_SETSOURCE?CYLIB
   *DEL*:           000029H   BYTE   UNIT     CODE           ?PR?_CYILO_SETPOWERMODE?CYLIB
   *DEL*:           00005EH   BYTE   UNIT     CODE           ?PR?CYXTAL_32KHZ_START?CYLIB
   *DEL*:           000002H   BYTE   UNIT     XDATA          ?XD?CYXTAL_32KHZ_START?CYLIB
   *DEL*:           000020H   BYTE   UNIT     CODE           ?PR?CYXTAL_32KHZ_STOP?CYLIB
   *DEL*:           000008H   BYTE   UNIT     CODE           ?PR?CYXTAL_32KHZ_READSTATUS?CYLIB
   *DEL*:           000066H   BYTE   UNIT     CODE           ?PR?_CYXTAL_32KHZ_SETPOWERMODE?CYLIB
   *DEL*:           000001H   BYTE   UNIT     XDATA          ?XD?_CYXTAL_32KHZ_SETPOWERMODE?CYLIB
   *DEL*:           0000A0H   BYTE   UNIT     CODE           ?PR?_CYXTAL_START?CYLIB
   *DEL*:           000006H   BYTE   UNIT     XDATA          ?XD?_CYXTAL_START?CYLIB
   *DEL*:           000008H   BYTE   UNIT     CODE           ?PR?CYXTAL_STOP?CYLIB
   *DEL*:           000008H   BYTE   UNIT     CODE           ?PR?CYXTAL_ENABLEERRSTATUS?CYLIB
   *DEL*:           000008H   BYTE   UNIT     CODE           ?PR?CYXTAL_DISABLEERRSTATUS?CYLIB
   *DEL*:           00000FH   BYTE   UNIT     CODE           ?PR?CYXTAL_READSTATUS?CYLIB
   *DEL*:           000008H   BYTE   UNIT     CODE           ?PR?CYXTAL_ENABLEFAULTRECOVERY?CYLIB
   *DEL*:           000008H   BYTE   UNIT     CODE           ?PR?CYXTAL_DISABLEFAULTRECOVERY?CYLIB
   *DEL*:           00000DH   BYTE   UNIT     CODE           ?PR?_CYXTAL_SETSTARTUP?CYLIB
   *DEL*:           00000DH   BYTE   UNIT     CODE           ?PR?_CYXTAL_SETFBVOLTAGE?CYLIB
   *DEL*:           00000EH   BYTE   UNIT     CODE           ?PR?_CYXTAL_SETWDVOLTAGE?CYLIB
   *DEL*:           000015H   BYTE   UNIT     CODE           ?PR?_?CYHALT?CYLIB
   *DEL*:           0000B8H   BYTE   UNIT     CODE           ?PR?_?CYDELAYFREQ?CYLIB
   *DEL*:           000026H   BYTE   UNIT     CODE           ?PR?_CYWDTSTART?CYLIB
   *DEL*:           000007H   BYTE   UNIT     CODE           ?PR?CYWDTCLEAR?CYLIB
   *DEL*:           000084H   BYTE   UNIT     CODE           ?PR?_CYVDLVDIGITENABLE?CYLIB
   *DEL*:           000007H   BYTE   UNIT     XDATA          ?XD?_CYVDLVDIGITENABLE?CYLIB
   *DEL*:           000083H   BYTE   UNIT     CODE           ?PR?_CYVDLVANALOGENABLE?CYLIB
   *DEL*:           000007H   BYTE   UNIT     XDATA          ?XD?_CYVDLVANALOGENABLE?CYLIB
LX51 LINKER/LOCATER V4.64.0.0                                                         04/13/2018  12:12:27  PAGE 13


   *DEL*:           00001DH   BYTE   UNIT     CODE           ?PR?CYVDLVDIGITDISABLE?CYLIB
   *DEL*:           000018H   BYTE   UNIT     CODE           ?PR?CYVDLVANALOGDISABLE?CYLIB
   *DEL*:           000056H   BYTE   UNIT     CODE           ?PR?CYVDHVANALOGENABLE?CYLIB
   *DEL*:           000005H   BYTE   UNIT     XDATA          ?XD?CYVDHVANALOGENABLE?CYLIB
   *DEL*:           000011H   BYTE   UNIT     CODE           ?PR?CYVDHVANALOGDISABLE?CYLIB
   *DEL*:           000039H   BYTE   UNIT     CODE           ?PR?_CYVDSTICKYSTATUS?CYLIB
   *DEL*:           000002H   BYTE   UNIT     XDATA          ?XD?_CYVDSTICKYSTATUS?CYLIB
   *DEL*:           000018H   BYTE   UNIT     CODE           ?PR?CYVDREALTIMESTATUS?CYLIB
   *DEL*:           000001H   BYTE   UNIT     XDATA          ?XD?CYVDREALTIMESTATUS?CYLIB
   *DEL*:           0000D0H   BYTE   UNIT     CODE           ?PR?CYDISABLEINTS?CYLIB
   *DEL*:           000005H   BYTE   UNIT     XDATA          ?XD?CYDISABLEINTS?CYLIB
   *DEL*:           000067H   BYTE   UNIT     CODE           ?PR?_CYENABLEINTS?CYLIB
   *DEL*:           000004H   BYTE   UNIT     XDATA          ?XD?_CYENABLEINTS?CYLIB
   *DEL*:           000018H   BYTE   UNIT     CODE           ?PR?_CYINTGETVECTOR?CYLIB
   *DEL*:           000014H   BYTE   UNIT     CODE           ?PR?_CYINTGETPRIORITY?CYLIB
   *DEL*:           000036H   BYTE   UNIT     CODE           ?PR?_CYINTGETSTATE?CYLIB
   *DEL*:           000248H   BYTE   UNIT     CODE           ?PR?_CYGETUNIQUEID?CYLIB
   *DEL*:           000003H   BYTE   UNIT     XDATA          ?XD?_CYGETUNIQUEID?CYLIB
   *DEL*:           000008H   BYTE   UNIT     CODE           ?PR?LED_BLINK_STOP?LED_BLINK
   *DEL*:           00000BH   BYTE   UNIT     CODE           ?PR?LED_BLINK_READCOUNTER?LED_BLINK
   *DEL*:           000006H   BYTE   UNIT     CODE           ?PR?LED_BLINK_READCONTROLREGISTER?LED_BLINK
   *DEL*:           000006H   BYTE   UNIT     CODE           ?PR?_LED_BLINK_WRITECONTROLREGISTER?LED_BLINK
   *DEL*:           000006H   BYTE   UNIT     CODE           ?PR?LED_BLINK_READCAPTURE?LED_BLINK
   *DEL*:           000006H   BYTE   UNIT     CODE           ?PR?LED_BLINK_READCOMPARE?LED_BLINK
   *DEL*:           000006H   BYTE   UNIT     CODE           ?PR?LED_BLINK_READPERIOD?LED_BLINK
   *DEL*:           000006H   BYTE   UNIT     CODE           ?PR?LED_CTRL_READ?LED_CTRL
   *DEL*:           000006H   BYTE   UNIT     CODE           ?PR?LED_BLINK_EN_READ?LED_BLINK_EN
   *DEL*:           000004H   BYTE   UNIT     CODE           ?PR?_CyDelay?CYBOOTASMKEIL
   *DEL*:           000019H   BYTE   UNIT     CODE           ?PR?CYMEMZERO?CYMEM
   *DEL*:           00002DH   BYTE   UNIT     CODE           ?PR?CFG_WRITE_BYTES?CYMEM
   *DEL*:           00002EH   BYTE   UNIT     CODE           ?PR?CY_WRITE_BYTES_CODE?CYMEM
   *DEL*:           000015H   BYTE   UNIT     CODE           ?PR?CYREAD32?CYMEM
   *DEL*:           000015H   BYTE   UNIT     CODE           ?PR?CYWRITE32?CYMEM
   *DEL*:           000021H   BYTE   UNIT     CODE           ?PR?_ADC_AMUX_FASTSELECT?ADC_AMUX
   *DEL*:           000001H   BYTE   UNIT     XDATA          ?XD?_ADC_AMUX_FASTSELECT?ADC_AMUX
   *DEL*:           00000FH   BYTE   UNIT     CODE           ?PR?ADC_EXT_CP_CLK_START?ADC_EXT_CP_CLK
   *DEL*:           00000FH   BYTE   UNIT     CODE           ?PR?ADC_EXT_CP_CLK_STOP?ADC_EXT_CP_CLK
   *DEL*:           00006EH   BYTE   UNIT     CODE           ?PR?ADC_EXT_CP_CLK_STOPBLOCK?ADC_EXT_CP_CLK
   *DEL*:           000002H   BYTE   UNIT     XDATA          ?XD?ADC_EXT_CP_CLK_STOPBLOCK?ADC_EXT_CP_CLK
   *DEL*:           000013H   BYTE   UNIT     CODE           ?PR?_ADC_EXT_CP_CLK_STANDBYPOWER?ADC_EXT_CP_CLK
   *DEL*:           00000EH   BYTE   UNIT     CODE           ?PR?_ADC_EXT_CP_CLK_CLEARMODEREGISTER?ADC_EXT_CP_CLK
   *DEL*:           000008H   BYTE   UNIT     CODE           ?PR?ADC_EXT_CP_CLK_GETMODEREGISTER?ADC_EXT_CP_CLK
   *DEL*:           000062H   BYTE   UNIT     CODE           ?PR?_ADC_EXT_CP_CLK_SETSOURCEREGISTER?ADC_EXT_CP_CLK
   *DEL*:           000003H   BYTE   UNIT     XDATA          ?XD?_ADC_EXT_CP_CLK_SETSOURCEREGISTER?ADC_EXT_CP_CLK
   *DEL*:           00000FH   BYTE   UNIT     CODE           ?PR?ADC_THEACLK_START?ADC_THEACLK
   *DEL*:           00000FH   BYTE   UNIT     CODE           ?PR?ADC_THEACLK_STOP?ADC_THEACLK
   *DEL*:           00006CH   BYTE   UNIT     CODE           ?PR?ADC_THEACLK_STOPBLOCK?ADC_THEACLK
   *DEL*:           000002H   BYTE   UNIT     XDATA          ?XD?ADC_THEACLK_STOPBLOCK?ADC_THEACLK
   *DEL*:           000013H   BYTE   UNIT     CODE           ?PR?_ADC_THEACLK_STANDBYPOWER?ADC_THEACLK
   *DEL*:           00000EH   BYTE   UNIT     CODE           ?PR?_ADC_THEACLK_CLEARMODEREGISTER?ADC_THEACLK
   *DEL*:           000008H   BYTE   UNIT     CODE           ?PR?ADC_THEACLK_GETMODEREGISTER?ADC_THEACLK
   *DEL*:           000062H   BYTE   UNIT     CODE           ?PR?_ADC_THEACLK_SETSOURCEREGISTER?ADC_THEACLK
   *DEL*:           000003H   BYTE   UNIT     XDATA          ?XD?_ADC_THEACLK_SETSOURCEREGISTER?ADC_THEACLK
   *DEL*:           000008H   BYTE   UNIT     CODE           ?PR?_ADC_THEACLK_SETPHASEREGISTER?ADC_THEACLK
   *DEL*:           000008H   BYTE   UNIT     CODE           ?PR?ADC_THEACLK_GETPHASEREGISTER?ADC_THEACLK
   *DEL*:           0001A9H   BYTE   UNIT     CODE           ?PR?CYPMSAVECLOCKS?CYPM
   *DEL*:           00024CH   BYTE   UNIT     CODE           ?PR?CYPMRESTORECLOCKS?CYPM
   *DEL*:           000003H   BYTE   UNIT     XDATA          ?XD?CYPMRESTORECLOCKS?CYPM
   *DEL*:           0000E0H   BYTE   UNIT     CODE           ?PR?_CYPMALTACT?CYPM
   *DEL*:           000004H   BYTE   UNIT     XDATA          ?XD?_CYPMALTACT?CYPM
   *DEL*:           000160H   BYTE   UNIT     CODE           ?PR?_CYPMSLEEP?CYPM
   *DEL*:           000004H   BYTE   UNIT     XDATA          ?XD?_CYPMSLEEP?CYPM
   *DEL*:           000008H   BYTE   UNIT     CODE           ?PR?CYPMHIBERNATE?CYPM
   *DEL*:           0000D6H   BYTE   UNIT     CODE           ?PR?_CYPMHIBERNATEEX?CYPM
   *DEL*:           000003H   BYTE   UNIT     XDATA          ?XD?_CYPMHIBERNATEEX?CYPM
LX51 LINKER/LOCATER V4.64.0.0                                                         04/13/2018  12:12:27  PAGE 14


   *DEL*:           000039H   BYTE   UNIT     CODE           ?PR?_CYPMREADSTATUS?CYPM
   *DEL*:           000002H   BYTE   UNIT     XDATA          ?XD?_CYPMREADSTATUS?CYPM
   *DEL*:           000076H   BYTE   UNIT     CODE           ?PR?CYPMHIBSAVESET?CYPM
   *DEL*:           000040H   BYTE   UNIT     CODE           ?PR?CYPMHIBRESTORE?CYPM
   *DEL*:           000049H   BYTE   UNIT     CODE           ?PR?_CYPMCTWSETINTERVAL?CYPM
   *DEL*:           000001H   BYTE   UNIT     XDATA          ?XD?_CYPMCTWSETINTERVAL?CYPM
   *DEL*:           000017H   BYTE   UNIT     CODE           ?PR?CYPMOPPSSET?CYPM
   *DEL*:           00004DH   BYTE   UNIT     CODE           ?PR?_CYPMFTWSETINTERVAL?CYPM
   *DEL*:           000001H   BYTE   UNIT     XDATA          ?XD?_CYPMFTWSETINTERVAL?CYPM
   *DEL*:           00018CH   BYTE   UNIT     CODE           ?PR?CYPMHIBSLPSAVESET?CYPM
   *DEL*:           00010DH   BYTE   UNIT     CODE           ?PR?CYPMHIBSLPRESTORE?CYPM
   *DEL*:           000082H   BYTE   UNIT     CODE           ?PR?CYPMHVILVISAVEDISABLE?CYPM
   *DEL*:           000033H   BYTE   UNIT     CODE           ?PR?CYPMHVILVIRESTORE?CYPM
   *DEL*:           00000EH   BYTE   UNIT     CONST          ?CO?CYPM
   *DEL*:           000015H   BYTE   UNIT     CODE           ?PR?CYSPCSTOP?CYSPC
   *DEL*:           0000A7H   BYTE   UNIT     CODE           ?PR?_CYSPCLOADMULTIBYTE?CYSPC
   *DEL*:           000007H   BYTE   UNIT     XDATA          ?XD?_CYSPCLOADMULTIBYTE?CYSPC
   *DEL*:           000143H   BYTE   UNIT     CODE           ?PR?_CYSPCLOADROWFULL?CYSPC
   *DEL*:           00000FH   BYTE   UNIT     XDATA          ?XD?_CYSPCLOADROWFULL?CYSPC
   *DEL*:           000030H   BYTE   UNIT     CODE           ?PR?_CYSPCERASESECTOR?CYSPC



OVERLAY MAP OF MODULE:   .\DP8051_Keil_951\Release\hand_firmware_micro.omf (COMMAND_PROCESSING)


FUNCTION/MODULE                                BIT_GROUP   DATA_GROUP   IDATA_GROUP  XDATA_GROUP
--> CALLED FUNCTION/MODULE                    START  STOP  START  STOP  START  STOP  START  STOP
================================================================================================
ISR_WATCHDOG_HANDLER/INTERRUPTIONS            ----- -----  ----- -----  ----- -----  ----- -----

*** NEW ROOT ********************************

ISR_RS485_RX_EXINTERRUPT/INTERRUPTIONS        ----- -----  ----- -----  ----- -----  ----- -----

*** NEW ROOT ********************************

ISR_RS485_RX_INTERRUPT/ISR_RS485_RX           ----- -----  ----- -----  ----- -----  ----- -----

*** NEW ROOT ********************************

ISR_WATCHDOG_INTERRUPT/ISR_WATCHDOG           ----- -----  ----- -----  ----- -----  ----- -----

*** NEW ROOT ********************************

INTDEFAULTHANDLER/CYLIB                       ----- -----  ----- -----  ----- -----  ----- -----

*** NEW ROOT ********************************

?C_C51STARTUP                                 ----- -----  ----- -----  ----- -----  ----- -----
  +--> ?CO?KEILSTART?3
  +--> CYINTINITVECTORS/CYLIB
  +--> CYFITTER_CFG/CYFITTER_CFG
  +--> CYDMACCONFIGURE/CYDMAC
  +--> MAIN/MAIN
  +--> ?C_INITSEG

?CO?KEILSTART?3                               ----- -----  ----- -----  ----- -----  ----- -----

CYINTINITVECTORS/CYLIB                        ----- -----  ----- -----  ----- -----  0000H 0000H
  +--> CYWRITE16/CYMEM

CYWRITE16/CYMEM                               ----- -----  ----- -----  ----- -----  ----- -----

CYFITTER_CFG/CYFITTER_CFG                     ----- -----  ----- -----  ----- -----  ----- -----
LX51 LINKER/LOCATER V4.64.0.0                                                         04/13/2018  12:12:27  PAGE 15


  +--> CYREAD8/CYMEM
  +--> CYWRITE8/CYMEM
  +--> CFG_DMA_INIT/CYFITTER_CFG
  +--> ?CO?CYFITTER_CFG
  +--> CYCONFIGCPYCODE/CYMEM
  +--> _CYCONFIGCPY/CYMEM
  +--> CLOCKSETUP/CYFITTER_CFG
  +--> ANALOGSETDEFAULT/CYFITTER_CFG

CYREAD8/CYMEM                                 ----- -----  ----- -----  ----- -----  ----- -----

CYWRITE8/CYMEM                                ----- -----  ----- -----  ----- -----  ----- -----

CFG_DMA_INIT/CYFITTER_CFG                     ----- -----  ----- -----  ----- -----  ----- -----
  +--> CYWRITE16/CYMEM
  +--> ?CO?CYFITTER_CFG
  +--> _CYCONFIGCPY/CYMEM

?CO?CYFITTER_CFG                              ----- -----  ----- -----  ----- -----  ----- -----

_CYCONFIGCPY/CYMEM                            ----- -----  ----- -----  ----- -----  0005H 000CH

CYCONFIGCPYCODE/CYMEM                         ----- -----  ----- -----  ----- -----  ----- -----

CLOCKSETUP/CYFITTER_CFG                       ----- -----  ----- -----  ----- -----  0000H 0004H
  +--> CYWRITE16/CYMEM
  +--> _CYCONFIGCPY/CYMEM
  +--> CYREAD8/CYMEM
  +--> CYDELAYCYCLES/CYBOOTASMKEIL
  +--> _CYCLOCKSTARTUPERROR/CYFITTER_CFG

CYDELAYCYCLES/CYBOOTASMKEIL                   ----- -----  ----- -----  ----- -----  ----- -----

_CYCLOCKSTARTUPERROR/CYFITTER_CFG             ----- -----  ----- -----  ----- -----  ----- -----

ANALOGSETDEFAULT/CYFITTER_CFG                 ----- -----  ----- -----  ----- -----  ----- -----
  +--> CYREAD8/CYMEM

CYDMACCONFIGURE/CYDMAC                        ----- -----  ----- -----  ----- -----  ----- -----

MAIN/MAIN                                     ----- -----  ----- -----  ----- -----  0000H 0001H
  +--> EEPROM_START/EEPROM
  +--> MEMRECALL/COMMAND_PROCESSING
  +--> _?CYDELAY/CYLIB
  +--> _FTDI_ENABLE_REG_WRITE/FTDI_ENABLE_REG
  +--> _LED_CTRL_WRITE/LED_CTRL
  +--> _LED_BLINK_EN_WRITE/LED_BLINK_EN
  +--> LED_BLINK_START/LED_BLINK
  +--> _LED_BLINK_WRITECOMPARE/LED_BLINK
  +--> UART_RS485_STOP/UART_RS485
  +--> UART_RS485_START/UART_RS485
  +--> UART_RS485_INIT/UART_RS485
  +--> UART_RS485_CLEARRXBUFFER/UART_RS485
  +--> UART_RS485_CLEARTXBUFFER/UART_RS485
  +--> _ISR_RS485_RX_STARTEX/ISR_RS485_RX
  +--> WATCHDOG_COUNTER_START/WATCHDOG_COUNTER
  +--> _ISR_WATCHDOG_STARTEX/ISR_WATCHDOG
  +--> PWM_MOTORS_START/PWM_MOTORS
  +--> _PWM_MOTORS_WRITECOMPARE1/PWM_MOTORS
  +--> _PWM_MOTORS_WRITECOMPARE2/PWM_MOTORS
  +--> _MOTOR_DIR_WRITE/MOTOR_DIR
  +--> _MOTOR_ON_OFF_WRITE/MOTOR_ON_OFF
  +--> COUNTER_ENC_START/COUNTER_ENC
  +--> SHIFTREG_ENC_1_START/SHIFTREG_ENC_1
  +--> SHIFTREG_ENC_2_START/SHIFTREG_ENC_2
LX51 LINKER/LOCATER V4.64.0.0                                                         04/13/2018  12:12:27  PAGE 16


  +--> SHIFTREG_ENC_3_START/SHIFTREG_ENC_3
  +--> ADC_START/ADC
  +--> _ADC_SOC_WRITE/ADC_SOC
  +--> _DMA_DMAINITIALIZE/DMA_DMA
  +--> CYDMATDALLOCATE/CYDMAC
  +--> _CYDMATDSETCONFIGURATION/CYDMAC
  +--> _CYDMATDSETADDRESS/CYDMAC
  +--> _CYDMACHSETINITIALTD/CYDMAC
  +--> _CYDMACHENABLE/CYDMAC
  +--> _RS485_CTS_WRITE/RS485_CTS
  +--> MY_TIMER_START/MY_TIMER
  +--> PACER_TIMER_START/PACER_TIMER
  +--> _RESET_COUNTERS_WRITE/RESET_COUNTERS
  +--> _RESET_FF_WRITE/RESET_FF
  +--> FUNCTION_SCHEDULER/INTERRUPTIONS
  +--> FF_STATUS_READ/FF_STATUS
  +--> _WATCHDOG_REFRESH_WRITE/WATCHDOG_REFRESH
  +--> INTERRUPT_MANAGER/INTERRUPTIONS
  +--> UART_RS485_READRXSTATUS/UART_RS485

EEPROM_START/EEPROM                           ----- -----  ----- -----  ----- -----  ----- -----
  +--> EEPROM_ENABLE/EEPROM

EEPROM_ENABLE/EEPROM                          ----- -----  ----- -----  ----- -----  ----- -----
  +--> CYSETTEMP/CYFLASH
  +--> CYEEPROM_START/CYFLASH

CYSETTEMP/CYFLASH                             ----- -----  ----- -----  ----- -----  0043H 0043H
  +--> CYFLASHGETSPCALGORITHM/CYFLASH
  +--> CYSETTEMPINT/CYFLASH

CYFLASHGETSPCALGORITHM/CYFLASH                ----- -----  ----- -----  ----- -----  0044H 0044H
  +--> CYSPCSTART/CYSPC
  +--> CYSPCLOCK/CYSPC
  +--> CYSPCGETALGORITHM/CYSPC
  +--> CYDELAYUS/CYBOOTASMKEIL
  +--> CYSPCUNLOCK/CYSPC

CYSPCSTART/CYSPC                              ----- -----  ----- -----  ----- -----  ----- -----
  +--> CYENTERCRITICALSECTION/CYBOOTASMKEIL
  +--> CYEXITCRITICALSECTION/CYBOOTASMKEIL

CYENTERCRITICALSECTION/CYBOOTASMKEIL          ----- -----  ----- -----  ----- -----  ----- -----

CYEXITCRITICALSECTION/CYBOOTASMKEIL           ----- -----  ----- -----  ----- -----  ----- -----

CYSPCLOCK/CYSPC                               ----- -----  ----- -----  ----- -----  0048H 0048H
  +--> CYENTERCRITICALSECTION/CYBOOTASMKEIL
  +--> CYEXITCRITICALSECTION/CYBOOTASMKEIL

CYSPCGETALGORITHM/CYSPC                       ----- -----  ----- -----  ----- -----  ----- -----

CYDELAYUS/CYBOOTASMKEIL                       ----- -----  ----- -----  ----- -----  ----- -----
  +--> CYDELAYCYCLES/CYBOOTASMKEIL

CYSPCUNLOCK/CYSPC                             ----- -----  ----- -----  ----- -----  ----- -----
  +--> CYENTERCRITICALSECTION/CYBOOTASMKEIL
  +--> CYEXITCRITICALSECTION/CYBOOTASMKEIL

CYSETTEMPINT/CYFLASH                          ----- -----  ----- -----  ----- -----  0044H 0044H
  +--> CYSPCSTART/CYSPC
  +--> CYSPCLOCK/CYSPC
  +--> _CYSPCGETTEMP/CYSPC
  +--> _CYSPCREADDATA/CYSPC
  +--> CYDELAYUS/CYBOOTASMKEIL
LX51 LINKER/LOCATER V4.64.0.0                                                         04/13/2018  12:12:27  PAGE 17


  +--> CYSPCUNLOCK/CYSPC

_CYSPCGETTEMP/CYSPC                           ----- -----  ----- -----  ----- -----  ----- -----

_CYSPCREADDATA/CYSPC                          ----- -----  ----- -----  ----- -----  0045H 0049H
  +--> CYDELAYUS/CYBOOTASMKEIL

CYEEPROM_START/CYFLASH                        ----- -----  ----- -----  ----- -----  ----- -----
  +--> CYENTERCRITICALSECTION/CYBOOTASMKEIL
  +--> CYEXITCRITICALSECTION/CYBOOTASMKEIL

MEMRECALL/COMMAND_PROCESSING                  ----- -----  ----- -----  ----- -----  ----- -----
  +--> MEMRESTORE/COMMAND_PROCESSING

MEMRESTORE/COMMAND_PROCESSING                 ----- -----  ----- -----  ----- -----  ----- -----
  +--> MEMINIT/COMMAND_PROCESSING
  +--> _MEMSTORE/COMMAND_PROCESSING

MEMINIT/COMMAND_PROCESSING                    ----- -----  ----- -----  ----- -----  ----- -----
  +--> _MEMSTORE/COMMAND_PROCESSING

_MEMSTORE/COMMAND_PROCESSING                  ----- -----  ----- -----  ----- -----  003CH 0042H
  +--> ISR_RS485_RX_DISABLE/ISR_RS485_RX
  +--> _PWM_MOTORS_WRITECOMPARE1/PWM_MOTORS
  +--> _PWM_MOTORS_WRITECOMPARE2/PWM_MOTORS
  +--> CYSETTEMP/CYFLASH
  +--> _EEPROM_WRITE/EEPROM
  +--> ISR_RS485_RX_ENABLE/ISR_RS485_RX

ISR_RS485_RX_DISABLE/ISR_RS485_RX             ----- -----  ----- -----  ----- -----  ----- -----

_PWM_MOTORS_WRITECOMPARE1/PWM_MOTORS          ----- -----  ----- -----  ----- -----  ----- -----

_PWM_MOTORS_WRITECOMPARE2/PWM_MOTORS          ----- -----  ----- -----  ----- -----  ----- -----

_EEPROM_WRITE/EEPROM                          ----- -----  ----- -----  ----- -----  0043H 0047H
  +--> CYSPCSTART/CYSPC
  +--> CYSPCLOCK/CYSPC
  +--> _CYSPCLOADROW/CYSPC
  +--> _CYSPCWRITEROW/CYSPC
  +--> CYSPCUNLOCK/CYSPC

_CYSPCLOADROW/CYSPC                           ----- -----  ----- -----  ----- -----  0048H 004EH

_CYSPCWRITEROW/CYSPC                          ----- -----  ----- -----  ----- -----  0048H 004CH

ISR_RS485_RX_ENABLE/ISR_RS485_RX              ----- -----  ----- -----  ----- -----  ----- -----

_?CYDELAY/CYLIB                               ----- -----  ----- -----  ----- -----  ----- -----
  +--> CYDELAYCYCLES/CYBOOTASMKEIL

_FTDI_ENABLE_REG_WRITE/FTDI_ENABLE_REG        ----- -----  ----- -----  ----- -----  ----- -----

_LED_CTRL_WRITE/LED_CTRL                      ----- -----  ----- -----  ----- -----  ----- -----

_LED_BLINK_EN_WRITE/LED_BLINK_EN              ----- -----  ----- -----  ----- -----  ----- -----

LED_BLINK_START/LED_BLINK                     ----- -----  ----- -----  ----- -----  ----- -----
  +--> LED_BLINK_INIT/LED_BLINK
  +--> LED_BLINK_ENABLE/LED_BLINK

LED_BLINK_INIT/LED_BLINK                      ----- -----  ----- -----  ----- -----  ----- -----
  +--> _LED_BLINK_WRITECOUNTER/LED_BLINK
  +--> _LED_BLINK_WRITEPERIOD/LED_BLINK
  +--> _LED_BLINK_WRITECOMPARE/LED_BLINK
LX51 LINKER/LOCATER V4.64.0.0                                                         04/13/2018  12:12:27  PAGE 18



_LED_BLINK_WRITECOUNTER/LED_BLINK             ----- -----  ----- -----  ----- -----  ----- -----

_LED_BLINK_WRITEPERIOD/LED_BLINK              ----- -----  ----- -----  ----- -----  ----- -----

_LED_BLINK_WRITECOMPARE/LED_BLINK             ----- -----  ----- -----  ----- -----  ----- -----

LED_BLINK_ENABLE/LED_BLINK                    ----- -----  ----- -----  ----- -----  ----- -----

UART_RS485_STOP/UART_RS485                    ----- -----  ----- -----  ----- -----  ----- -----
  +--> CYENTERCRITICALSECTION/CYBOOTASMKEIL
  +--> CYEXITCRITICALSECTION/CYBOOTASMKEIL

UART_RS485_START/UART_RS485                   ----- -----  ----- -----  ----- -----  ----- -----
  +--> UART_RS485_INIT/UART_RS485
  +--> UART_RS485_ENABLE/UART_RS485

UART_RS485_INIT/UART_RS485                    ----- -----  ----- -----  ----- -----  ----- -----
  +--> _CYINTSETVECTOR/CYLIB
  +--> _CYINTSETPRIORITY/CYLIB

_CYINTSETVECTOR/CYLIB                         ----- -----  ----- -----  ----- -----  0002H 0006H
  +--> CYREAD16/CYMEM
  +--> CYWRITE16/CYMEM

CYREAD16/CYMEM                                ----- -----  ----- -----  ----- -----  ----- -----

_CYINTSETPRIORITY/CYLIB                       ----- -----  ----- -----  ----- -----  ----- -----

UART_RS485_ENABLE/UART_RS485                  ----- -----  ----- -----  ----- -----  ----- -----
  +--> CYENTERCRITICALSECTION/CYBOOTASMKEIL
  +--> CYEXITCRITICALSECTION/CYBOOTASMKEIL

UART_RS485_CLEARRXBUFFER/UART_RS485           ----- -----  ----- -----  ----- -----  ----- -----
  +--> CYENTERCRITICALSECTION/CYBOOTASMKEIL
  +--> CYEXITCRITICALSECTION/CYBOOTASMKEIL

UART_RS485_CLEARTXBUFFER/UART_RS485           ----- -----  ----- -----  ----- -----  ----- -----
  +--> CYENTERCRITICALSECTION/CYBOOTASMKEIL
  +--> CYEXITCRITICALSECTION/CYBOOTASMKEIL

_ISR_RS485_RX_STARTEX/ISR_RS485_RX            ----- -----  ----- -----  ----- -----  0002H 0003H
  +--> ISR_RS485_RX_DISABLE/ISR_RS485_RX
  +--> _ISR_RS485_RX_SETVECTOR/ISR_RS485_RX
  +--> _ISR_RS485_RX_SETPRIORITY/ISR_RS485_RX
  +--> ISR_RS485_RX_ENABLE/ISR_RS485_RX

_ISR_RS485_RX_SETVECTOR/ISR_RS485_RX          ----- -----  ----- -----  ----- -----  ----- -----
  +--> CYWRITE16/CYMEM

_ISR_RS485_RX_SETPRIORITY/ISR_RS485_RX        ----- -----  ----- -----  ----- -----  ----- -----

WATCHDOG_COUNTER_START/WATCHDOG_COUNTER       ----- -----  ----- -----  ----- -----  ----- -----
  +--> WATCHDOG_COUNTER_INIT/WATCHDOG_COUNTER
  +--> WATCHDOG_COUNTER_ENABLE/WATCHDOG_COUNTER

WATCHDOG_COUNTER_INIT/WATCHDOG_COUNTER        ----- -----  ----- -----  ----- -----  ----- -----
  +--> _WATCHDOG_COUNTER_WRITEPERIOD/WATCHDOG_COUNTER
  +--> _WATCHDOG_COUNTER_WRITECOUNTER/WATCHDOG_COUNTER
  +--> _WATCHDOG_COUNTER_SETINTERRUPTMODE/WATCHDOG_COUNTER

_WATCHDOG_COUNTER_WRITEPERIOD/WATCHDOG_C+     ----- -----  ----- -----  ----- -----  ----- -----
... OUNTER
  +--> CYWRITE16/CYMEM

LX51 LINKER/LOCATER V4.64.0.0                                                         04/13/2018  12:12:27  PAGE 19


_WATCHDOG_COUNTER_WRITECOUNTER/WATCHDOG_+     ----- -----  ----- -----  ----- -----  ----- -----
... COUNTER
  +--> CYWRITE16/CYMEM

_WATCHDOG_COUNTER_SETINTERRUPTMODE/WATCH+     ----- -----  ----- -----  ----- -----  ----- -----
... DOG_COUNTER

WATCHDOG_COUNTER_ENABLE/WATCHDOG_COUNTER      ----- -----  ----- -----  ----- -----  ----- -----

_ISR_WATCHDOG_STARTEX/ISR_WATCHDOG            ----- -----  ----- -----  ----- -----  0002H 0003H
  +--> ISR_WATCHDOG_DISABLE/ISR_WATCHDOG
  +--> _ISR_WATCHDOG_SETVECTOR/ISR_WATCHDOG
  +--> _ISR_WATCHDOG_SETPRIORITY/ISR_WATCHDOG
  +--> ISR_WATCHDOG_ENABLE/ISR_WATCHDOG

ISR_WATCHDOG_DISABLE/ISR_WATCHDOG             ----- -----  ----- -----  ----- -----  ----- -----

_ISR_WATCHDOG_SETVECTOR/ISR_WATCHDOG          ----- -----  ----- -----  ----- -----  ----- -----
  +--> CYWRITE16/CYMEM

_ISR_WATCHDOG_SETPRIORITY/ISR_WATCHDOG        ----- -----  ----- -----  ----- -----  ----- -----

ISR_WATCHDOG_ENABLE/ISR_WATCHDOG              ----- -----  ----- -----  ----- -----  ----- -----

PWM_MOTORS_START/PWM_MOTORS                   ----- -----  ----- -----  ----- -----  ----- -----
  +--> PWM_MOTORS_INIT/PWM_MOTORS
  +--> PWM_MOTORS_ENABLE/PWM_MOTORS

PWM_MOTORS_INIT/PWM_MOTORS                    ----- -----  ----- -----  ----- -----  ----- -----
  +--> _PWM_MOTORS_WRITECOUNTER/PWM_MOTORS
  +--> _PWM_MOTORS_WRITEPERIOD/PWM_MOTORS
  +--> _PWM_MOTORS_WRITECOMPARE1/PWM_MOTORS
  +--> _PWM_MOTORS_WRITECOMPARE2/PWM_MOTORS

_PWM_MOTORS_WRITECOUNTER/PWM_MOTORS           ----- -----  ----- -----  ----- -----  ----- -----

_PWM_MOTORS_WRITEPERIOD/PWM_MOTORS            ----- -----  ----- -----  ----- -----  ----- -----

PWM_MOTORS_ENABLE/PWM_MOTORS                  ----- -----  ----- -----  ----- -----  ----- -----

_MOTOR_DIR_WRITE/MOTOR_DIR                    ----- -----  ----- -----  ----- -----  ----- -----

_MOTOR_ON_OFF_WRITE/MOTOR_ON_OFF              ----- -----  ----- -----  ----- -----  ----- -----

COUNTER_ENC_START/COUNTER_ENC                 ----- -----  ----- -----  ----- -----  ----- -----
  +--> COUNTER_ENC_INIT/COUNTER_ENC
  +--> COUNTER_ENC_ENABLE/COUNTER_ENC

COUNTER_ENC_INIT/COUNTER_ENC                  ----- -----  ----- -----  ----- -----  ----- -----
  +--> COUNTER_ENC_CLEARFIFO/COUNTER_ENC
  +--> _COUNTER_ENC_WRITEPERIOD/COUNTER_ENC
  +--> _COUNTER_ENC_WRITECOUNTER/COUNTER_ENC
  +--> _COUNTER_ENC_SETINTERRUPTMODE/COUNTER_ENC
  +--> COUNTER_ENC_READSTATUSREGISTER/COUNTER_ENC
  +--> _COUNTER_ENC_WRITECOMPARE/COUNTER_ENC
  +--> CYENTERCRITICALSECTION/CYBOOTASMKEIL
  +--> CYEXITCRITICALSECTION/CYBOOTASMKEIL

COUNTER_ENC_CLEARFIFO/COUNTER_ENC             ----- -----  ----- -----  ----- -----  ----- -----
  +--> COUNTER_ENC_READSTATUSREGISTER/COUNTER_ENC
  +--> COUNTER_ENC_READCAPTURE/COUNTER_ENC

COUNTER_ENC_READSTATUSREGISTER/COUNTER_E+     ----- -----  ----- -----  ----- -----  ----- -----
... NC

LX51 LINKER/LOCATER V4.64.0.0                                                         04/13/2018  12:12:27  PAGE 20


COUNTER_ENC_READCAPTURE/COUNTER_ENC           ----- -----  ----- -----  ----- -----  ----- -----

_COUNTER_ENC_WRITEPERIOD/COUNTER_ENC          ----- -----  ----- -----  ----- -----  ----- -----

_COUNTER_ENC_WRITECOUNTER/COUNTER_ENC         ----- -----  ----- -----  ----- -----  ----- -----

_COUNTER_ENC_SETINTERRUPTMODE/COUNTER_EN+     ----- -----  ----- -----  ----- -----  ----- -----
... C

_COUNTER_ENC_WRITECOMPARE/COUNTER_ENC         ----- -----  ----- -----  ----- -----  ----- -----

COUNTER_ENC_ENABLE/COUNTER_ENC                ----- -----  ----- -----  ----- -----  ----- -----

SHIFTREG_ENC_1_START/SHIFTREG_ENC_1           ----- -----  ----- -----  ----- -----  ----- -----
  +--> SHIFTREG_ENC_1_INIT/SHIFTREG_ENC_1
  +--> SHIFTREG_ENC_1_ENABLE/SHIFTREG_ENC_1

SHIFTREG_ENC_1_INIT/SHIFTREG_ENC_1            ----- -----  ----- -----  ----- -----  ----- -----
  +--> _SHIFTREG_ENC_1_SETINTMODE/SHIFTREG_ENC_1

_SHIFTREG_ENC_1_SETINTMODE/SHIFTREG_ENC_+     ----- -----  ----- -----  ----- -----  ----- -----
... 1

SHIFTREG_ENC_1_ENABLE/SHIFTREG_ENC_1          ----- -----  ----- -----  ----- -----  ----- -----
  +--> SHIFTREG_ENC_1_ENABLEINT/SHIFTREG_ENC_1

SHIFTREG_ENC_1_ENABLEINT/SHIFTREG_ENC_1       ----- -----  ----- -----  ----- -----  ----- -----
  +--> CYENTERCRITICALSECTION/CYBOOTASMKEIL
  +--> CYEXITCRITICALSECTION/CYBOOTASMKEIL

SHIFTREG_ENC_2_START/SHIFTREG_ENC_2           ----- -----  ----- -----  ----- -----  ----- -----
  +--> SHIFTREG_ENC_2_INIT/SHIFTREG_ENC_2
  +--> SHIFTREG_ENC_2_ENABLE/SHIFTREG_ENC_2

SHIFTREG_ENC_2_INIT/SHIFTREG_ENC_2            ----- -----  ----- -----  ----- -----  ----- -----
  +--> _SHIFTREG_ENC_2_SETINTMODE/SHIFTREG_ENC_2

_SHIFTREG_ENC_2_SETINTMODE/SHIFTREG_ENC_+     ----- -----  ----- -----  ----- -----  ----- -----
... 2

SHIFTREG_ENC_2_ENABLE/SHIFTREG_ENC_2          ----- -----  ----- -----  ----- -----  ----- -----
  +--> SHIFTREG_ENC_2_ENABLEINT/SHIFTREG_ENC_2

SHIFTREG_ENC_2_ENABLEINT/SHIFTREG_ENC_2       ----- -----  ----- -----  ----- -----  ----- -----
  +--> CYENTERCRITICALSECTION/CYBOOTASMKEIL
  +--> CYEXITCRITICALSECTION/CYBOOTASMKEIL

SHIFTREG_ENC_3_START/SHIFTREG_ENC_3           ----- -----  ----- -----  ----- -----  ----- -----
  +--> SHIFTREG_ENC_3_INIT/SHIFTREG_ENC_3
  +--> SHIFTREG_ENC_3_ENABLE/SHIFTREG_ENC_3

SHIFTREG_ENC_3_INIT/SHIFTREG_ENC_3            ----- -----  ----- -----  ----- -----  ----- -----
  +--> _SHIFTREG_ENC_3_SETINTMODE/SHIFTREG_ENC_3

_SHIFTREG_ENC_3_SETINTMODE/SHIFTREG_ENC_+     ----- -----  ----- -----  ----- -----  ----- -----
... 3

SHIFTREG_ENC_3_ENABLE/SHIFTREG_ENC_3          ----- -----  ----- -----  ----- -----  ----- -----
  +--> SHIFTREG_ENC_3_ENABLEINT/SHIFTREG_ENC_3

SHIFTREG_ENC_3_ENABLEINT/SHIFTREG_ENC_3       ----- -----  ----- -----  ----- -----  ----- -----
  +--> CYENTERCRITICALSECTION/CYBOOTASMKEIL
  +--> CYEXITCRITICALSECTION/CYBOOTASMKEIL

ADC_START/ADC                                 ----- -----  ----- -----  ----- -----  ----- -----
LX51 LINKER/LOCATER V4.64.0.0                                                         04/13/2018  12:12:27  PAGE 21


  +--> ADC_INIT/ADC
  +--> ADC_ENABLE/ADC

ADC_INIT/ADC                                  ----- -----  ----- -----  ----- -----  ----- -----
  +--> _ADC_EXT_CP_CLK_SETMODEREGISTER/ADC_EXT_CP_CLK
  +--> _ADC_THEACLK_SETMODEREGISTER/ADC_THEACLK
  +--> _CYINTSETPRIORITY/CYLIB
  +--> _ADC_GAINCOMPENSATION/ADC
  +--> CYWRITE16/CYMEM
  +--> _ADC_INITCONFIG/ADC

_ADC_EXT_CP_CLK_SETMODEREGISTER/ADC_EXT_+     ----- -----  ----- -----  ----- -----  ----- -----
... CP_CLK

_ADC_THEACLK_SETMODEREGISTER/ADC_THEACLK      ----- -----  ----- -----  ----- -----  ----- -----

_ADC_GAINCOMPENSATION/ADC                     ----- -----  ----- -----  ----- -----  0002H 0009H
  +--> CYREAD8/CYMEM

_ADC_INITCONFIG/ADC                           ----- -----  ----- -----  ----- -----  ----- -----
  +--> _ADC_SETDSMREF0REG/ADC
  +--> _ADC_AMUX_SELECT/ADC_AMUX
  +--> _ADC_EXT_CP_CLK_SETDIVIDERREGISTER/ADC_EXT_CP_CLK
  +--> _ADC_THEACLK_SETDIVIDERREGISTER/ADC_THEACLK
  +--> _CYINTSETVECTOR/CYLIB

_ADC_SETDSMREF0REG/ADC                        ----- -----  ----- -----  ----- -----  0002H 0003H
  +--> CYENTERCRITICALSECTION/CYBOOTASMKEIL
  +--> CYDELAYUS/CYBOOTASMKEIL
  +--> CYEXITCRITICALSECTION/CYBOOTASMKEIL

_ADC_AMUX_SELECT/ADC_AMUX                     ----- -----  ----- -----  ----- -----  0002H 0002H
  +--> ADC_AMUX_START/ADC_AMUX
  +--> _ADC_AMUX_SET/CYFITTER_CFG

ADC_AMUX_START/ADC_AMUX                       ----- -----  ----- -----  ----- -----  0003H 0003H
  +--> _ADC_AMUX_UNSET/CYFITTER_CFG

_ADC_AMUX_UNSET/CYFITTER_CFG                  ----- -----  ----- -----  ----- -----  ----- -----
  +--> ?CO?CYFITTER_CFG

_ADC_AMUX_SET/CYFITTER_CFG                    ----- -----  ----- -----  ----- -----  ----- -----
  +--> ?CO?CYFITTER_CFG

_ADC_EXT_CP_CLK_SETDIVIDERREGISTER/ADC_E+     ----- -----  ----- -----  ----- -----  0002H 0008H
... XT_CP_CLK
  +--> ADC_EXT_CP_CLK_GETSOURCEREGISTER/ADC_EXT_CP_CLK
  +--> ADC_EXT_CP_CLK_GETDIVIDERREGISTER/ADC_EXT_CP_CLK
  +--> CYWRITE16/CYMEM

ADC_EXT_CP_CLK_GETSOURCEREGISTER/ADC_EXT+     ----- -----  ----- -----  ----- -----  ----- -----
... _CP_CLK

ADC_EXT_CP_CLK_GETDIVIDERREGISTER/ADC_EX+     ----- -----  ----- -----  ----- -----  ----- -----
... T_CP_CLK
  +--> CYREAD16/CYMEM

_ADC_THEACLK_SETDIVIDERREGISTER/ADC_THEA+     ----- -----  ----- -----  ----- -----  0002H 0008H
... CLK
  +--> ADC_THEACLK_GETSOURCEREGISTER/ADC_THEACLK
  +--> ADC_THEACLK_GETDIVIDERREGISTER/ADC_THEACLK
  +--> CYWRITE16/CYMEM

ADC_THEACLK_GETSOURCEREGISTER/ADC_THEACL+     ----- -----  ----- -----  ----- -----  ----- -----
... K
LX51 LINKER/LOCATER V4.64.0.0                                                         04/13/2018  12:12:27  PAGE 22



ADC_THEACLK_GETDIVIDERREGISTER/ADC_THEAC+     ----- -----  ----- -----  ----- -----  ----- -----
... LK
  +--> CYREAD16/CYMEM

ADC_ENABLE/ADC                                ----- -----  ----- -----  ----- -----  0002H 0003H
  +--> CYENTERCRITICALSECTION/CYBOOTASMKEIL
  +--> CYDELAYUS/CYBOOTASMKEIL
  +--> CYEXITCRITICALSECTION/CYBOOTASMKEIL

_ADC_SOC_WRITE/ADC_SOC                        ----- -----  ----- -----  ----- -----  ----- -----

_DMA_DMAINITIALIZE/DMA_DMA                    ----- -----  ----- -----  ----- -----  0002H 0007H
  +--> _CYDMACHSETCONFIGURATION/CYDMAC
  +--> _CYDMACHSETEXTENDEDADDRESS/CYDMAC
  +--> _CYDMACHPRIORITY/CYDMAC

_CYDMACHSETCONFIGURATION/CYDMAC               ----- -----  ----- -----  ----- -----  0008H 000DH

_CYDMACHSETEXTENDEDADDRESS/CYDMAC             ----- -----  ----- -----  ----- -----  0008H 000FH
  +--> CYWRITE16/CYMEM

_CYDMACHPRIORITY/CYDMAC                       ----- -----  ----- -----  ----- -----  ----- -----

CYDMATDALLOCATE/CYDMAC                        ----- -----  ----- -----  ----- -----  0002H 0002H
  +--> CYENTERCRITICALSECTION/CYBOOTASMKEIL
  +--> CYEXITCRITICALSECTION/CYBOOTASMKEIL

_CYDMATDSETCONFIGURATION/CYDMAC               ----- -----  ----- -----  ----- -----  0002H 0009H
  +--> CYWRITE16/CYMEM

_CYDMATDSETADDRESS/CYDMAC                     ----- -----  ----- -----  ----- -----  0002H 0009H
  +--> CYWRITE16/CYMEM

_CYDMACHSETINITIALTD/CYDMAC                   ----- -----  ----- -----  ----- -----  ----- -----

_CYDMACHENABLE/CYDMAC                         ----- -----  ----- -----  ----- -----  ----- -----

_RS485_CTS_WRITE/RS485_CTS                    ----- -----  ----- -----  ----- -----  ----- -----

MY_TIMER_START/MY_TIMER                       ----- -----  ----- -----  ----- -----  ----- -----
  +--> MY_TIMER_INIT/MY_TIMER
  +--> MY_TIMER_ENABLE/MY_TIMER

MY_TIMER_INIT/MY_TIMER                        ----- -----  ----- -----  ----- -----  ----- -----
  +--> _MY_TIMER_WRITEPERIOD/MY_TIMER
  +--> _MY_TIMER_WRITECOUNTER/MY_TIMER
  +--> CYENTERCRITICALSECTION/CYBOOTASMKEIL
  +--> CYEXITCRITICALSECTION/CYBOOTASMKEIL
  +--> MY_TIMER_CLEARFIFO/MY_TIMER
  +--> _MY_TIMER_SETINTERRUPTMODE/MY_TIMER

_MY_TIMER_WRITEPERIOD/MY_TIMER                ----- -----  ----- -----  ----- -----  ----- -----
  +--> CYWRITE24/CYMEM

CYWRITE24/CYMEM                               ----- -----  ----- -----  ----- -----  ----- -----

_MY_TIMER_WRITECOUNTER/MY_TIMER               ----- -----  ----- -----  ----- -----  ----- -----
  +--> CYWRITE24/CYMEM

MY_TIMER_CLEARFIFO/MY_TIMER                   ----- -----  ----- -----  ----- -----  ----- -----
  +--> MY_TIMER_READSTATUSREGISTER/MY_TIMER
  +--> MY_TIMER_READCAPTURE/MY_TIMER

MY_TIMER_READSTATUSREGISTER/MY_TIMER          ----- -----  ----- -----  ----- -----  ----- -----
LX51 LINKER/LOCATER V4.64.0.0                                                         04/13/2018  12:12:27  PAGE 23



MY_TIMER_READCAPTURE/MY_TIMER                 ----- -----  ----- -----  ----- -----  ----- -----
  +--> CYREAD24/CYMEM

CYREAD24/CYMEM                                ----- -----  ----- -----  ----- -----  ----- -----

_MY_TIMER_SETINTERRUPTMODE/MY_TIMER           ----- -----  ----- -----  ----- -----  ----- -----

MY_TIMER_ENABLE/MY_TIMER                      ----- -----  ----- -----  ----- -----  ----- -----

PACER_TIMER_START/PACER_TIMER                 ----- -----  ----- -----  ----- -----  ----- -----
  +--> PACER_TIMER_INIT/PACER_TIMER
  +--> PACER_TIMER_ENABLE/PACER_TIMER

PACER_TIMER_INIT/PACER_TIMER                  ----- -----  ----- -----  ----- -----  ----- -----
  +--> _PACER_TIMER_WRITEPERIOD/PACER_TIMER
  +--> _PACER_TIMER_WRITECOUNTER/PACER_TIMER
  +--> _PACER_TIMER_SETINTERRUPTMODE/PACER_TIMER

_PACER_TIMER_WRITEPERIOD/PACER_TIMER          ----- -----  ----- -----  ----- -----  ----- -----
  +--> CYWRITE16/CYMEM

_PACER_TIMER_WRITECOUNTER/PACER_TIMER         ----- -----  ----- -----  ----- -----  ----- -----
  +--> CYWRITE16/CYMEM

_PACER_TIMER_SETINTERRUPTMODE/PACER_TIME+     ----- -----  ----- -----  ----- -----  ----- -----
... R

PACER_TIMER_ENABLE/PACER_TIMER                ----- -----  ----- -----  ----- -----  ----- -----

_RESET_COUNTERS_WRITE/RESET_COUNTERS          ----- -----  ----- -----  ----- -----  ----- -----

_RESET_FF_WRITE/RESET_FF                      ----- -----  ----- -----  ----- -----  ----- -----

FUNCTION_SCHEDULER/INTERRUPTIONS              ----- -----  ----- -----  ----- -----  ----- -----
  +--> MY_TIMER_READCOUNTER/MY_TIMER
  +--> _ADC_SOC_WRITE/ADC_SOC
  +--> INTERRUPT_MANAGER/INTERRUPTIONS
  +--> _ENCODER_READING/INTERRUPTIONS
  +--> MOTOR_CONTROL/INTERRUPTIONS
  +--> ANALOG_READ_END/INTERRUPTIONS
  +--> OVERCURRENT_CONTROL/INTERRUPTIONS
  +--> COMMREADMEASFROMSH/COMMAND_PROCESSING
  +--> CHECK_REST_POSITION/UTILS
  +--> DRIVE_SH/COMMAND_PROCESSING
  +--> DRIVE_FORCE_FB/COMMAND_PROCESSING
  +--> DRIVE_PROPRIO_FB/COMMAND_PROCESSING
  +--> CALIBRATION/UTILS
  +--> _MY_TIMER_WRITECOUNTER/MY_TIMER

MY_TIMER_READCOUNTER/MY_TIMER                 ----- -----  ----- -----  ----- -----  ----- -----
  +--> CYREAD24/CYMEM

INTERRUPT_MANAGER/INTERRUPTIONS               20H.0 20H.0  0029H 002AH  ----- -----  ----- -----
  +--> UART_RS485_GETRXBUFFERSIZE/UART_RS485
  +--> UART_RS485_GETCHAR/UART_RS485
  +--> _INFOGET/COMMAND_PROCESSING
  +--> COMMPROCESS/COMMAND_PROCESSING
  +--> _RS485_CTS_WRITE/RS485_CTS

UART_RS485_GETRXBUFFERSIZE/UART_RS485         ----- -----  ----- -----  ----- -----  ----- -----

UART_RS485_GETCHAR/UART_RS485                 ----- -----  ----- -----  ----- -----  ----- -----

_INFOGET/COMMAND_PROCESSING                   ----- -----  ----- -----  ----- -----  002CH 06D1H
LX51 LINKER/LOCATER V4.64.0.0                                                         04/13/2018  12:12:27  PAGE 24


  +--> ?CO?COMMAND_PROCESSING
  +--> _INFOPREPARE/COMMAND_PROCESSING
  +--> _UART_RS485_PUTSTRING/UART_RS485

?CO?COMMAND_PROCESSING                        ----- -----  ----- -----  ----- -----  ----- -----

_INFOPREPARE/COMMAND_PROCESSING               ----- -----  ----- -----  ----- -----  06D2H 073AH
  +--> ?CO?COMMAND_PROCESSING
  +--> _STRCAT/STRCAT
  +--> PRINTF/PRINTF

_STRCAT/STRCAT                                ----- -----  ----- -----  ----- -----  0EDBH 0EE3H

PRINTF/PRINTF                                 20H.1 21H.1  002CH 0030H  ----- -----  073BH 076AH
  +--> PUTCHAR/PUTCHAR

PUTCHAR/PUTCHAR                               ----- -----  ----- -----  ----- -----  ----- -----

_UART_RS485_PUTSTRING/UART_RS485              ----- -----  ----- -----  ----- -----  06D2H 06D4H
  +--> _UART_RS485_PUTCHAR/UART_RS485

_UART_RS485_PUTCHAR/UART_RS485                ----- -----  ----- -----  ----- -----  ----- -----

COMMPROCESS/COMMAND_PROCESSING                ----- -----  002BH 002BH  ----- -----  ----- -----
  +--> _LCRCHECKSUM/COMMAND_PROCESSING
  +--> CMD_ACTIVATE/COMMAND_PROCESSING
  +--> CMD_SET_INPUTS/COMMAND_PROCESSING
  +--> CMD_GET_MEASUREMENTS/COMMAND_PROCESSING
  +--> CMD_GET_CURR_AND_MEAS/COMMAND_PROCESSING
  +--> CMD_GET_JOYSTICK/COMMAND_PROCESSING
  +--> CMD_GET_CURRENTS/COMMAND_PROCESSING
  +--> CMD_GET_EMG/COMMAND_PROCESSING
  +--> CMD_SET_WATCHDOG/COMMAND_PROCESSING
  +--> CMD_GET_ACTIVATE/COMMAND_PROCESSING
  +--> CMD_SET_BAUDRATE/COMMAND_PROCESSING
  +--> CMD_GET_INPUTS/COMMAND_PROCESSING
  +--> _INFOGET/COMMAND_PROCESSING
  +--> SETZEROS/COMMAND_PROCESSING
  +--> _GET_PARAM_LIST/COMMAND_PROCESSING
  +--> CMD_PING/COMMAND_PROCESSING
  +--> CMD_STORE_PARAMS/COMMAND_PROCESSING
  +--> _MEMSTORE/COMMAND_PROCESSING
  +--> _SENDACKNOWLEDGMENT/COMMAND_PROCESSING
  +--> MEMRESTORE/COMMAND_PROCESSING
  +--> MEMINIT/COMMAND_PROCESSING
  +--> _?CYDELAY/CYLIB
  +--> _FTDI_ENABLE_REG_WRITE/FTDI_ENABLE_REG
  +--> BOOTLOADABLE_LOAD/BOOTLOADABLE

_LCRCHECKSUM/COMMAND_PROCESSING               ----- -----  004DH 004EH  ----- -----  0EDBH 0EDDH

CMD_ACTIVATE/COMMAND_PROCESSING               ----- -----  ----- -----  ----- -----  ----- -----
  +--> _MOTOR_ON_OFF_WRITE/MOTOR_ON_OFF

CMD_SET_INPUTS/COMMAND_PROCESSING             ----- -----  ----- -----  ----- -----  ----- -----

CMD_GET_MEASUREMENTS/COMMAND_PROCESSING       ----- -----  002CH 002CH  ----- -----  002CH 0033H
  +--> _LCRCHECKSUM/COMMAND_PROCESSING
  +--> _COMMWRITE/COMMAND_PROCESSING

_COMMWRITE/COMMAND_PROCESSING                 ----- -----  004DH 004EH  ----- -----  0EDBH 0EDFH
  +--> _UART_RS485_PUTCHAR/UART_RS485
  +--> UART_RS485_READTXSTATUS/UART_RS485
  +--> _RS485_CTS_WRITE/RS485_CTS

LX51 LINKER/LOCATER V4.64.0.0                                                         04/13/2018  12:12:27  PAGE 25


UART_RS485_READTXSTATUS/UART_RS485            ----- -----  ----- -----  ----- -----  ----- -----

CMD_GET_CURR_AND_MEAS/COMMAND_PROCESSING      ----- -----  002CH 002CH  ----- -----  002CH 0037H
  +--> _LCRCHECKSUM/COMMAND_PROCESSING
  +--> _COMMWRITE/COMMAND_PROCESSING

CMD_GET_JOYSTICK/COMMAND_PROCESSING           ----- -----  ----- -----  ----- -----  002CH 0031H
  +--> _LCRCHECKSUM/COMMAND_PROCESSING
  +--> _COMMWRITE/COMMAND_PROCESSING

CMD_GET_CURRENTS/COMMAND_PROCESSING           ----- -----  ----- -----  ----- -----  002CH 0031H
  +--> _LCRCHECKSUM/COMMAND_PROCESSING
  +--> _COMMWRITE/COMMAND_PROCESSING

CMD_GET_EMG/COMMAND_PROCESSING                ----- -----  ----- -----  ----- -----  002CH 0031H
  +--> _LCRCHECKSUM/COMMAND_PROCESSING
  +--> _COMMWRITE/COMMAND_PROCESSING

CMD_SET_WATCHDOG/COMMAND_PROCESSING           ----- -----  ----- -----  ----- -----  ----- -----
  +--> _WATCHDOG_ENABLER_WRITE/WATCHDOG_ENABLER
  +--> _WATCHDOG_COUNTER_WRITEPERIOD/WATCHDOG_COUNTER

_WATCHDOG_ENABLER_WRITE/WATCHDOG_ENABLER      ----- -----  ----- -----  ----- -----  ----- -----

CMD_GET_ACTIVATE/COMMAND_PROCESSING           ----- -----  ----- -----  ----- -----  002CH 002EH
  +--> _LCRCHECKSUM/COMMAND_PROCESSING
  +--> _COMMWRITE/COMMAND_PROCESSING

CMD_SET_BAUDRATE/COMMAND_PROCESSING           ----- -----  ----- -----  ----- -----  ----- -----
  +--> _CLOCK_UART_SETDIVIDERREGISTER/CLOCK_UART

_CLOCK_UART_SETDIVIDERREGISTER/CLOCK_UAR+     ----- -----  ----- -----  ----- -----  002CH 0032H
... T
  +--> CLOCK_UART_GETSOURCEREGISTER/CLOCK_UART
  +--> CLOCK_UART_GETDIVIDERREGISTER/CLOCK_UART
  +--> CYWRITE16/CYMEM

CLOCK_UART_GETSOURCEREGISTER/CLOCK_UART       ----- -----  ----- -----  ----- -----  ----- -----

CLOCK_UART_GETDIVIDERREGISTER/CLOCK_UART      ----- -----  ----- -----  ----- -----  ----- -----
  +--> CYREAD16/CYMEM

CMD_GET_INPUTS/COMMAND_PROCESSING             ----- -----  ----- -----  ----- -----  002CH 0031H
  +--> _LCRCHECKSUM/COMMAND_PROCESSING
  +--> _COMMWRITE/COMMAND_PROCESSING

SETZEROS/COMMAND_PROCESSING                   ----- -----  002CH 002CH  ----- -----  ----- -----
  +--> _SENDACKNOWLEDGMENT/COMMAND_PROCESSING

_SENDACKNOWLEDGMENT/COMMAND_PROCESSING        ----- -----  ----- -----  ----- -----  003CH 003DH
  +--> _COMMWRITE/COMMAND_PROCESSING

_GET_PARAM_LIST/COMMAND_PROCESSING            ----- -----  002CH 004CH  ----- -----  002CH 0EDAH
  +--> ?CO?COMMAND_PROCESSING
  +--> _STRLEN/STRLEN
  +--> _STRCAT/STRCAT
  +--> _LCRCHECKSUM/COMMAND_PROCESSING
  +--> _COMMWRITE/COMMAND_PROCESSING

_STRLEN/STRLEN                                ----- -----  ----- -----  ----- -----  ----- -----

CMD_PING/COMMAND_PROCESSING                   ----- -----  ----- -----  ----- -----  002CH 002DH
  +--> _COMMWRITE/COMMAND_PROCESSING

CMD_STORE_PARAMS/COMMAND_PROCESSING           ----- -----  002CH 002FH  ----- -----  002CH 003BH
LX51 LINKER/LOCATER V4.64.0.0                                                         04/13/2018  12:12:27  PAGE 26


  +--> _MEMSTORE/COMMAND_PROCESSING
  +--> _COMMWRITE_OLD_ID/COMMAND_PROCESSING
  +--> _SENDACKNOWLEDGMENT/COMMAND_PROCESSING

_COMMWRITE_OLD_ID/COMMAND_PROCESSING          ----- -----  0030H 0031H  ----- -----  003CH 0041H
  +--> _UART_RS485_PUTCHAR/UART_RS485
  +--> UART_RS485_READTXSTATUS/UART_RS485
  +--> _RS485_CTS_WRITE/RS485_CTS

BOOTLOADABLE_LOAD/BOOTLOADABLE                ----- -----  ----- -----  ----- -----  ----- -----
  +--> CYSOFTWARERESET/CYLIB

CYSOFTWARERESET/CYLIB                         ----- -----  ----- -----  ----- -----  ----- -----

_ENCODER_READING/INTERRUPTIONS                ----- -----  0023H 0023H  ----- -----  0002H 0015H
  +--> SHIFTREG_ENC_1_READDATA/SHIFTREG_ENC_1
  +--> SHIFTREG_ENC_2_READDATA/SHIFTREG_ENC_2
  +--> SHIFTREG_ENC_3_READDATA/SHIFTREG_ENC_3
  +--> _CHECK_ENC_DATA/UTILS
  +--> _ABS/ABS
  +--> _FILTER_VEL_1/UTILS
  +--> _FILTER_VEL_2/UTILS
  +--> _FILTER_VEL_3/UTILS
  +--> _FILTER_ACC_1/UTILS
  +--> _FILTER_ACC_2/UTILS
  +--> _FILTER_ACC_3/UTILS
  +--> _CALC_TURNS_FCN/UTILS
  +--> _MOTOR_ON_OFF_WRITE/MOTOR_ON_OFF

SHIFTREG_ENC_1_READDATA/SHIFTREG_ENC_1        ----- -----  ----- -----  ----- -----  ----- -----
  +--> CYREAD24/CYMEM

SHIFTREG_ENC_2_READDATA/SHIFTREG_ENC_2        ----- -----  ----- -----  ----- -----  ----- -----
  +--> CYREAD24/CYMEM

SHIFTREG_ENC_3_READDATA/SHIFTREG_ENC_3        ----- -----  ----- -----  ----- -----  ----- -----
  +--> CYREAD24/CYMEM

_CHECK_ENC_DATA/UTILS                         ----- -----  0024H 0024H  0075H 0077H  ----- -----

_ABS/ABS                                      ----- -----  ----- -----  ----- -----  ----- -----

_FILTER_VEL_1/UTILS                           ----- -----  ----- -----  ----- -----  0016H 0019H

_FILTER_VEL_2/UTILS                           ----- -----  ----- -----  ----- -----  0016H 0019H

_FILTER_VEL_3/UTILS                           ----- -----  ----- -----  ----- -----  0016H 0019H

_FILTER_ACC_1/UTILS                           ----- -----  ----- -----  ----- -----  0016H 0019H

_FILTER_ACC_2/UTILS                           ----- -----  ----- -----  ----- -----  0016H 0019H

_FILTER_ACC_3/UTILS                           ----- -----  ----- -----  ----- -----  0016H 0019H

_CALC_TURNS_FCN/UTILS                         ----- -----  ----- -----  ----- -----  0016H 001DH
  +--> _MY_MOD/UTILS

_MY_MOD/UTILS                                 ----- -----  ----- -----  ----- -----  001EH 0025H

MOTOR_CONTROL/INTERRUPTIONS                   ----- -----  0023H 0072H  ----- -----  ----- -----
  +--> _MOTOR_DIR_WRITE/MOTOR_DIR
  +--> _ABS/ABS
  +--> _PWM_MOTORS_WRITECOMPARE1/PWM_MOTORS

ANALOG_READ_END/INTERRUPTIONS                 ----- -----  0023H 0026H  ----- -----  ----- -----
LX51 LINKER/LOCATER V4.64.0.0                                                         04/13/2018  12:12:27  PAGE 27


  +--> ADC_STATUS_READ/ADC_STATUS
  +--> INTERRUPT_MANAGER/INTERRUPTIONS
  +--> _FILTER_VOLTAGE/UTILS
  +--> PWM_LIMIT_SEARCH/INTERRUPTIONS
  +--> _FILTER_I1/UTILS
  +--> _FILTER_CH1/UTILS
  +--> _LED_CTRL_WRITE/LED_CTRL
  +--> _LED_BLINK_EN_WRITE/LED_BLINK_EN
  +--> _FILTER_CH2/UTILS
  +--> _MOTOR_ON_OFF_WRITE/MOTOR_ON_OFF
  +--> DEACTIVATE_SLAVES/COMMAND_PROCESSING

ADC_STATUS_READ/ADC_STATUS                    ----- -----  ----- -----  ----- -----  ----- -----

_FILTER_VOLTAGE/UTILS                         ----- -----  ----- -----  ----- -----  ----- -----

PWM_LIMIT_SEARCH/INTERRUPTIONS                ----- -----  0027H 0027H  ----- -----  ----- -----

_FILTER_I1/UTILS                              ----- -----  ----- -----  ----- -----  ----- -----

_FILTER_CH1/UTILS                             ----- -----  ----- -----  ----- -----  0002H 0005H

_FILTER_CH2/UTILS                             ----- -----  ----- -----  ----- -----  0002H 0005H

DEACTIVATE_SLAVES/COMMAND_PROCESSING          ----- -----  ----- -----  ----- -----  0002H 000CH
  +--> _LCRCHECKSUM/COMMAND_PROCESSING
  +--> _COMMWRITE/COMMAND_PROCESSING

OVERCURRENT_CONTROL/INTERRUPTIONS             ----- -----  ----- -----  ----- -----  ----- -----

COMMREADMEASFROMSH/COMMAND_PROCESSING         ----- -----  ----- -----  ----- -----  0002H 0017H
  +--> _COMMWRITEID/COMMAND_PROCESSING
  +--> MY_TIMER_READCOUNTER/MY_TIMER
  +--> INTERRUPT_MANAGER/INTERRUPTIONS

_COMMWRITEID/COMMAND_PROCESSING               ----- -----  ----- -----  ----- -----  002CH 0031H
  +--> _UART_RS485_PUTCHAR/UART_RS485
  +--> UART_RS485_READTXSTATUS/UART_RS485

CHECK_REST_POSITION/UTILS                     ----- -----  ----- -----  ----- -----  0002H 0009H

DRIVE_SH/COMMAND_PROCESSING                   ----- -----  ----- -----  ----- -----  0002H 0008H
  +--> _LCRCHECKSUM/COMMAND_PROCESSING
  +--> _COMMWRITEID/COMMAND_PROCESSING

DRIVE_FORCE_FB/COMMAND_PROCESSING             ----- -----  0023H 0028H  ----- -----  0002H 000DH
  +--> COMMREADRESCURRFROMSH/COMMAND_PROCESSING
  +--> _LCRCHECKSUM/COMMAND_PROCESSING
  +--> _COMMWRITEID/COMMAND_PROCESSING

COMMREADRESCURRFROMSH/COMMAND_PROCESSING      ----- -----  ----- -----  ----- -----  000EH 002BH
  +--> _COMMWRITEID/COMMAND_PROCESSING
  +--> MY_TIMER_READCOUNTER/MY_TIMER
  +--> INTERRUPT_MANAGER/INTERRUPTIONS

DRIVE_PROPRIO_FB/COMMAND_PROCESSING           ----- -----  0023H 0028H  ----- -----  ----- -----
  +--> COMMREADMEASFROMSH/COMMAND_PROCESSING
  +--> _LCRCHECKSUM/COMMAND_PROCESSING
  +--> _COMMWRITEID/COMMAND_PROCESSING

CALIBRATION/UTILS                             ----- -----  ----- -----  ----- -----  ----- -----

FF_STATUS_READ/FF_STATUS                      ----- -----  ----- -----  ----- -----  ----- -----

_WATCHDOG_REFRESH_WRITE/WATCHDOG_REFRESH      ----- -----  ----- -----  ----- -----  ----- -----
LX51 LINKER/LOCATER V4.64.0.0                                                         04/13/2018  12:12:27  PAGE 28



UART_RS485_READRXSTATUS/UART_RS485            ----- -----  ----- -----  ----- -----  ----- -----

?C_INITSEG                                    ----- -----  ----- -----  ----- -----  ----- -----

*** NEW ROOT ********************************

UART_RS485_RXISR/UART_RS485_INT               ----- -----  ----- -----  ----- -----  ----- -----

*** NEW ROOT ********************************

ADC_ISR1/ADC_INT                              ----- -----  ----- -----  ----- -----  ----- -----

*** NEW ROOT ********************************

ADC_ISR2/ADC_INT                              ----- -----  ----- -----  ----- -----  ----- -----

*** NEW ROOT ********************************

ADC_ISR3/ADC_INT                              ----- -----  ----- -----  ----- -----  ----- -----

*** NEW ROOT ********************************

ADC_ISR4/ADC_INT                              ----- -----  ----- -----  ----- -----  ----- -----



PUBLIC SYMBOLS OF MODULE:  .\DP8051_Keil_951\Release\hand_firmware_micro.omf (COMMAND_PROCESSING)


      VALUE       CLASS    TYPE      PUBLIC SYMBOL NAME
      =================================================
*DEL*:00000000H   XDATA    BYTE      ?_Bootloadable_SetFlashByte?BYTE
      02000016H   XDATA    BYTE      ?_calc_turns_fcn?BYTE
      0200003CH   XDATA    BYTE      ?_commWrite_old_id?BYTE
      0200002CH   XDATA    BYTE      ?_commWriteID?BYTE
      02000005H   XDATA    BYTE      ?_cyconfigcpy?BYTE
      02000008H   XDATA    BYTE      ?_CyDmaChSetConfiguration?BYTE
*DEL*:00000000H   XDATA    BYTE      ?_CyDmaChStatus?BYTE
*DEL*:00000000H   XDATA    BYTE      ?_CyDmaTdGetAddress?BYTE
*DEL*:00000000H   XDATA    BYTE      ?_CyDmaTdGetConfiguration?BYTE
      02000002H   XDATA    BYTE      ?_CyDmaTdSetConfiguration?BYTE
*DEL*:00000000H   XDATA    BYTE      ?_CySpcLoadMultiByte?BYTE
      02000048H   XDATA    BYTE      ?_CySpcLoadRow?BYTE
*DEL*:00000000H   XDATA    BYTE      ?_CySpcLoadRowFull?BYTE
      02000048H   XDATA    BYTE      ?_CySpcWriteRow?BYTE
*DEL*:00000000H   XDATA    BYTE      ?_CyWriteRowFull?BYTE
      02000002H   XDATA    BYTE      ?_DMA_DmaInitialize?BYTE
      0200001EH   XDATA    BYTE      ?_my_mod?BYTE
      0200073BH   XDATA    ---       ?_PRINTF?BYTE
      0200073BH   XDATA    ---       ?_SPRINTF?BYTE
      02000EDBH   XDATA    ---       ?_strcat?BYTE
      0100945FH   CODE     ---       ?C?ADDXBP
      01008F7EH   CODE     ---       ?C?CASTF
      01009439H   CODE     ---       ?C?CCASE
      010091CAH   CODE     ---       ?C?CLDOPTR
      010091B1H   CODE     ---       ?C?CLDPTR
      00000000H   NUMBER   ---       ?C?CODESEG
      0100956CH   CODE     ---       ?C?COPYAMD
      010091F7H   CODE     ---       ?C?CSTPTR
      01008F4AH   CODE     ---       ?C?FCASTC
      01008F45H   CODE     ---       ?C?FCASTI
      01008F40H   CODE     ---       ?C?FCASTL
      01008C30H   CODE     ---       ?C?FPADD
      01008EC9H   CODE     ---       ?C?FPCMP
LX51 LINKER/LOCATER V4.64.0.0                                                         04/13/2018  12:12:27  PAGE 29


      01008EC7H   CODE     ---       ?C?FPCMP3
      0100903CH   CODE     ---       ?C?FPCONVERT
      01008E2AH   CODE     ---       ?C?FPDIV
      01008FB5H   CODE     ---       ?C?FPGETOPN2
      01008D21H   CODE     ---       ?C?FPMUL
      01008FEAH   CODE     ---       ?C?FPNANRESULT
      01008FF4H   CODE     ---       ?C?FPOVERFLOW
      01008FCCH   CODE     ---       ?C?FPRESULT
      01008FE0H   CODE     ---       ?C?FPRESULT2
      01008FFFH   CODE     ---       ?C?FPROUND
      01008C2CH   CODE     ---       ?C?FPSUB
      01008FF1H   CODE     ---       ?C?FPUNDERFLOW
      01009171H   CODE     ---       ?C?FTNPWR
      01009667H   CODE     ---       ?C?IILDX
      0100967DH   CODE     ---       ?C?ILDIX
      01009209H   CODE     ---       ?C?IMUL
      0100921BH   CODE     ---       ?C?ISTPTR
      01009483H   CODE     ---       ?C?LIMUL
      010096B7H   CODE     ---       ?C?LLDCODE
      01009693H   CODE     ---       ?C?LLDIDATA
      010096ABH   CODE     ---       ?C?LLDPDATA
      010093D3H   CODE     ---       ?C?LLDPTR
      0100969FH   CODE     ---       ?C?LLDXDATA
      0100923AH   CODE     ---       ?C?LMUL
      01009364H   CODE     ---       ?C?LNEG
      01009357H   CODE     ---       ?C?LNOT
      010093C0H   CODE     ---       ?C?LSHL
      010096C7H   CODE     ---       ?C?LSTIDATA
      010096D3H   CODE     ---       ?C?LSTPDATA
      010093F3H   CODE     ---       ?C?LSTPTR
      0100940DH   CODE     ---       ?C?LSTXDATA
      01009419H   CODE     ---       ?C?PLDIXDATA
      01009430H   CODE     ---       ?C?PSTXDATA
      01009372H   CODE     ---       ?C?SLCMP
      0100E83CH   CODE     ---       ?C?SLDIV
      010093ACH   CODE     ---       ?C?SLSHR
      0100964AH   CODE     ---       ?C?STRCPYAMD
      01009388H   CODE     ---       ?C?ULCMP
      010092C5H   CODE     ---       ?C?ULDIV
      01009399H   CODE     ---       ?C?ULSHR
      00000000H   NUMBER   ---       ?C?XDATASEG
      00000000H   NUMBER   ---       ?C?XPAGE1RST
      00000093H   DATA     BYTE      ?C?XPAGE1SFR
      0100C9E3H   CODE     ---       ?C_START
      01002600H   CODE     NEAR LAB  ?C_STARTUP
      00000073H   DATA     ---       ?C_XBP
      0100D82DH   CODE     ---       _?CyDelay
*DEL*:00000000H   CODE     ---       _?CyDelayFreq
*DEL*:00000000H   CODE     ---       _?CyHalt
      0100F355H   CODE     ---       _ABS
*DEL*:00000000H   CODE     ---       _ADC_AMux_FastSelect
      0100F04DH   CODE     ---       _ADC_AMux_Select
      0100ED0DH   CODE     ---       _ADC_AMux_Set
      0100ECABH   CODE     ---       _ADC_AMux_Unset
*DEL*:00000000H   CODE     ---       _ADC_CountsTo_mVolts
*DEL*:00000000H   CODE     ---       _ADC_CountsTo_uVolts
*DEL*:00000000H   CODE     ---       _ADC_CountsTo_Volts
*DEL*:00000000H   CODE     ---       _ADC_Ext_CP_Clk_ClearModeRegister
      0100C319H   CODE     ---       _ADC_Ext_CP_Clk_SetDividerRegister
      0100F317H   CODE     ---       _ADC_Ext_CP_Clk_SetModeRegister
*DEL*:00000000H   CODE     ---       _ADC_Ext_CP_Clk_SetSourceRegister
*DEL*:00000000H   CODE     ---       _ADC_Ext_CP_Clk_StandbyPower
*DEL*:00000000H   CODE     ---       _ADC_IsEndConversion
*DEL*:00000000H   CODE     ---       _ADC_SelectConfiguration
*DEL*:00000000H   CODE     ---       _ADC_SetBufferGain
LX51 LINKER/LOCATER V4.64.0.0                                                         04/13/2018  12:12:27  PAGE 30


*DEL*:00000000H   CODE     ---       _ADC_SetCoherency
*DEL*:00000000H   CODE     ---       _ADC_SetGain
*DEL*:00000000H   CODE     ---       _ADC_SetGCOR
*DEL*:00000000H   CODE     ---       _ADC_SetOffset
      0100F4F3H   CODE     ---       _ADC_SOC_Write
*DEL*:00000000H   CODE     ---       _ADC_STATUS_WriteMask
*DEL*:00000000H   CODE     ---       _ADC_theACLK_ClearModeRegister
      0100C7D9H   CODE     ---       _ADC_theACLK_SetDividerRegister
      0100F324H   CODE     ---       _ADC_theACLK_SetModeRegister
*DEL*:00000000H   CODE     ---       _ADC_theACLK_SetPhaseRegister
*DEL*:00000000H   CODE     ---       _ADC_theACLK_SetSourceRegister
*DEL*:00000000H   CODE     ---       _ADC_theACLK_StandbyPower
*DEL*:00000000H   CODE     ---       _Bootloadable_SetFlashByte
      0100D008H   CODE     ---       _calc_turns_fcn
*DEL*:00000000H   CODE     NEAR LAB  _cfg_write_bytes
*DEL*:00000000H   CODE     NEAR LAB  _cfg_write_bytes_code
      0100E27DH   CODE     ---       _check_enc_data
*DEL*:00000000H   CODE     ---       _CLOCK_UART_ClearModeRegister
      0100C57AH   CODE     ---       _CLOCK_UART_SetDividerRegister
*DEL*:00000000H   CODE     ---       _CLOCK_UART_SetModeRegister
*DEL*:00000000H   CODE     ---       _CLOCK_UART_SetSourceRegister
*DEL*:00000000H   CODE     ---       _CLOCK_UART_StandbyPower
      0100D718H   CODE     ---       _commWrite
      0100D68BH   CODE     ---       _commWrite_old_id
      0100DA43H   CODE     ---       _commWriteID
      0100F487H   CODE     ---       _COUNTER_ENC_SetInterruptMode
      0100F4A5H   CODE     ---       _COUNTER_ENC_WriteCompare
*DEL*:00000000H   CODE     ---       _COUNTER_ENC_WriteControlRegister
      0100F493H   CODE     ---       _COUNTER_ENC_WriteCounter
      0100F49FH   CODE     ---       _COUNTER_ENC_WritePeriod
*DEL*:00000000H   CODE     ---       _CyBusClk_SetDivider
      0100EC12H   CODE     NEAR LAB  _cyconfigcpy
      0100EE9DH   CODE     NEAR LAB  _cyconfigcpycode
*DEL*:00000000H   CODE     ---       _CyCpuClk_SetDivider
*DEL*:00000000H   CODE     NEAR LAB  _CyDelay
      0100EB00H   CODE     NEAR LAB  _CyDelayCycles
      0100EDCCH   CODE     NEAR LAB  _CyDelayUs
*DEL*:00000000H   CODE     ---       _CyDmacClearError
*DEL*:00000000H   CODE     ---       _CyDmaChDisable
      0100E716H   CODE     ---       _CyDmaChEnable
*DEL*:00000000H   CODE     ---       _CyDmaChFree
*DEL*:00000000H   CODE     ---       _CyDmaChGetRequest
      0100E945H   CODE     ---       _CyDmaChPriority
*DEL*:00000000H   CODE     ---       _CyDmaChRoundRobin
      0100DED6H   CODE     ---       _CyDmaChSetConfiguration
      0100DF4FH   CODE     ---       _CyDmaChSetExtendedAddress
      0100EFC6H   CODE     ---       _CyDmaChSetInitialTd
*DEL*:00000000H   CODE     ---       _CyDmaChSetRequest
*DEL*:00000000H   CODE     ---       _CyDmaChStatus
*DEL*:00000000H   CODE     ---       _CyDmaClearPendingDrq
*DEL*:00000000H   CODE     ---       _CyDmaTdFree
*DEL*:00000000H   CODE     ---       _CyDmaTdGetAddress
*DEL*:00000000H   CODE     ---       _CyDmaTdGetConfiguration
      0100DFC7H   CODE     ---       _CyDmaTdSetAddress
      0100D8B5H   CODE     ---       _CyDmaTdSetConfiguration
*DEL*:00000000H   CODE     ---       _CyEnableInts
      0100F07EH   CODE     NEAR LAB  _CyExitCriticalSection
*DEL*:00000000H   CODE     ---       _CyFlash_SetWaitCycles
*DEL*:00000000H   CODE     ---       _CyGetUniqueId
*DEL*:00000000H   CODE     ---       _CyILO_SetPowerMode
*DEL*:00000000H   CODE     ---       _CyILO_SetSource
*DEL*:00000000H   CODE     ---       _CyIMO_SetFreq
*DEL*:00000000H   CODE     ---       _CyIMO_SetSource
*DEL*:00000000H   CODE     ---       _CyIMO_Start
*DEL*:00000000H   CODE     ---       _CyIntGetPriority
LX51 LINKER/LOCATER V4.64.0.0                                                         04/13/2018  12:12:27  PAGE 31


*DEL*:00000000H   CODE     ---       _CyIntGetState
*DEL*:00000000H   CODE     ---       _CyIntGetVector
      0100F034H   CODE     ---       _CyIntSetPriority
      0100E582H   CODE     ---       _CyIntSetVector
*DEL*:00000000H   CODE     ---       _CyMasterClk_SetDivider
*DEL*:00000000H   CODE     ---       _CyMasterClk_SetSource
*DEL*:00000000H   CODE     NEAR LAB  _cymemzero
*DEL*:00000000H   CODE     ---       _CyPLL_OUT_SetPQ
*DEL*:00000000H   CODE     ---       _CyPLL_OUT_SetSource
*DEL*:00000000H   CODE     ---       _CyPLL_OUT_Start
*DEL*:00000000H   CODE     ---       _CyPmAltAct
*DEL*:00000000H   CODE     ---       _CyPmCtwSetInterval
*DEL*:00000000H   CODE     ---       _CyPmFtwSetInterval
*DEL*:00000000H   CODE     ---       _CyPmHibernateEx
*DEL*:00000000H   CODE     ---       _CyPmReadStatus
*DEL*:00000000H   CODE     ---       _CyPmSleep
      0100F262H   CODE     NEAR LAB  _cyread16
      0100F264H   CODE     NEAR LAB  _cyread16_nodpx
      0100F1E9H   CODE     NEAR LAB  _cyread24
      0100F1EBH   CODE     NEAR LAB  _cyread24_nodpx
*DEL*:00000000H   CODE     NEAR LAB  _cyread32
*DEL*:00000002H   CODE     NEAR LAB  _cyread32_nodpx
      0100F331H   CODE     NEAR LAB  _cyread8
      0100F333H   CODE     NEAR LAB  _cyread8_nodpx
*DEL*:00000000H   CODE     ---       _CySetFlashEEBuffer
*DEL*:00000000H   CODE     ---       _CySpcEraseSector
      0100ED9CH   CODE     ---       _CySpcGetTemp
*DEL*:00000000H   CODE     ---       _CySpcLoadMultiByte
      0100E19EH   CODE     ---       _CySpcLoadRow
*DEL*:00000000H   CODE     ---       _CySpcLoadRowFull
      0100E419H   CODE     ---       _CySpcReadData
      0100E5D6H   CODE     ---       _CySpcWriteRow
*DEL*:00000000H   CODE     ---       _CyUsbClk_SetSource
*DEL*:00000000H   CODE     ---       _CyVdLvAnalogEnable
*DEL*:00000000H   CODE     ---       _CyVdLvDigitEnable
*DEL*:00000000H   CODE     ---       _CyVdStickyStatus
*DEL*:00000000H   CODE     ---       _CyWdtStart
      0100F271H   CODE     NEAR LAB  _cywrite16
      0100F273H   CODE     NEAR LAB  _cywrite16_nodpx
      0100F20EH   CODE     NEAR LAB  _cywrite24
      0100F210H   CODE     NEAR LAB  _cywrite24_nodpx
*DEL*:00000000H   CODE     NEAR LAB  _cywrite32
*DEL*:00000002H   CODE     NEAR LAB  _cywrite32_nodpx
      0100F33DH   CODE     NEAR LAB  _cywrite8
      0100F33FH   CODE     NEAR LAB  _cywrite8_nodpx
*DEL*:00000000H   CODE     ---       _CyWriteRowData
*DEL*:00000000H   CODE     ---       _CyWriteRowFull
*DEL*:00000000H   CODE     ---       _CyXTAL_32KHZ_SetPowerMode
*DEL*:00000000H   CODE     ---       _CyXTAL_SetFbVoltage
*DEL*:00000000H   CODE     ---       _CyXTAL_SetStartup
*DEL*:00000000H   CODE     ---       _CyXTAL_SetWdVoltage
*DEL*:00000000H   CODE     ---       _CyXTAL_Start
      0100E761H   CODE     ---       _DMA_DmaInitialize
      01002604H   CODE     NEAR LAB  _dma_wait
*DEL*:00000000H   CODE     ---       _EEPROM_ByteWritePos
*DEL*:00000000H   CODE     ---       _EEPROM_EraseSector
*DEL*:00000000H   CODE     ---       _EEPROM_ReadByte
*DEL*:00000000H   CODE     ---       _EEPROM_StartErase
*DEL*:00000000H   CODE     ---       _EEPROM_StartWrite
      0100CE4EH   CODE     ---       _EEPROM_Write
*DEL*:00000000H   CODE     ---       _EEPROM_WriteByte
      0100A156H   CODE     ---       _encoder_reading
*DEL*:00000000H   CODE     ---       _FF_STATUS_WriteMask
      0100DC4FH   CODE     ---       _filter_acc_1
      0100DCD2H   CODE     ---       _filter_acc_2
LX51 LINKER/LOCATER V4.64.0.0                                                         04/13/2018  12:12:27  PAGE 32


      0100DD55H   CODE     ---       _filter_acc_3
      0100D267H   CODE     ---       _filter_ch1
      0100D31CH   CODE     ---       _filter_ch2
      0100E0B5H   CODE     ---       _filter_i1
*DEL*:00000000H   CODE     ---       _filter_v
      0100DAC6H   CODE     ---       _filter_vel_1
      0100DB49H   CODE     ---       _filter_vel_2
      0100DBCCH   CODE     ---       _filter_vel_3
      0100DE59H   CODE     ---       _filter_voltage
      0100F4C3H   CODE     ---       _FTDI_ENABLE_REG_Write
      0100261AH   CODE     ---       _get_param_list
      0100EA3CH   CODE     ---       _infoGet
      0100622BH   CODE     ---       _infoPrepare
      0100F38CH   CODE     ---       _ISR_RS485_RX_SetPriority
      0100F280H   CODE     ---       _ISR_RS485_RX_SetVector
      0100EF69H   CODE     ---       _ISR_RS485_RX_StartEx
      0100F3DCH   CODE     ---       _ISR_WATCHDOG_SetPriority
      0100F2D4H   CODE     ---       _ISR_WATCHDOG_SetVector
      0100EF88H   CODE     ---       _ISR_WATCHDOG_StartEx
      0100EC79H   CODE     ---       _LCRChecksum
      0100F523H   CODE     ---       _LED_BLINK_EN_Write
      0100F517H   CODE     ---       _LED_BLINK_WriteCompare
*DEL*:00000000H   CODE     ---       _LED_BLINK_WriteControlRegister
      0100F50BH   CODE     ---       _LED_BLINK_WriteCounter
      0100F511H   CODE     ---       _LED_BLINK_WritePeriod
      0100F51DH   CODE     ---       _LED_CTRL_Write
      0100D1AFH   CODE     ---       _memStore
      0100F481H   CODE     ---       _MOTOR_DIR_Write
      0100F4BDH   CODE     ---       _MOTOR_ON_OFF_Write
      0100DDD8H   CODE     ---       _my_mod
*DEL*:00000000H   CODE     ---       _my_round
      0100F4D5H   CODE     ---       _MY_TIMER_SetInterruptMode
*DEL*:00000000H   CODE     ---       _MY_TIMER_WriteControlRegister
      0100F3C8H   CODE     ---       _MY_TIMER_WriteCounter
      0100F3B4H   CODE     ---       _MY_TIMER_WritePeriod
      0100F475H   CODE     ---       _PACER_TIMER_SetInterruptMode
*DEL*:00000000H   CODE     ---       _PACER_TIMER_WriteControlRegister
      0100F29CH   CODE     ---       _PACER_TIMER_WriteCounter
      0100F28EH   CODE     ---       _PACER_TIMER_WritePeriod
      0100AF37H   CODE     ---       _PRINTF
      0100EE50H   CODE     ---       _PUTCHAR
      0100F469H   CODE     ---       _PWM_MOTORS_WriteCompare1
      0100F46FH   CODE     ---       _PWM_MOTORS_WriteCompare2
*DEL*:00000000H   CODE     ---       _PWM_MOTORS_WriteControlRegister
      0100F45DH   CODE     ---       _PWM_MOTORS_WriteCounter
      0100F463H   CODE     ---       _PWM_MOTORS_WritePeriod
      0100F4E7H   CODE     ---       _RESET_COUNTERS_Write
      0100F4C9H   CODE     ---       _RESET_FF_Write
      0100F4B7H   CODE     ---       _RS485_CTS_Write
      0100F0C2H   CODE     ---       _sendAcknowledgment
*DEL*:00000000H   CODE     ---       _SetAnalogRoutingPumps
*DEL*:00000000H   CODE     ---       _SHIFTREG_ENC_1_GetFIFOStatus
      0100F242H   CODE     ---       _SHIFTREG_ENC_1_SetIntMode
*DEL*:00000000H   CODE     ---       _SHIFTREG_ENC_1_WriteRegValue
*DEL*:00000000H   CODE     ---       _SHIFTREG_ENC_2_GetFIFOStatus
      0100F231H   CODE     ---       _SHIFTREG_ENC_2_SetIntMode
*DEL*:00000000H   CODE     ---       _SHIFTREG_ENC_2_WriteRegValue
*DEL*:00000000H   CODE     ---       _SHIFTREG_ENC_3_GetFIFOStatus
      0100F220H   CODE     ---       _SHIFTREG_ENC_3_SetIntMode
*DEL*:00000000H   CODE     ---       _SHIFTREG_ENC_3_WriteRegValue
      0100AF31H   CODE     ---       _SPRINTF
      0100E2E8H   CODE     ---       _strcat
      0100F101H   CODE     ---       _STRLEN
*DEL*:00000000H   CODE     ---       _UART_RS485_PutArray
      0100F2F0H   CODE     ---       _UART_RS485_PutChar
LX51 LINKER/LOCATER V4.64.0.0                                                         04/13/2018  12:12:27  PAGE 33


*DEL*:00000000H   CODE     ---       _UART_RS485_PutCRLF
      0100EBDEH   CODE     ---       _UART_RS485_PutString
*DEL*:00000000H   CODE     ---       _UART_RS485_SendBreak
*DEL*:00000000H   CODE     ---       _UART_RS485_SetRxAddress1
*DEL*:00000000H   CODE     ---       _UART_RS485_SetRxAddress2
*DEL*:00000000H   CODE     ---       _UART_RS485_SetRxAddressMode
*DEL*:00000000H   CODE     ---       _UART_RS485_SetRxInterruptMode
*DEL*:00000000H   CODE     ---       _UART_RS485_SetTxAddressMode
*DEL*:00000000H   CODE     ---       _UART_RS485_SetTxInterruptMode
*DEL*:00000000H   CODE     ---       _UART_RS485_WriteControlRegister
*DEL*:00000000H   CODE     ---       _UART_RS485_WriteTxData
      0100F4F9H   CODE     ---       _WATCHDOG_COUNTER_SetInterruptMode
*DEL*:00000000H   CODE     ---       _WATCHDOG_COUNTER_WriteControlRegister
      0100EFE4H   CODE     ---       _WATCHDOG_COUNTER_WriteCounter
      0100F2E2H   CODE     ---       _WATCHDOG_COUNTER_WritePeriod
      0100F4FFH   CODE     ---       _WATCHDOG_ENABLER_Write
      0100F505H   CODE     ---       _WATCHDOG_REFRESH_Write
*SFR* 000000D0H.6 DATA     BIT       AC
*SFR* 000000E0H   DATA     BYTE      ACC
      0100FCB2H   CONST    ---       ADC_AMux__addrTable
      0100FCB6H   CONST    ---       ADC_AMux__maskTable
      0100EF28H   CODE     ---       ADC_AMux_Start
      02001198H   XDATA    ---       ADC_buf
      020013D4H   XDATA    BYTE      ADC_Config
      020013DFH   XDATA    BYTE      ADC_convDone
      020013E0H   XDATA    LONG      ADC_CountsPerVolt
      0100D7A5H   CODE     ---       ADC_Enable
      0100F3E6H   CODE     ---       ADC_Ext_CP_Clk_GetDividerRegister
*DEL*:00000000H   CODE     ---       ADC_Ext_CP_Clk_GetModeRegister
      0100F42AH   CODE     ---       ADC_Ext_CP_Clk_GetSourceRegister
*DEL*:00000000H   CODE     ---       ADC_Ext_CP_Clk_Start
*DEL*:00000000H   CODE     ---       ADC_Ext_CP_Clk_Stop
*DEL*:00000000H   CODE     ---       ADC_Ext_CP_Clk_StopBlock
*DEL*:00000000H   CODE     ---       ADC_GetResult16
*DEL*:00000000H   CODE     ---       ADC_GetResult32
*DEL*:00000000H   CODE     ---       ADC_GetResult8
      0100D3D1H   CODE     ---       ADC_Init
      020013D5H   XDATA    BYTE      ADC_initVar
      0100F539H   CODE     ---       ADC_ISR1
      0100F53AH   CODE     ---       ADC_ISR2
      0100F53BH   CODE     ---       ADC_ISR3
      0100F53CH   CODE     ---       ADC_ISR4
      020013D6H   XDATA    LONG      ADC_Offset
*DEL*:00000000H   CODE     ---       ADC_Read16
*DEL*:00000000H   CODE     ---       ADC_Read32
*DEL*:00000000H   CODE     ---       ADC_Read8
*DEL*:00000000H   CODE     ---       ADC_ReadGCOR
*DEL*:00000000H   CODE     ---       ADC_SOC_Read
      0100F01BH   CODE     ---       ADC_Start
*DEL*:00000000H   CODE     ---       ADC_StartConvert
      020013DBH   XDATA    BYTE      ADC_started
*DEL*:00000000H   CODE     ---       ADC_STATUS_InterruptDisable
*DEL*:00000000H   CODE     ---       ADC_STATUS_InterruptEnable
      0100F4EDH   CODE     ---       ADC_STATUS_Read
*DEL*:00000000H   CODE     ---       ADC_STATUS_ReadMask
*DEL*:00000000H   CODE     ---       ADC_Stop
      020013DAH   XDATA    BYTE      ADC_stopConversion
*DEL*:00000000H   CODE     ---       ADC_StopConvert
      0100F3F0H   CODE     ---       ADC_theACLK_GetDividerRegister
*DEL*:00000000H   CODE     ---       ADC_theACLK_GetModeRegister
*DEL*:00000000H   CODE     ---       ADC_theACLK_GetPhaseRegister
      0100F432H   CODE     ---       ADC_theACLK_GetSourceRegister
*DEL*:00000000H   CODE     ---       ADC_theACLK_Start
*DEL*:00000000H   CODE     ---       ADC_theACLK_Stop
*DEL*:00000000H   CODE     ---       ADC_theACLK_StopBlock
LX51 LINKER/LOCATER V4.64.0.0                                                         04/13/2018  12:12:27  PAGE 34


      010096DFH   CODE     ---       analog_read_end
*SFR* 000000F0H   DATA     BYTE      B
      0100F3AAH   CODE     ---       Bootloadable_Load
      02000EE4H   XDATA    ---       c_mem
      020011E2H   XDATA    ---       calib
      0100C44AH   CODE     ---       calibration
      0100A9C8H   CODE     ---       check_rest_position
      0100F382H   CODE     ---       CLOCK_UART_GetDividerRegister
*DEL*:00000000H   CODE     ---       CLOCK_UART_GetModeRegister
      0100F3FAH   CODE     ---       CLOCK_UART_GetSourceRegister
*DEL*:00000000H   CODE     ---       CLOCK_UART_Start
*DEL*:00000000H   CODE     ---       CLOCK_UART_Stop
*DEL*:00000000H   CODE     ---       CLOCK_UART_StopBlock
      0100E880H   CODE     ---       cmd_activate
      0100EE25H   CODE     ---       cmd_get_activate
      0100D93CH   CODE     ---       cmd_get_curr_and_meas
      0100EA77H   CODE     ---       cmd_get_currents
      0100E7ABH   CODE     ---       cmd_get_emg
      0100E3B8H   CODE     ---       cmd_get_inputs
      0100E8C3H   CODE     ---       cmd_get_joystick
      0100E211H   CODE     ---       cmd_get_measurements
      0100F116H   CODE     ---       cmd_ping
      0100EF49H   CODE     ---       cmd_set_baudrate
      0100BCA3H   CODE     ---       cmd_set_inputs
      0100E904H   CODE     ---       cmd_set_watchdog
      0100B34FH   CODE     ---       cmd_store_params
      0100BAEDH   CODE     ---       commProcess
      0100D0E3H   CODE     ---       commReadMeasFromSH
      0100CF2DH   CODE     ---       commReadResCurrFromSH
      02000FA6H   XDATA    DWORD     count_tension_valid
      0100F2FDH   CODE     ---       COUNTER_ENC_ClearFIFO
      0100F40AH   CODE     ---       COUNTER_ENC_Enable
      0100EBA9H   CODE     ---       COUNTER_ENC_Init
      02001406H   XDATA    BYTE      COUNTER_ENC_initVar
      0100F499H   CODE     ---       COUNTER_ENC_ReadCapture
*DEL*:00000000H   CODE     ---       COUNTER_ENC_ReadCompare
*DEL*:00000000H   CODE     ---       COUNTER_ENC_ReadControlRegister
*DEL*:00000000H   CODE     ---       COUNTER_ENC_ReadCounter
*DEL*:00000000H   CODE     ---       COUNTER_ENC_ReadPeriod
      0100F48DH   CODE     ---       COUNTER_ENC_ReadStatusRegister
      0100F164H   CODE     ---       COUNTER_ENC_Start
*DEL*:00000000H   CODE     ---       COUNTER_ENC_Stop
      020010C1H   XDATA    LONG      curr_pos_res
*SFR* 000000D0H.7 DATA     BIT       CY
      020013EFH   XDATA    DWORD     cydelay_32k_ms
      020013EAH   XDATA    DWORD     cydelay_freq_hz
      020013E5H   XDATA    DWORD     cydelay_freq_khz
      020013E9H   XDATA    BYTE      cydelay_freq_mhz
*DEL*:00000000H   CODE     ---       CyDisableInts
      0100EB73H   CODE     ---       CyDmacConfigure
*DEL*:00000000H   CODE     ---       CyDmacError
*DEL*:00000000H   CODE     ---       CyDmacErrorAddress
*DEL*:00000000H   CODE     ---       CyDmaChAlloc
      0100E985H   CODE     ---       CyDmaTdAllocate
*DEL*:00000000H   CODE     ---       CyDmaTdFreeCount
*DEL*:00000000H   CODE     ---       CyEEPROM_ReadRelease
*DEL*:00000000H   CODE     ---       CyEEPROM_ReadReserve
      0100ECDCH   CODE     ---       CyEEPROM_Start
*DEL*:00000000H   CODE     ---       CyEEPROM_Stop
      0100F0D7H   CODE     NEAR LAB  CyEnterCriticalSection
      0100CB44H   CODE     ---       cyfitter_cfg
*DEL*:00000000H   CODE     ---       CyFlash_Start
*DEL*:00000000H   CODE     ---       CyFlash_Stop
*DEL*:00000000H   CODE     ---       CyILO_Disable33K
*DEL*:00000000H   CODE     ---       CyILO_Enable33K
LX51 LINKER/LOCATER V4.64.0.0                                                         04/13/2018  12:12:27  PAGE 35


*DEL*:00000000H   CODE     ---       CyILO_Start100K
*DEL*:00000000H   CODE     ---       CyILO_Start1K
*DEL*:00000000H   CODE     ---       CyILO_Stop100K
*DEL*:00000000H   CODE     ---       CyILO_Stop1K
*DEL*:00000000H   CODE     ---       CyIMO_DisableDoubler
*DEL*:00000000H   CODE     ---       CyIMO_EnableDoubler
*DEL*:00000000H   CODE     ---       CyIMO_Stop
      0100ED3DH   CODE     ---       CyIntInitVectors
*DEL*:00000000H   CODE     ---       CyPLL_OUT_Stop
*DEL*:00000000H   CODE     ---       CyPmHibernate
*DEL*:00000000H   CODE     ---       CyPmOppsSet
*DEL*:00000000H   CODE     ---       CyPmRestoreClocks
*DEL*:00000000H   CODE     ---       CyPmSaveClocks
      020013EEH   XDATA    BYTE      CyResetStatus
      0100F066H   CODE     ---       CySetTemp
      0100F41AH   CODE     ---       CySoftwareReset
      0100F000H   CODE     ---       CySpcGetAlgorithm
      0100EFA7H   CODE     ---       CySpcLock
      0100F0ECH   CODE     ---       CySpcStart
*DEL*:00000000H   CODE     ---       CySpcStop
      0100F349H   CODE     ---       CySpcUnlock
*DEL*:00000000H   CODE     ---       CyVdHvAnalogDisable
*DEL*:00000000H   CODE     ---       CyVdHvAnalogEnable
*DEL*:00000000H   CODE     ---       CyVdLvAnalogDisable
*DEL*:00000000H   CODE     ---       CyVdLvDigitDisable
*DEL*:00000000H   CODE     ---       CyVdRealTimeStatus
*DEL*:00000000H   CODE     ---       CyWdtClear
*DEL*:00000000H   CODE     ---       CyXTAL_32KHZ_ReadStatus
*DEL*:00000000H   CODE     ---       CyXTAL_32KHZ_Start
*DEL*:00000000H   CODE     ---       CyXTAL_32KHZ_Stop
*DEL*:00000000H   CODE     ---       CyXTAL_DisableErrStatus
*DEL*:00000000H   CODE     ---       CyXTAL_DisableFaultRecovery
*DEL*:00000000H   CODE     ---       CyXTAL_EnableErrStatus
*DEL*:00000000H   CODE     ---       CyXTAL_EnableFaultRecovery
*DEL*:00000000H   CODE     ---       CyXTAL_ReadStatus
*DEL*:00000000H   CODE     ---       CyXTAL_Stop
      0100E4D4H   CODE     ---       deactivate_slaves
      020011E1H   XDATA    BYTE      dev_pwm_limit
      020010C9H   XDATA    LONG      dev_tension
      020011A1H   XDATA    LONG      dev_tension_f
      020013FCH   XDATA    ---       dieTemperature
      0200140BH   XDATA    BYTE      DMA_DmaHandle
*DEL*:00000000H   CODE     ---       DMA_DmaRelease
*SFR* 00000083H   DATA     BYTE      DPH
*SFR* 00000085H   DATA     BYTE      DPH1
*SFR* 00000082H   DATA     BYTE      DPL
*SFR* 00000084H   DATA     BYTE      DPL1
*SFR* 00000086H   DATA     BYTE      DPS
*SFR* 00000093H   DATA     BYTE      DPX
*SFR* 00000095H   DATA     BYTE      DPX1
      0100CC5DH   CODE     ---       drive_force_fb
      0100E353H   CODE     ---       drive_proprio_fb
      0100D5E1H   CODE     ---       drive_SH
*SFR* 000000A8H.7 DATA     BIT       EA
      02001402H   XDATA    ---       EEPROM_ADDR
      0100F448H   CODE     ---       EEPROM_Enable
*DEL*:00000000H   CODE     ---       EEPROM_Query
      0100F529H   CODE     ---       EEPROM_Start
*DEL*:00000000H   CODE     ---       EEPROM_Stop
*DEL*:00000000H   CODE     ---       EEPROM_UpdateTemperature
*SFR* 000000D0H.5 DATA     BIT       F0
*SFR* 000000D0H.1 DATA     BIT       F1
*DEL*:00000000H   CODE     ---       FF_STATUS_InterruptDisable
*DEL*:00000000H   CODE     ---       FF_STATUS_InterruptEnable
      0100F4CFH   CODE     ---       FF_STATUS_Read
LX51 LINKER/LOCATER V4.64.0.0                                                         04/13/2018  12:12:27  PAGE 36


*DEL*:00000000H   CODE     ---       FF_STATUS_ReadMask
      02000FA5H   XDATA    BYTE      first_tension_valid
      02001084H   XDATA    BYTE      forced_open
*DEL*:00000000H   CODE     ---       FTDI_ENABLE_REG_Read
      0100C191H   CODE     ---       function_scheduler
      020011A5H   XDATA    ---       g_meas
      02001085H   XDATA    ---       g_measOld
      02000FC3H   XDATA    ---       g_mem
      02000FAAH   XDATA    ---       g_ref
      0200116BH   XDATA    ---       g_refNew
      020010CDH   XDATA    ---       g_refOld
      020010E6H   XDATA    ---       g_rx
*SFR* 000000A8H   DATA     BYTE      IE
*DEL*:00000000H   CODE     ---       infoSend
      0100F536H   CODE     ---       IntDefaultHandler
      00000021H.4 BIT      BIT       interrupt_flag
      0100C6AAH   CODE     ---       interrupt_manager
*DEL*:00000000H   CODE     ---       ISR_RS485_RX_ClearPending
      0100F441H   CODE     ---       ISR_RS485_RX_Disable
      0100F43AH   CODE     ---       ISR_RS485_RX_Enable
      0100F530H   CODE     ---       ISR_RS485_RX_ExInterrupt
*DEL*:00000000H   CODE     ---       ISR_RS485_RX_GetPriority
*DEL*:00000000H   CODE     ---       ISR_RS485_RX_GetState
*DEL*:00000000H   CODE     ---       ISR_RS485_RX_GetVector
      0100EDCAH   CODE     ---       ISR_RS485_RX_Interrupt
*DEL*:00000000H   CODE     ---       ISR_RS485_RX_SetPending
*DEL*:00000000H   CODE     ---       ISR_RS485_RX_Start
*DEL*:00000000H   CODE     ---       ISR_RS485_RX_Stop
*DEL*:00000000H   CODE     ---       ISR_WATCHDOG_ClearPending
      0100F456H   CODE     ---       ISR_WATCHDOG_Disable
      0100F44FH   CODE     ---       ISR_WATCHDOG_Enable
*DEL*:00000000H   CODE     ---       ISR_WATCHDOG_GetPriority
*DEL*:00000000H   CODE     ---       ISR_WATCHDOG_GetState
*DEL*:00000000H   CODE     ---       ISR_WATCHDOG_GetVector
      0100F52DH   CODE     ---       ISR_WATCHDOG_Handler
      0100EDCBH   CODE     ---       ISR_WATCHDOG_Interrupt
*DEL*:00000000H   CODE     ---       ISR_WATCHDOG_SetPending
*DEL*:00000000H   CODE     ---       ISR_WATCHDOG_Start
*DEL*:00000000H   CODE     ---       ISR_WATCHDOG_Stop
*DEL*:00000000H   CODE     ---       LED_BLINK_EN_Read
      0100F422H   CODE     ---       LED_BLINK_Enable
      0100EF07H   CODE     ---       LED_BLINK_Init
      0200140DH   XDATA    BYTE      LED_BLINK_initVar
*DEL*:00000000H   CODE     ---       LED_BLINK_ReadCapture
*DEL*:00000000H   CODE     ---       LED_BLINK_ReadCompare
*DEL*:00000000H   CODE     ---       LED_BLINK_ReadControlRegister
*DEL*:00000000H   CODE     ---       LED_BLINK_ReadCounter
*DEL*:00000000H   CODE     ---       LED_BLINK_ReadPeriod
      0100F1D6H   CODE     ---       LED_BLINK_Start
*DEL*:00000000H   CODE     ---       LED_BLINK_Stop
*DEL*:00000000H   CODE     ---       LED_CTRL_Read
      0100B8CAH   CODE     ---       main
      020010C0H   XDATA    BYTE      master_mode
      0100B657H   CODE     ---       memInit
      0100E6C9H   CODE     ---       memRecall
      0100E7F4H   CODE     ---       memRestore
      01007A79H   CODE     ---       motor_control
*DEL*:00000000H   CODE     ---       MOTOR_DIR_Read
*DEL*:00000000H   CODE     ---       MOTOR_ON_OFF_Read
*SFR* 000000EAH   DATA     BYTE      MXAX
      0100F30AH   CODE     ---       MY_TIMER_ClearFIFO
      0100F412H   CODE     ---       MY_TIMER_Enable
      0100EDF9H   CODE     ---       MY_TIMER_Init
      02001409H   XDATA    BYTE      MY_TIMER_initVar
      0100F3BEH   CODE     ---       MY_TIMER_ReadCapture
LX51 LINKER/LOCATER V4.64.0.0                                                         04/13/2018  12:12:27  PAGE 37


*DEL*:00000000H   CODE     ---       MY_TIMER_ReadControlRegister
      0100F253H   CODE     ---       MY_TIMER_ReadCounter
*DEL*:00000000H   CODE     ---       MY_TIMER_ReadPeriod
      0100F4DBH   CODE     ---       MY_TIMER_ReadStatusRegister
*DEL*:00000000H   CODE     ---       MY_TIMER_SoftwareCapture
      0100F19DH   CODE     ---       MY_TIMER_Start
*DEL*:00000000H   CODE     ---       MY_TIMER_Stop
*SFR* 000000D0H.2 DATA     BIT       OV
      0100E12AH   CODE     ---       overcurrent_control
*SFR* 000000D0H   DATA     BIT       P
*SFR* 000000A0H   DATA     BYTE      P2AX
      0100F096H   CODE     ---       PACER_TIMER_Enable
      0100EA00H   CODE     ---       PACER_TIMER_Init
      02001405H   XDATA    BYTE      PACER_TIMER_initVar
*DEL*:00000000H   CODE     ---       PACER_TIMER_ReadCapture
*DEL*:00000000H   CODE     ---       PACER_TIMER_ReadControlRegister
*DEL*:00000000H   CODE     ---       PACER_TIMER_ReadCounter
*DEL*:00000000H   CODE     ---       PACER_TIMER_ReadPeriod
*DEL*:00000000H   CODE     ---       PACER_TIMER_ReadStatusRegister
*DEL*:00000000H   CODE     ---       PACER_TIMER_SoftwareCapture
      0100F13EH   CODE     ---       PACER_TIMER_Start
*DEL*:00000000H   CODE     ---       PACER_TIMER_Stop
      02001188H   XDATA    LONG      pow_tension
*SFR* 000000D0H   DATA     BYTE      PSW
      0100E03FH   CODE     ---       pwm_limit_search
      0100F402H   CODE     ---       PWM_MOTORS_Enable
      0100EE77H   CODE     ---       PWM_MOTORS_Init
      02001404H   XDATA    BYTE      PWM_MOTORS_initVar
*DEL*:00000000H   CODE     ---       PWM_MOTORS_ReadCapture
*DEL*:00000000H   CODE     ---       PWM_MOTORS_ReadCompare1
*DEL*:00000000H   CODE     ---       PWM_MOTORS_ReadCompare2
*DEL*:00000000H   CODE     ---       PWM_MOTORS_ReadControlRegister
*DEL*:00000000H   CODE     ---       PWM_MOTORS_ReadCounter
*DEL*:00000000H   CODE     ---       PWM_MOTORS_ReadPeriod
      0100EAEDH   CODE     ---       PWM_MOTORS_Start
*DEL*:00000000H   CODE     ---       PWM_MOTORS_Stop
      020011A0H   XDATA    CHAR      pwm_sign
*DEL*:00000000H   CODE     ---       RESET_COUNTERS_Read
*DEL*:00000000H   CODE     ---       RESET_FF_Read
      00000021H.2 BIT      BIT       reset_last_value_flag
      020011E0H   XDATA    BYTE      rest_enabled
      02001184H   XDATA    LONG      rest_pos_curr_ref
*SFR* 000000D0H.3 DATA     BIT       RS0
*SFR* 000000D0H.4 DATA     BIT       RS1
*DEL*:00000000H   CODE     ---       RS485_CTS_Read
      0100D9C0H   CODE     ---       setZeros
*SFR* 00000080H   DATA     BYTE      SFRPRT0DR
*SFR* 00000089H   DATA     BYTE      SFRPRT0PS
*SFR* 0000008AH   DATA     BYTE      SFRPRT0SEL
*SFR* 000000E8H   DATA     BYTE      SFRPRT12DR
*SFR* 000000E9H   DATA     BYTE      SFRPRT12PS
*SFR* 000000F2H   DATA     BYTE      SFRPRT12SEL
*SFR* 000000F8H   DATA     BYTE      SFRPRT15DR
*SFR* 000000F9H   DATA     BYTE      SFRPRT15PS
*SFR* 000000FAH   DATA     BYTE      SFRPRT15SEL
*SFR* 00000090H   DATA     BYTE      SFRPRT1DR
*SFR* 00000091H   DATA     BYTE      SFRPRT1PS
*SFR* 000000A2H   DATA     BYTE      SFRPRT1SEL
*SFR* 00000098H   DATA     BYTE      SFRPRT2DR
*SFR* 00000099H   DATA     BYTE      SFRPRT2PS
*SFR* 0000009AH   DATA     BYTE      SFRPRT2SEL
*SFR* 000000B0H   DATA     BYTE      SFRPRT3DR
*SFR* 000000B1H   DATA     BYTE      SFRPRT3PS
*SFR* 000000B2H   DATA     BYTE      SFRPRT3SEL
*SFR* 000000C0H   DATA     BYTE      SFRPRT4DR
LX51 LINKER/LOCATER V4.64.0.0                                                         04/13/2018  12:12:27  PAGE 38


*SFR* 000000C1H   DATA     BYTE      SFRPRT4PS
*SFR* 000000C2H   DATA     BYTE      SFRPRT4SEL
*SFR* 000000C8H   DATA     BYTE      SFRPRT5DR
*SFR* 000000C9H   DATA     BYTE      SFRPRT5PS
*SFR* 000000CAH   DATA     BYTE      SFRPRT5SEL
*SFR* 000000D8H   DATA     BYTE      SFRPRT6DR
*SFR* 000000D9H   DATA     BYTE      SFRPRT6PS
*SFR* 000000DAH   DATA     BYTE      SFRPRT6SEL
      02001194H   XDATA    LONG      SH_current_position
*DEL*:00000000H   CODE     ---       SHIFTREG_ENC_1_DisableInt
      0100F377H   CODE     ---       SHIFTREG_ENC_1_Enable
      0100F2C6H   CODE     ---       SHIFTREG_ENC_1_EnableInt
*DEL*:00000000H   CODE     ---       SHIFTREG_ENC_1_GetIntStatus
      0100F4E1H   CODE     ---       SHIFTREG_ENC_1_Init
      0200140AH   XDATA    BYTE      SHIFTREG_ENC_1_initVar
      0100F3D2H   CODE     ---       SHIFTREG_ENC_1_ReadData
*DEL*:00000000H   CODE     ---       SHIFTREG_ENC_1_ReadRegValue
      0100F1B0H   CODE     ---       SHIFTREG_ENC_1_Start
*DEL*:00000000H   CODE     ---       SHIFTREG_ENC_1_Stop
*DEL*:00000000H   CODE     ---       SHIFTREG_ENC_2_DisableInt
      0100F36CH   CODE     ---       SHIFTREG_ENC_2_Enable
      0100F2B8H   CODE     ---       SHIFTREG_ENC_2_EnableInt
*DEL*:00000000H   CODE     ---       SHIFTREG_ENC_2_GetIntStatus
      0100F4B1H   CODE     ---       SHIFTREG_ENC_2_Init
      02001408H   XDATA    BYTE      SHIFTREG_ENC_2_initVar
      0100F3A0H   CODE     ---       SHIFTREG_ENC_2_ReadData
*DEL*:00000000H   CODE     ---       SHIFTREG_ENC_2_ReadRegValue
      0100F18AH   CODE     ---       SHIFTREG_ENC_2_Start
*DEL*:00000000H   CODE     ---       SHIFTREG_ENC_2_Stop
*DEL*:00000000H   CODE     ---       SHIFTREG_ENC_3_DisableInt
      0100F361H   CODE     ---       SHIFTREG_ENC_3_Enable
      0100F2AAH   CODE     ---       SHIFTREG_ENC_3_EnableInt
*DEL*:00000000H   CODE     ---       SHIFTREG_ENC_3_GetIntStatus
      0100F4ABH   CODE     ---       SHIFTREG_ENC_3_Init
      02001407H   XDATA    BYTE      SHIFTREG_ENC_3_initVar
      0100F396H   CODE     ---       SHIFTREG_ENC_3_ReadData
*DEL*:00000000H   CODE     ---       SHIFTREG_ENC_3_ReadRegValue
      0100F177H   CODE     ---       SHIFTREG_ENC_3_Start
*DEL*:00000000H   CODE     ---       SHIFTREG_ENC_3_Stop
*SFR* 00000081H   DATA     BYTE      SP
      0200140FH   XDATA    BYTE      SpcLockState
      0100C908H   CODE     NEAR LAB  STARTUP1
      02001190H   XDATA    FLOAT     tau_feedback
      00000021H.5 BIT      BIT       tension_valid
      020010C5H   XDATA    DWORD     timer_value
      0200118CH   XDATA    DWORD     timer_value0
      0100ED6DH   CODE     ---       UART_RS485_ClearRxBuffer
      0100F1FCH   CODE     ---       UART_RS485_ClearTxBuffer
      0100EEC3H   CODE     ---       UART_RS485_Enable
      020013D3H   XDATA    BYTE      UART_RS485_errorStatus
*DEL*:00000000H   CODE     ---       UART_RS485_GetByte
      0100E479H   CODE     ---       UART_RS485_GetChar
      0100E67AH   CODE     ---       UART_RS485_GetRxBufferSize
*DEL*:00000000H   CODE     ---       UART_RS485_GetTxBufferSize
      0100EC46H   CODE     ---       UART_RS485_Init
      020013D1H   XDATA    BYTE      UART_RS485_initVar
*DEL*:00000000H   CODE     ---       UART_RS485_ReadControlRegister
*DEL*:00000000H   CODE     ---       UART_RS485_ReadRxData
      0100F12AH   CODE     ---       UART_RS485_ReadRxStatus
      0100F47BH   CODE     ---       UART_RS485_ReadTxStatus
      020013B0H   XDATA    ---       UART_RS485_rxBuffer
      020013AEH   XDATA    BYTE      UART_RS485_rxBufferLoopDetect
      020013D2H   XDATA    BYTE      UART_RS485_rxBufferOverflow
      020013AFH   XDATA    BYTE      UART_RS485_rxBufferRead
      020013D0H   XDATA    BYTE      UART_RS485_rxBufferWrite
LX51 LINKER/LOCATER V4.64.0.0                                                         04/13/2018  12:12:27  PAGE 39


      0100D482H   CODE     ---       UART_RS485_RXISR
      0100F151H   CODE     ---       UART_RS485_Start
      0100EEE5H   CODE     ---       UART_RS485_Stop
      0100F0ACH   CODE     ---       WATCHDOG_COUNTER_Enable
      0100EB3BH   CODE     ---       WATCHDOG_COUNTER_Init
      0200140CH   XDATA    BYTE      WATCHDOG_COUNTER_initVar
*DEL*:00000000H   CODE     ---       WATCHDOG_COUNTER_ReadCapture
*DEL*:00000000H   CODE     ---       WATCHDOG_COUNTER_ReadControlRegister
*DEL*:00000000H   CODE     ---       WATCHDOG_COUNTER_ReadCounter
*DEL*:00000000H   CODE     ---       WATCHDOG_COUNTER_ReadPeriod
*DEL*:00000000H   CODE     ---       WATCHDOG_COUNTER_ReadStatusRegister
      0100F1C3H   CODE     ---       WATCHDOG_COUNTER_Start
*DEL*:00000000H   CODE     ---       WATCHDOG_COUNTER_Stop
*DEL*:00000000H   CODE     ---       WATCHDOG_ENABLER_Read
      00000021H.3 BIT      BIT       watchdog_flag
*DEL*:00000000H   CODE     ---       WATCHDOG_REFRESH_Read



SYMBOL TABLE OF MODULE:  .\DP8051_Keil_951\Release\hand_firmware_micro.omf (COMMAND_PROCESSING)

      VALUE       REP       CLASS    TYPE      SYMBOL NAME
      ====================================================
      ---         MODULE    ---      ---       COMMAND_PROCESSING
      02001402H   PUBLIC    XDATA    ---       EEPROM_ADDR
      0100E7ABH   PUBLIC    CODE     ---       cmd_get_emg
      0100B34FH   PUBLIC    CODE     ---       cmd_store_params
      0100E3B8H   PUBLIC    CODE     ---       cmd_get_inputs
      0100E904H   PUBLIC    CODE     ---       cmd_set_watchdog
      0100F116H   PUBLIC    CODE     ---       cmd_ping
      0100EF49H   PUBLIC    CODE     ---       cmd_set_baudrate
      0100EA77H   PUBLIC    CODE     ---       cmd_get_currents
      0100D93CH   PUBLIC    CODE     ---       cmd_get_curr_and_meas
      0100E8C3H   PUBLIC    CODE     ---       cmd_get_joystick
      0100EE25H   PUBLIC    CODE     ---       cmd_get_activate
      0100E880H   PUBLIC    CODE     ---       cmd_activate
      0100BCA3H   PUBLIC    CODE     ---       cmd_set_inputs
      0100E211H   PUBLIC    CODE     ---       cmd_get_measurements
      0100B657H   PUBLIC    CODE     ---       memInit
      0100E7F4H   PUBLIC    CODE     ---       memRestore
      0100E6C9H   PUBLIC    CODE     ---       memRecall
      0100D1AFH   PUBLIC    CODE     ---       _memStore
      0100F0C2H   PUBLIC    CODE     ---       _sendAcknowledgment
      0100EC79H   PUBLIC    CODE     ---       _LCRChecksum
      0100E4D4H   PUBLIC    CODE     ---       deactivate_slaves
      0100E353H   PUBLIC    CODE     ---       drive_proprio_fb
      0100CC5DH   PUBLIC    CODE     ---       drive_force_fb
      0100D5E1H   PUBLIC    CODE     ---       drive_SH
      0200002CH   PUBLIC    XDATA    BYTE      ?_commWriteID?BYTE
      0100DA43H   PUBLIC    CODE     ---       _commWriteID
      0100CF2DH   PUBLIC    CODE     ---       commReadResCurrFromSH
      0100D0E3H   PUBLIC    CODE     ---       commReadMeasFromSH
      0100D718H   PUBLIC    CODE     ---       _commWrite
      0200003CH   PUBLIC    XDATA    BYTE      ?_commWrite_old_id?BYTE
      0100D68BH   PUBLIC    CODE     ---       _commWrite_old_id
      0100622BH   PUBLIC    CODE     ---       _infoPrepare
      0100D9C0H   PUBLIC    CODE     ---       setZeros
      0100261AH   PUBLIC    CODE     ---       _get_param_list
      0100EA3CH   PUBLIC    CODE     ---       _infoGet
      0100BAEDH   PUBLIC    CODE     ---       commProcess
      000000CAH   SFRSYM    DATA     BYTE      SFRPRT5SEL
      000000DAH   SFRSYM    DATA     BYTE      SFRPRT6SEL
      000000D0H.6 SFRSYM    DATA     BIT       AC
      000000A8H.7 SFRSYM    DATA     BIT       EA
      000000A8H   SFRSYM    DATA     BYTE      IE
LX51 LINKER/LOCATER V4.64.0.0                                                         04/13/2018  12:12:27  PAGE 40


      00000085H   SFRSYM    DATA     BYTE      DPH1
      00000084H   SFRSYM    DATA     BYTE      DPL1
      000000D0H.7 SFRSYM    DATA     BIT       CY
      000000A0H   SFRSYM    DATA     BYTE      P2AX
      00000095H   SFRSYM    DATA     BYTE      DPX1
      00000081H   SFRSYM    DATA     BYTE      SP
      000000D0H.2 SFRSYM    DATA     BIT       OV
      00000080H   SFRSYM    DATA     BYTE      SFRPRT0DR
      00000090H   SFRSYM    DATA     BYTE      SFRPRT1DR
      000000F2H   SFRSYM    DATA     BYTE      SFRPRT12SEL
      00000098H   SFRSYM    DATA     BYTE      SFRPRT2DR
      000000B0H   SFRSYM    DATA     BYTE      SFRPRT3DR
      000000C0H   SFRSYM    DATA     BYTE      SFRPRT4DR
      000000FAH   SFRSYM    DATA     BYTE      SFRPRT15SEL
      000000C8H   SFRSYM    DATA     BYTE      SFRPRT5DR
      000000D8H   SFRSYM    DATA     BYTE      SFRPRT6DR
      00000089H   SFRSYM    DATA     BYTE      SFRPRT0PS
      00000091H   SFRSYM    DATA     BYTE      SFRPRT1PS
      00000099H   SFRSYM    DATA     BYTE      SFRPRT2PS
      000000B1H   SFRSYM    DATA     BYTE      SFRPRT3PS
      000000C1H   SFRSYM    DATA     BYTE      SFRPRT4PS
      000000C9H   SFRSYM    DATA     BYTE      SFRPRT5PS
      000000D9H   SFRSYM    DATA     BYTE      SFRPRT6PS
      000000EAH   SFRSYM    DATA     BYTE      MXAX
      000000F0H   SFRSYM    DATA     BYTE      B
      000000E0H   SFRSYM    DATA     BYTE      ACC
      000000D0H   SFRSYM    DATA     BIT       P
      000000D0H.3 SFRSYM    DATA     BIT       RS0
      000000D0H.4 SFRSYM    DATA     BIT       RS1
      00000083H   SFRSYM    DATA     BYTE      DPH
      000000E8H   SFRSYM    DATA     BYTE      SFRPRT12DR
      00000082H   SFRSYM    DATA     BYTE      DPL
      000000F8H   SFRSYM    DATA     BYTE      SFRPRT15DR
      00000086H   SFRSYM    DATA     BYTE      DPS
      000000E9H   SFRSYM    DATA     BYTE      SFRPRT12PS
      00000093H   SFRSYM    DATA     BYTE      DPX
      000000F9H   SFRSYM    DATA     BYTE      SFRPRT15PS
      000000D0H.5 SFRSYM    DATA     BIT       F0
      000000D0H.1 SFRSYM    DATA     BIT       F1
      0000008AH   SFRSYM    DATA     BYTE      SFRPRT0SEL
      000000D0H   SFRSYM    DATA     BYTE      PSW
      000000A2H   SFRSYM    DATA     BYTE      SFRPRT1SEL
      0000009AH   SFRSYM    DATA     BYTE      SFRPRT2SEL
      000000B2H   SFRSYM    DATA     BYTE      SFRPRT3SEL
      000000C2H   SFRSYM    DATA     BYTE      SFRPRT4SEL
      01004CE1H   SYMBOL    CODE     ---       _?ix1000
      01005DEDH   SYMBOL    CODE     ---       _?ix1010
      01005385H   SYMBOL    CODE     ---       _?ix1001
      01005EEDH   SYMBOL    CODE     ---       _?ix1020
      01005DFEH   SYMBOL    CODE     ---       _?ix1011
      01005D18H   SYMBOL    CODE     ---       _?ix1002
      01006003H   SYMBOL    CODE     ---       _?ix1030
      01005F06H   SYMBOL    CODE     ---       _?ix1021
      01005E1AH   SYMBOL    CODE     ---       _?ix1012
      01005D27H   SYMBOL    CODE     ---       _?ix1003
      0100614AH   SYMBOL    CODE     ---       _?ix1040
      0100602AH   SYMBOL    CODE     ---       _?ix1031
      01005F1EH   SYMBOL    CODE     ---       _?ix1022
      01005E37H   SYMBOL    CODE     ---       _?ix1013
      01005D43H   SYMBOL    CODE     ---       _?ix1004
      0100615EH   SYMBOL    CODE     ---       _?ix1041
      01006052H   SYMBOL    CODE     ---       _?ix1032
      01005F3BH   SYMBOL    CODE     ---       _?ix1023
      01005E52H   SYMBOL    CODE     ---       _?ix1014
      01005D5EH   SYMBOL    CODE     ---       _?ix1005
LX51 LINKER/LOCATER V4.64.0.0                                                         04/13/2018  12:12:27  PAGE 41


      010061C2H   SYMBOL    CODE     ---       _?ix1042
      0100607EH   SYMBOL    CODE     ---       _?ix1033
      01005F4FH   SYMBOL    CODE     ---       _?ix1024
      01005E66H   SYMBOL    CODE     ---       _?ix1015
      01005D7AH   SYMBOL    CODE     ---       _?ix1006
      01006201H   SYMBOL    CODE     ---       _?ix1043
      0100609EH   SYMBOL    CODE     ---       _?ix1034
      01005F73H   SYMBOL    CODE     ---       _?ix1025
      01005E8BH   SYMBOL    CODE     ---       _?ix1016
      01005D9CH   SYMBOL    CODE     ---       _?ix1007
      010060C1H   SYMBOL    CODE     ---       _?ix1035
      01005F96H   SYMBOL    CODE     ---       _?ix1026
      01005EA0H   SYMBOL    CODE     ---       _?ix1017
      01005DC3H   SYMBOL    CODE     ---       _?ix1008
      010060E6H   SYMBOL    CODE     ---       _?ix1036
      01005FA7H   SYMBOL    CODE     ---       _?ix1027
      01005EB5H   SYMBOL    CODE     ---       _?ix1018
      01005DD4H   SYMBOL    CODE     ---       _?ix1009
      010060F8H   SYMBOL    CODE     ---       _?ix1037
      01005FBCH   SYMBOL    CODE     ---       _?ix1028
      01005EC9H   SYMBOL    CODE     ---       _?ix1019
      0100610EH   SYMBOL    CODE     ---       _?ix1038
      01005FE0H   SYMBOL    CODE     ---       _?ix1029
      0100612DH   SYMBOL    CODE     ---       _?ix1039

      0100BAEDH   BLOCK     CODE     ---       LVL=0
      0100BAEDH   BLOCK     CODE     NEAR LAB  LVL=1
      0000002BH   SYMBOL    DATA     BYTE      rx_cmd
      ---         BLOCKEND  ---      ---       LVL=1
      0100BAEDH   LINE      CODE     ---       #67
      0100BAEDH   LINE      CODE     ---       #71
      0100BAF3H   LINE      CODE     ---       #75
      0100BB1EH   LINE      CODE     ---       #77
      0100BB24H   LINE      CODE     ---       #79
      0100BB24H   LINE      CODE     ---       #81
      0100BB6CH   LINE      CODE     ---       #84
      0100BB6CH   LINE      CODE     ---       #85
      0100BB6FH   LINE      CODE     ---       #86
      0100BB70H   LINE      CODE     ---       #90
      0100BB70H   LINE      CODE     ---       #91
      0100BB73H   LINE      CODE     ---       #92
      0100BB74H   LINE      CODE     ---       #96
      0100BB74H   LINE      CODE     ---       #97
      0100BB77H   LINE      CODE     ---       #98
      0100BB78H   LINE      CODE     ---       #102
      0100BB78H   LINE      CODE     ---       #103
      0100BB7BH   LINE      CODE     ---       #104
      0100BB7CH   LINE      CODE     ---       #108
      0100BB7CH   LINE      CODE     ---       #109
      0100BB7FH   LINE      CODE     ---       #110
      0100BB80H   LINE      CODE     ---       #114
      0100BB80H   LINE      CODE     ---       #115
      0100BB83H   LINE      CODE     ---       #116
      0100BB84H   LINE      CODE     ---       #120
      0100BB84H   LINE      CODE     ---       #121
      0100BB87H   LINE      CODE     ---       #122
      0100BB88H   LINE      CODE     ---       #126
      0100BB88H   LINE      CODE     ---       #127
      0100BB8BH   LINE      CODE     ---       #128
      0100BB8CH   LINE      CODE     ---       #132
      0100BB8CH   LINE      CODE     ---       #133
      0100BB8FH   LINE      CODE     ---       #134
      0100BB90H   LINE      CODE     ---       #138
      0100BB90H   LINE      CODE     ---       #139
      0100BB93H   LINE      CODE     ---       #140
LX51 LINKER/LOCATER V4.64.0.0                                                         04/13/2018  12:12:27  PAGE 42


      0100BB94H   LINE      CODE     ---       #144
      0100BB94H   LINE      CODE     ---       #145
      0100BB97H   LINE      CODE     ---       #146
      0100BB98H   LINE      CODE     ---       #150
      0100BB98H   LINE      CODE     ---       #151
      0100BBA3H   LINE      CODE     ---       #152
      0100BBA4H   LINE      CODE     ---       #156
      0100BBA4H   LINE      CODE     ---       #157
      0100BBA7H   LINE      CODE     ---       #158
      0100BBA8H   LINE      CODE     ---       #162
      0100BBA8H   LINE      CODE     ---       #163
      0100BBB3H   LINE      CODE     ---       #164
      0100BBB4H   LINE      CODE     ---       #168
      0100BBB4H   LINE      CODE     ---       #169
      0100BBB7H   LINE      CODE     ---       #170
      0100BBB8H   LINE      CODE     ---       #174
      0100BBB8H   LINE      CODE     ---       #175
      0100BBBBH   LINE      CODE     ---       #176
      0100BBBCH   LINE      CODE     ---       #180
      0100BBBCH   LINE      CODE     ---       #181
      0100BBC6H   LINE      CODE     ---       #182
      0100BBCCH   LINE      CODE     ---       #184
      0100BBD1H   LINE      CODE     ---       #185
      0100BBD2H   LINE      CODE     ---       #189
      0100BBD2H   LINE      CODE     ---       #190
      0100BBD8H   LINE      CODE     ---       #191
      0100BBDEH   LINE      CODE     ---       #193
      0100BBE3H   LINE      CODE     ---       #194
      0100BBE4H   LINE      CODE     ---       #198
      0100BBE4H   LINE      CODE     ---       #199
      0100BBEAH   LINE      CODE     ---       #200
      0100BBF0H   LINE      CODE     ---       #202
      0100BBF5H   LINE      CODE     ---       #203
      0100BBF6H   LINE      CODE     ---       #207
      0100BBF6H   LINE      CODE     ---       #209
      0100BBFBH   LINE      CODE     ---       #210
      0100BC05H   LINE      CODE     ---       #211
      0100BC0AH   LINE      CODE     ---       #212
      0100BC14H   LINE      CODE     ---       #213
      0100BC17H   LINE      CODE     ---       #214
      0100BC18H   LINE      CODE     ---       #218
      0100BC18H   LINE      CODE     ---       #219
      0100BC27H   LINE      CODE     ---       #220
      0100BC36H   LINE      CODE     ---       #223
      0100BC46H   LINE      CODE     ---       #224
      0100BC4DH   LINE      CODE     ---       #225
      0100BC5AH   LINE      CODE     ---       #226
      0100BC63H   LINE      CODE     ---       #227
      0100BC63H   LINE      CODE     ---       #228
      0100BC73H   LINE      CODE     ---       #229
      0100BC7AH   LINE      CODE     ---       #230
      0100BC87H   LINE      CODE     ---       #231
      0100BC91H   LINE      CODE     ---       #232
      0100BC91H   LINE      CODE     ---       #234
      0100BC9CH   LINE      CODE     ---       #235
      0100BCA2H   LINE      CODE     ---       #236
      0100BCA2H   LINE      CODE     ---       #239
      0100BCA2H   LINE      CODE     ---       #240
      0100BCA2H   LINE      CODE     ---       #242
      0100BCA2H   LINE      CODE     ---       #243
      ---         BLOCKEND  ---      ---       LVL=0

      0100EA3CH   BLOCK     CODE     ---       LVL=0
      0200002CH   SYMBOL    XDATA    WORD      info_type
      0100EA44H   BLOCK     CODE     NEAR LAB  LVL=1
LX51 LINKER/LOCATER V4.64.0.0                                                         04/13/2018  12:12:27  PAGE 43


      0200002EH   SYMBOL    XDATA    ---       packet_string
      ---         BLOCKEND  ---      ---       LVL=1
      0100EA3CH   LINE      CODE     ---       #261
      0100EA44H   LINE      CODE     ---       #262
      0100EA57H   LINE      CODE     ---       #266
      0100EA64H   LINE      CODE     ---       #267
      0100EA64H   LINE      CODE     ---       #268
      0100EA6DH   LINE      CODE     ---       #269
      0100EA76H   LINE      CODE     ---       #270
      0100EA76H   LINE      CODE     ---       #272
      0100EA76H   LINE      CODE     ---       #273
      0100EA76H   LINE      CODE     ---       #274
      0100EA76H   LINE      CODE     ---       #275
      ---         BLOCKEND  ---      ---       LVL=0

      0100261AH   BLOCK     CODE     ---       LVL=0
      0200002CH   SYMBOL    XDATA    WORD      index
      01002622H   BLOCK     CODE     NEAR LAB  LVL=1
      0200002EH   SYMBOL    XDATA    ---       packet_data
      020009C1H   SYMBOL    XDATA    WORD      packet_lenght
      0000002CH   SYMBOL    DATA     BYTE      i
      0000002DH   SYMBOL    DATA     BYTE      string_lenght
      020009C3H   SYMBOL    XDATA    LONG      aux_int
      020009C7H   SYMBOL    XDATA    BYTE      aux_uchar
      020009C8H   SYMBOL    XDATA    ---       id_str
      020009D7H   SYMBOL    XDATA    ---       pos_pid_str
      020009F3H   SYMBOL    XDATA    ---       curr_pid_str
      02000A0EH   SYMBOL    XDATA    ---       startup_str
      02000A2AH   SYMBOL    XDATA    ---       input_str
      02000A4CH   SYMBOL    XDATA    ---       contr_str
      02000A73H   SYMBOL    XDATA    ---       res_str
      02000A84H   SYMBOL    XDATA    ---       m_off_str
      02000A9DH   SYMBOL    XDATA    ---       mult_str
      02000AAEH   SYMBOL    XDATA    ---       pos_lim_flag_str
      02000ACAH   SYMBOL    XDATA    ---       pos_lim_str
      02000AE7H   SYMBOL    XDATA    ---       max_step_str
      02000B02H   SYMBOL    XDATA    ---       curr_limit_str
      02000B16H   SYMBOL    XDATA    ---       emg_flag_str
      02000B3BH   SYMBOL    XDATA    ---       emg_thr_str
      02000B50H   SYMBOL    XDATA    ---       emg_max_val_str
      02000B65H   SYMBOL    XDATA    ---       emg_max_speed_str
      02000B79H   SYMBOL    XDATA    ---       abs_enc_str
      02000B9DH   SYMBOL    XDATA    ---       handle_ratio_str
      02000BB6H   SYMBOL    XDATA    ---       motor_type_str
      02000BCEH   SYMBOL    XDATA    ---       rest_pos_flag_str
      02000BEBH   SYMBOL    XDATA    ---       rest_pos_str
      02000BFFH   SYMBOL    XDATA    ---       rest_pos_delay_str
      02000C23H   SYMBOL    XDATA    ---       rest_vel_str
      02000C46H   SYMBOL    XDATA    ---       rest_ratio_str
      02000C57H   SYMBOL    XDATA    ---       curr_lookup_str
      02000C6CH   SYMBOL    XDATA    ---       myo2_master_str
      02000C90H   SYMBOL    XDATA    ---       master_mode_force_str
      02000CB3H   SYMBOL    XDATA    ---       master_mode_proprio_str
      02000CDAH   SYMBOL    XDATA    ---       curr_prop_gain_str
      02000D02H   SYMBOL    XDATA    ---       curr_sat_str
      02000D2EH   SYMBOL    XDATA    ---       curr_dead_zone_str
      02000D4EH   SYMBOL    XDATA    ---       max_slide_str
      02000D71H   SYMBOL    XDATA    ---       max_SH_pos_str
      02000D96H   SYMBOL    XDATA    ---       SH_ID_str
      02000DA8H   SYMBOL    XDATA    ---       FF_ID_str
      02000DBEH   SYMBOL    XDATA    ---       PF_ID_str
      02000DDDH   SYMBOL    XDATA    ---       joystick_closure_speed_str
      02000DFAH   SYMBOL    XDATA    ---       joystick_gains_str
      02000E0EH   SYMBOL    XDATA    ---       input_mode_menu
      02000E72H   SYMBOL    XDATA    ---       control_mode_menu
LX51 LINKER/LOCATER V4.64.0.0                                                         04/13/2018  12:12:27  PAGE 44


      02000EB1H   SYMBOL    XDATA    ---       yes_no_menu
      0000002EH   SYMBOL    DATA     BYTE      id_str_len
      0000002FH   SYMBOL    DATA     BYTE      pos_pid_str_len
      00000030H   SYMBOL    DATA     BYTE      curr_pid_str_len
      00000031H   SYMBOL    DATA     BYTE      res_str_len
      00000032H   SYMBOL    DATA     BYTE      m_off_str_len
      00000033H   SYMBOL    DATA     BYTE      mult_str_len
      00000034H   SYMBOL    DATA     BYTE      pos_lim_str_len
      00000035H   SYMBOL    DATA     BYTE      max_step_str_len
      00000036H   SYMBOL    DATA     BYTE      curr_limit_str_len
      00000037H   SYMBOL    DATA     BYTE      emg_thr_str_len
      00000038H   SYMBOL    DATA     BYTE      emg_max_val_str_len
      00000039H   SYMBOL    DATA     BYTE      emg_max_speed_str_len
      0000003AH   SYMBOL    DATA     BYTE      handle_ratio_str_len
      0000003BH   SYMBOL    DATA     BYTE      curr_lookup_str_len
      0000003CH   SYMBOL    DATA     BYTE      input_mode_menu_len
      0000003DH   SYMBOL    DATA     BYTE      control_mode_menu_len
      0000003EH   SYMBOL    DATA     BYTE      yes_no_menu_len
      0000003FH   SYMBOL    DATA     BYTE      rest_pos_str_len
      00000040H   SYMBOL    DATA     BYTE      rest_pos_delay_str_len
      00000041H   SYMBOL    DATA     BYTE      rest_vel_str_len
      00000042H   SYMBOL    DATA     BYTE      rest_ratio_str_len
      00000043H   SYMBOL    DATA     BYTE      curr_prop_gain_str_len
      00000044H   SYMBOL    DATA     BYTE      curr_sat_str_len
      00000045H   SYMBOL    DATA     BYTE      curr_dead_zone_str_len
      00000046H   SYMBOL    DATA     BYTE      max_slide_str_len
      00000047H   SYMBOL    DATA     BYTE      max_SH_pos_str_len
      00000048H   SYMBOL    DATA     BYTE      SH_ID_str_len
      00000049H   SYMBOL    DATA     BYTE      FF_ID_str_len
      0000004AH   SYMBOL    DATA     BYTE      PF_ID_str_len
      0000004BH   SYMBOL    DATA     BYTE      joystick_closure_speed_str_len
      0000004CH   SYMBOL    DATA     BYTE      joystick_gains_str_len
      ---         BLOCKEND  ---      ---       LVL=1
      0100261AH   LINE      CODE     ---       #281
      01002622H   LINE      CODE     ---       #283
      01002635H   LINE      CODE     ---       #284
      0100263FH   LINE      CODE     ---       #293
      01002652H   LINE      CODE     ---       #294
      01002665H   LINE      CODE     ---       #295
      01002678H   LINE      CODE     ---       #296
      0100268BH   LINE      CODE     ---       #297
      0100269EH   LINE      CODE     ---       #298
      010026B1H   LINE      CODE     ---       #299
      010026C4H   LINE      CODE     ---       #300
      010026D7H   LINE      CODE     ---       #301
      010026EAH   LINE      CODE     ---       #302
      010026FDH   LINE      CODE     ---       #303
      01002710H   LINE      CODE     ---       #304
      01002723H   LINE      CODE     ---       #305
      01002736H   LINE      CODE     ---       #306
      01002749H   LINE      CODE     ---       #307
      0100275CH   LINE      CODE     ---       #308
      0100276FH   LINE      CODE     ---       #309
      01002782H   LINE      CODE     ---       #310
      01002795H   LINE      CODE     ---       #311
      010027A8H   LINE      CODE     ---       #312
      010027BBH   LINE      CODE     ---       #313
      010027CEH   LINE      CODE     ---       #314
      010027E1H   LINE      CODE     ---       #315
      010027F4H   LINE      CODE     ---       #316
      01002807H   LINE      CODE     ---       #317
      0100281AH   LINE      CODE     ---       #318
      0100282DH   LINE      CODE     ---       #320
      01002840H   LINE      CODE     ---       #321
      01002853H   LINE      CODE     ---       #322
LX51 LINKER/LOCATER V4.64.0.0                                                         04/13/2018  12:12:27  PAGE 45


      01002866H   LINE      CODE     ---       #324
      01002879H   LINE      CODE     ---       #325
      0100288CH   LINE      CODE     ---       #326
      0100289FH   LINE      CODE     ---       #328
      010028B2H   LINE      CODE     ---       #329
      010028C5H   LINE      CODE     ---       #330
      010028D8H   LINE      CODE     ---       #331
      010028EBH   LINE      CODE     ---       #332
      010028FEH   LINE      CODE     ---       #334
      01002911H   LINE      CODE     ---       #335
      01002924H   LINE      CODE     ---       #338
      01002937H   LINE      CODE     ---       #339
      0100294AH   LINE      CODE     ---       #340
      0100295DH   LINE      CODE     ---       #343
      01002968H   LINE      CODE     ---       #344
      01002973H   LINE      CODE     ---       #345
      0100297EH   LINE      CODE     ---       #347
      01002989H   LINE      CODE     ---       #348
      01002994H   LINE      CODE     ---       #349
      0100299FH   LINE      CODE     ---       #351
      010029AAH   LINE      CODE     ---       #352
      010029B5H   LINE      CODE     ---       #353
      010029C0H   LINE      CODE     ---       #355
      010029CBH   LINE      CODE     ---       #356
      010029D6H   LINE      CODE     ---       #357
      010029E1H   LINE      CODE     ---       #359
      010029ECH   LINE      CODE     ---       #360
      010029F7H   LINE      CODE     ---       #361
      01002A02H   LINE      CODE     ---       #362
      01002A0DH   LINE      CODE     ---       #363
      01002A18H   LINE      CODE     ---       #364
      01002A23H   LINE      CODE     ---       #365
      01002A2EH   LINE      CODE     ---       #366
      01002A39H   LINE      CODE     ---       #367
      01002A44H   LINE      CODE     ---       #369
      01002A4FH   LINE      CODE     ---       #370
      01002A5AH   LINE      CODE     ---       #371
      01002A65H   LINE      CODE     ---       #373
      01002A70H   LINE      CODE     ---       #374
      01002A7BH   LINE      CODE     ---       #375
      01002A86H   LINE      CODE     ---       #376
      01002A91H   LINE      CODE     ---       #377
      01002A9CH   LINE      CODE     ---       #379
      01002AA7H   LINE      CODE     ---       #380
      01002AB2H   LINE      CODE     ---       #382
      01002AB8H   LINE      CODE     ---       #383
      01002ABCH   LINE      CODE     ---       #385
      01002B52H   LINE      CODE     ---       #386
      01002B52H   LINE      CODE     ---       #389
      01002B58H   LINE      CODE     ---       #390
      01002B5BH   LINE      CODE     ---       #391
      01002B63H   LINE      CODE     ---       #392
      01002B6AH   LINE      CODE     ---       #393
      01002B9CH   LINE      CODE     ---       #397
      01002BA2H   LINE      CODE     ---       #398
      01002BA6H   LINE      CODE     ---       #399
      01002BAEH   LINE      CODE     ---       #400
      01002BD0H   LINE      CODE     ---       #401
      01002BF2H   LINE      CODE     ---       #402
      01002C14H   LINE      CODE     ---       #403
      01002C16H   LINE      CODE     ---       #404
      01002C16H   LINE      CODE     ---       #405
      01002C38H   LINE      CODE     ---       #406
      01002C5AH   LINE      CODE     ---       #407
      01002C7CH   LINE      CODE     ---       #408
LX51 LINKER/LOCATER V4.64.0.0                                                         04/13/2018  12:12:27  PAGE 46


      01002C7CH   LINE      CODE     ---       #410
      01002C83H   LINE      CODE     ---       #411
      01002CB5H   LINE      CODE     ---       #415
      01002CBBH   LINE      CODE     ---       #416
      01002CBFH   LINE      CODE     ---       #417
      01002CC7H   LINE      CODE     ---       #418
      01002CE9H   LINE      CODE     ---       #419
      01002D0BH   LINE      CODE     ---       #420
      01002D2DH   LINE      CODE     ---       #421
      01002D2FH   LINE      CODE     ---       #422
      01002D2FH   LINE      CODE     ---       #423
      01002D51H   LINE      CODE     ---       #424
      01002D73H   LINE      CODE     ---       #425
      01002D95H   LINE      CODE     ---       #426
      01002D95H   LINE      CODE     ---       #428
      01002D9CH   LINE      CODE     ---       #429
      01002DCEH   LINE      CODE     ---       #433
      01002DD3H   LINE      CODE     ---       #434
      01002DD6H   LINE      CODE     ---       #435
      01002DDEH   LINE      CODE     ---       #436
      01002DE3H   LINE      CODE     ---       #437
      01002DFAH   LINE      CODE     ---       #438
      01002DFDH   LINE      CODE     ---       #439
      01002DFFH   LINE      CODE     ---       #440
      01002DFFH   LINE      CODE     ---       #441
      01002E16H   LINE      CODE     ---       #442
      01002E19H   LINE      CODE     ---       #443
      01002E19H   LINE      CODE     ---       #444
      01002E20H   LINE      CODE     ---       #445
      01002E52H   LINE      CODE     ---       #447
      01002E60H   LINE      CODE     ---       #451
      01002E65H   LINE      CODE     ---       #452
      01002E68H   LINE      CODE     ---       #453
      01002E70H   LINE      CODE     ---       #454
      01002E97H   LINE      CODE     ---       #455
      01002E97H   LINE      CODE     ---       #456
      01002EAEH   LINE      CODE     ---       #457
      01002EB1H   LINE      CODE     ---       #458
      01002EB4H   LINE      CODE     ---       #459
      01002EB4H   LINE      CODE     ---       #460
      01002ECBH   LINE      CODE     ---       #461
      01002ECEH   LINE      CODE     ---       #462
      01002ED1H   LINE      CODE     ---       #463
      01002ED1H   LINE      CODE     ---       #464
      01002EE8H   LINE      CODE     ---       #465
      01002EEBH   LINE      CODE     ---       #466
      01002EEDH   LINE      CODE     ---       #467
      01002EEDH   LINE      CODE     ---       #468
      01002F04H   LINE      CODE     ---       #469
      01002F07H   LINE      CODE     ---       #470
      01002F09H   LINE      CODE     ---       #471
      01002F09H   LINE      CODE     ---       #472
      01002F20H   LINE      CODE     ---       #473
      01002F23H   LINE      CODE     ---       #474
      01002F25H   LINE      CODE     ---       #475
      01002F25H   LINE      CODE     ---       #476
      01002F3CH   LINE      CODE     ---       #477
      01002F3FH   LINE      CODE     ---       #478
      01002F41H   LINE      CODE     ---       #479
      01002F41H   LINE      CODE     ---       #480
      01002F58H   LINE      CODE     ---       #481
      01002F5BH   LINE      CODE     ---       #482
      01002F5BH   LINE      CODE     ---       #483
      01002F5BH   LINE      CODE     ---       #484
      01002F62H   LINE      CODE     ---       #485
LX51 LINKER/LOCATER V4.64.0.0                                                         04/13/2018  12:12:27  PAGE 47


      01002F94H   LINE      CODE     ---       #487
      01002FA2H   LINE      CODE     ---       #491
      01002FA7H   LINE      CODE     ---       #492
      01002FAAH   LINE      CODE     ---       #493
      01002FB2H   LINE      CODE     ---       #494
      01002FC2H   LINE      CODE     ---       #495
      01002FC2H   LINE      CODE     ---       #496
      01002FD9H   LINE      CODE     ---       #497
      01002FDCH   LINE      CODE     ---       #498
      01002FDEH   LINE      CODE     ---       #499
      01002FDEH   LINE      CODE     ---       #500
      01002FF5H   LINE      CODE     ---       #501
      01002FF8H   LINE      CODE     ---       #502
      01002FFAH   LINE      CODE     ---       #503
      01002FFAH   LINE      CODE     ---       #504
      01003011H   LINE      CODE     ---       #505
      01003014H   LINE      CODE     ---       #506
      01003016H   LINE      CODE     ---       #507
      01003016H   LINE      CODE     ---       #508
      0100302DH   LINE      CODE     ---       #509
      01003030H   LINE      CODE     ---       #510
      01003030H   LINE      CODE     ---       #511
      01003030H   LINE      CODE     ---       #512
      01003037H   LINE      CODE     ---       #513
      01003069H   LINE      CODE     ---       #515
      01003077H   LINE      CODE     ---       #519
      0100307BH   LINE      CODE     ---       #520
      0100307EH   LINE      CODE     ---       #521
      01003088H   LINE      CODE     ---       #522
      010030A6H   LINE      CODE     ---       #523
      010030ADH   LINE      CODE     ---       #524
      010030DFH   LINE      CODE     ---       #528
      010030E5H   LINE      CODE     ---       #529
      010030E7H   LINE      CODE     ---       #530
      010030F1H   LINE      CODE     ---       #531
      01003135H   LINE      CODE     ---       #532
      0100313CH   LINE      CODE     ---       #533
      0100316EH   LINE      CODE     ---       #537
      01003174H   LINE      CODE     ---       #538
      01003178H   LINE      CODE     ---       #539
      01003182H   LINE      CODE     ---       #540
      010031B3H   LINE      CODE     ---       #541
      010031BAH   LINE      CODE     ---       #542
      010031ECH   LINE      CODE     ---       #546
      010031F1H   LINE      CODE     ---       #547
      010031F4H   LINE      CODE     ---       #548
      010031FCH   LINE      CODE     ---       #549
      01003201H   LINE      CODE     ---       #550
      01003218H   LINE      CODE     ---       #551
      0100321BH   LINE      CODE     ---       #552
      0100321DH   LINE      CODE     ---       #553
      0100321DH   LINE      CODE     ---       #554
      01003234H   LINE      CODE     ---       #555
      01003237H   LINE      CODE     ---       #556
      01003237H   LINE      CODE     ---       #557
      0100323EH   LINE      CODE     ---       #558
      01003270H   LINE      CODE     ---       #560
      0100327EH   LINE      CODE     ---       #564
      01003284H   LINE      CODE     ---       #565
      01003288H   LINE      CODE     ---       #566
      01003295H   LINE      CODE     ---       #567
      010032D3H   LINE      CODE     ---       #568
      01003311H   LINE      CODE     ---       #569
      01003316H   LINE      CODE     ---       #570
      0100331DH   LINE      CODE     ---       #571
LX51 LINKER/LOCATER V4.64.0.0                                                         04/13/2018  12:12:27  PAGE 48


      0100334FH   LINE      CODE     ---       #575
      01003355H   LINE      CODE     ---       #576
      01003359H   LINE      CODE     ---       #577
      0100336DH   LINE      CODE     ---       #578
      01003381H   LINE      CODE     ---       #579
      01003388H   LINE      CODE     ---       #580
      010033BAH   LINE      CODE     ---       #584
      010033C0H   LINE      CODE     ---       #585
      010033C4H   LINE      CODE     ---       #586
      010033D3H   LINE      CODE     ---       #587
      010033DAH   LINE      CODE     ---       #588
      0100340CH   LINE      CODE     ---       #592
      01003411H   LINE      CODE     ---       #593
      01003414H   LINE      CODE     ---       #594
      0100341CH   LINE      CODE     ---       #595
      01003421H   LINE      CODE     ---       #596
      01003438H   LINE      CODE     ---       #597
      0100343BH   LINE      CODE     ---       #598
      0100343DH   LINE      CODE     ---       #599
      0100343DH   LINE      CODE     ---       #600
      01003454H   LINE      CODE     ---       #601
      01003457H   LINE      CODE     ---       #602
      01003457H   LINE      CODE     ---       #603
      0100345EH   LINE      CODE     ---       #604
      01003490H   LINE      CODE     ---       #606
      0100349EH   LINE      CODE     ---       #610
      010034A3H   LINE      CODE     ---       #611
      010034A7H   LINE      CODE     ---       #612
      010034B6H   LINE      CODE     ---       #613
      010034C5H   LINE      CODE     ---       #614
      010034CCH   LINE      CODE     ---       #615
      010034FEH   LINE      CODE     ---       #619
      01003504H   LINE      CODE     ---       #620
      01003508H   LINE      CODE     ---       #621
      0100351CH   LINE      CODE     ---       #622
      01003530H   LINE      CODE     ---       #623
      01003537H   LINE      CODE     ---       #624
      01003569H   LINE      CODE     ---       #628
      0100356FH   LINE      CODE     ---       #629
      01003572H   LINE      CODE     ---       #630
      0100357AH   LINE      CODE     ---       #631
      01003581H   LINE      CODE     ---       #632
      010035B3H   LINE      CODE     ---       #636
      010035B8H   LINE      CODE     ---       #637
      010035BBH   LINE      CODE     ---       #638
      010035C3H   LINE      CODE     ---       #639
      010035C8H   LINE      CODE     ---       #640
      010035DFH   LINE      CODE     ---       #641
      010035E2H   LINE      CODE     ---       #642
      010035E4H   LINE      CODE     ---       #643
      010035E4H   LINE      CODE     ---       #644
      010035FBH   LINE      CODE     ---       #645
      010035FEH   LINE      CODE     ---       #646
      010035FEH   LINE      CODE     ---       #647
      01003605H   LINE      CODE     ---       #648
      01003637H   LINE      CODE     ---       #650
      01003645H   LINE      CODE     ---       #654
      0100364BH   LINE      CODE     ---       #655
      0100364DH   LINE      CODE     ---       #656
      01003655H   LINE      CODE     ---       #657
      0100365CH   LINE      CODE     ---       #658
      0100368EH   LINE      CODE     ---       #662
      01003693H   LINE      CODE     ---       #663
      01003696H   LINE      CODE     ---       #664
      0100369EH   LINE      CODE     ---       #665
LX51 LINKER/LOCATER V4.64.0.0                                                         04/13/2018  12:12:27  PAGE 49


      010036A3H   LINE      CODE     ---       #666
      010036BAH   LINE      CODE     ---       #667
      010036BDH   LINE      CODE     ---       #668
      010036BFH   LINE      CODE     ---       #669
      010036BFH   LINE      CODE     ---       #670
      010036D6H   LINE      CODE     ---       #671
      010036D9H   LINE      CODE     ---       #672
      010036D9H   LINE      CODE     ---       #673
      010036E0H   LINE      CODE     ---       #674
      01003712H   LINE      CODE     ---       #676
      01003720H   LINE      CODE     ---       #680
      01003725H   LINE      CODE     ---       #681
      01003728H   LINE      CODE     ---       #682
      01003730H   LINE      CODE     ---       #683
      01003735H   LINE      CODE     ---       #684
      0100374CH   LINE      CODE     ---       #685
      0100374FH   LINE      CODE     ---       #686
      01003751H   LINE      CODE     ---       #687
      01003751H   LINE      CODE     ---       #688
      01003768H   LINE      CODE     ---       #689
      0100376BH   LINE      CODE     ---       #690
      0100376BH   LINE      CODE     ---       #691
      01003772H   LINE      CODE     ---       #692
      010037A4H   LINE      CODE     ---       #694
      010037B2H   LINE      CODE     ---       #698
      010037B8H   LINE      CODE     ---       #699
      010037BCH   LINE      CODE     ---       #700
      010037D9H   LINE      CODE     ---       #701
      010037E0H   LINE      CODE     ---       #702
      01003812H   LINE      CODE     ---       #706
      01003818H   LINE      CODE     ---       #707
      0100381CH   LINE      CODE     ---       #708
      01003830H   LINE      CODE     ---       #709
      01003837H   LINE      CODE     ---       #710
      01003869H   LINE      CODE     ---       #714
      0100386FH   LINE      CODE     ---       #715
      01003873H   LINE      CODE     ---       #716
      01003891H   LINE      CODE     ---       #717
      01003898H   LINE      CODE     ---       #718
      010038CAH   LINE      CODE     ---       #722
      010038D0H   LINE      CODE     ---       #723
      010038D4H   LINE      CODE     ---       #724
      010038E8H   LINE      CODE     ---       #725
      010038EFH   LINE      CODE     ---       #726
      01003921H   LINE      CODE     ---       #730
      01003927H   LINE      CODE     ---       #731
      0100392AH   LINE      CODE     ---       #732
      01003934H   LINE      CODE     ---       #733
      01003965H   LINE      CODE     ---       #734
      0100396CH   LINE      CODE     ---       #735
      0100399EH   LINE      CODE     ---       #739
      010039A3H   LINE      CODE     ---       #740
      010039A6H   LINE      CODE     ---       #741
      010039AEH   LINE      CODE     ---       #742
      010039B3H   LINE      CODE     ---       #743
      010039CAH   LINE      CODE     ---       #744
      010039CDH   LINE      CODE     ---       #745
      010039CFH   LINE      CODE     ---       #746
      010039CFH   LINE      CODE     ---       #747
      010039E6H   LINE      CODE     ---       #748
      010039E9H   LINE      CODE     ---       #749
      010039E9H   LINE      CODE     ---       #750
      010039F0H   LINE      CODE     ---       #751
      01003A22H   LINE      CODE     ---       #753
      01003A30H   LINE      CODE     ---       #757
LX51 LINKER/LOCATER V4.64.0.0                                                         04/13/2018  12:12:27  PAGE 50


      01003A35H   LINE      CODE     ---       #758
      01003A38H   LINE      CODE     ---       #759
      01003A40H   LINE      CODE     ---       #760
      01003A45H   LINE      CODE     ---       #761
      01003A5CH   LINE      CODE     ---       #762
      01003A5FH   LINE      CODE     ---       #763
      01003A61H   LINE      CODE     ---       #764
      01003A61H   LINE      CODE     ---       #765
      01003A78H   LINE      CODE     ---       #766
      01003A7BH   LINE      CODE     ---       #767
      01003A7BH   LINE      CODE     ---       #768
      01003A82H   LINE      CODE     ---       #769
      01003AB4H   LINE      CODE     ---       #771
      01003AC2H   LINE      CODE     ---       #775
      01003AC7H   LINE      CODE     ---       #776
      01003ACAH   LINE      CODE     ---       #777
      01003AD2H   LINE      CODE     ---       #778
      01003AD7H   LINE      CODE     ---       #779
      01003AEEH   LINE      CODE     ---       #780
      01003AF1H   LINE      CODE     ---       #781
      01003AF3H   LINE      CODE     ---       #782
      01003AF3H   LINE      CODE     ---       #783
      01003B0AH   LINE      CODE     ---       #784
      01003B0DH   LINE      CODE     ---       #785
      01003B0DH   LINE      CODE     ---       #786
      01003B14H   LINE      CODE     ---       #787
      01003B46H   LINE      CODE     ---       #789
      01003B54H   LINE      CODE     ---       #793
      01003B5AH   LINE      CODE     ---       #794
      01003B5EH   LINE      CODE     ---       #795
      01003B72H   LINE      CODE     ---       #796
      01003B79H   LINE      CODE     ---       #797
      01003BABH   LINE      CODE     ---       #801
      01003BB1H   LINE      CODE     ---       #802
      01003BB5H   LINE      CODE     ---       #803
      01003BC4H   LINE      CODE     ---       #804
      01003BCBH   LINE      CODE     ---       #805
      01003BFDH   LINE      CODE     ---       #809
      01003C03H   LINE      CODE     ---       #810
      01003C07H   LINE      CODE     ---       #811
      01003C16H   LINE      CODE     ---       #812
      01003C1DH   LINE      CODE     ---       #813
      01003C4FH   LINE      CODE     ---       #817
      01003C55H   LINE      CODE     ---       #818
      01003C59H   LINE      CODE     ---       #819
      01003C6DH   LINE      CODE     ---       #820
      01003C74H   LINE      CODE     ---       #821
      01003CA6H   LINE      CODE     ---       #825
      01003CACH   LINE      CODE     ---       #826
      01003CB0H   LINE      CODE     ---       #827
      01003CC4H   LINE      CODE     ---       #828
      01003CCBH   LINE      CODE     ---       #829
      01003CFDH   LINE      CODE     ---       #833
      01003D03H   LINE      CODE     ---       #834
      01003D06H   LINE      CODE     ---       #835
      01003D0EH   LINE      CODE     ---       #836
      01003D15H   LINE      CODE     ---       #837
      01003D47H   LINE      CODE     ---       #841
      01003D4DH   LINE      CODE     ---       #842
      01003D50H   LINE      CODE     ---       #843
      01003D58H   LINE      CODE     ---       #844
      01003D5FH   LINE      CODE     ---       #845
      01003D91H   LINE      CODE     ---       #849
      01003D97H   LINE      CODE     ---       #850
      01003D9AH   LINE      CODE     ---       #851
LX51 LINKER/LOCATER V4.64.0.0                                                         04/13/2018  12:12:27  PAGE 51


      01003DA2H   LINE      CODE     ---       #852
      01003DA9H   LINE      CODE     ---       #853
      01003DDBH   LINE      CODE     ---       #857
      01003DE1H   LINE      CODE     ---       #858
      01003DE5H   LINE      CODE     ---       #859
      01003DF4H   LINE      CODE     ---       #860
      01003DFBH   LINE      CODE     ---       #861
      01003E2DH   LINE      CODE     ---       #865
      01003E33H   LINE      CODE     ---       #866
      01003E37H   LINE      CODE     ---       #867
      01003E46H   LINE      CODE     ---       #868
      01003E4DH   LINE      CODE     ---       #869
      01003E7FH   LINE      CODE     ---       #873
      01003E86H   LINE      CODE     ---       #874
      01003EB8H   LINE      CODE     ---       #876
      01003EBFH   LINE      CODE     ---       #877
      01003EF1H   LINE      CODE     ---       #879
      01003EF8H   LINE      CODE     ---       #880
      01003F2AH   LINE      CODE     ---       #882
      01003F4EH   LINE      CODE     ---       #883
      01003F57H   LINE      CODE     ---       #884
      01003F58H   LINE      CODE     ---       #887
      01003F58H   LINE      CODE     ---       #888
      01003F60H   LINE      CODE     ---       #889
      01003F61H   LINE      CODE     ---       #892
      01003F61H   LINE      CODE     ---       #893
      01003F69H   LINE      CODE     ---       #894
      01003F8AH   LINE      CODE     ---       #895
      01003FABH   LINE      CODE     ---       #896
      01003FCCH   LINE      CODE     ---       #897
      01003FCDH   LINE      CODE     ---       #898
      01003FCDH   LINE      CODE     ---       #899
      01003FEEH   LINE      CODE     ---       #900
      0100400FH   LINE      CODE     ---       #901
      01004030H   LINE      CODE     ---       #902
      01004030H   LINE      CODE     ---       #903
      01004031H   LINE      CODE     ---       #906
      01004031H   LINE      CODE     ---       #907
      01004039H   LINE      CODE     ---       #908
      0100405AH   LINE      CODE     ---       #909
      0100407BH   LINE      CODE     ---       #910
      0100409CH   LINE      CODE     ---       #911
      0100409DH   LINE      CODE     ---       #912
      0100409DH   LINE      CODE     ---       #913
      010040BEH   LINE      CODE     ---       #914
      010040DFH   LINE      CODE     ---       #915
      01004100H   LINE      CODE     ---       #916
      01004100H   LINE      CODE     ---       #918
      01004101H   LINE      CODE     ---       #921
      01004101H   LINE      CODE     ---       #922
      01004107H   LINE      CODE     ---       #923
      0100410EH   LINE      CODE     ---       #925
      01004113H   LINE      CODE     ---       #926
      01004114H   LINE      CODE     ---       #929
      01004114H   LINE      CODE     ---       #930
      0100411CH   LINE      CODE     ---       #931
      0100411DH   LINE      CODE     ---       #934
      0100411DH   LINE      CODE     ---       #935
      01004125H   LINE      CODE     ---       #936
      01004126H   LINE      CODE     ---       #939
      01004126H   LINE      CODE     ---       #940
      01004133H   LINE      CODE     ---       #941
      0100414DH   LINE      CODE     ---       #942
      01004151H   LINE      CODE     ---       #943
      01004151H   LINE      CODE     ---       #946
LX51 LINKER/LOCATER V4.64.0.0                                                         04/13/2018  12:12:27  PAGE 52


      01004151H   LINE      CODE     ---       #947
      0100415BH   LINE      CODE     ---       #948
      01004185H   LINE      CODE     ---       #949
      010041BBH   LINE      CODE     ---       #951
      010041C8H   LINE      CODE     ---       #952
      010041CCH   LINE      CODE     ---       #953
      010041CEH   LINE      CODE     ---       #954
      010041CFH   LINE      CODE     ---       #957
      010041CFH   LINE      CODE     ---       #958
      010041DCH   LINE      CODE     ---       #959
      0100420CH   LINE      CODE     ---       #960
      0100420CH   LINE      CODE     ---       #963
      0100420CH   LINE      CODE     ---       #964
      01004214H   LINE      CODE     ---       #965
      01004215H   LINE      CODE     ---       #968
      01004215H   LINE      CODE     ---       #969
      01004222H   LINE      CODE     ---       #970
      0100424EH   LINE      CODE     ---       #971
      0100427AH   LINE      CODE     ---       #973
      010042B0H   LINE      CODE     ---       #974
      010042E6H   LINE      CODE     ---       #975
      010042EBH   LINE      CODE     ---       #976
      010042EBH   LINE      CODE     ---       #979
      010042EBH   LINE      CODE     ---       #980
      010042FFH   LINE      CODE     ---       #981
      01004318H   LINE      CODE     ---       #982
      0100432CH   LINE      CODE     ---       #984
      01004340H   LINE      CODE     ---       #985
      0100435CH   LINE      CODE     ---       #986
      01004370H   LINE      CODE     ---       #988
      01004371H   LINE      CODE     ---       #991
      01004371H   LINE      CODE     ---       #992
      01004380H   LINE      CODE     ---       #993
      01004381H   LINE      CODE     ---       #996
      01004381H   LINE      CODE     ---       #997
      01004389H   LINE      CODE     ---       #998
      0100438AH   LINE      CODE     ---       #1001
      0100438AH   LINE      CODE     ---       #1002
      01004399H   LINE      CODE     ---       #1003
      010043A8H   LINE      CODE     ---       #1004
      010043A9H   LINE      CODE     ---       #1007
      010043A9H   LINE      CODE     ---       #1008
      010043BDH   LINE      CODE     ---       #1009
      010043D1H   LINE      CODE     ---       #1010
      010043D2H   LINE      CODE     ---       #1013
      010043D2H   LINE      CODE     ---       #1014
      010043DAH   LINE      CODE     ---       #1015
      010043DBH   LINE      CODE     ---       #1018
      010043DBH   LINE      CODE     ---       #1019
      010043E3H   LINE      CODE     ---       #1020
      010043E5H   LINE      CODE     ---       #1021
      010043EBH   LINE      CODE     ---       #1022
      010043ECH   LINE      CODE     ---       #1023
      010043F1H   LINE      CODE     ---       #1024
      010043F1H   LINE      CODE     ---       #1025
      010043F2H   LINE      CODE     ---       #1028
      010043F2H   LINE      CODE     ---       #1029
      010043FAH   LINE      CODE     ---       #1030
      010043FBH   LINE      CODE     ---       #1033
      010043FBH   LINE      CODE     ---       #1034
      01004403H   LINE      CODE     ---       #1035
      01004404H   LINE      CODE     ---       #1037
      01004404H   LINE      CODE     ---       #1038
      0100440CH   LINE      CODE     ---       #1039
      0100440DH   LINE      CODE     ---       #1041
LX51 LINKER/LOCATER V4.64.0.0                                                         04/13/2018  12:12:27  PAGE 53


      0100440DH   LINE      CODE     ---       #1042
      01004421H   LINE      CODE     ---       #1043
      0100443EH   LINE      CODE     ---       #1044
      0100443FH   LINE      CODE     ---       #1046
      0100443FH   LINE      CODE     ---       #1047
      01004453H   LINE      CODE     ---       #1048
      01004454H   LINE      CODE     ---       #1050
      01004454H   LINE      CODE     ---       #1051
      01004468H   LINE      CODE     ---       #1052
      01004486H   LINE      CODE     ---       #1053
      01004487H   LINE      CODE     ---       #1055
      01004487H   LINE      CODE     ---       #1056
      0100449BH   LINE      CODE     ---       #1057
      0100449CH   LINE      CODE     ---       #1059
      0100449CH   LINE      CODE     ---       #1060
      010044A9H   LINE      CODE     ---       #1061
      010044D9H   LINE      CODE     ---       #1062
      010044D9H   LINE      CODE     ---       #1064
      010044D9H   LINE      CODE     ---       #1065
      010044E1H   LINE      CODE     ---       #1066
      010044E3H   LINE      CODE     ---       #1067
      010044E9H   LINE      CODE     ---       #1068
      010044EAH   LINE      CODE     ---       #1069
      010044EFH   LINE      CODE     ---       #1070
      010044EFH   LINE      CODE     ---       #1071
      010044F0H   LINE      CODE     ---       #1073
      010044F0H   LINE      CODE     ---       #1074
      010044F8H   LINE      CODE     ---       #1075
      010044FAH   LINE      CODE     ---       #1076
      01004500H   LINE      CODE     ---       #1077
      01004501H   LINE      CODE     ---       #1078
      01004506H   LINE      CODE     ---       #1079
      01004506H   LINE      CODE     ---       #1080
      01004507H   LINE      CODE     ---       #1082
      01004507H   LINE      CODE     ---       #1083
      0100450FH   LINE      CODE     ---       #1084
      01004511H   LINE      CODE     ---       #1085
      01004517H   LINE      CODE     ---       #1086
      01004518H   LINE      CODE     ---       #1087
      0100451DH   LINE      CODE     ---       #1088
      0100451DH   LINE      CODE     ---       #1089
      0100451EH   LINE      CODE     ---       #1091
      0100451EH   LINE      CODE     ---       #1092
      01004532H   LINE      CODE     ---       #1093
      01004533H   LINE      CODE     ---       #1095
      01004533H   LINE      CODE     ---       #1096
      01004542H   LINE      CODE     ---       #1097
      01004543H   LINE      CODE     ---       #1099
      01004543H   LINE      CODE     ---       #1100
      01004552H   LINE      CODE     ---       #1101
      01004553H   LINE      CODE     ---       #1103
      01004553H   LINE      CODE     ---       #1104
      01004567H   LINE      CODE     ---       #1105
      01004568H   LINE      CODE     ---       #1107
      01004568H   LINE      CODE     ---       #1108
      0100457CH   LINE      CODE     ---       #1109
      0100457DH   LINE      CODE     ---       #1111
      0100457DH   LINE      CODE     ---       #1112
      01004585H   LINE      CODE     ---       #1113
      01004586H   LINE      CODE     ---       #1115
      01004586H   LINE      CODE     ---       #1116
      0100458EH   LINE      CODE     ---       #1117
      0100458FH   LINE      CODE     ---       #1119
      0100458FH   LINE      CODE     ---       #1120
      01004597H   LINE      CODE     ---       #1121
LX51 LINKER/LOCATER V4.64.0.0                                                         04/13/2018  12:12:27  PAGE 54


      01004598H   LINE      CODE     ---       #1124
      01004598H   LINE      CODE     ---       #1125
      010045A7H   LINE      CODE     ---       #1126
      010045A8H   LINE      CODE     ---       #1129
      010045A8H   LINE      CODE     ---       #1130
      010045B7H   LINE      CODE     ---       #1131
      010045B7H   LINE      CODE     ---       #1132
      010045B7H   LINE      CODE     ---       #1133
      ---         BLOCKEND  ---      ---       LVL=0

      0100D9C0H   BLOCK     CODE     ---       LVL=0
      0100D9C0H   BLOCK     CODE     NEAR LAB  LVL=1
      0000002CH   SYMBOL    DATA     BYTE      i
      ---         BLOCKEND  ---      ---       LVL=1
      0100D9C0H   LINE      CODE     ---       #1139
      0100D9C0H   LINE      CODE     ---       #1140
      0100D9C0H   LINE      CODE     ---       #1143
      0100D9CAH   LINE      CODE     ---       #1144
      0100D9F4H   LINE      CODE     ---       #1145
      0100DA2AH   LINE      CODE     ---       #1147
      0100DA37H   LINE      CODE     ---       #1148
      0100DA3BH   LINE      CODE     ---       #1149
      0100DA3DH   LINE      CODE     ---       #1151
      0100DA42H   LINE      CODE     ---       #1152
      ---         BLOCKEND  ---      ---       LVL=0

      0100622BH   BLOCK     CODE     ---       LVL=0
      020006D2H   SYMBOL    XDATA    ---       info_string
      01006236H   BLOCK     CODE     NEAR LAB  LVL=1
      020006D5H   SYMBOL    XDATA    INT       i
      01006241H   BLOCK     CODE     NEAR LAB  LVL=2
      020006D7H   SYMBOL    XDATA    ---       str
      ---         BLOCKEND  ---      ---       LVL=2
      ---         BLOCKEND  ---      ---       LVL=1
      0100622BH   LINE      CODE     ---       #1158
      01006236H   LINE      CODE     ---       #1159
      01006236H   LINE      CODE     ---       #1161
      01006241H   LINE      CODE     ---       #1163
      01006259H   LINE      CODE     ---       #1164
      01006275H   LINE      CODE     ---       #1165
      01006291H   LINE      CODE     ---       #1166
      010062ADH   LINE      CODE     ---       #1167
      010062C9H   LINE      CODE     ---       #1169
      010062E5H   LINE      CODE     ---       #1170
      01006309H   LINE      CODE     ---       #1171
      01006325H   LINE      CODE     ---       #1172
      01006341H   LINE      CODE     ---       #1173
      01006348H   LINE      CODE     ---       #1174
      01006366H   LINE      CODE     ---       #1176
      01006382H   LINE      CODE     ---       #1178
      010063A6H   LINE      CODE     ---       #1179
      010063C2H   LINE      CODE     ---       #1180
      010063DEH   LINE      CODE     ---       #1182
      010063FAH   LINE      CODE     ---       #1183
      01006416H   LINE      CODE     ---       #1185
      0100641DH   LINE      CODE     ---       #1186
      0100643BH   LINE      CODE     ---       #1187
      0100643BH   LINE      CODE     ---       #1188
      01006442H   LINE      CODE     ---       #1189
      01006460H   LINE      CODE     ---       #1191
      0100647CH   LINE      CODE     ---       #1192
      0100647CH   LINE      CODE     ---       #1194
      01006497H   LINE      CODE     ---       #1195
      0100649FH   LINE      CODE     ---       #1196
      010064DFH   LINE      CODE     ---       #1197
LX51 LINKER/LOCATER V4.64.0.0                                                         04/13/2018  12:12:27  PAGE 55


      010064FBH   LINE      CODE     ---       #1198
      010064FEH   LINE      CODE     ---       #1199
      010064FEH   LINE      CODE     ---       #1200
      01006506H   LINE      CODE     ---       #1201
      01006546H   LINE      CODE     ---       #1202
      01006562H   LINE      CODE     ---       #1203
      01006564H   LINE      CODE     ---       #1204
      01006564H   LINE      CODE     ---       #1205
      010065BAH   LINE      CODE     ---       #1206
      010065D6H   LINE      CODE     ---       #1207
      010065D6H   LINE      CODE     ---       #1208
      010065D6H   LINE      CODE     ---       #1209
      010065E7H   LINE      CODE     ---       #1210
      01006603H   LINE      CODE     ---       #1211
      0100661FH   LINE      CODE     ---       #1213
      01006636H   LINE      CODE     ---       #1214
      0100663EH   LINE      CODE     ---       #1215
      01006655H   LINE      CODE     ---       #1216
      01006657H   LINE      CODE     ---       #1217
      0100666EH   LINE      CODE     ---       #1218
      0100666EH   LINE      CODE     ---       #1219
      0100668AH   LINE      CODE     ---       #1221
      010066A6H   LINE      CODE     ---       #1222
      010066C2H   LINE      CODE     ---       #1223
      010066DDH   LINE      CODE     ---       #1225
      01006746H   LINE      CODE     ---       #1226
      01006762H   LINE      CODE     ---       #1227
      0100677EH   LINE      CODE     ---       #1228
      0100678FH   LINE      CODE     ---       #1230
      010067BAH   LINE      CODE     ---       #1231
      010067D6H   LINE      CODE     ---       #1232
      010067F2H   LINE      CODE     ---       #1234
      0100681DH   LINE      CODE     ---       #1235
      01006839H   LINE      CODE     ---       #1236
      01006855H   LINE      CODE     ---       #1238
      01006880H   LINE      CODE     ---       #1239
      0100689CH   LINE      CODE     ---       #1240
      010068B8H   LINE      CODE     ---       #1243
      010068D4H   LINE      CODE     ---       #1245
      010068F0H   LINE      CODE     ---       #1246
      010068FBH   LINE      CODE     ---       #1247
      01006934H   LINE      CODE     ---       #1248
      01006950H   LINE      CODE     ---       #1249
      01006989H   LINE      CODE     ---       #1250
      010069A5H   LINE      CODE     ---       #1251
      010069DEH   LINE      CODE     ---       #1252
      010069FAH   LINE      CODE     ---       #1253
      010069FDH   LINE      CODE     ---       #1254
      010069FDH   LINE      CODE     ---       #1255
      01006A36H   LINE      CODE     ---       #1256
      01006A52H   LINE      CODE     ---       #1257
      01006A8BH   LINE      CODE     ---       #1258
      01006AA7H   LINE      CODE     ---       #1259
      01006AE0H   LINE      CODE     ---       #1260
      01006AFCH   LINE      CODE     ---       #1261
      01006AFCH   LINE      CODE     ---       #1263
      01006B18H   LINE      CODE     ---       #1264
      01006B23H   LINE      CODE     ---       #1265
      01006B5CH   LINE      CODE     ---       #1266
      01006B78H   LINE      CODE     ---       #1267
      01006BB1H   LINE      CODE     ---       #1268
      01006BCDH   LINE      CODE     ---       #1269
      01006C06H   LINE      CODE     ---       #1270
      01006C22H   LINE      CODE     ---       #1271
      01006C25H   LINE      CODE     ---       #1272
LX51 LINKER/LOCATER V4.64.0.0                                                         04/13/2018  12:12:27  PAGE 56


      01006C25H   LINE      CODE     ---       #1273
      01006C5EH   LINE      CODE     ---       #1274
      01006C7AH   LINE      CODE     ---       #1275
      01006CB3H   LINE      CODE     ---       #1276
      01006CCFH   LINE      CODE     ---       #1277
      01006D08H   LINE      CODE     ---       #1278
      01006D24H   LINE      CODE     ---       #1279
      01006D24H   LINE      CODE     ---       #1281
      01006D40H   LINE      CODE     ---       #1284
      01006D47H   LINE      CODE     ---       #1285
      01006D63H   LINE      CODE     ---       #1286
      01006D65H   LINE      CODE     ---       #1287
      01006D81H   LINE      CODE     ---       #1288
      01006D81H   LINE      CODE     ---       #1290
      01006DA9H   LINE      CODE     ---       #1291
      01006DA9H   LINE      CODE     ---       #1292
      01006DC5H   LINE      CODE     ---       #1293
      01006DC8H   LINE      CODE     ---       #1294
      01006DC8H   LINE      CODE     ---       #1295
      01006DE4H   LINE      CODE     ---       #1296
      01006DE7H   LINE      CODE     ---       #1297
      01006DE7H   LINE      CODE     ---       #1298
      01006E03H   LINE      CODE     ---       #1299
      01006E05H   LINE      CODE     ---       #1300
      01006E05H   LINE      CODE     ---       #1301
      01006E21H   LINE      CODE     ---       #1302
      01006E23H   LINE      CODE     ---       #1303
      01006E23H   LINE      CODE     ---       #1304
      01006E3FH   LINE      CODE     ---       #1305
      01006E41H   LINE      CODE     ---       #1306
      01006E41H   LINE      CODE     ---       #1307
      01006E5DH   LINE      CODE     ---       #1308
      01006E5FH   LINE      CODE     ---       #1309
      01006E5FH   LINE      CODE     ---       #1310
      01006E7BH   LINE      CODE     ---       #1311
      01006E7BH   LINE      CODE     ---       #1312
      01006E7BH   LINE      CODE     ---       #1314
      01006E8CH   LINE      CODE     ---       #1315
      01006E8CH   LINE      CODE     ---       #1316
      01006EA8H   LINE      CODE     ---       #1317
      01006EAAH   LINE      CODE     ---       #1318
      01006EAAH   LINE      CODE     ---       #1319
      01006EC6H   LINE      CODE     ---       #1320
      01006EC8H   LINE      CODE     ---       #1321
      01006EC8H   LINE      CODE     ---       #1322
      01006EE4H   LINE      CODE     ---       #1323
      01006EE6H   LINE      CODE     ---       #1324
      01006EE6H   LINE      CODE     ---       #1325
      01006F02H   LINE      CODE     ---       #1326
      01006F02H   LINE      CODE     ---       #1327
      01006F02H   LINE      CODE     ---       #1328
      01006F02H   LINE      CODE     ---       #1329
      01006F02H   LINE      CODE     ---       #1331
      01006F08H   LINE      CODE     ---       #1332
      01006F24H   LINE      CODE     ---       #1333
      01006F26H   LINE      CODE     ---       #1334
      01006F42H   LINE      CODE     ---       #1335
      01006F42H   LINE      CODE     ---       #1337
      01006F68H   LINE      CODE     ---       #1338
      01006F84H   LINE      CODE     ---       #1342
      01006FA0H   LINE      CODE     ---       #1343
      01006FBBH   LINE      CODE     ---       #1344
      01006FFAH   LINE      CODE     ---       #1345
      01007016H   LINE      CODE     ---       #1346
      01007032H   LINE      CODE     ---       #1347
LX51 LINKER/LOCATER V4.64.0.0                                                         04/13/2018  12:12:27  PAGE 57


      01007043H   LINE      CODE     ---       #1350
      0100705FH   LINE      CODE     ---       #1351
      0100707AH   LINE      CODE     ---       #1352
      010070E1H   LINE      CODE     ---       #1353
      010070FDH   LINE      CODE     ---       #1354
      01007119H   LINE      CODE     ---       #1355
      0100712AH   LINE      CODE     ---       #1357
      01007146H   LINE      CODE     ---       #1358
      01007161H   LINE      CODE     ---       #1359
      010071B2H   LINE      CODE     ---       #1360
      010071CEH   LINE      CODE     ---       #1361
      010071EAH   LINE      CODE     ---       #1362
      010071FBH   LINE      CODE     ---       #1364
      01007217H   LINE      CODE     ---       #1365
      0100726AH   LINE      CODE     ---       #1366
      01007286H   LINE      CODE     ---       #1367
      010072D9H   LINE      CODE     ---       #1368
      010072F5H   LINE      CODE     ---       #1369
      01007311H   LINE      CODE     ---       #1372
      01007335H   LINE      CODE     ---       #1373
      01007351H   LINE      CODE     ---       #1374
      0100736DH   LINE      CODE     ---       #1376
      01007388H   LINE      CODE     ---       #1378
      010073EFH   LINE      CODE     ---       #1379
      0100740BH   LINE      CODE     ---       #1382
      0100745FH   LINE      CODE     ---       #1383
      0100747BH   LINE      CODE     ---       #1384
      0100748CH   LINE      CODE     ---       #1386
      010074C9H   LINE      CODE     ---       #1387
      010074E5H   LINE      CODE     ---       #1388
      01007501H   LINE      CODE     ---       #1390
      01007527H   LINE      CODE     ---       #1391
      01007543H   LINE      CODE     ---       #1392
      0100755FH   LINE      CODE     ---       #1394
      01007585H   LINE      CODE     ---       #1395
      010075A1H   LINE      CODE     ---       #1396
      010075BDH   LINE      CODE     ---       #1397
      010075E3H   LINE      CODE     ---       #1398
      010075FFH   LINE      CODE     ---       #1399
      0100761BH   LINE      CODE     ---       #1401
      01007650H   LINE      CODE     ---       #1402
      0100766CH   LINE      CODE     ---       #1403
      01007688H   LINE      CODE     ---       #1405
      010076C7H   LINE      CODE     ---       #1406
      010076E3H   LINE      CODE     ---       #1407
      010076FFH   LINE      CODE     ---       #1409
      01007705H   LINE      CODE     ---       #1410
      01007721H   LINE      CODE     ---       #1411
      01007723H   LINE      CODE     ---       #1412
      0100773FH   LINE      CODE     ---       #1413
      0100773FH   LINE      CODE     ---       #1415
      01007763H   LINE      CODE     ---       #1416
      0100777FH   LINE      CODE     ---       #1417
      0100779BH   LINE      CODE     ---       #1419
      010077C6H   LINE      CODE     ---       #1420
      010077E2H   LINE      CODE     ---       #1421
      010077FEH   LINE      CODE     ---       #1423
      01007833H   LINE      CODE     ---       #1424
      0100784FH   LINE      CODE     ---       #1425
      0100786BH   LINE      CODE     ---       #1427
      010078A1H   LINE      CODE     ---       #1428
      010078BDH   LINE      CODE     ---       #1429
      010078D9H   LINE      CODE     ---       #1431
      01007904H   LINE      CODE     ---       #1432
      01007920H   LINE      CODE     ---       #1433
LX51 LINKER/LOCATER V4.64.0.0                                                         04/13/2018  12:12:27  PAGE 58


      0100793CH   LINE      CODE     ---       #1435
      01007942H   LINE      CODE     ---       #1436
      0100795EH   LINE      CODE     ---       #1437
      01007960H   LINE      CODE     ---       #1438
      0100797CH   LINE      CODE     ---       #1439
      0100797CH   LINE      CODE     ---       #1441
      01007982H   LINE      CODE     ---       #1442
      0100799EH   LINE      CODE     ---       #1443
      010079A0H   LINE      CODE     ---       #1444
      010079BCH   LINE      CODE     ---       #1445
      010079BCH   LINE      CODE     ---       #1447
      010079C2H   LINE      CODE     ---       #1448
      010079DEH   LINE      CODE     ---       #1449
      010079E0H   LINE      CODE     ---       #1450
      010079FCH   LINE      CODE     ---       #1451
      010079FCH   LINE      CODE     ---       #1453
      01007A40H   LINE      CODE     ---       #1454
      01007A5CH   LINE      CODE     ---       #1455
      01007A78H   LINE      CODE     ---       #1456
      01007A78H   LINE      CODE     ---       #1457
      ---         BLOCKEND  ---      ---       LVL=0

      0100D68BH   BLOCK     CODE     ---       LVL=0
      0200003CH   SYMBOL    XDATA    ---       packet_data
      0200003FH   SYMBOL    XDATA    WORD      packet_lenght
      02000041H   SYMBOL    XDATA    BYTE      old_id
      0100D69CH   BLOCK     CODE     NEAR LAB  LVL=1
      00000030H   SYMBOL    DATA     WORD      index
      ---         BLOCKEND  ---      ---       LVL=1
      0100D68BH   LINE      CODE     ---       #1463
      0100D69CH   LINE      CODE     ---       #1464
      0100D69CH   LINE      CODE     ---       #1468
      0100D6A1H   LINE      CODE     ---       #1469
      0100D6A6H   LINE      CODE     ---       #1472
      0100D6AEH   LINE      CODE     ---       #1477
      0100D6B8H   LINE      CODE     ---       #1479
      0100D6CCH   LINE      CODE     ---       #1480
      0100D6E4H   LINE      CODE     ---       #1481
      0100D6EEH   LINE      CODE     ---       #1483
      0100D6F3H   LINE      CODE     ---       #1485
      0100D70DH   LINE      CODE     ---       #1487
      0100D712H   LINE      CODE     ---       #1488
      0100D717H   LINE      CODE     ---       #1489
      ---         BLOCKEND  ---      ---       LVL=0

      0100D718H   BLOCK     CODE     ---       LVL=0
      02000EDBH   SYMBOL    XDATA    ---       packet_data
      02000EDEH   SYMBOL    XDATA    WORD      packet_lenght
      0100D729H   BLOCK     CODE     NEAR LAB  LVL=1
      0000004DH   SYMBOL    DATA     WORD      index
      ---         BLOCKEND  ---      ---       LVL=1
      0100D718H   LINE      CODE     ---       #1491
      0100D729H   LINE      CODE     ---       #1492
      0100D729H   LINE      CODE     ---       #1496
      0100D72EH   LINE      CODE     ---       #1497
      0100D733H   LINE      CODE     ---       #1499
      0100D73BH   LINE      CODE     ---       #1501
      0100D745H   LINE      CODE     ---       #1503
      0100D759H   LINE      CODE     ---       #1504
      0100D771H   LINE      CODE     ---       #1505
      0100D77BH   LINE      CODE     ---       #1507
      0100D780H   LINE      CODE     ---       #1509
      0100D79AH   LINE      CODE     ---       #1511
      0100D79FH   LINE      CODE     ---       #1512
      0100D7A4H   LINE      CODE     ---       #1513
LX51 LINKER/LOCATER V4.64.0.0                                                         04/13/2018  12:12:27  PAGE 59


      ---         BLOCKEND  ---      ---       LVL=0

      0100D0E3H   BLOCK     CODE     ---       LVL=0
      0100D0E3H   BLOCK     CODE     NEAR LAB  LVL=1
      02000002H   SYMBOL    XDATA    ---       packet_data
      00000007H   SYMBOL    DATA     BYTE      packet_lenght
      0200000CH   SYMBOL    XDATA    LONG      aux_val
      02000010H   SYMBOL    XDATA    DWORD     t_start
      02000014H   SYMBOL    XDATA    DWORD     t_end
      ---         BLOCKEND  ---      ---       LVL=1
      0100D0E3H   LINE      CODE     ---       #1519
      0100D0E3H   LINE      CODE     ---       #1520
      0100D0E3H   LINE      CODE     ---       #1523
      0100D0EEH   LINE      CODE     ---       #1526
      0100D0F0H   LINE      CODE     ---       #1527
      0100D0F6H   LINE      CODE     ---       #1528
      0100D0F8H   LINE      CODE     ---       #1529
      0100D10DH   LINE      CODE     ---       #1531
      0100D116H   LINE      CODE     ---       #1532
      0100D11EH   LINE      CODE     ---       #1533
      0100D121H   LINE      CODE     ---       #1534
      0100D123H   LINE      CODE     ---       #1535
      0100D126H   LINE      CODE     ---       #1536
      0100D126H   LINE      CODE     ---       #1538
      0100D12FH   LINE      CODE     ---       #1539
      0100D164H   LINE      CODE     ---       #1540
      0100D169H   LINE      CODE     ---       #1541
      0100D169H   LINE      CODE     ---       #1542
      0100D169H   LINE      CODE     ---       #1543
      0100D169H   LINE      CODE     ---       #1545
      0100D16FH   LINE      CODE     ---       #1546
      0100D183H   LINE      CODE     ---       #1548
      0100D1A0H   LINE      CODE     ---       #1549
      0100D1A0H   LINE      CODE     ---       #1551
      0100D1AEH   LINE      CODE     ---       #1552
      ---         BLOCKEND  ---      ---       LVL=0

      0100CF2DH   BLOCK     CODE     ---       LVL=0
      0100CF2DH   BLOCK     CODE     NEAR LAB  LVL=1
      0200000EH   SYMBOL    XDATA    ---       packet_data
      00000007H   SYMBOL    DATA     BYTE      packet_lenght
      0200001EH   SYMBOL    XDATA    INT       curr_diff
      02000020H   SYMBOL    XDATA    DWORD     t_start
      02000024H   SYMBOL    XDATA    DWORD     t_end
      02000028H   SYMBOL    XDATA    LONG      aux_val
      ---         BLOCKEND  ---      ---       LVL=1
      0100CF2DH   LINE      CODE     ---       #1559
      0100CF2DH   LINE      CODE     ---       #1560
      0100CF2DH   LINE      CODE     ---       #1563
      0100CF34H   LINE      CODE     ---       #1565
      0100CF3EH   LINE      CODE     ---       #1567
      0100CF40H   LINE      CODE     ---       #1568
      0100CF46H   LINE      CODE     ---       #1569
      0100CF48H   LINE      CODE     ---       #1570
      0100CF5DH   LINE      CODE     ---       #1572
      0100CF66H   LINE      CODE     ---       #1573
      0100CF6EH   LINE      CODE     ---       #1574
      0100CF71H   LINE      CODE     ---       #1575
      0100CF73H   LINE      CODE     ---       #1576
      0100CF76H   LINE      CODE     ---       #1577
      0100CF76H   LINE      CODE     ---       #1579
      0100CF7FH   LINE      CODE     ---       #1580
      0100CFB4H   LINE      CODE     ---       #1581
      0100CFB9H   LINE      CODE     ---       #1582
      0100CFB9H   LINE      CODE     ---       #1583
LX51 LINKER/LOCATER V4.64.0.0                                                         04/13/2018  12:12:27  PAGE 60


      0100CFB9H   LINE      CODE     ---       #1584
      0100CFB9H   LINE      CODE     ---       #1586
      0100CFBFH   LINE      CODE     ---       #1587
      0100CFCEH   LINE      CODE     ---       #1589
      0100CFE2H   LINE      CODE     ---       #1590
      0100CFFFH   LINE      CODE     ---       #1591
      0100CFFFH   LINE      CODE     ---       #1593
      0100D007H   LINE      CODE     ---       #1594
      ---         BLOCKEND  ---      ---       LVL=0

      0100DA43H   BLOCK     CODE     ---       LVL=0
      0200002CH   SYMBOL    XDATA    ---       packet_data
      0200002FH   SYMBOL    XDATA    WORD      packet_lenght
      02000031H   SYMBOL    XDATA    BYTE      id
      0100DA54H   BLOCK     CODE     NEAR LAB  LVL=1
      0000001EH   SYMBOL    DATA     WORD      i
      ---         BLOCKEND  ---      ---       LVL=1
      0100DA43H   LINE      CODE     ---       #1600
      0100DA54H   LINE      CODE     ---       #1601
      0100DA54H   LINE      CODE     ---       #1605
      0100DA59H   LINE      CODE     ---       #1606
      0100DA5EH   LINE      CODE     ---       #1608
      0100DA66H   LINE      CODE     ---       #1610
      0100DA70H   LINE      CODE     ---       #1612
      0100DA84H   LINE      CODE     ---       #1613
      0100DA9CH   LINE      CODE     ---       #1614
      0100DAA6H   LINE      CODE     ---       #1616
      0100DAABH   LINE      CODE     ---       #1618
      0100DAC5H   LINE      CODE     ---       #1619
      ---         BLOCKEND  ---      ---       LVL=0

      0100D5E1H   BLOCK     CODE     ---       LVL=0
      0100D5E1H   BLOCK     CODE     NEAR LAB  LVL=1
      02000002H   SYMBOL    XDATA    ---       packet_data
      02000008H   SYMBOL    XDATA    BYTE      packet_lenght
      ---         BLOCKEND  ---      ---       LVL=1
      0100D5E1H   LINE      CODE     ---       #1625
      0100D5E1H   LINE      CODE     ---       #1630
      0100D603H   LINE      CODE     ---       #1635
      0100D603H   LINE      CODE     ---       #1636
      0100D609H   LINE      CODE     ---       #1638
      0100D609H   LINE      CODE     ---       #1640
      0100D624H   LINE      CODE     ---       #1641
      0100D62AH   LINE      CODE     ---       #1643
      0100D62AH   LINE      CODE     ---       #1647
      0100D630H   LINE      CODE     ---       #1648
      0100D64FH   LINE      CODE     ---       #1649
      0100D654H   LINE      CODE     ---       #1650
      0100D65AH   LINE      CODE     ---       #1651
      0100D675H   LINE      CODE     ---       #1652
      0100D68AH   LINE      CODE     ---       #1654
      ---         BLOCKEND  ---      ---       LVL=0

      0100CC5DH   BLOCK     CODE     ---       LVL=0
      0100CC5DH   BLOCK     CODE     NEAR LAB  LVL=1
      00000023H   SYMBOL    DATA     ---       packet_data
      00000006H   SYMBOL    DATA     INT       curr_diff
      02000002H   SYMBOL    XDATA    LONG      aux_val
      02000006H   SYMBOL    XDATA    LONG      aux_p1
      0200000AH   SYMBOL    XDATA    LONG      aux_p2
      ---         BLOCKEND  ---      ---       LVL=1
      0100CC5DH   LINE      CODE     ---       #1662
      0100CC5DH   LINE      CODE     ---       #1668
      0100CC60H   LINE      CODE     ---       #1671
      0100CC73H   LINE      CODE     ---       #1672
LX51 LINKER/LOCATER V4.64.0.0                                                         04/13/2018  12:12:27  PAGE 61


      0100CC78H   LINE      CODE     ---       #1674
      0100CC8BH   LINE      CODE     ---       #1675
      0100CC90H   LINE      CODE     ---       #1677
      0100CC9FH   LINE      CODE     ---       #1679
      0100CCD6H   LINE      CODE     ---       #1681
      0100CCF6H   LINE      CODE     ---       #1682
      0100CD13H   LINE      CODE     ---       #1685
      0100CD16H   LINE      CODE     ---       #1686
      0100CD2DH   LINE      CODE     ---       #1687
      0100CD42H   LINE      CODE     ---       #1688
      0100CD4FH   LINE      CODE     ---       #1689
      0100CD64H   LINE      CODE     ---       #1691
      ---         BLOCKEND  ---      ---       LVL=0

      0100E353H   BLOCK     CODE     ---       LVL=0
      0100E353H   BLOCK     CODE     NEAR LAB  LVL=1
      00000023H   SYMBOL    DATA     ---       packet_data
      ---         BLOCKEND  ---      ---       LVL=1
      0100E353H   LINE      CODE     ---       #1698
      0100E353H   LINE      CODE     ---       #1702
      0100E35CH   LINE      CODE     ---       #1705
      0100E35FH   LINE      CODE     ---       #1706
      0100E37AH   LINE      CODE     ---       #1707
      0100E395H   LINE      CODE     ---       #1708
      0100E3A2H   LINE      CODE     ---       #1709
      0100E3B7H   LINE      CODE     ---       #1711
      ---         BLOCKEND  ---      ---       LVL=0

      0100E4D4H   BLOCK     CODE     ---       LVL=0
      0100E4D4H   BLOCK     CODE     NEAR LAB  LVL=1
      02000002H   SYMBOL    XDATA    ---       packet_data
      0200000CH   SYMBOL    XDATA    BYTE      packet_lenght
      ---         BLOCKEND  ---      ---       LVL=1
      0100E4D4H   LINE      CODE     ---       #1717
      0100E4D4H   LINE      CODE     ---       #1722
      0100E4ECH   LINE      CODE     ---       #1725
      0100E4ECH   LINE      CODE     ---       #1726
      0100E4F2H   LINE      CODE     ---       #1728
      0100E4F2H   LINE      CODE     ---       #1731
      0100E4F8H   LINE      CODE     ---       #1733
      0100E4FDH   LINE      CODE     ---       #1734
      0100E503H   LINE      CODE     ---       #1735
      0100E51EH   LINE      CODE     ---       #1737
      0100E52BH   LINE      CODE     ---       #1739
      ---         BLOCKEND  ---      ---       LVL=0

      0100EC79H   BLOCK     CODE     ---       LVL=0
      02000EDBH   SYMBOL    XDATA    ---       data_array
      00000005H   SYMBOL    DATA     BYTE      data_length
      0100EC84H   BLOCK     CODE     NEAR LAB  LVL=1
      0000004DH   SYMBOL    DATA     BYTE      i
      0000004EH   SYMBOL    DATA     BYTE      checksum
      ---         BLOCKEND  ---      ---       LVL=1
      0100EC79H   LINE      CODE     ---       #1747
      0100EC84H   LINE      CODE     ---       #1750
      0100EC87H   LINE      CODE     ---       #1752
      0100EC8FH   LINE      CODE     ---       #1753
      0100ECA8H   LINE      CODE     ---       #1755
      0100ECAAH   LINE      CODE     ---       #1756
      ---         BLOCKEND  ---      ---       LVL=0

      0100F0C2H   BLOCK     CODE     ---       LVL=0
      00000007H   SYMBOL    DATA     BYTE      value
      0100F0C2H   BLOCK     CODE     NEAR LAB  LVL=1
      00000004H   SYMBOL    DATA     INT       packet_lenght
LX51 LINKER/LOCATER V4.64.0.0                                                         04/13/2018  12:12:27  PAGE 62


      0200003CH   SYMBOL    XDATA    ---       packet_data
      ---         BLOCKEND  ---      ---       LVL=1
      0100F0C2H   LINE      CODE     ---       #1763
      0100F0C2H   LINE      CODE     ---       #1764
      0100F0C6H   LINE      CODE     ---       #1767
      0100F0CBH   LINE      CODE     ---       #1768
      0100F0CDH   LINE      CODE     ---       #1770
      0100F0D6H   LINE      CODE     ---       #1771
      ---         BLOCKEND  ---      ---       LVL=0

      0100D1AFH   BLOCK     CODE     ---       LVL=0
      0200003CH   SYMBOL    XDATA    INT       displacement
      0100D1B7H   BLOCK     CODE     NEAR LAB  LVL=1
      0200003EH   SYMBOL    XDATA    INT       i
      00000007H   SYMBOL    DATA     BYTE      writeStatus
      02000040H   SYMBOL    XDATA    INT       pages
      02000042H   SYMBOL    XDATA    BYTE      ret_val
      ---         BLOCKEND  ---      ---       LVL=1
      0100D1AFH   LINE      CODE     ---       #1778
      0100D1B7H   LINE      CODE     ---       #1779
      0100D1B7H   LINE      CODE     ---       #1783
      0100D1BDH   LINE      CODE     ---       #1786
      0100D1C0H   LINE      CODE     ---       #1789
      0100D1C5H   LINE      CODE     ---       #1790
      0100D1CAH   LINE      CODE     ---       #1793
      0100D1CDH   LINE      CODE     ---       #1795
      0100D1E0H   LINE      CODE     ---       #1797
      0100D1E9H   LINE      CODE     ---       #1799
      0100D20CH   LINE      CODE     ---       #1800
      0100D231H   LINE      CODE     ---       #1801
      0100D234H   LINE      CODE     ---       #1802
      0100D239H   LINE      CODE     ---       #1803
      0100D23BH   LINE      CODE     ---       #1804
      0100D23BH   LINE      CODE     ---       #1805
      0100D24BH   LINE      CODE     ---       #1807
      0100D25EH   LINE      CODE     ---       #1810
      0100D261H   LINE      CODE     ---       #1812
      0100D266H   LINE      CODE     ---       #1813
      ---         BLOCKEND  ---      ---       LVL=0

      0100E6C9H   BLOCK     CODE     ---       LVL=0
      0100E6C9H   BLOCK     CODE     NEAR LAB  LVL=1
      00000006H   SYMBOL    DATA     WORD      i
      ---         BLOCKEND  ---      ---       LVL=1
      0100E6C9H   LINE      CODE     ---       #1821
      0100E6C9H   LINE      CODE     ---       #1822
      0100E6C9H   LINE      CODE     ---       #1825
      0100E6D5H   LINE      CODE     ---       #1826
      0100E6F1H   LINE      CODE     ---       #1827
      0100E6F8H   LINE      CODE     ---       #1830
      0100E6FEH   LINE      CODE     ---       #1831
      0100E701H   LINE      CODE     ---       #1832
      0100E702H   LINE      CODE     ---       #1833
      0100E715H   LINE      CODE     ---       #1834
      0100E715H   LINE      CODE     ---       #1835
      ---         BLOCKEND  ---      ---       LVL=0

      0100E7F4H   BLOCK     CODE     ---       LVL=0
      0100E7F4H   BLOCK     CODE     NEAR LAB  LVL=1
      00000006H   SYMBOL    DATA     WORD      i
      ---         BLOCKEND  ---      ---       LVL=1
      0100E7F4H   LINE      CODE     ---       #1843
      0100E7F4H   LINE      CODE     ---       #1846
      0100E800H   LINE      CODE     ---       #1847
      0100E824H   LINE      CODE     ---       #1848
LX51 LINKER/LOCATER V4.64.0.0                                                         04/13/2018  12:12:27  PAGE 63


      0100E82BH   LINE      CODE     ---       #1851
      0100E831H   LINE      CODE     ---       #1852
      0100E835H   LINE      CODE     ---       #1853
      0100E835H   LINE      CODE     ---       #1854
      0100E83BH   LINE      CODE     ---       #1855
      0100E83BH   LINE      CODE     ---       #1856
      ---         BLOCKEND  ---      ---       LVL=0

      0100B657H   BLOCK     CODE     ---       LVL=0
      0100B657H   BLOCK     CODE     NEAR LAB  LVL=1
      00000003H   SYMBOL    DATA     BYTE      i
      ---         BLOCKEND  ---      ---       LVL=1
      0100B657H   LINE      CODE     ---       #1862
      0100B657H   LINE      CODE     ---       #1863
      0100B657H   LINE      CODE     ---       #1867
      0100B65DH   LINE      CODE     ---       #1869
      0100B668H   LINE      CODE     ---       #1870
      0100B673H   LINE      CODE     ---       #1871
      0100B680H   LINE      CODE     ---       #1872
      0100B68CH   LINE      CODE     ---       #1873
      0100B698H   LINE      CODE     ---       #1874
      0100B6A3H   LINE      CODE     ---       #1876
      0100B6B0H   LINE      CODE     ---       #1877
      0100B6BBH   LINE      CODE     ---       #1878
      0100B6C6H   LINE      CODE     ---       #1879
      0100B6D3H   LINE      CODE     ---       #1880
      0100B6DFH   LINE      CODE     ---       #1881
      0100B6EAH   LINE      CODE     ---       #1883
      0100B6F0H   LINE      CODE     ---       #1884
      0100B6F3H   LINE      CODE     ---       #1885
      0100B6F5H   LINE      CODE     ---       #1887
      0100B6FAH   LINE      CODE     ---       #1889
      0100B6FFH   LINE      CODE     ---       #1891
      0100B705H   LINE      CODE     ---       #1892
      0100B707H   LINE      CODE     ---       #1893
      0100B709H   LINE      CODE     ---       #1895
      0100B711H   LINE      CODE     ---       #1896
      0100B727H   LINE      CODE     ---       #1897
      0100B748H   LINE      CODE     ---       #1898
      0100B74BH   LINE      CODE     ---       #1900
      0100B753H   LINE      CODE     ---       #1901
      0100B753H   LINE      CODE     ---       #1902
      0100B76BH   LINE      CODE     ---       #1903
      0100B791H   LINE      CODE     ---       #1904
      0100B794H   LINE      CODE     ---       #1906
      0100B79FH   LINE      CODE     ---       #1907
      0100B7A6H   LINE      CODE     ---       #1908
      0100B7AAH   LINE      CODE     ---       #1910
      0100B7B4H   LINE      CODE     ---       #1911
      0100B7BFH   LINE      CODE     ---       #1913
      0100B7C9H   LINE      CODE     ---       #1916
      0100B7CEH   LINE      CODE     ---       #1918
      0100B7D7H   LINE      CODE     ---       #1919
      0100B7E3H   LINE      CODE     ---       #1921
      0100B7ECH   LINE      CODE     ---       #1922
      0100B7F3H   LINE      CODE     ---       #1924
      0100B7F7H   LINE      CODE     ---       #1926
      0100B7FBH   LINE      CODE     ---       #1927
      0100B7FFH   LINE      CODE     ---       #1930
      0100B805H   LINE      CODE     ---       #1931
      0100B81BH   LINE      CODE     ---       #1932
      0100B829H   LINE      CODE     ---       #1933
      0100B835H   LINE      CODE     ---       #1934
      0100B842H   LINE      CODE     ---       #1936
      0100B847H   LINE      CODE     ---       #1937
LX51 LINKER/LOCATER V4.64.0.0                                                         04/13/2018  12:12:27  PAGE 64


      0100B849H   LINE      CODE     ---       #1938
      0100B84BH   LINE      CODE     ---       #1940
      0100B857H   LINE      CODE     ---       #1941
      0100B861H   LINE      CODE     ---       #1942
      0100B868H   LINE      CODE     ---       #1943
      0100B873H   LINE      CODE     ---       #1944
      0100B890H   LINE      CODE     ---       #1946
      0100B896H   LINE      CODE     ---       #1947
      0100B89AH   LINE      CODE     ---       #1948
      0100B89DH   LINE      CODE     ---       #1950
      0100B8A4H   LINE      CODE     ---       #1951
      0100B8ABH   LINE      CODE     ---       #1953
      0100B8B0H   LINE      CODE     ---       #1956
      0100B8C9H   LINE      CODE     ---       #1957
      ---         BLOCKEND  ---      ---       LVL=0

      0100E211H   BLOCK     CODE     ---       LVL=0
      0100E211H   BLOCK     CODE     NEAR LAB  LVL=1
      0000002CH   SYMBOL    DATA     BYTE      index
      0200002CH   SYMBOL    XDATA    ---       packet_data
      ---         BLOCKEND  ---      ---       LVL=1
      0100E211H   LINE      CODE     ---       #1966
      0100E211H   LINE      CODE     ---       #1975
      0100E217H   LINE      CODE     ---       #1977
      0100E221H   LINE      CODE     ---       #1978
      0100E260H   LINE      CODE     ---       #1982
      0100E270H   LINE      CODE     ---       #1984
      0100E27CH   LINE      CODE     ---       #1986
      ---         BLOCKEND  ---      ---       LVL=0

      0100BCA3H   BLOCK     CODE     ---       LVL=0
      0100BCA3H   LINE      CODE     ---       #1988
      0100BCA3H   LINE      CODE     ---       #1992
      0100BCABH   LINE      CODE     ---       #1993
      0100BCBFH   LINE      CODE     ---       #1994
      0100BCD3H   LINE      CODE     ---       #1995
      0100BCD6H   LINE      CODE     ---       #1996
      0100BCD6H   LINE      CODE     ---       #1997
      0100BCDAH   LINE      CODE     ---       #1998
      0100BCEEH   LINE      CODE     ---       #1999
      0100BD02H   LINE      CODE     ---       #2000
      0100BD04H   LINE      CODE     ---       #2001
      0100BD04H   LINE      CODE     ---       #2002
      0100BD18H   LINE      CODE     ---       #2003
      0100BD35H   LINE      CODE     ---       #2005
      0100BD49H   LINE      CODE     ---       #2006
      0100BD66H   LINE      CODE     ---       #2007
      0100BD66H   LINE      CODE     ---       #2008
      0100BD66H   LINE      CODE     ---       #2012
      0100BD7EH   LINE      CODE     ---       #2014
      0100BD7EH   LINE      CODE     ---       #2016
      0100BDA0H   LINE      CODE     ---       #2017
      0100BDB4H   LINE      CODE     ---       #2018
      0100BDD6H   LINE      CODE     ---       #2019
      0100BDEAH   LINE      CODE     ---       #2021
      0100BE0CH   LINE      CODE     ---       #2022
      0100BE20H   LINE      CODE     ---       #2023
      0100BE42H   LINE      CODE     ---       #2024
      0100BE56H   LINE      CODE     ---       #2025
      0100BE56H   LINE      CODE     ---       #2026
      ---         BLOCKEND  ---      ---       LVL=0

      0100E880H   BLOCK     CODE     ---       LVL=0
      0100E880H   LINE      CODE     ---       #2028
      0100E880H   LINE      CODE     ---       #2031
LX51 LINKER/LOCATER V4.64.0.0                                                         04/13/2018  12:12:27  PAGE 65


      0100E888H   LINE      CODE     ---       #2034
      0100E892H   LINE      CODE     ---       #2035
      0100E8A6H   LINE      CODE     ---       #2036
      0100E8BAH   LINE      CODE     ---       #2037
      0100E8BAH   LINE      CODE     ---       #2040
      0100E8C2H   LINE      CODE     ---       #2041
      ---         BLOCKEND  ---      ---       LVL=0

      0100EE25H   BLOCK     CODE     ---       LVL=0
      0100EE25H   BLOCK     CODE     NEAR LAB  LVL=1
      0200002CH   SYMBOL    XDATA    ---       packet_data
      ---         BLOCKEND  ---      ---       LVL=1
      0100EE25H   LINE      CODE     ---       #2043
      0100EE25H   LINE      CODE     ---       #2048
      0100EE2BH   LINE      CODE     ---       #2051
      0100EE33H   LINE      CODE     ---       #2054
      0100EE43H   LINE      CODE     ---       #2057
      0100EE4FH   LINE      CODE     ---       #2059
      ---         BLOCKEND  ---      ---       LVL=0

      0100E8C3H   BLOCK     CODE     ---       LVL=0
      0100E8C3H   BLOCK     CODE     NEAR LAB  LVL=1
      0200002CH   SYMBOL    XDATA    ---       packet_data
      ---         BLOCKEND  ---      ---       LVL=1
      0100E8C3H   LINE      CODE     ---       #2061
      0100E8C3H   LINE      CODE     ---       #2065
      0100E8C9H   LINE      CODE     ---       #2067
      0100E8D8H   LINE      CODE     ---       #2068
      0100E8E7H   LINE      CODE     ---       #2070
      0100E8F7H   LINE      CODE     ---       #2072
      0100E903H   LINE      CODE     ---       #2073
      ---         BLOCKEND  ---      ---       LVL=0

      0100D93CH   BLOCK     CODE     ---       LVL=0
      0100D93CH   BLOCK     CODE     NEAR LAB  LVL=1
      0000002CH   SYMBOL    DATA     BYTE      index
      0200002CH   SYMBOL    XDATA    ---       packet_data
      ---         BLOCKEND  ---      ---       LVL=1
      0100D93CH   LINE      CODE     ---       #2075
      0100D93CH   LINE      CODE     ---       #2084
      0100D942H   LINE      CODE     ---       #2087
      0100D955H   LINE      CODE     ---       #2088
      0100D95AH   LINE      CODE     ---       #2091
      0100D964H   LINE      CODE     ---       #2092
      0100D9A3H   LINE      CODE     ---       #2096
      0100D9B3H   LINE      CODE     ---       #2097
      0100D9BFH   LINE      CODE     ---       #2099
      ---         BLOCKEND  ---      ---       LVL=0

      0100EA77H   BLOCK     CODE     ---       LVL=0
      0100EA77H   BLOCK     CODE     NEAR LAB  LVL=1
      0200002CH   SYMBOL    XDATA    ---       packet_data
      ---         BLOCKEND  ---      ---       LVL=1
      0100EA77H   LINE      CODE     ---       #2101
      0100EA77H   LINE      CODE     ---       #2109
      0100EA7DH   LINE      CODE     ---       #2111
      0100EA90H   LINE      CODE     ---       #2112
      0100EA95H   LINE      CODE     ---       #2116
      0100EAA5H   LINE      CODE     ---       #2118
      0100EAB1H   LINE      CODE     ---       #2119
      ---         BLOCKEND  ---      ---       LVL=0

      0100EF49H   BLOCK     CODE     ---       LVL=0
      0100EF49H   LINE      CODE     ---       #2121
      0100EF49H   LINE      CODE     ---       #2124
LX51 LINKER/LOCATER V4.64.0.0                                                         04/13/2018  12:12:27  PAGE 66


      0100EF51H   LINE      CODE     ---       #2126
      0100EF55H   LINE      CODE     ---       #2127
      0100EF55H   LINE      CODE     ---       #2128
      0100EF5EH   LINE      CODE     ---       #2129
      0100EF5FH   LINE      CODE     ---       #2130
      0100EF5FH   LINE      CODE     ---       #2131
      0100EF68H   LINE      CODE     ---       #2132
      0100EF68H   LINE      CODE     ---       #2133
      ---         BLOCKEND  ---      ---       LVL=0

      0100F116H   BLOCK     CODE     ---       LVL=0
      0100F116H   BLOCK     CODE     NEAR LAB  LVL=1
      0200002CH   SYMBOL    XDATA    ---       packet_data
      ---         BLOCKEND  ---      ---       LVL=1
      0100F116H   LINE      CODE     ---       #2135
      0100F116H   LINE      CODE     ---       #2140
      0100F11BH   LINE      CODE     ---       #2143
      0100F11DH   LINE      CODE     ---       #2146
      0100F129H   LINE      CODE     ---       #2147
      ---         BLOCKEND  ---      ---       LVL=0

      0100E904H   BLOCK     CODE     ---       LVL=0
      0100E904H   LINE      CODE     ---       #2149
      0100E904H   LINE      CODE     ---       #2151
      0100E90DH   LINE      CODE     ---       #2153
      0100E912H   LINE      CODE     ---       #2154
      0100E917H   LINE      CODE     ---       #2155
      0100E918H   LINE      CODE     ---       #2156
      0100E918H   LINE      CODE     ---       #2158
      0100E921H   LINE      CODE     ---       #2159
      0100E924H   LINE      CODE     ---       #2164
      0100E93CH   LINE      CODE     ---       #2165
      0100E93FH   LINE      CODE     ---       #2166
      0100E944H   LINE      CODE     ---       #2167
      0100E944H   LINE      CODE     ---       #2168
      ---         BLOCKEND  ---      ---       LVL=0

      0100E3B8H   BLOCK     CODE     ---       LVL=0
      0100E3B8H   BLOCK     CODE     NEAR LAB  LVL=1
      0200002CH   SYMBOL    XDATA    ---       packet_data
      ---         BLOCKEND  ---      ---       LVL=1
      0100E3B8H   LINE      CODE     ---       #2170
      0100E3B8H   LINE      CODE     ---       #2178
      0100E3BEH   LINE      CODE     ---       #2180
      0100E3DDH   LINE      CODE     ---       #2181
      0100E3FCH   LINE      CODE     ---       #2185
      0100E40CH   LINE      CODE     ---       #2187
      0100E418H   LINE      CODE     ---       #2188
      ---         BLOCKEND  ---      ---       LVL=0

      0100B34FH   BLOCK     CODE     ---       LVL=0
      0100B34FH   BLOCK     CODE     NEAR LAB  LVL=1
      0200002CH   SYMBOL    XDATA    DWORD     off_1
      02000030H   SYMBOL    XDATA    DWORD     off_2
      02000034H   SYMBOL    XDATA    FLOAT     mult_1
      02000038H   SYMBOL    XDATA    FLOAT     mult_2
      0000002CH   SYMBOL    DATA     BYTE      packet_lenght
      0000002DH   SYMBOL    DATA     ---       packet_data
      0000002FH   SYMBOL    DATA     BYTE      old_id
      ---         BLOCKEND  ---      ---       LVL=1
      0100B34FH   LINE      CODE     ---       #2190
      0100B34FH   LINE      CODE     ---       #2195
      0100B352H   LINE      CODE     ---       #2199
      0100B35BH   LINE      CODE     ---       #2200
      0100B36FH   LINE      CODE     ---       #2201
LX51 LINKER/LOCATER V4.64.0.0                                                         04/13/2018  12:12:27  PAGE 67


      0100B383H   LINE      CODE     ---       #2202
      0100B397H   LINE      CODE     ---       #2203
      0100B3ABH   LINE      CODE     ---       #2205
      0100B3D7H   LINE      CODE     ---       #2206
      0100B403H   LINE      CODE     ---       #2208
      0100B42FH   LINE      CODE     ---       #2209
      0100B45BH   LINE      CODE     ---       #2211
      0100B4B9H   LINE      CODE     ---       #2212
      0100B517H   LINE      CODE     ---       #2216
      0100B520H   LINE      CODE     ---       #2217
      0100B540H   LINE      CODE     ---       #2218
      0100B554H   LINE      CODE     ---       #2219
      0100B576H   LINE      CODE     ---       #2220
      0100B58AH   LINE      CODE     ---       #2222
      0100B5ACH   LINE      CODE     ---       #2223
      0100B5C0H   LINE      CODE     ---       #2224
      0100B5E2H   LINE      CODE     ---       #2225
      0100B5F6H   LINE      CODE     ---       #2226
      0100B5F6H   LINE      CODE     ---       #2227
      0100B5F6H   LINE      CODE     ---       #2230
      0100B603H   LINE      CODE     ---       #2231
      0100B605H   LINE      CODE     ---       #2232
      0100B60EH   LINE      CODE     ---       #2233
      0100B611H   LINE      CODE     ---       #2234
      0100B614H   LINE      CODE     ---       #2235
      0100B628H   LINE      CODE     ---       #2236
      0100B629H   LINE      CODE     ---       #2237
      0100B629H   LINE      CODE     ---       #2238
      0100B62CH   LINE      CODE     ---       #2239
      0100B62EH   LINE      CODE     ---       #2240
      0100B641H   LINE      CODE     ---       #2241
      0100B641H   LINE      CODE     ---       #2242
      0100B642H   LINE      CODE     ---       #2243
      0100B642H   LINE      CODE     ---       #2244
      0100B64BH   LINE      CODE     ---       #2245
      0100B651H   LINE      CODE     ---       #2247
      0100B656H   LINE      CODE     ---       #2248
      0100B656H   LINE      CODE     ---       #2249
      ---         BLOCKEND  ---      ---       LVL=0

      0100E7ABH   BLOCK     CODE     ---       LVL=0
      0100E7ABH   BLOCK     CODE     NEAR LAB  LVL=1
      0200002CH   SYMBOL    XDATA    ---       packet_data
      ---         BLOCKEND  ---      ---       LVL=1
      0100E7ABH   LINE      CODE     ---       #2251
      0100E7ABH   LINE      CODE     ---       #2256
      0100E7B1H   LINE      CODE     ---       #2258
      0100E7C4H   LINE      CODE     ---       #2259
      0100E7D7H   LINE      CODE     ---       #2261
      0100E7E7H   LINE      CODE     ---       #2263
      0100E7F3H   LINE      CODE     ---       #2265
      ---         BLOCKEND  ---      ---       LVL=0

      ---         MODULE    ---      ---       GLOBALS
      020011E2H   PUBLIC    XDATA    ---       calib
      020011E1H   PUBLIC    XDATA    BYTE      dev_pwm_limit
      00000021H.5 PUBLIC    BIT      BIT       tension_valid
      00000021H.4 PUBLIC    BIT      BIT       interrupt_flag
      020011E0H   PUBLIC    XDATA    BYTE      rest_enabled
      020011A5H   PUBLIC    XDATA    ---       g_meas
      020011A1H   PUBLIC    XDATA    LONG      dev_tension_f
      020011A0H   PUBLIC    XDATA    CHAR      pwm_sign
      02001198H   PUBLIC    XDATA    ---       ADC_buf
      02001194H   PUBLIC    XDATA    LONG      SH_current_position
      02001190H   PUBLIC    XDATA    FLOAT     tau_feedback
LX51 LINKER/LOCATER V4.64.0.0                                                         04/13/2018  12:12:27  PAGE 68


      0200118CH   PUBLIC    XDATA    DWORD     timer_value0
      00000021H.3 PUBLIC    BIT      BIT       watchdog_flag
      02001188H   PUBLIC    XDATA    LONG      pow_tension
      00000021H.2 PUBLIC    BIT      BIT       reset_last_value_flag
      02001184H   PUBLIC    XDATA    LONG      rest_pos_curr_ref
      0200116BH   PUBLIC    XDATA    ---       g_refNew
      020010E6H   PUBLIC    XDATA    ---       g_rx
      020010CDH   PUBLIC    XDATA    ---       g_refOld
      020010C9H   PUBLIC    XDATA    LONG      dev_tension
      020010C5H   PUBLIC    XDATA    DWORD     timer_value
      020010C1H   PUBLIC    XDATA    LONG      curr_pos_res
      020010C0H   PUBLIC    XDATA    BYTE      master_mode
      02001085H   PUBLIC    XDATA    ---       g_measOld
      02001084H   PUBLIC    XDATA    BYTE      forced_open
      02000FC3H   PUBLIC    XDATA    ---       g_mem
      02000FAAH   PUBLIC    XDATA    ---       g_ref
      02000FA6H   PUBLIC    XDATA    DWORD     count_tension_valid
      02000FA5H   PUBLIC    XDATA    BYTE      first_tension_valid
      02000EE4H   PUBLIC    XDATA    ---       c_mem
      000000CAH   SFRSYM    DATA     BYTE      SFRPRT5SEL
      000000DAH   SFRSYM    DATA     BYTE      SFRPRT6SEL
      000000D0H.6 SFRSYM    DATA     BIT       AC
      000000A8H.7 SFRSYM    DATA     BIT       EA
      000000A8H   SFRSYM    DATA     BYTE      IE
      00000085H   SFRSYM    DATA     BYTE      DPH1
      00000084H   SFRSYM    DATA     BYTE      DPL1
      000000D0H.7 SFRSYM    DATA     BIT       CY
      000000A0H   SFRSYM    DATA     BYTE      P2AX
      00000095H   SFRSYM    DATA     BYTE      DPX1
      00000081H   SFRSYM    DATA     BYTE      SP
      000000D0H.2 SFRSYM    DATA     BIT       OV
      00000080H   SFRSYM    DATA     BYTE      SFRPRT0DR
      00000090H   SFRSYM    DATA     BYTE      SFRPRT1DR
      000000F2H   SFRSYM    DATA     BYTE      SFRPRT12SEL
      00000098H   SFRSYM    DATA     BYTE      SFRPRT2DR
      000000B0H   SFRSYM    DATA     BYTE      SFRPRT3DR
      000000C0H   SFRSYM    DATA     BYTE      SFRPRT4DR
      000000FAH   SFRSYM    DATA     BYTE      SFRPRT15SEL
      000000C8H   SFRSYM    DATA     BYTE      SFRPRT5DR
      000000D8H   SFRSYM    DATA     BYTE      SFRPRT6DR
      00000089H   SFRSYM    DATA     BYTE      SFRPRT0PS
      00000091H   SFRSYM    DATA     BYTE      SFRPRT1PS
      00000099H   SFRSYM    DATA     BYTE      SFRPRT2PS
      000000B1H   SFRSYM    DATA     BYTE      SFRPRT3PS
      000000C1H   SFRSYM    DATA     BYTE      SFRPRT4PS
      000000C9H   SFRSYM    DATA     BYTE      SFRPRT5PS
      000000D9H   SFRSYM    DATA     BYTE      SFRPRT6PS
      000000EAH   SFRSYM    DATA     BYTE      MXAX
      000000F0H   SFRSYM    DATA     BYTE      B
      000000E0H   SFRSYM    DATA     BYTE      ACC
      000000D0H   SFRSYM    DATA     BIT       P
      000000D0H.3 SFRSYM    DATA     BIT       RS0
      000000D0H.4 SFRSYM    DATA     BIT       RS1
      00000083H   SFRSYM    DATA     BYTE      DPH
      000000E8H   SFRSYM    DATA     BYTE      SFRPRT12DR
      00000082H   SFRSYM    DATA     BYTE      DPL
      000000F8H   SFRSYM    DATA     BYTE      SFRPRT15DR
      00000086H   SFRSYM    DATA     BYTE      DPS
      000000E9H   SFRSYM    DATA     BYTE      SFRPRT12PS
      00000093H   SFRSYM    DATA     BYTE      DPX
      000000F9H   SFRSYM    DATA     BYTE      SFRPRT15PS
      000000D0H.5 SFRSYM    DATA     BIT       F0
      000000D0H.1 SFRSYM    DATA     BIT       F1
      0000008AH   SFRSYM    DATA     BYTE      SFRPRT0SEL
      000000D0H   SFRSYM    DATA     BYTE      PSW
LX51 LINKER/LOCATER V4.64.0.0                                                         04/13/2018  12:12:27  PAGE 69


      000000A2H   SFRSYM    DATA     BYTE      SFRPRT1SEL
      0000009AH   SFRSYM    DATA     BYTE      SFRPRT2SEL
      000000B2H   SFRSYM    DATA     BYTE      SFRPRT3SEL
      000000C2H   SFRSYM    DATA     BYTE      SFRPRT4SEL

      ---         MODULE    ---      ---       INTERRUPTIONS
      0100E03FH   PUBLIC    CODE     ---       pwm_limit_search
      0100E12AH   PUBLIC    CODE     ---       overcurrent_control
      010096DFH   PUBLIC    CODE     ---       analog_read_end
      0100A156H   PUBLIC    CODE     ---       _encoder_reading
      01007A79H   PUBLIC    CODE     ---       motor_control
      0100C191H   PUBLIC    CODE     ---       function_scheduler
      0100C6AAH   PUBLIC    CODE     ---       interrupt_manager
      0100F530H   PUBLIC    CODE     ---       ISR_RS485_RX_ExInterrupt
      0100F52DH   PUBLIC    CODE     ---       ISR_WATCHDOG_Handler
      000000CAH   SFRSYM    DATA     BYTE      SFRPRT5SEL
      000000DAH   SFRSYM    DATA     BYTE      SFRPRT6SEL
      000000D0H.6 SFRSYM    DATA     BIT       AC
      000000A8H.7 SFRSYM    DATA     BIT       EA
      000000A8H   SFRSYM    DATA     BYTE      IE
      00000085H   SFRSYM    DATA     BYTE      DPH1
      00000084H   SFRSYM    DATA     BYTE      DPL1
      000000D0H.7 SFRSYM    DATA     BIT       CY
      000000A0H   SFRSYM    DATA     BYTE      P2AX
      00000095H   SFRSYM    DATA     BYTE      DPX1
      00000081H   SFRSYM    DATA     BYTE      SP
      000000D0H.2 SFRSYM    DATA     BIT       OV
      00000080H   SFRSYM    DATA     BYTE      SFRPRT0DR
      00000090H   SFRSYM    DATA     BYTE      SFRPRT1DR
      000000F2H   SFRSYM    DATA     BYTE      SFRPRT12SEL
      00000098H   SFRSYM    DATA     BYTE      SFRPRT2DR
      000000B0H   SFRSYM    DATA     BYTE      SFRPRT3DR
      000000C0H   SFRSYM    DATA     BYTE      SFRPRT4DR
      000000FAH   SFRSYM    DATA     BYTE      SFRPRT15SEL
      000000C8H   SFRSYM    DATA     BYTE      SFRPRT5DR
      000000D8H   SFRSYM    DATA     BYTE      SFRPRT6DR
      00000089H   SFRSYM    DATA     BYTE      SFRPRT0PS
      00000091H   SFRSYM    DATA     BYTE      SFRPRT1PS
      00000099H   SFRSYM    DATA     BYTE      SFRPRT2PS
      000000B1H   SFRSYM    DATA     BYTE      SFRPRT3PS
      000000C1H   SFRSYM    DATA     BYTE      SFRPRT4PS
      000000C9H   SFRSYM    DATA     BYTE      SFRPRT5PS
      000000D9H   SFRSYM    DATA     BYTE      SFRPRT6PS
      000000EAH   SFRSYM    DATA     BYTE      MXAX
      000000F0H   SFRSYM    DATA     BYTE      B
      000000E0H   SFRSYM    DATA     BYTE      ACC
      000000D0H   SFRSYM    DATA     BIT       P
      000000D0H.3 SFRSYM    DATA     BIT       RS0
      000000D0H.4 SFRSYM    DATA     BIT       RS1
      00000083H   SFRSYM    DATA     BYTE      DPH
      000000E8H   SFRSYM    DATA     BYTE      SFRPRT12DR
      00000082H   SFRSYM    DATA     BYTE      DPL
      000000F8H   SFRSYM    DATA     BYTE      SFRPRT15DR
      00000086H   SFRSYM    DATA     BYTE      DPS
      000000E9H   SFRSYM    DATA     BYTE      SFRPRT12PS
      00000093H   SFRSYM    DATA     BYTE      DPX
      000000F9H   SFRSYM    DATA     BYTE      SFRPRT15PS
      000000D0H.5 SFRSYM    DATA     BIT       F0
      000000D0H.1 SFRSYM    DATA     BIT       F1
      0000008AH   SFRSYM    DATA     BYTE      SFRPRT0SEL
      000000D0H   SFRSYM    DATA     BYTE      PSW
      000000A2H   SFRSYM    DATA     BYTE      SFRPRT1SEL
      0000009AH   SFRSYM    DATA     BYTE      SFRPRT2SEL
      000000B2H   SFRSYM    DATA     BYTE      SFRPRT3SEL
      000000C2H   SFRSYM    DATA     BYTE      SFRPRT4SEL
LX51 LINKER/LOCATER V4.64.0.0                                                         04/13/2018  12:12:27  PAGE 70


      020012DCH   SYMBOL    XDATA    ---       pwm_preload_values

      0100F52DH   BLOCK     CODE     ---       LVL=0
      0100F52DH   LINE      CODE     ---       #102
      0100F52DH   LINE      CODE     ---       #106
      0100F52FH   LINE      CODE     ---       #108
      ---         BLOCKEND  ---      ---       LVL=0

      0100F530H   BLOCK     CODE     ---       LVL=0
      0100F530H   LINE      CODE     ---       #114
      0100F530H   LINE      CODE     ---       #118
      0100F532H   LINE      CODE     ---       #120
      ---         BLOCKEND  ---      ---       LVL=0

      0100C6AAH   BLOCK     CODE     ---       LVL=0
      0100C6AAH   BLOCK     CODE     NEAR LAB  LVL=1
      00000008H   SYMBOL    DATA     BYTE      state
      00000009H   SYMBOL    DATA     BYTE      data_packet_index
      0000000AH   SYMBOL    DATA     BYTE      data_packet_length
      020011E8H   SYMBOL    XDATA    ---       data_packet_buffer
      0000000BH   SYMBOL    DATA     ---       rx_queue
      00000029H   SYMBOL    DATA     BYTE      rx_data
      00000020H.0 SYMBOL    BIT      BIT       rx_data_type
      0000002AH   SYMBOL    DATA     BYTE      package_count
      ---         BLOCKEND  ---      ---       LVL=1
      0100C6AAH   LINE      CODE     ---       #137
      0100C6AAH   LINE      CODE     ---       #153
      0100C6ADH   LINE      CODE     ---       #159
      0100C6C0H   LINE      CODE     ---       #163
      0100C6C5H   LINE      CODE     ---       #165
      0100C6DDH   LINE      CODE     ---       #167
      0100C6DDH   LINE      CODE     ---       #169
      0100C6E0H   LINE      CODE     ---       #170
      0100C6E3H   LINE      CODE     ---       #171
      0100C6E6H   LINE      CODE     ---       #174
      0100C6F0H   LINE      CODE     ---       #175
      0100C6F3H   LINE      CODE     ---       #176
      0100C6F5H   LINE      CODE     ---       #177
      0100C6F7H   LINE      CODE     ---       #178
      0100C6FAH   LINE      CODE     ---       #179
      0100C6FCH   LINE      CODE     ---       #180
      0100C70CH   LINE      CODE     ---       #183
      0100C711H   LINE      CODE     ---       #184
      0100C713H   LINE      CODE     ---       #187
      0100C713H   LINE      CODE     ---       #190
      0100C726H   LINE      CODE     ---       #191
      0100C72AH   LINE      CODE     ---       #193
      0100C72CH   LINE      CODE     ---       #195
      0100C72FH   LINE      CODE     ---       #196
      0100C732H   LINE      CODE     ---       #197
      0100C735H   LINE      CODE     ---       #200
      0100C735H   LINE      CODE     ---       #203
      0100C738H   LINE      CODE     ---       #205
      0100C73FH   LINE      CODE     ---       #206
      0100C742H   LINE      CODE     ---       #207
      0100C744H   LINE      CODE     ---       #208
      0100C74EH   LINE      CODE     ---       #209
      0100C751H   LINE      CODE     ---       #210
      0100C753H   LINE      CODE     ---       #211
      0100C756H   LINE      CODE     ---       #212
      0100C759H   LINE      CODE     ---       #214
      0100C75CH   LINE      CODE     ---       #215
      0100C762H   LINE      CODE     ---       #217
      0100C765H   LINE      CODE     ---       #218
      0100C765H   LINE      CODE     ---       #219
LX51 LINKER/LOCATER V4.64.0.0                                                         04/13/2018  12:12:27  PAGE 71


      0100C768H   LINE      CODE     ---       #222
      0100C768H   LINE      CODE     ---       #224
      0100C776H   LINE      CODE     ---       #225
      0100C778H   LINE      CODE     ---       #228
      0100C782H   LINE      CODE     ---       #230
      0100C785H   LINE      CODE     ---       #232
      0100C798H   LINE      CODE     ---       #233
      0100C7A1H   LINE      CODE     ---       #234
      0100C7A7H   LINE      CODE     ---       #236
      0100C7AAH   LINE      CODE     ---       #237
      0100C7AAH   LINE      CODE     ---       #239
      0100C7ADH   LINE      CODE     ---       #240
      0100C7AFH   LINE      CODE     ---       #241
      0100C7B1H   LINE      CODE     ---       #242
      0100C7B3H   LINE      CODE     ---       #244
      0100C7B3H   LINE      CODE     ---       #245
      0100C7B6H   LINE      CODE     ---       #248
      0100C7B6H   LINE      CODE     ---       #249
      0100C7BFH   LINE      CODE     ---       #250
      0100C7C1H   LINE      CODE     ---       #251
      0100C7C3H   LINE      CODE     ---       #252
      0100C7C8H   LINE      CODE     ---       #253
      0100C7CDH   LINE      CODE     ---       #254
      0100C7D0H   LINE      CODE     ---       #255
      0100C7D2H   LINE      CODE     ---       #256
      0100C7D2H   LINE      CODE     ---       #257
      0100C7D5H   LINE      CODE     ---       #258
      0100C7D5H   LINE      CODE     ---       #259
      0100C7D8H   LINE      CODE     ---       #260
      ---         BLOCKEND  ---      ---       LVL=0

      0100C191H   BLOCK     CODE     ---       LVL=0
      0100C191H   BLOCK     CODE     NEAR LAB  LVL=1
      02001268H   SYMBOL    XDATA    WORD      counter_calibration
      ---         BLOCKEND  ---      ---       LVL=1
      0100C191H   LINE      CODE     ---       #269
      0100C191H   LINE      CODE     ---       #273
      0100C19AH   LINE      CODE     ---       #277
      0100C19FH   LINE      CODE     ---       #281
      0100C1A2H   LINE      CODE     ---       #282
      0100C1A4H   LINE      CODE     ---       #283
      0100C1A7H   LINE      CODE     ---       #284
      0100C1A7H   LINE      CODE     ---       #288
      0100C1ACH   LINE      CODE     ---       #292
      0100C1AFH   LINE      CODE     ---       #293
      0100C1B1H   LINE      CODE     ---       #294
      0100C1B4H   LINE      CODE     ---       #295
      0100C1B4H   LINE      CODE     ---       #297
      0100C1B9H   LINE      CODE     ---       #301
      0100C1BCH   LINE      CODE     ---       #302
      0100C1BEH   LINE      CODE     ---       #303
      0100C1C1H   LINE      CODE     ---       #304
      0100C1C1H   LINE      CODE     ---       #306
      0100C1C6H   LINE      CODE     ---       #310
      0100C1C9H   LINE      CODE     ---       #311
      0100C1CBH   LINE      CODE     ---       #312
      0100C1CEH   LINE      CODE     ---       #313
      0100C1CEH   LINE      CODE     ---       #317
      0100C1D1H   LINE      CODE     ---       #321
      0100C1D4H   LINE      CODE     ---       #322
      0100C1D6H   LINE      CODE     ---       #323
      0100C1D9H   LINE      CODE     ---       #324
      0100C1D9H   LINE      CODE     ---       #328
      0100C1DCH   LINE      CODE     ---       #330
      0100C1DFH   LINE      CODE     ---       #331
LX51 LINKER/LOCATER V4.64.0.0                                                         04/13/2018  12:12:27  PAGE 72


      0100C1E1H   LINE      CODE     ---       #332
      0100C1E4H   LINE      CODE     ---       #333
      0100C1E4H   LINE      CODE     ---       #337
      0100C1E7H   LINE      CODE     ---       #341
      0100C1EAH   LINE      CODE     ---       #342
      0100C1ECH   LINE      CODE     ---       #343
      0100C1EFH   LINE      CODE     ---       #344
      0100C1EFH   LINE      CODE     ---       #348
      0100C1F8H   LINE      CODE     ---       #350
      0100C1FEH   LINE      CODE     ---       #353
      0100C206H   LINE      CODE     ---       #354
      0100C212H   LINE      CODE     ---       #357
      0100C21CH   LINE      CODE     ---       #358
      0100C230H   LINE      CODE     ---       #359
      0100C232H   LINE      CODE     ---       #360
      0100C232H   LINE      CODE     ---       #361
      0100C23BH   LINE      CODE     ---       #362
      0100C23BH   LINE      CODE     ---       #365
      0100C23EH   LINE      CODE     ---       #366
      0100C245H   LINE      CODE     ---       #367
      0100C245H   LINE      CODE     ---       #368
      0100C253H   LINE      CODE     ---       #371
      0100C256H   LINE      CODE     ---       #372
      0100C258H   LINE      CODE     ---       #373
      0100C25BH   LINE      CODE     ---       #374
      0100C25BH   LINE      CODE     ---       #375
      0100C25BH   LINE      CODE     ---       #377
      0100C25EH   LINE      CODE     ---       #380
      0100C261H   LINE      CODE     ---       #381
      0100C263H   LINE      CODE     ---       #382
      0100C266H   LINE      CODE     ---       #383
      0100C266H   LINE      CODE     ---       #384
      0100C266H   LINE      CODE     ---       #386
      0100C26CH   LINE      CODE     ---       #387
      0100C26FH   LINE      CODE     ---       #390
      0100C272H   LINE      CODE     ---       #391
      0100C274H   LINE      CODE     ---       #392
      0100C277H   LINE      CODE     ---       #393
      0100C277H   LINE      CODE     ---       #395
      0100C277H   LINE      CODE     ---       #397
      0100C27DH   LINE      CODE     ---       #398
      0100C280H   LINE      CODE     ---       #401
      0100C283H   LINE      CODE     ---       #402
      0100C285H   LINE      CODE     ---       #403
      0100C288H   LINE      CODE     ---       #404
      0100C288H   LINE      CODE     ---       #405
      0100C288H   LINE      CODE     ---       #407
      0100C288H   LINE      CODE     ---       #411
      0100C28BH   LINE      CODE     ---       #412
      0100C28DH   LINE      CODE     ---       #413
      0100C290H   LINE      CODE     ---       #414
      0100C290H   LINE      CODE     ---       #419
      0100C297H   LINE      CODE     ---       #420
      0100C2A3H   LINE      CODE     ---       #421
      0100C2A6H   LINE      CODE     ---       #422
      0100C2ADH   LINE      CODE     ---       #423
      0100C2ADH   LINE      CODE     ---       #424
      0100C2BBH   LINE      CODE     ---       #425
      0100C2BBH   LINE      CODE     ---       #429
      0100C2BEH   LINE      CODE     ---       #430
      0100C2C0H   LINE      CODE     ---       #431
      0100C2C3H   LINE      CODE     ---       #432
      0100C2C3H   LINE      CODE     ---       #438
      0100C2D6H   LINE      CODE     ---       #439
      0100C2E9H   LINE      CODE     ---       #442
LX51 LINKER/LOCATER V4.64.0.0                                                         04/13/2018  12:12:27  PAGE 73


      0100C2FCH   LINE      CODE     ---       #444
      0100C2FFH   LINE      CODE     ---       #445
      0100C301H   LINE      CODE     ---       #446
      0100C304H   LINE      CODE     ---       #447
      0100C304H   LINE      CODE     ---       #449
      0100C30DH   LINE      CODE     ---       #450
      0100C318H   LINE      CODE     ---       #452
      ---         BLOCKEND  ---      ---       LVL=0

      01007A79H   BLOCK     CODE     ---       LVL=0
      01007A79H   BLOCK     CODE     NEAR LAB  LVL=1
      00000023H   SYMBOL    DATA     LONG      pwm_input
      00000027H   SYMBOL    DATA     LONG      pos_error
      0000002BH   SYMBOL    DATA     LONG      curr_error
      0000002FH   SYMBOL    DATA     LONG      i_ref
      00000033H   SYMBOL    DATA     LONG      handle_value
      00000037H   SYMBOL    DATA     LONG      err_emg_1
      0000003BH   SYMBOL    DATA     LONG      err_emg_2
      0000003FH   SYMBOL    DATA     FLOAT     joy_perc
      00000043H   SYMBOL    DATA     LONG      k_p
      00000047H   SYMBOL    DATA     LONG      k_i
      0000004BH   SYMBOL    DATA     LONG      k_d
      0000004FH   SYMBOL    DATA     LONG      k_p_c
      00000053H   SYMBOL    DATA     LONG      k_i_c
      00000057H   SYMBOL    DATA     LONG      k_d_c
      0000005BH   SYMBOL    DATA     LONG      k_p_dl
      0000005FH   SYMBOL    DATA     LONG      k_i_dl
      00000063H   SYMBOL    DATA     LONG      k_d_dl
      00000067H   SYMBOL    DATA     LONG      k_p_c_dl
      0000006BH   SYMBOL    DATA     LONG      k_i_c_dl
      0000006FH   SYMBOL    DATA     LONG      k_d_c_dl
      0200126AH   SYMBOL    XDATA    LONG      pos_error_sum
      0200126EH   SYMBOL    XDATA    LONG      curr_error_sum
      02001272H   SYMBOL    XDATA    LONG      prev_pos_err
      02001276H   SYMBOL    XDATA    LONG      prev_curr_err
      00000021H.6 SYMBOL    BIT      BIT       motor_dir
      0200127AH   SYMBOL    XDATA    BYTE      current_emg
      ---         BLOCKEND  ---      ---       LVL=1
      01007A79H   LINE      CODE     ---       #458
      01007A79H   LINE      CODE     ---       #460
      01007A82H   LINE      CODE     ---       #471
      01007A97H   LINE      CODE     ---       #472
      01007AAAH   LINE      CODE     ---       #473
      01007ABDH   LINE      CODE     ---       #475
      01007AD0H   LINE      CODE     ---       #476
      01007AE3H   LINE      CODE     ---       #477
      01007AF6H   LINE      CODE     ---       #479
      01007B09H   LINE      CODE     ---       #480
      01007B1CH   LINE      CODE     ---       #481
      01007B2FH   LINE      CODE     ---       #483
      01007B42H   LINE      CODE     ---       #484
      01007B55H   LINE      CODE     ---       #485
      01007B68H   LINE      CODE     ---       #502
      01007B93H   LINE      CODE     ---       #503
      01007BBEH   LINE      CODE     ---       #506
      01007BE8H   LINE      CODE     ---       #508
      01007BE8H   LINE      CODE     ---       #510
      01007BEEH   LINE      CODE     ---       #512
      01007C12H   LINE      CODE     ---       #513
      01007C14H   LINE      CODE     ---       #514
      01007C14H   LINE      CODE     ---       #518
      01007C1AH   LINE      CODE     ---       #519
      01007C3EH   LINE      CODE     ---       #521
      01007C62H   LINE      CODE     ---       #522
      01007C62H   LINE      CODE     ---       #525
LX51 LINKER/LOCATER V4.64.0.0                                                         04/13/2018  12:12:27  PAGE 74


      01007CABH   LINE      CODE     ---       #526
      01007CD9H   LINE      CODE     ---       #527
      01007CD9H   LINE      CODE     ---       #528
      01007D21H   LINE      CODE     ---       #529
      01007D4FH   LINE      CODE     ---       #531
      01007D5DH   LINE      CODE     ---       #532
      01007D5DH   LINE      CODE     ---       #533
      01007D60H   LINE      CODE     ---       #535
      01007D60H   LINE      CODE     ---       #536
      01007D73H   LINE      CODE     ---       #537
      01007DB0H   LINE      CODE     ---       #539
      01007DBBH   LINE      CODE     ---       #540
      01007DBEH   LINE      CODE     ---       #542
      01007DBEH   LINE      CODE     ---       #543
      01007DD2H   LINE      CODE     ---       #544
      01007DE5H   LINE      CODE     ---       #545
      01007E3BH   LINE      CODE     ---       #546
      01007E3BH   LINE      CODE     ---       #547
      01007E51H   LINE      CODE     ---       #548
      01007EB0H   LINE      CODE     ---       #549
      01007EB0H   LINE      CODE     ---       #550
      01007EB3H   LINE      CODE     ---       #552
      01007EB3H   LINE      CODE     ---       #553
      01007EC7H   LINE      CODE     ---       #554
      01007EDBH   LINE      CODE     ---       #555
      01007EDBH   LINE      CODE     ---       #557
      01007EEEH   LINE      CODE     ---       #558
      01007EF4H   LINE      CODE     ---       #559
      01007EF7H   LINE      CODE     ---       #560
      01007EF7H   LINE      CODE     ---       #561
      01007F0DH   LINE      CODE     ---       #562
      01007F13H   LINE      CODE     ---       #563
      01007F16H   LINE      CODE     ---       #564
      01007F16H   LINE      CODE     ---       #565
      01007F16H   LINE      CODE     ---       #567
      01007F16H   LINE      CODE     ---       #569
      01007F29H   LINE      CODE     ---       #570
      01007F2EH   LINE      CODE     ---       #571
      01007F31H   LINE      CODE     ---       #572
      01007F31H   LINE      CODE     ---       #573
      01007F8DH   LINE      CODE     ---       #574
      01007F90H   LINE      CODE     ---       #576
      01007F90H   LINE      CODE     ---       #578
      01007FA3H   LINE      CODE     ---       #579
      01007FA8H   LINE      CODE     ---       #580
      01007FABH   LINE      CODE     ---       #581
      01007FABH   LINE      CODE     ---       #582
      01008010H   LINE      CODE     ---       #583
      01008013H   LINE      CODE     ---       #585
      01008013H   LINE      CODE     ---       #586
      01008013H   LINE      CODE     ---       #587
      01008013H   LINE      CODE     ---       #589
      01008016H   LINE      CODE     ---       #591
      01008016H   LINE      CODE     ---       #592
      0100802AH   LINE      CODE     ---       #593
      0100803EH   LINE      CODE     ---       #595
      0100803EH   LINE      CODE     ---       #596
      01008051H   LINE      CODE     ---       #597
      01008057H   LINE      CODE     ---       #598
      0100805AH   LINE      CODE     ---       #599
      0100805AH   LINE      CODE     ---       #600
      01008070H   LINE      CODE     ---       #601
      01008076H   LINE      CODE     ---       #602
      01008079H   LINE      CODE     ---       #603
      01008079H   LINE      CODE     ---       #604
LX51 LINKER/LOCATER V4.64.0.0                                                         04/13/2018  12:12:27  PAGE 75


      01008079H   LINE      CODE     ---       #607
      01008079H   LINE      CODE     ---       #609
      0100809FH   LINE      CODE     ---       #610
      010080A4H   LINE      CODE     ---       #611
      010080A7H   LINE      CODE     ---       #612
      010080A7H   LINE      CODE     ---       #614
      010080BDH   LINE      CODE     ---       #615
      0100810FH   LINE      CODE     ---       #617
      01008112H   LINE      CODE     ---       #620
      01008112H   LINE      CODE     ---       #622
      01008138H   LINE      CODE     ---       #623
      0100813DH   LINE      CODE     ---       #624
      01008140H   LINE      CODE     ---       #625
      01008140H   LINE      CODE     ---       #627
      01008156H   LINE      CODE     ---       #628
      010081B1H   LINE      CODE     ---       #629
      010081B1H   LINE      CODE     ---       #630
      010081B4H   LINE      CODE     ---       #632
      010081B4H   LINE      CODE     ---       #633
      010081B4H   LINE      CODE     ---       #634
      010081B4H   LINE      CODE     ---       #636
      010081B7H   LINE      CODE     ---       #638
      010081B7H   LINE      CODE     ---       #640
      010081F3H   LINE      CODE     ---       #641
      01008238H   LINE      CODE     ---       #643
      01008238H   LINE      CODE     ---       #644
      01008238H   LINE      CODE     ---       #645
      01008238H   LINE      CODE     ---       #646
      01008238H   LINE      CODE     ---       #649
      0100823EH   LINE      CODE     ---       #650
      0100825EH   LINE      CODE     ---       #651
      01008272H   LINE      CODE     ---       #652
      01008294H   LINE      CODE     ---       #653
      010082A8H   LINE      CODE     ---       #654
      010082A8H   LINE      CODE     ---       #656
      010082B3H   LINE      CODE     ---       #657
      010082BAH   LINE      CODE     ---       #659
      010082CEH   LINE      CODE     ---       #660
      010082CEH   LINE      CODE     ---       #662
      010082D9H   LINE      CODE     ---       #664
      010082EBH   LINE      CODE     ---       #665
      01008348H   LINE      CODE     ---       #666
      01008348H   LINE      CODE     ---       #667
      0100835CH   LINE      CODE     ---       #668
      01008361H   LINE      CODE     ---       #669
      01008361H   LINE      CODE     ---       #670
      01008361H   LINE      CODE     ---       #671
      01008361H   LINE      CODE     ---       #673
      0100837CH   LINE      CODE     ---       #675
      0100837CH   LINE      CODE     ---       #676
      010083A7H   LINE      CODE     ---       #678
      010083C9H   LINE      CODE     ---       #681
      010083E5H   LINE      CODE     ---       #682
      010083F5H   LINE      CODE     ---       #683
      010083F5H   LINE      CODE     ---       #684
      01008411H   LINE      CODE     ---       #685
      0100841FH   LINE      CODE     ---       #686
      0100841FH   LINE      CODE     ---       #690
      01008428H   LINE      CODE     ---       #693
      0100843AH   LINE      CODE     ---       #694
      01008460H   LINE      CODE     ---       #697
      01008473H   LINE      CODE     ---       #698
      0100849FH   LINE      CODE     ---       #701
      010084B2H   LINE      CODE     ---       #702
      010084F5H   LINE      CODE     ---       #705
LX51 LINKER/LOCATER V4.64.0.0                                                         04/13/2018  12:12:27  PAGE 76


      01008503H   LINE      CODE     ---       #708
      01008516H   LINE      CODE     ---       #709
      0100851AH   LINE      CODE     ---       #711
      0100851CH   LINE      CODE     ---       #714
      01008538H   LINE      CODE     ---       #715
      0100854EH   LINE      CODE     ---       #717
      01008570H   LINE      CODE     ---       #718
      0100858AH   LINE      CODE     ---       #721
      010085ADH   LINE      CODE     ---       #722
      010085CFH   LINE      CODE     ---       #724
      010085EBH   LINE      CODE     ---       #725
      010085FBH   LINE      CODE     ---       #726
      010085FBH   LINE      CODE     ---       #727
      01008617H   LINE      CODE     ---       #728
      01008625H   LINE      CODE     ---       #729
      01008625H   LINE      CODE     ---       #733
      0100862EH   LINE      CODE     ---       #736
      01008640H   LINE      CODE     ---       #737
      01008666H   LINE      CODE     ---       #740
      01008679H   LINE      CODE     ---       #741
      010086A5H   LINE      CODE     ---       #744
      010086B8H   LINE      CODE     ---       #745
      010086FBH   LINE      CODE     ---       #748
      01008710H   LINE      CODE     ---       #749
      0100871DH   LINE      CODE     ---       #750
      0100871DH   LINE      CODE     ---       #751
      01008731H   LINE      CODE     ---       #752
      0100873BH   LINE      CODE     ---       #753
      0100873BH   LINE      CODE     ---       #756
      01008749H   LINE      CODE     ---       #758
      0100874CH   LINE      CODE     ---       #761
      0100874CH   LINE      CODE     ---       #762
      01008777H   LINE      CODE     ---       #764
      01008799H   LINE      CODE     ---       #767
      010087B4H   LINE      CODE     ---       #768
      010087C1H   LINE      CODE     ---       #769
      010087DFH   LINE      CODE     ---       #770
      010087EDH   LINE      CODE     ---       #771
      010087EDH   LINE      CODE     ---       #774
      01008800H   LINE      CODE     ---       #775
      0100881AH   LINE      CODE     ---       #779
      0100882DH   LINE      CODE     ---       #780
      01008859H   LINE      CODE     ---       #784
      0100886CH   LINE      CODE     ---       #785
      010088AFH   LINE      CODE     ---       #789
      010088BDH   LINE      CODE     ---       #791
      010088D0H   LINE      CODE     ---       #792
      010088D5H   LINE      CODE     ---       #794
      010088D7H   LINE      CODE     ---       #796
      010088DAH   LINE      CODE     ---       #799
      010088DAH   LINE      CODE     ---       #800
      010088E9H   LINE      CODE     ---       #802
      010088FEH   LINE      CODE     ---       #804
      0100891AH   LINE      CODE     ---       #805
      01008930H   LINE      CODE     ---       #806
      01008930H   LINE      CODE     ---       #807
      01008952H   LINE      CODE     ---       #808
      0100896CH   LINE      CODE     ---       #809
      0100896CH   LINE      CODE     ---       #812
      0100898FH   LINE      CODE     ---       #813
      010089B1H   LINE      CODE     ---       #815
      010089CDH   LINE      CODE     ---       #816
      010089DDH   LINE      CODE     ---       #817
      010089DDH   LINE      CODE     ---       #818
      010089F9H   LINE      CODE     ---       #819
LX51 LINKER/LOCATER V4.64.0.0                                                         04/13/2018  12:12:27  PAGE 77


      01008A07H   LINE      CODE     ---       #820
      01008A07H   LINE      CODE     ---       #822
      01008A10H   LINE      CODE     ---       #825
      01008A22H   LINE      CODE     ---       #826
      01008A48H   LINE      CODE     ---       #829
      01008A5BH   LINE      CODE     ---       #830
      01008A87H   LINE      CODE     ---       #833
      01008A9AH   LINE      CODE     ---       #834
      01008ADDH   LINE      CODE     ---       #836
      01008AEBH   LINE      CODE     ---       #838
      01008AFEH   LINE      CODE     ---       #839
      01008B02H   LINE      CODE     ---       #841
      01008B04H   LINE      CODE     ---       #842
      01008B04H   LINE      CODE     ---       #843
      01008B06H   LINE      CODE     ---       #846
      01008B06H   LINE      CODE     ---       #848
      01008B1BH   LINE      CODE     ---       #850
      01008B2EH   LINE      CODE     ---       #851
      01008B32H   LINE      CODE     ---       #853
      01008B34H   LINE      CODE     ---       #857
      01008B49H   LINE      CODE     ---       #858
      01008B56H   LINE      CODE     ---       #859
      01008B6AH   LINE      CODE     ---       #860
      01008B74H   LINE      CODE     ---       #863
      01008B74H   LINE      CODE     ---       #865
      01008B74H   LINE      CODE     ---       #869
      01008B88H   LINE      CODE     ---       #870
      01008B92H   LINE      CODE     ---       #871
      01008BA7H   LINE      CODE     ---       #872
      01008BB2H   LINE      CODE     ---       #875
      01008BBAH   LINE      CODE     ---       #876
      01008BF1H   LINE      CODE     ---       #879
      01008C0FH   LINE      CODE     ---       #881
      01008C12H   LINE      CODE     ---       #882
      01008C19H   LINE      CODE     ---       #884
      01008C1EH   LINE      CODE     ---       #886
      01008C28H   LINE      CODE     ---       #887
      ---         BLOCKEND  ---      ---       LVL=0

      0100A156H   BLOCK     CODE     ---       LVL=0
      00000007H   SYMBOL    DATA     BYTE      idx
      0100A156H   BLOCK     CODE     NEAR LAB  LVL=1
      00000023H   SYMBOL    DATA     BYTE      index
      00000003H   SYMBOL    DATA     BYTE      jj
      02000002H   SYMBOL    XDATA    DWORD     data_encoder
      02000006H   SYMBOL    XDATA    LONG      value_encoder
      0200000AH   SYMBOL    XDATA    LONG      speed_encoder
      0200000EH   SYMBOL    XDATA    LONG      accel_encoder
      02000012H   SYMBOL    XDATA    LONG      aux
      0200127BH   SYMBOL    XDATA    ---       last_value_encoder
      02001287H   SYMBOL    XDATA    ---       error
      00000021H.7 SYMBOL    BIT      BIT       only_first_time
      0200128AH   SYMBOL    XDATA    BYTE      one_time_execute
      00000022H.0 SYMBOL    BIT      BIT       pos_reconstruct
      0200128BH   SYMBOL    XDATA    ---       v_value
      02001297H   SYMBOL    XDATA    ---       vv_value
      020012A3H   SYMBOL    XDATA    ---       vvv_value
      020012AFH   SYMBOL    XDATA    ---       a_value
      020012BBH   SYMBOL    XDATA    ---       aa_value
      020012C7H   SYMBOL    XDATA    ---       aaa_value
      ---         BLOCKEND  ---      ---       LVL=1
      0100A156H   LINE      CODE     ---       #893
      0100A156H   LINE      CODE     ---       #895
      0100A158H   LINE      CODE     ---       #922
      0100A162H   LINE      CODE     ---       #925
LX51 LINKER/LOCATER V4.64.0.0                                                         04/13/2018  12:12:27  PAGE 78


      0100A165H   LINE      CODE     ---       #926
      0100A16DH   LINE      CODE     ---       #927
      0100A185H   LINE      CODE     ---       #929
      0100A187H   LINE      CODE     ---       #930
      0100A187H   LINE      CODE     ---       #934
      0100A18BH   LINE      CODE     ---       #935
      0100A1A3H   LINE      CODE     ---       #936
      0100A1A3H   LINE      CODE     ---       #937
      0100A1A8H   LINE      CODE     ---       #938
      0100A1C0H   LINE      CODE     ---       #940
      0100A1D6H   LINE      CODE     ---       #941
      0100A1D6H   LINE      CODE     ---       #944
      0100A1E4H   LINE      CODE     ---       #946
      0100A23CH   LINE      CODE     ---       #953
      0100A23FH   LINE      CODE     ---       #954
      0100A25FH   LINE      CODE     ---       #955
      0100A264H   LINE      CODE     ---       #956
      0100A266H   LINE      CODE     ---       #957
      0100A266H   LINE      CODE     ---       #960
      0100A29FH   LINE      CODE     ---       #980
      0100A2B9H   LINE      CODE     ---       #981
      0100A2C9H   LINE      CODE     ---       #982
      0100A2C9H   LINE      CODE     ---       #983
      0100A2E5H   LINE      CODE     ---       #984
      0100A2F5H   LINE      CODE     ---       #985
      0100A2F5H   LINE      CODE     ---       #986
      0100A30FH   LINE      CODE     ---       #987
      0100A31DH   LINE      CODE     ---       #988
      0100A331H   LINE      CODE     ---       #991
      0100A331H   LINE      CODE     ---       #992
      0100A331H   LINE      CODE     ---       #993
      0100A331H   LINE      CODE     ---       #995
      0100A33EH   LINE      CODE     ---       #997
      0100A35EH   LINE      CODE     ---       #999
      0100A39AH   LINE      CODE     ---       #1001
      0100A3C0H   LINE      CODE     ---       #1002
      0100A3F8H   LINE      CODE     ---       #1003
      0100A3F8H   LINE      CODE     ---       #1005
      0100A418H   LINE      CODE     ---       #1006
      0100A418H   LINE      CODE     ---       #1008
      0100A42DH   LINE      CODE     ---       #1009
      0100A42DH   LINE      CODE     ---       #1010
      0100A4CBH   LINE      CODE     ---       #1011
      0100A4CEH   LINE      CODE     ---       #1012
      0100A4CEH   LINE      CODE     ---       #1013
      0100A4CEH   LINE      CODE     ---       #1014
      0100A56CH   LINE      CODE     ---       #1015
      0100A56FH   LINE      CODE     ---       #1016
      0100A56FH   LINE      CODE     ---       #1017
      0100A56FH   LINE      CODE     ---       #1018
      0100A60DH   LINE      CODE     ---       #1019
      0100A60DH   LINE      CODE     ---       #1020
      0100A60DH   LINE      CODE     ---       #1021
      0100A60DH   LINE      CODE     ---       #1023
      0100A62DH   LINE      CODE     ---       #1026
      0100A642H   LINE      CODE     ---       #1027
      0100A642H   LINE      CODE     ---       #1028
      0100A6E0H   LINE      CODE     ---       #1029
      0100A6E3H   LINE      CODE     ---       #1031
      0100A6E3H   LINE      CODE     ---       #1032
      0100A781H   LINE      CODE     ---       #1033
      0100A784H   LINE      CODE     ---       #1035
      0100A784H   LINE      CODE     ---       #1036
      0100A822H   LINE      CODE     ---       #1037
      0100A822H   LINE      CODE     ---       #1038
LX51 LINKER/LOCATER V4.64.0.0                                                         04/13/2018  12:12:27  PAGE 79


      0100A822H   LINE      CODE     ---       #1040
      0100A842H   LINE      CODE     ---       #1043
      0100A86EH   LINE      CODE     ---       #1044
      0100A89AH   LINE      CODE     ---       #1045
      0100A8BAH   LINE      CODE     ---       #1047
      0100A8E6H   LINE      CODE     ---       #1048
      0100A912H   LINE      CODE     ---       #1049
      0100A932H   LINE      CODE     ---       #1053
      0100A938H   LINE      CODE     ---       #1054
      0100A941H   LINE      CODE     ---       #1055
      0100A945H   LINE      CODE     ---       #1056
      0100A945H   LINE      CODE     ---       #1058
      0100A94BH   LINE      CODE     ---       #1059
      0100A975H   LINE      CODE     ---       #1061
      0100A9A9H   LINE      CODE     ---       #1064
      0100A9BDH   LINE      CODE     ---       #1066
      0100A9C5H   LINE      CODE     ---       #1068
      0100A9C7H   LINE      CODE     ---       #1069
      0100A9C7H   LINE      CODE     ---       #1070
      0100A9C7H   LINE      CODE     ---       #1071
      ---         BLOCKEND  ---      ---       LVL=0

      010096DFH   BLOCK     CODE     ---       LVL=0
      010096DFH   BLOCK     CODE     NEAR LAB  LVL=1
      00000023H   SYMBOL    DATA     LONG      i_aux
      0000000EH   SYMBOL    DATA     BYTE      emg_1_status
      0000000FH   SYMBOL    DATA     BYTE      emg_2_status
      00000010H   SYMBOL    DATA     BYTE      UD_status
      00000011H   SYMBOL    DATA     BYTE      LR_status
      00000012H   SYMBOL    DATA     WORD      UD_counter
      00000014H   SYMBOL    DATA     WORD      LR_counter
      00000016H   SYMBOL    DATA     LONG      UD_mean_value
      0000001AH   SYMBOL    DATA     LONG      LR_mean_value
      020012D3H   SYMBOL    XDATA    WORD      emg_counter_1
      020012D5H   SYMBOL    XDATA    WORD      emg_counter_2
      020012D7H   SYMBOL    XDATA    BYTE      count
      020012D8H   SYMBOL    XDATA    DWORD     count2
      ---         BLOCKEND  ---      ---       LVL=1
      010096DFH   LINE      CODE     ---       #1077
      010096DFH   LINE      CODE     ---       #1120
      010096E5H   LINE      CODE     ---       #1121
      010096E8H   LINE      CODE     ---       #1122
      010096EAH   LINE      CODE     ---       #1123
      010096EDH   LINE      CODE     ---       #1124
      010096EDH   LINE      CODE     ---       #1125
      010096EFH   LINE      CODE     ---       #1128
      01009717H   LINE      CODE     ---       #1130
      0100971AH   LINE      CODE     ---       #1131
      0100971CH   LINE      CODE     ---       #1132
      0100971FH   LINE      CODE     ---       #1133
      0100971FH   LINE      CODE     ---       #1135
      01009728H   LINE      CODE     ---       #1136
      0100972EH   LINE      CODE     ---       #1138
      01009737H   LINE      CODE     ---       #1139
      01009751H   LINE      CODE     ---       #1140
      0100975EH   LINE      CODE     ---       #1141
      01009760H   LINE      CODE     ---       #1142
      01009760H   LINE      CODE     ---       #1143
      0100977BH   LINE      CODE     ---       #1144
      01009788H   LINE      CODE     ---       #1145
      0100978AH   LINE      CODE     ---       #1147
      01009797H   LINE      CODE     ---       #1148
      01009797H   LINE      CODE     ---       #1150
      0100979CH   LINE      CODE     ---       #1151
      0100979CH   LINE      CODE     ---       #1152
LX51 LINKER/LOCATER V4.64.0.0                                                         04/13/2018  12:12:27  PAGE 80


      0100979CH   LINE      CODE     ---       #1156
      010097BAH   LINE      CODE     ---       #1159
      010097D4H   LINE      CODE     ---       #1160
      010097D6H   LINE      CODE     ---       #1161
      010097D8H   LINE      CODE     ---       #1162
      010097D8H   LINE      CODE     ---       #1163
      010097F7H   LINE      CODE     ---       #1164
      0100980EH   LINE      CODE     ---       #1165
      0100980EH   LINE      CODE     ---       #1167
      01009814H   LINE      CODE     ---       #1168
      01009817H   LINE      CODE     ---       #1171
      01009854H   LINE      CODE     ---       #1175
      01009857H   LINE      CODE     ---       #1176
      01009859H   LINE      CODE     ---       #1177
      0100985CH   LINE      CODE     ---       #1178
      0100985CH   LINE      CODE     ---       #1181
      01009862H   LINE      CODE     ---       #1182
      01009864H   LINE      CODE     ---       #1183
      01009866H   LINE      CODE     ---       #1184
      01009866H   LINE      CODE     ---       #1187
      01009871H   LINE      CODE     ---       #1191
      01009892H   LINE      CODE     ---       #1192
      01009892H   LINE      CODE     ---       #1193
      010098A6H   LINE      CODE     ---       #1195
      0100990FH   LINE      CODE     ---       #1197
      01009912H   LINE      CODE     ---       #1198
      01009914H   LINE      CODE     ---       #1199
      01009917H   LINE      CODE     ---       #1200
      01009917H   LINE      CODE     ---       #1203
      0100992DH   LINE      CODE     ---       #1204
      01009939H   LINE      CODE     ---       #1205
      0100994DH   LINE      CODE     ---       #1206
      01009957H   LINE      CODE     ---       #1208
      01009961H   LINE      CODE     ---       #1210
      01009967H   LINE      CODE     ---       #1211
      01009969H   LINE      CODE     ---       #1212
      0100996CH   LINE      CODE     ---       #1213
      0100996CH   LINE      CODE     ---       #1215
      0100996FH   LINE      CODE     ---       #1217
      0100996FH   LINE      CODE     ---       #1218
      01009974H   LINE      CODE     ---       #1219
      0100997CH   LINE      CODE     ---       #1220
      0100997FH   LINE      CODE     ---       #1222
      01009982H   LINE      CODE     ---       #1224
      01009982H   LINE      CODE     ---       #1225
      0100998AH   LINE      CODE     ---       #1226
      01009990H   LINE      CODE     ---       #1227
      01009994H   LINE      CODE     ---       #1229
      01009997H   LINE      CODE     ---       #1230
      01009999H   LINE      CODE     ---       #1231
      0100999CH   LINE      CODE     ---       #1232
      0100999CH   LINE      CODE     ---       #1234
      0100999FH   LINE      CODE     ---       #1235
      0100999FH   LINE      CODE     ---       #1237
      010099A1H   LINE      CODE     ---       #1239
      010099A1H   LINE      CODE     ---       #1241
      010099A9H   LINE      CODE     ---       #1242
      010099CBH   LINE      CODE     ---       #1244
      010099CEH   LINE      CODE     ---       #1245
      010099D0H   LINE      CODE     ---       #1246
      010099D3H   LINE      CODE     ---       #1247
      010099D3H   LINE      CODE     ---       #1249
      010099DBH   LINE      CODE     ---       #1250
      010099F3H   LINE      CODE     ---       #1252
      010099F6H   LINE      CODE     ---       #1253
LX51 LINKER/LOCATER V4.64.0.0                                                         04/13/2018  12:12:27  PAGE 81


      010099F8H   LINE      CODE     ---       #1254
      010099FBH   LINE      CODE     ---       #1255
      010099FBH   LINE      CODE     ---       #1257
      01009A00H   LINE      CODE     ---       #1258
      01009A02H   LINE      CODE     ---       #1259
      01009A02H   LINE      CODE     ---       #1260
      01009A04H   LINE      CODE     ---       #1262
      01009A04H   LINE      CODE     ---       #1263
      01009A0CH   LINE      CODE     ---       #1264
      01009A0FH   LINE      CODE     ---       #1265
      01009A0FH   LINE      CODE     ---       #1266
      01009A0FH   LINE      CODE     ---       #1268
      01009A12H   LINE      CODE     ---       #1269
      01009A14H   LINE      CODE     ---       #1270
      01009A17H   LINE      CODE     ---       #1271
      01009A17H   LINE      CODE     ---       #1273
      01009A38H   LINE      CODE     ---       #1274
      01009A38H   LINE      CODE     ---       #1275
      01009A4CH   LINE      CODE     ---       #1277
      01009AB5H   LINE      CODE     ---       #1279
      01009AB8H   LINE      CODE     ---       #1280
      01009ABAH   LINE      CODE     ---       #1281
      01009ABDH   LINE      CODE     ---       #1282
      01009ABDH   LINE      CODE     ---       #1285
      01009AD3H   LINE      CODE     ---       #1286
      01009ADFH   LINE      CODE     ---       #1287
      01009AF3H   LINE      CODE     ---       #1288
      01009AFDH   LINE      CODE     ---       #1290
      01009B00H   LINE      CODE     ---       #1291
      01009B02H   LINE      CODE     ---       #1292
      01009B05H   LINE      CODE     ---       #1293
      01009B05H   LINE      CODE     ---       #1295
      01009B0FH   LINE      CODE     ---       #1297
      01009B12H   LINE      CODE     ---       #1299
      01009B12H   LINE      CODE     ---       #1300
      01009B17H   LINE      CODE     ---       #1301
      01009B1FH   LINE      CODE     ---       #1302
      01009B22H   LINE      CODE     ---       #1303
      01009B25H   LINE      CODE     ---       #1305
      01009B25H   LINE      CODE     ---       #1306
      01009B2DH   LINE      CODE     ---       #1307
      01009B33H   LINE      CODE     ---       #1308
      01009B37H   LINE      CODE     ---       #1310
      01009B3AH   LINE      CODE     ---       #1311
      01009B3CH   LINE      CODE     ---       #1312
      01009B3FH   LINE      CODE     ---       #1313
      01009B3FH   LINE      CODE     ---       #1315
      01009B42H   LINE      CODE     ---       #1316
      01009B42H   LINE      CODE     ---       #1317
      01009B44H   LINE      CODE     ---       #1319
      01009B44H   LINE      CODE     ---       #1321
      01009B4CH   LINE      CODE     ---       #1322
      01009B6EH   LINE      CODE     ---       #1323
      01009B76H   LINE      CODE     ---       #1324
      01009B8EH   LINE      CODE     ---       #1326
      01009B91H   LINE      CODE     ---       #1327
      01009B93H   LINE      CODE     ---       #1328
      01009B96H   LINE      CODE     ---       #1329
      01009B96H   LINE      CODE     ---       #1331
      01009B9BH   LINE      CODE     ---       #1332
      01009B9DH   LINE      CODE     ---       #1333
      01009B9DH   LINE      CODE     ---       #1334
      01009B9FH   LINE      CODE     ---       #1336
      01009B9FH   LINE      CODE     ---       #1337
      01009BABH   LINE      CODE     ---       #1338
LX51 LINKER/LOCATER V4.64.0.0                                                         04/13/2018  12:12:27  PAGE 82


      01009BAEH   LINE      CODE     ---       #1339
      01009BAEH   LINE      CODE     ---       #1340
      01009BAEH   LINE      CODE     ---       #1342
      01009BB4H   LINE      CODE     ---       #1343
      01009BB6H   LINE      CODE     ---       #1344
      01009BB9H   LINE      CODE     ---       #1345
      01009BB9H   LINE      CODE     ---       #1347
      01009BBCH   LINE      CODE     ---       #1348
      01009BBCH   LINE      CODE     ---       #1354
      01009BD7H   LINE      CODE     ---       #1355
      01009BD7H   LINE      CODE     ---       #1356
      01009BEBH   LINE      CODE     ---       #1357
      01009BFEH   LINE      CODE     ---       #1358
      01009C07H   LINE      CODE     ---       #1359
      01009C1AH   LINE      CODE     ---       #1360
      01009C38H   LINE      CODE     ---       #1362
      01009C3BH   LINE      CODE     ---       #1363
      01009C3DH   LINE      CODE     ---       #1364
      01009C40H   LINE      CODE     ---       #1365
      01009C40H   LINE      CODE     ---       #1367
      01009C53H   LINE      CODE     ---       #1368
      01009C5EH   LINE      CODE     ---       #1370
      01009C72H   LINE      CODE     ---       #1371
      01009C7CH   LINE      CODE     ---       #1373
      01009C8AH   LINE      CODE     ---       #1375
      01009C90H   LINE      CODE     ---       #1376
      01009C92H   LINE      CODE     ---       #1377
      01009C95H   LINE      CODE     ---       #1378
      01009C95H   LINE      CODE     ---       #1380
      01009C98H   LINE      CODE     ---       #1382
      01009C98H   LINE      CODE     ---       #1383
      01009C9FH   LINE      CODE     ---       #1384
      01009CA9H   LINE      CODE     ---       #1385
      01009CACH   LINE      CODE     ---       #1387
      01009CAFH   LINE      CODE     ---       #1389
      01009CAFH   LINE      CODE     ---       #1390
      01009CBDH   LINE      CODE     ---       #1391
      01009CCEH   LINE      CODE     ---       #1392
      01009CD4H   LINE      CODE     ---       #1394
      01009CD9H   LINE      CODE     ---       #1395
      01009CDEH   LINE      CODE     ---       #1397
      01009CE1H   LINE      CODE     ---       #1398
      01009CE3H   LINE      CODE     ---       #1399
      01009CE6H   LINE      CODE     ---       #1400
      01009CE6H   LINE      CODE     ---       #1402
      01009CE9H   LINE      CODE     ---       #1403
      01009CE9H   LINE      CODE     ---       #1404
      01009CECH   LINE      CODE     ---       #1406
      01009CECH   LINE      CODE     ---       #1408
      01009CFAH   LINE      CODE     ---       #1409
      01009D05H   LINE      CODE     ---       #1410
      01009D09H   LINE      CODE     ---       #1411
      01009D4AH   LINE      CODE     ---       #1413
      01009D4DH   LINE      CODE     ---       #1414
      01009D4FH   LINE      CODE     ---       #1415
      01009D52H   LINE      CODE     ---       #1416
      01009D52H   LINE      CODE     ---       #1418
      01009D60H   LINE      CODE     ---       #1419
      01009D7EH   LINE      CODE     ---       #1421
      01009D81H   LINE      CODE     ---       #1422
      01009D83H   LINE      CODE     ---       #1423
      01009D86H   LINE      CODE     ---       #1424
      01009D86H   LINE      CODE     ---       #1426
      01009D8BH   LINE      CODE     ---       #1427
      01009D90H   LINE      CODE     ---       #1429
LX51 LINKER/LOCATER V4.64.0.0                                                         04/13/2018  12:12:27  PAGE 83


      01009D97H   LINE      CODE     ---       #1431
      01009D99H   LINE      CODE     ---       #1432
      01009D99H   LINE      CODE     ---       #1433
      01009D99H   LINE      CODE     ---       #1435
      01009D99H   LINE      CODE     ---       #1436
      01009D99H   LINE      CODE     ---       #1437
      01009D99H   LINE      CODE     ---       #1439
      01009D9CH   LINE      CODE     ---       #1440
      01009D9EH   LINE      CODE     ---       #1441
      01009DA1H   LINE      CODE     ---       #1442
      01009DA1H   LINE      CODE     ---       #1444
      01009DC8H   LINE      CODE     ---       #1445
      01009DC8H   LINE      CODE     ---       #1446
      01009DDCH   LINE      CODE     ---       #1447
      01009DEFH   LINE      CODE     ---       #1448
      01009DF8H   LINE      CODE     ---       #1449
      01009E0BH   LINE      CODE     ---       #1450
      01009E29H   LINE      CODE     ---       #1452
      01009E2CH   LINE      CODE     ---       #1453
      01009E2EH   LINE      CODE     ---       #1454
      01009E31H   LINE      CODE     ---       #1455
      01009E31H   LINE      CODE     ---       #1457
      01009E44H   LINE      CODE     ---       #1458
      01009E4FH   LINE      CODE     ---       #1460
      01009E63H   LINE      CODE     ---       #1461
      01009E6DH   LINE      CODE     ---       #1463
      01009E7BH   LINE      CODE     ---       #1465
      01009E7EH   LINE      CODE     ---       #1467
      01009E7EH   LINE      CODE     ---       #1468
      01009E85H   LINE      CODE     ---       #1469
      01009E8FH   LINE      CODE     ---       #1471
      01009E92H   LINE      CODE     ---       #1472
      01009E94H   LINE      CODE     ---       #1473
      01009E97H   LINE      CODE     ---       #1474
      01009E97H   LINE      CODE     ---       #1476
      01009E9AH   LINE      CODE     ---       #1477
      01009E9DH   LINE      CODE     ---       #1479
      01009E9DH   LINE      CODE     ---       #1480
      01009EABH   LINE      CODE     ---       #1481
      01009EBCH   LINE      CODE     ---       #1482
      01009EC2H   LINE      CODE     ---       #1484
      01009EC7H   LINE      CODE     ---       #1485
      01009ECCH   LINE      CODE     ---       #1487
      01009ECFH   LINE      CODE     ---       #1488
      01009ED1H   LINE      CODE     ---       #1489
      01009ED4H   LINE      CODE     ---       #1490
      01009ED4H   LINE      CODE     ---       #1492
      01009ED7H   LINE      CODE     ---       #1493
      01009ED7H   LINE      CODE     ---       #1494
      01009EDAH   LINE      CODE     ---       #1496
      01009EDAH   LINE      CODE     ---       #1498
      01009EE8H   LINE      CODE     ---       #1499
      01009EF3H   LINE      CODE     ---       #1500
      01009EF7H   LINE      CODE     ---       #1501
      01009F38H   LINE      CODE     ---       #1503
      01009F3BH   LINE      CODE     ---       #1504
      01009F3DH   LINE      CODE     ---       #1505
      01009F40H   LINE      CODE     ---       #1506
      01009F40H   LINE      CODE     ---       #1508
      01009F51H   LINE      CODE     ---       #1509
      01009F6FH   LINE      CODE     ---       #1511
      01009F74H   LINE      CODE     ---       #1512
      01009F79H   LINE      CODE     ---       #1514
      01009F80H   LINE      CODE     ---       #1516
      01009F83H   LINE      CODE     ---       #1517
LX51 LINKER/LOCATER V4.64.0.0                                                         04/13/2018  12:12:27  PAGE 84


      01009F85H   LINE      CODE     ---       #1518
      01009F88H   LINE      CODE     ---       #1519
      01009F88H   LINE      CODE     ---       #1521
      01009F8BH   LINE      CODE     ---       #1522
      01009F8BH   LINE      CODE     ---       #1523
      01009F8EH   LINE      CODE     ---       #1525
      01009F8EH   LINE      CODE     ---       #1526
      01009F95H   LINE      CODE     ---       #1527
      01009F98H   LINE      CODE     ---       #1528
      01009F9AH   LINE      CODE     ---       #1530
      01009F9AH   LINE      CODE     ---       #1531
      01009FA8H   LINE      CODE     ---       #1532
      01009FB6H   LINE      CODE     ---       #1533
      01009FBCH   LINE      CODE     ---       #1535
      01009FBFH   LINE      CODE     ---       #1536
      01009FC1H   LINE      CODE     ---       #1537
      01009FC4H   LINE      CODE     ---       #1538
      01009FC4H   LINE      CODE     ---       #1541
      01009FDBH   LINE      CODE     ---       #1544
      01009FDBH   LINE      CODE     ---       #1545
      01009FE1H   LINE      CODE     ---       #1546
      01009FF5H   LINE      CODE     ---       #1547
      0100A009H   LINE      CODE     ---       #1548
      0100A009H   LINE      CODE     ---       #1549
      0100A012H   LINE      CODE     ---       #1550
      0100A015H   LINE      CODE     ---       #1551
      0100A015H   LINE      CODE     ---       #1553
      0100A018H   LINE      CODE     ---       #1554
      0100A018H   LINE      CODE     ---       #1555
      0100A018H   LINE      CODE     ---       #1557
      0100A018H   LINE      CODE     ---       #1558
      0100A018H   LINE      CODE     ---       #1559
      0100A018H   LINE      CODE     ---       #1561
      0100A01BH   LINE      CODE     ---       #1562
      0100A01DH   LINE      CODE     ---       #1563
      0100A020H   LINE      CODE     ---       #1564
      0100A020H   LINE      CODE     ---       #1565
      0100A020H   LINE      CODE     ---       #1566
      0100A022H   LINE      CODE     ---       #1567
      0100A022H   LINE      CODE     ---       #1569
      0100A025H   LINE      CODE     ---       #1570
      0100A028H   LINE      CODE     ---       #1572
      0100A02BH   LINE      CODE     ---       #1573
      0100A02EH   LINE      CODE     ---       #1575
      0100A030H   LINE      CODE     ---       #1578
      0100A035H   LINE      CODE     ---       #1580
      0100A03AH   LINE      CODE     ---       #1582
      0100A03DH   LINE      CODE     ---       #1583
      0100A03FH   LINE      CODE     ---       #1584
      0100A042H   LINE      CODE     ---       #1585
      0100A042H   LINE      CODE     ---       #1587
      0100A048H   LINE      CODE     ---       #1588
      0100A05FH   LINE      CODE     ---       #1591
      0100A05FH   LINE      CODE     ---       #1592
      0100A064H   LINE      CODE     ---       #1593
      0100A068H   LINE      CODE     ---       #1594
      0100A068H   LINE      CODE     ---       #1595
      0100A068H   LINE      CODE     ---       #1598
      0100A073H   LINE      CODE     ---       #1601
      0100A07EH   LINE      CODE     ---       #1602
      0100A089H   LINE      CODE     ---       #1605
      0100A090H   LINE      CODE     ---       #1606
      0100A094H   LINE      CODE     ---       #1608
      0100A094H   LINE      CODE     ---       #1611
      0100A0B1H   LINE      CODE     ---       #1612
LX51 LINKER/LOCATER V4.64.0.0                                                         04/13/2018  12:12:27  PAGE 85


      0100A0C8H   LINE      CODE     ---       #1613
      0100A116H   LINE      CODE     ---       #1615
      0100A11BH   LINE      CODE     ---       #1618
      0100A120H   LINE      CODE     ---       #1619
      0100A122H   LINE      CODE     ---       #1620
      0100A122H   LINE      CODE     ---       #1622
      0100A127H   LINE      CODE     ---       #1625
      0100A12CH   LINE      CODE     ---       #1628
      0100A132H   LINE      CODE     ---       #1629
      0100A135H   LINE      CODE     ---       #1632
      0100A138H   LINE      CODE     ---       #1633
      0100A13AH   LINE      CODE     ---       #1634
      0100A13DH   LINE      CODE     ---       #1635
      0100A13DH   LINE      CODE     ---       #1637
      0100A142H   LINE      CODE     ---       #1638
      0100A144H   LINE      CODE     ---       #1639
      0100A144H   LINE      CODE     ---       #1640
      0100A149H   LINE      CODE     ---       #1641
      0100A14DH   LINE      CODE     ---       #1642
      0100A14DH   LINE      CODE     ---       #1643
      0100A14DH   LINE      CODE     ---       #1644
      0100A14DH   LINE      CODE     ---       #1646
      0100A150H   LINE      CODE     ---       #1647
      0100A152H   LINE      CODE     ---       #1648
      0100A155H   LINE      CODE     ---       #1649
      0100A155H   LINE      CODE     ---       #1650
      ---         BLOCKEND  ---      ---       LVL=0

      0100E12AH   BLOCK     CODE     ---       LVL=0
      0100E12AH   LINE      CODE     ---       #1656
      0100E12AH   LINE      CODE     ---       #1657
      0100E135H   LINE      CODE     ---       #1659
      0100E14FH   LINE      CODE     ---       #1661
      0100E155H   LINE      CODE     ---       #1663
      0100E17EH   LINE      CODE     ---       #1665
      0100E184H   LINE      CODE     ---       #1666
      0100E184H   LINE      CODE     ---       #1669
      0100E18EH   LINE      CODE     ---       #1670
      0100E191H   LINE      CODE     ---       #1672
      0100E197H   LINE      CODE     ---       #1673
      0100E19DH   LINE      CODE     ---       #1674
      0100E19DH   LINE      CODE     ---       #1675
      ---         BLOCKEND  ---      ---       LVL=0

      0100E03FH   BLOCK     CODE     ---       LVL=0
      0100E03FH   BLOCK     CODE     NEAR LAB  LVL=1
      00000027H   SYMBOL    DATA     BYTE      index
      ---         BLOCKEND  ---      ---       LVL=1
      0100E03FH   LINE      CODE     ---       #1681
      0100E03FH   LINE      CODE     ---       #1685
      0100E05AH   LINE      CODE     ---       #1686
      0100E05FH   LINE      CODE     ---       #1687
      0100E07BH   LINE      CODE     ---       #1688
      0100E081H   LINE      CODE     ---       #1689
      0100E082H   LINE      CODE     ---       #1690
      0100E0A5H   LINE      CODE     ---       #1691
      0100E0B4H   LINE      CODE     ---       #1692
      0100E0B4H   LINE      CODE     ---       #1693
      ---         BLOCKEND  ---      ---       LVL=0

      ---         MODULE    ---      ---       MAIN
      0100B8CAH   PUBLIC    CODE     ---       main
      000000CAH   SFRSYM    DATA     BYTE      SFRPRT5SEL
      000000DAH   SFRSYM    DATA     BYTE      SFRPRT6SEL
      000000D0H.6 SFRSYM    DATA     BIT       AC
LX51 LINKER/LOCATER V4.64.0.0                                                         04/13/2018  12:12:27  PAGE 86


      000000A8H.7 SFRSYM    DATA     BIT       EA
      000000A8H   SFRSYM    DATA     BYTE      IE
      00000085H   SFRSYM    DATA     BYTE      DPH1
      00000084H   SFRSYM    DATA     BYTE      DPL1
      000000D0H.7 SFRSYM    DATA     BIT       CY
      000000A0H   SFRSYM    DATA     BYTE      P2AX
      00000095H   SFRSYM    DATA     BYTE      DPX1
      00000081H   SFRSYM    DATA     BYTE      SP
      000000D0H.2 SFRSYM    DATA     BIT       OV
      00000080H   SFRSYM    DATA     BYTE      SFRPRT0DR
      00000090H   SFRSYM    DATA     BYTE      SFRPRT1DR
      000000F2H   SFRSYM    DATA     BYTE      SFRPRT12SEL
      00000098H   SFRSYM    DATA     BYTE      SFRPRT2DR
      000000B0H   SFRSYM    DATA     BYTE      SFRPRT3DR
      000000C0H   SFRSYM    DATA     BYTE      SFRPRT4DR
      000000FAH   SFRSYM    DATA     BYTE      SFRPRT15SEL
      000000C8H   SFRSYM    DATA     BYTE      SFRPRT5DR
      000000D8H   SFRSYM    DATA     BYTE      SFRPRT6DR
      00000089H   SFRSYM    DATA     BYTE      SFRPRT0PS
      00000091H   SFRSYM    DATA     BYTE      SFRPRT1PS
      00000099H   SFRSYM    DATA     BYTE      SFRPRT2PS
      000000B1H   SFRSYM    DATA     BYTE      SFRPRT3PS
      000000C1H   SFRSYM    DATA     BYTE      SFRPRT4PS
      000000C9H   SFRSYM    DATA     BYTE      SFRPRT5PS
      000000D9H   SFRSYM    DATA     BYTE      SFRPRT6PS
      000000EAH   SFRSYM    DATA     BYTE      MXAX
      000000F0H   SFRSYM    DATA     BYTE      B
      000000E0H   SFRSYM    DATA     BYTE      ACC
      000000D0H   SFRSYM    DATA     BIT       P
      000000D0H.3 SFRSYM    DATA     BIT       RS0
      000000D0H.4 SFRSYM    DATA     BIT       RS1
      00000083H   SFRSYM    DATA     BYTE      DPH
      000000E8H   SFRSYM    DATA     BYTE      SFRPRT12DR
      00000082H   SFRSYM    DATA     BYTE      DPL
      000000F8H   SFRSYM    DATA     BYTE      SFRPRT15DR
      00000086H   SFRSYM    DATA     BYTE      DPS
      000000E9H   SFRSYM    DATA     BYTE      SFRPRT12PS
      00000093H   SFRSYM    DATA     BYTE      DPX
      000000F9H   SFRSYM    DATA     BYTE      SFRPRT15PS
      000000D0H.5 SFRSYM    DATA     BIT       F0
      000000D0H.1 SFRSYM    DATA     BIT       F1
      0000008AH   SFRSYM    DATA     BYTE      SFRPRT0SEL
      000000D0H   SFRSYM    DATA     BYTE      PSW
      000000A2H   SFRSYM    DATA     BYTE      SFRPRT1SEL
      0000009AH   SFRSYM    DATA     BYTE      SFRPRT2SEL
      000000B2H   SFRSYM    DATA     BYTE      SFRPRT3SEL
      000000C2H   SFRSYM    DATA     BYTE      SFRPRT4SEL

      0100B8CAH   BLOCK     CODE     ---       LVL=0
      0100B8CAH   BLOCK     CODE     NEAR LAB  LVL=1
      00000003H   SYMBOL    DATA     BYTE      i
      02000000H   SYMBOL    XDATA    BYTE      DMA_Chan
      02000001H   SYMBOL    XDATA    ---       DMA_TD
      ---         BLOCKEND  ---      ---       LVL=1
      0100B8CAH   LINE      CODE     ---       #72
      0100B8CAH   LINE      CODE     ---       #73
      0100B8CAH   LINE      CODE     ---       #86
      0100B8CDH   LINE      CODE     ---       #87
      0100B8D0H   LINE      CODE     ---       #91
      0100B8D9H   LINE      CODE     ---       #92
      0100B8DEH   LINE      CODE     ---       #95
      0100B8E3H   LINE      CODE     ---       #97
      0100B8E8H   LINE      CODE     ---       #98
      0100B8EBH   LINE      CODE     ---       #99
      0100B8F0H   LINE      CODE     ---       #103
LX51 LINKER/LOCATER V4.64.0.0                                                         04/13/2018  12:12:27  PAGE 87


      0100B8F3H   LINE      CODE     ---       #104
      0100B8F6H   LINE      CODE     ---       #105
      0100B8F9H   LINE      CODE     ---       #107
      0100B8FCH   LINE      CODE     ---       #108
      0100B8FFH   LINE      CODE     ---       #110
      0100B906H   LINE      CODE     ---       #114
      0100B909H   LINE      CODE     ---       #116
      0100B910H   LINE      CODE     ---       #120
      0100B913H   LINE      CODE     ---       #121
      0100B918H   LINE      CODE     ---       #122
      0100B91DH   LINE      CODE     ---       #123
      0100B922H   LINE      CODE     ---       #124
      0100B927H   LINE      CODE     ---       #129
      0100B92AH   LINE      CODE     ---       #131
      0100B92DH   LINE      CODE     ---       #132
      0100B930H   LINE      CODE     ---       #133
      0100B933H   LINE      CODE     ---       #137
      0100B936H   LINE      CODE     ---       #138
      0100B93BH   LINE      CODE     ---       #141
      0100B950H   LINE      CODE     ---       #142
      0100B958H   LINE      CODE     ---       #143
      0100B968H   LINE      CODE     ---       #144
      0100B97FH   LINE      CODE     ---       #145
      0100B98AH   LINE      CODE     ---       #147
      0100B994H   LINE      CODE     ---       #149
      0100B999H   LINE      CODE     ---       #153
      0100B99CH   LINE      CODE     ---       #154
      0100B99FH   LINE      CODE     ---       #156
      0100B9A7H   LINE      CODE     ---       #160
      0100B9ACH   LINE      CODE     ---       #162
      0100B9B5H   LINE      CODE     ---       #165
      0100B9BDH   LINE      CODE     ---       #166
      0100B9D5H   LINE      CODE     ---       #169
      0100B9DBH   LINE      CODE     ---       #170
      0100B9F2H   LINE      CODE     ---       #174
      0100B9F9H   LINE      CODE     ---       #176
      0100BA01H   LINE      CODE     ---       #177
      0100BA03H   LINE      CODE     ---       #179
      0100BA0BH   LINE      CODE     ---       #182
      0100BA13H   LINE      CODE     ---       #183
      0100BA29H   LINE      CODE     ---       #184
      0100BA35H   LINE      CODE     ---       #185
      0100BA37H   LINE      CODE     ---       #187
      0100BA4AH   LINE      CODE     ---       #189
      0100BA54H   LINE      CODE     ---       #192
      0100BA5FH   LINE      CODE     ---       #193
      0100BA6AH   LINE      CODE     ---       #195
      0100BA6FH   LINE      CODE     ---       #197
      0100BA74H   LINE      CODE     ---       #198
      0100BA80H   LINE      CODE     ---       #199
      0100BA82H   LINE      CODE     ---       #200
      0100BA88H   LINE      CODE     ---       #202
      0100BA8AH   LINE      CODE     ---       #205
      0100BA91H   LINE      CODE     ---       #206
      0100BA95H   LINE      CODE     ---       #210
      0100BA9AH   LINE      CODE     ---       #211
      0100BAA5H   LINE      CODE     ---       #215
      0100BAA5H   LINE      CODE     ---       #216
      0100BAA5H   LINE      CODE     ---       #218
      0100BAAAH   LINE      CODE     ---       #221
      0100BAADH   LINE      CODE     ---       #224
      0100BAB3H   LINE      CODE     ---       #226
      0100BAB6H   LINE      CODE     ---       #228
      0100BABBH   LINE      CODE     ---       #230
      0100BABDH   LINE      CODE     ---       #231
LX51 LINKER/LOCATER V4.64.0.0                                                         04/13/2018  12:12:27  PAGE 88


      0100BABFH   LINE      CODE     ---       #233
      0100BAC2H   LINE      CODE     ---       #234
      0100BAC4H   LINE      CODE     ---       #236
      0100BAC4H   LINE      CODE     ---       #237
      0100BAC7H   LINE      CODE     ---       #239
      0100BACCH   LINE      CODE     ---       #241
      0100BAD1H   LINE      CODE     ---       #242
      0100BAD1H   LINE      CODE     ---       #243
      0100BAD1H   LINE      CODE     ---       #244
      0100BAD3H   LINE      CODE     ---       #247
      0100BAD8H   LINE      CODE     ---       #250
      0100BAE0H   LINE      CODE     ---       #252
      0100BAE7H   LINE      CODE     ---       #253
      0100BAEAH   LINE      CODE     ---       #254
      0100BAECH   LINE      CODE     ---       #255
      0100BAECH   LINE      CODE     ---       #256
      ---         BLOCKEND  ---      ---       LVL=0

      ---         MODULE    ---      ---       UTILS
      0100A9C8H   PUBLIC    CODE     ---       check_rest_position
      02000016H   PUBLIC    XDATA    BYTE      ?_calc_turns_fcn?BYTE
      0100D008H   PUBLIC    CODE     ---       _calc_turns_fcn
      0100C44AH   PUBLIC    CODE     ---       calibration
      0200001EH   PUBLIC    XDATA    BYTE      ?_my_mod?BYTE
      0100DDD8H   PUBLIC    CODE     ---       _my_mod
      0100E27DH   PUBLIC    CODE     ---       _check_enc_data
      0100DE59H   PUBLIC    CODE     ---       _filter_voltage
      0100DD55H   PUBLIC    CODE     ---       _filter_acc_3
      0100DCD2H   PUBLIC    CODE     ---       _filter_acc_2
      0100DC4FH   PUBLIC    CODE     ---       _filter_acc_1
      0100DBCCH   PUBLIC    CODE     ---       _filter_vel_3
      0100DB49H   PUBLIC    CODE     ---       _filter_vel_2
      0100DAC6H   PUBLIC    CODE     ---       _filter_vel_1
      0100D31CH   PUBLIC    CODE     ---       _filter_ch2
      0100D267H   PUBLIC    CODE     ---       _filter_ch1
      0100E0B5H   PUBLIC    CODE     ---       _filter_i1
      000000CAH   SFRSYM    DATA     BYTE      SFRPRT5SEL
      000000DAH   SFRSYM    DATA     BYTE      SFRPRT6SEL
      000000D0H.6 SFRSYM    DATA     BIT       AC
      000000A8H.7 SFRSYM    DATA     BIT       EA
      000000A8H   SFRSYM    DATA     BYTE      IE
      00000085H   SFRSYM    DATA     BYTE      DPH1
      00000084H   SFRSYM    DATA     BYTE      DPL1
      000000D0H.7 SFRSYM    DATA     BIT       CY
      000000A0H   SFRSYM    DATA     BYTE      P2AX
      00000095H   SFRSYM    DATA     BYTE      DPX1
      00000081H   SFRSYM    DATA     BYTE      SP
      000000D0H.2 SFRSYM    DATA     BIT       OV
      00000080H   SFRSYM    DATA     BYTE      SFRPRT0DR
      00000090H   SFRSYM    DATA     BYTE      SFRPRT1DR
      000000F2H   SFRSYM    DATA     BYTE      SFRPRT12SEL
      00000098H   SFRSYM    DATA     BYTE      SFRPRT2DR
      000000B0H   SFRSYM    DATA     BYTE      SFRPRT3DR
      000000C0H   SFRSYM    DATA     BYTE      SFRPRT4DR
      000000FAH   SFRSYM    DATA     BYTE      SFRPRT15SEL
      000000C8H   SFRSYM    DATA     BYTE      SFRPRT5DR
      000000D8H   SFRSYM    DATA     BYTE      SFRPRT6DR
      00000089H   SFRSYM    DATA     BYTE      SFRPRT0PS
      00000091H   SFRSYM    DATA     BYTE      SFRPRT1PS
      00000099H   SFRSYM    DATA     BYTE      SFRPRT2PS
      000000B1H   SFRSYM    DATA     BYTE      SFRPRT3PS
      000000C1H   SFRSYM    DATA     BYTE      SFRPRT4PS
      000000C9H   SFRSYM    DATA     BYTE      SFRPRT5PS
      000000D9H   SFRSYM    DATA     BYTE      SFRPRT6PS
      000000EAH   SFRSYM    DATA     BYTE      MXAX
LX51 LINKER/LOCATER V4.64.0.0                                                         04/13/2018  12:12:27  PAGE 89


      000000F0H   SFRSYM    DATA     BYTE      B
      000000E0H   SFRSYM    DATA     BYTE      ACC
      000000D0H   SFRSYM    DATA     BIT       P
      000000D0H.3 SFRSYM    DATA     BIT       RS0
      000000D0H.4 SFRSYM    DATA     BIT       RS1
      00000083H   SFRSYM    DATA     BYTE      DPH
      000000E8H   SFRSYM    DATA     BYTE      SFRPRT12DR
      00000082H   SFRSYM    DATA     BYTE      DPL
      000000F8H   SFRSYM    DATA     BYTE      SFRPRT15DR
      00000086H   SFRSYM    DATA     BYTE      DPS
      000000E9H   SFRSYM    DATA     BYTE      SFRPRT12PS
      00000093H   SFRSYM    DATA     BYTE      DPX
      000000F9H   SFRSYM    DATA     BYTE      SFRPRT15PS
      000000D0H.5 SFRSYM    DATA     BIT       F0
      000000D0H.1 SFRSYM    DATA     BIT       F1
      0000008AH   SFRSYM    DATA     BYTE      SFRPRT0SEL
      000000D0H   SFRSYM    DATA     BYTE      PSW
      000000A2H   SFRSYM    DATA     BYTE      SFRPRT1SEL
      0000009AH   SFRSYM    DATA     BYTE      SFRPRT2SEL
      000000B2H   SFRSYM    DATA     BYTE      SFRPRT3SEL
      000000C2H   SFRSYM    DATA     BYTE      SFRPRT4SEL
      00000004H   SYMBOL    DATA     LONG      new_value
      020012F9H   SYMBOL    XDATA    LONG      old_value
      020012FDH   SYMBOL    XDATA    LONG      aux

      0100E0B5H   BLOCK     CODE     ---       LVL=0
      00000004H   SYMBOL    DATA     LONG      new_value
      0100E0B5H   BLOCK     CODE     NEAR LAB  LVL=1
      02001301H   SYMBOL    XDATA    LONG      old_value
      02001305H   SYMBOL    XDATA    LONG      aux
      ---         BLOCKEND  ---      ---       LVL=1
      0100E0B5H   LINE      CODE     ---       #63
      0100E0B5H   LINE      CODE     ---       #67
      0100E102H   LINE      CODE     ---       #69
      0100E116H   LINE      CODE     ---       #71
      0100E129H   LINE      CODE     ---       #72
      ---         BLOCKEND  ---      ---       LVL=0

      0100D267H   BLOCK     CODE     ---       LVL=0
      02000002H   SYMBOL    XDATA    LONG      new_value
      0100D26DH   BLOCK     CODE     NEAR LAB  LVL=1
      02001309H   SYMBOL    XDATA    LONG      old_value
      0200130DH   SYMBOL    XDATA    LONG      aux
      ---         BLOCKEND  ---      ---       LVL=1
      0100D267H   LINE      CODE     ---       #78
      0100D26DH   LINE      CODE     ---       #82
      0100D286H   LINE      CODE     ---       #83
      0100D291H   LINE      CODE     ---       #85
      0100D2F0H   LINE      CODE     ---       #87
      0100D304H   LINE      CODE     ---       #89
      0100D31BH   LINE      CODE     ---       #90
      ---         BLOCKEND  ---      ---       LVL=0

      0100D31CH   BLOCK     CODE     ---       LVL=0
      02000002H   SYMBOL    XDATA    LONG      new_value
      0100D322H   BLOCK     CODE     NEAR LAB  LVL=1
      02001311H   SYMBOL    XDATA    LONG      old_value
      02001315H   SYMBOL    XDATA    LONG      aux
      ---         BLOCKEND  ---      ---       LVL=1
      0100D31CH   LINE      CODE     ---       #96
      0100D322H   LINE      CODE     ---       #100
      0100D33BH   LINE      CODE     ---       #101
      0100D346H   LINE      CODE     ---       #103
      0100D3A5H   LINE      CODE     ---       #105
      0100D3B9H   LINE      CODE     ---       #107
LX51 LINKER/LOCATER V4.64.0.0                                                         04/13/2018  12:12:27  PAGE 90


      0100D3D0H   LINE      CODE     ---       #108
      ---         BLOCKEND  ---      ---       LVL=0

      0100DAC6H   BLOCK     CODE     ---       LVL=0
      02000016H   SYMBOL    XDATA    LONG      new_value
      0100DACCH   BLOCK     CODE     NEAR LAB  LVL=1
      02001319H   SYMBOL    XDATA    LONG      old_out
      0200131DH   SYMBOL    XDATA    LONG      aux
      ---         BLOCKEND  ---      ---       LVL=1
      0100DAC6H   LINE      CODE     ---       #114
      0100DACCH   LINE      CODE     ---       #118
      0100DB26H   LINE      CODE     ---       #120
      0100DB3AH   LINE      CODE     ---       #122
      0100DB48H   LINE      CODE     ---       #123
      ---         BLOCKEND  ---      ---       LVL=0

      0100DB49H   BLOCK     CODE     ---       LVL=0
      02000016H   SYMBOL    XDATA    LONG      new_value
      0100DB4FH   BLOCK     CODE     NEAR LAB  LVL=1
      02001321H   SYMBOL    XDATA    LONG      old_out
      02001325H   SYMBOL    XDATA    LONG      aux
      ---         BLOCKEND  ---      ---       LVL=1
      0100DB49H   LINE      CODE     ---       #125
      0100DB4FH   LINE      CODE     ---       #129
      0100DBA9H   LINE      CODE     ---       #131
      0100DBBDH   LINE      CODE     ---       #133
      0100DBCBH   LINE      CODE     ---       #134
      ---         BLOCKEND  ---      ---       LVL=0

      0100DBCCH   BLOCK     CODE     ---       LVL=0
      02000016H   SYMBOL    XDATA    LONG      new_value
      0100DBD2H   BLOCK     CODE     NEAR LAB  LVL=1
      02001329H   SYMBOL    XDATA    LONG      old_out
      0200132DH   SYMBOL    XDATA    LONG      aux
      ---         BLOCKEND  ---      ---       LVL=1
      0100DBCCH   LINE      CODE     ---       #136
      0100DBD2H   LINE      CODE     ---       #140
      0100DC2CH   LINE      CODE     ---       #142
      0100DC40H   LINE      CODE     ---       #144
      0100DC4EH   LINE      CODE     ---       #145
      ---         BLOCKEND  ---      ---       LVL=0

      0100DC4FH   BLOCK     CODE     ---       LVL=0
      02000016H   SYMBOL    XDATA    LONG      new_value
      0100DC55H   BLOCK     CODE     NEAR LAB  LVL=1
      02001331H   SYMBOL    XDATA    LONG      old_out
      02001335H   SYMBOL    XDATA    LONG      aux
      ---         BLOCKEND  ---      ---       LVL=1
      0100DC4FH   LINE      CODE     ---       #151
      0100DC55H   LINE      CODE     ---       #155
      0100DCAFH   LINE      CODE     ---       #157
      0100DCC3H   LINE      CODE     ---       #159
      0100DCD1H   LINE      CODE     ---       #160
      ---         BLOCKEND  ---      ---       LVL=0

      0100DCD2H   BLOCK     CODE     ---       LVL=0
      02000016H   SYMBOL    XDATA    LONG      new_value
      0100DCD8H   BLOCK     CODE     NEAR LAB  LVL=1
      02001339H   SYMBOL    XDATA    LONG      old_out
      0200133DH   SYMBOL    XDATA    LONG      aux
      ---         BLOCKEND  ---      ---       LVL=1
      0100DCD2H   LINE      CODE     ---       #162
      0100DCD8H   LINE      CODE     ---       #166
      0100DD32H   LINE      CODE     ---       #168
      0100DD46H   LINE      CODE     ---       #170
LX51 LINKER/LOCATER V4.64.0.0                                                         04/13/2018  12:12:27  PAGE 91


      0100DD54H   LINE      CODE     ---       #171
      ---         BLOCKEND  ---      ---       LVL=0

      0100DD55H   BLOCK     CODE     ---       LVL=0
      02000016H   SYMBOL    XDATA    LONG      new_value
      0100DD5BH   BLOCK     CODE     NEAR LAB  LVL=1
      02001341H   SYMBOL    XDATA    LONG      old_out
      02001345H   SYMBOL    XDATA    LONG      aux
      ---         BLOCKEND  ---      ---       LVL=1
      0100DD55H   LINE      CODE     ---       #173
      0100DD5BH   LINE      CODE     ---       #177
      0100DDB5H   LINE      CODE     ---       #179
      0100DDC9H   LINE      CODE     ---       #181
      0100DDD7H   LINE      CODE     ---       #182
      ---         BLOCKEND  ---      ---       LVL=0

      0100DE59H   BLOCK     CODE     ---       LVL=0
      00000004H   SYMBOL    DATA     LONG      new_value
      0100DE59H   BLOCK     CODE     NEAR LAB  LVL=1
      02001349H   SYMBOL    XDATA    LONG      old_value
      0200134DH   SYMBOL    XDATA    LONG      aux
      ---         BLOCKEND  ---      ---       LVL=1
      0100DE59H   LINE      CODE     ---       #188
      0100DE59H   LINE      CODE     ---       #193
      0100DEAAH   LINE      CODE     ---       #195
      0100DEBEH   LINE      CODE     ---       #197
      0100DED5H   LINE      CODE     ---       #198
      ---         BLOCKEND  ---      ---       LVL=0

      0100E27DH   BLOCK     CODE     ---       LVL=0
      00000001H   SYMBOL    DATA     ---       value
      0100E27DH   BLOCK     CODE     NEAR LAB  LVL=1
      00000075H   SYMBOL    IDATA    ---       p
      00000024H   SYMBOL    DATA     BYTE      a
      ---         BLOCKEND  ---      ---       LVL=1
      0100E27DH   LINE      CODE     ---       #206
      0100E27DH   LINE      CODE     ---       #208
      0100E287H   LINE      CODE     ---       #209
      0100E28CH   LINE      CODE     ---       #211
      0100E2A0H   LINE      CODE     ---       #212
      0100E2B4H   LINE      CODE     ---       #213
      0100E2C8H   LINE      CODE     ---       #214
      0100E2D5H   LINE      CODE     ---       #216
      0100E2E7H   LINE      CODE     ---       #218
      ---         BLOCKEND  ---      ---       LVL=0

      0100DDD8H   BLOCK     CODE     ---       LVL=0
      0200001EH   SYMBOL    XDATA    LONG      val
      02000022H   SYMBOL    XDATA    LONG      divisor
      0100DDD8H   LINE      CODE     ---       #236
      0100DDDEH   LINE      CODE     ---       #238
      0100DDF7H   LINE      CODE     ---       #239
      0100DE1FH   LINE      CODE     ---       #240
      0100DE1FH   LINE      CODE     ---       #241
      0100DE58H   LINE      CODE     ---       #242
      0100DE58H   LINE      CODE     ---       #243
      ---         BLOCKEND  ---      ---       LVL=0

      0100C44AH   BLOCK     CODE     ---       LVL=0
      0100C44AH   BLOCK     CODE     NEAR LAB  LVL=1
      02001351H   SYMBOL    XDATA    BYTE      direction
      02001352H   SYMBOL    XDATA    WORD      closure_counter
      ---         BLOCKEND  ---      ---       LVL=1
      0100C44AH   LINE      CODE     ---       #250
      0100C44AH   LINE      CODE     ---       #256
LX51 LINKER/LOCATER V4.64.0.0                                                         04/13/2018  12:12:27  PAGE 92


      0100C450H   LINE      CODE     ---       #257
      0100C49FH   LINE      CODE     ---       #258
      0100C4C4H   LINE      CODE     ---       #259
      0100C4CAH   LINE      CODE     ---       #260
      0100C4CAH   LINE      CODE     ---       #261
      0100C4CBH   LINE      CODE     ---       #262
      0100C51EH   LINE      CODE     ---       #263
      0100C547H   LINE      CODE     ---       #264
      0100C54CH   LINE      CODE     ---       #265
      0100C55AH   LINE      CODE     ---       #266
      0100C56EH   LINE      CODE     ---       #267
      0100C575H   LINE      CODE     ---       #268
      0100C579H   LINE      CODE     ---       #269
      0100C579H   LINE      CODE     ---       #270
      0100C579H   LINE      CODE     ---       #271
      0100C579H   LINE      CODE     ---       #272
      ---         BLOCKEND  ---      ---       LVL=0

      0100D008H   BLOCK     CODE     ---       LVL=0
      02000016H   SYMBOL    XDATA    LONG      pos1
      0200001AH   SYMBOL    XDATA    LONG      pos2
      0100D00EH   BLOCK     CODE     NEAR LAB  LVL=1
      00000004H   SYMBOL    DATA     LONG      x
      00000004H   SYMBOL    DATA     LONG      aux
      ---         BLOCKEND  ---      ---       LVL=1
      0100D008H   LINE      CODE     ---       #308
      0100D00EH   LINE      CODE     ---       #310
      0100D08FH   LINE      CODE     ---       #312
      0100D0AEH   LINE      CODE     ---       #314
      0100D0E2H   LINE      CODE     ---       #315
      ---         BLOCKEND  ---      ---       LVL=0

      0100A9C8H   BLOCK     CODE     ---       LVL=0
      0100A9C8H   BLOCK     CODE     NEAR LAB  LVL=1
      02001354H   SYMBOL    XDATA    DWORD     count
      02001358H   SYMBOL    XDATA    BYTE      flag_count
      02001359H   SYMBOL    XDATA    BYTE      first_time
      0200135AH   SYMBOL    XDATA    FLOAT     m
      0200135EH   SYMBOL    XDATA    LONG      abs_err_thr
      02001362H   SYMBOL    XDATA    LONG      delta_inc
      02000002H   SYMBOL    XDATA    LONG      curr_pos
      02001366H   SYMBOL    XDATA    LONG      rest_error
      02000006H   SYMBOL    XDATA    LONG      handle_value
      ---         BLOCKEND  ---      ---       LVL=1
      0100A9C8H   LINE      CODE     ---       #322
      0100A9C8H   LINE      CODE     ---       #330
      0100A9D3H   LINE      CODE     ---       #332
      0100A9DEH   LINE      CODE     ---       #334
      0100A9E4H   LINE      CODE     ---       #335
      0100A9EFH   LINE      CODE     ---       #336
      0100A9F4H   LINE      CODE     ---       #337
      0100A9F4H   LINE      CODE     ---       #339
      0100AA11H   LINE      CODE     ---       #341
      0100AA1AH   LINE      CODE     ---       #342
      0100AA20H   LINE      CODE     ---       #343
      0100AA34H   LINE      CODE     ---       #344
      0100AA36H   LINE      CODE     ---       #345
      0100AA36H   LINE      CODE     ---       #346
      0100AA3CH   LINE      CODE     ---       #347
      0100AA52H   LINE      CODE     ---       #349
      0100AA66H   LINE      CODE     ---       #350
      0100AA66H   LINE      CODE     ---       #351
      0100AA66H   LINE      CODE     ---       #353
      0100AB09H   LINE      CODE     ---       #355
      0100AB09H   LINE      CODE     ---       #356
LX51 LINKER/LOCATER V4.64.0.0                                                         04/13/2018  12:12:27  PAGE 93


      0100AB10H   LINE      CODE     ---       #357
      0100AB2FH   LINE      CODE     ---       #358
      0100AB2FH   LINE      CODE     ---       #359
      0100AB31H   LINE      CODE     ---       #360
      0100AB31H   LINE      CODE     ---       #361
      0100AB3CH   LINE      CODE     ---       #362
      0100AB41H   LINE      CODE     ---       #363
      0100AB46H   LINE      CODE     ---       #364
      0100AB46H   LINE      CODE     ---       #372
      0100AB78H   LINE      CODE     ---       #373
      0100AB7DH   LINE      CODE     ---       #374
      0100AB91H   LINE      CODE     ---       #377
      0100ABFFH   LINE      CODE     ---       #380
      0100AC3AH   LINE      CODE     ---       #381
      0100AC7AH   LINE      CODE     ---       #383
      0100ACA7H   LINE      CODE     ---       #385
      0100ACD1H   LINE      CODE     ---       #386
      0100AD11H   LINE      CODE     ---       #388
      0100AD1CH   LINE      CODE     ---       #389
      0100AD21H   LINE      CODE     ---       #390
      0100AD21H   LINE      CODE     ---       #392
      0100AD2AH   LINE      CODE     ---       #394
      0100AD6EH   LINE      CODE     ---       #396
      0100AD82H   LINE      CODE     ---       #398
      0100AD8BH   LINE      CODE     ---       #399
      0100AD91H   LINE      CODE     ---       #401
      0100AD9CH   LINE      CODE     ---       #402
      0100AD9FH   LINE      CODE     ---       #403
      0100AD9FH   LINE      CODE     ---       #404
      0100ADCCH   LINE      CODE     ---       #406
      0100ADE5H   LINE      CODE     ---       #407
      0100AE13H   LINE      CODE     ---       #408
      0100AE13H   LINE      CODE     ---       #409
      0100AE2CH   LINE      CODE     ---       #410
      0100AE5BH   LINE      CODE     ---       #411
      0100AE5BH   LINE      CODE     ---       #412
      0100AE5BH   LINE      CODE     ---       #413
      0100AE5BH   LINE      CODE     ---       #416
      0100AE61H   LINE      CODE     ---       #417
      0100AE81H   LINE      CODE     ---       #418
      0100AE95H   LINE      CODE     ---       #419
      0100AEB7H   LINE      CODE     ---       #420
      0100AECBH   LINE      CODE     ---       #421
      0100AECBH   LINE      CODE     ---       #423
      ---         BLOCKEND  ---      ---       LVL=0

      ---         MODULE    ---      ---       CYFITTER_CFG
      0100FCB6H   PUBLIC    CONST    ---       ADC_AMux__maskTable
      0100FCB2H   PUBLIC    CONST    ---       ADC_AMux__addrTable
      0100CB44H   PUBLIC    CODE     ---       cyfitter_cfg
      0100ECABH   PUBLIC    CODE     ---       _ADC_AMux_Unset
      0100ED0DH   PUBLIC    CODE     ---       _ADC_AMux_Set
      000000CAH   SFRSYM    DATA     BYTE      SFRPRT5SEL
      000000DAH   SFRSYM    DATA     BYTE      SFRPRT6SEL
      000000D0H.6 SFRSYM    DATA     BIT       AC
      000000A8H.7 SFRSYM    DATA     BIT       EA
      000000A8H   SFRSYM    DATA     BYTE      IE
      00000085H   SFRSYM    DATA     BYTE      DPH1
      00000084H   SFRSYM    DATA     BYTE      DPL1
      000000D0H.7 SFRSYM    DATA     BIT       CY
      000000A0H   SFRSYM    DATA     BYTE      P2AX
      00000095H   SFRSYM    DATA     BYTE      DPX1
      00000081H   SFRSYM    DATA     BYTE      SP
      000000D0H.2 SFRSYM    DATA     BIT       OV
      00000080H   SFRSYM    DATA     BYTE      SFRPRT0DR
LX51 LINKER/LOCATER V4.64.0.0                                                         04/13/2018  12:12:27  PAGE 94


      00000090H   SFRSYM    DATA     BYTE      SFRPRT1DR
      000000F2H   SFRSYM    DATA     BYTE      SFRPRT12SEL
      00000098H   SFRSYM    DATA     BYTE      SFRPRT2DR
      000000B0H   SFRSYM    DATA     BYTE      SFRPRT3DR
      000000C0H   SFRSYM    DATA     BYTE      SFRPRT4DR
      000000FAH   SFRSYM    DATA     BYTE      SFRPRT15SEL
      000000C8H   SFRSYM    DATA     BYTE      SFRPRT5DR
      000000D8H   SFRSYM    DATA     BYTE      SFRPRT6DR
      00000089H   SFRSYM    DATA     BYTE      SFRPRT0PS
      00000091H   SFRSYM    DATA     BYTE      SFRPRT1PS
      00000099H   SFRSYM    DATA     BYTE      SFRPRT2PS
      000000B1H   SFRSYM    DATA     BYTE      SFRPRT3PS
      000000C1H   SFRSYM    DATA     BYTE      SFRPRT4PS
      000000C9H   SFRSYM    DATA     BYTE      SFRPRT5PS
      000000D9H   SFRSYM    DATA     BYTE      SFRPRT6PS
      000000EAH   SFRSYM    DATA     BYTE      MXAX
      000000F0H   SFRSYM    DATA     BYTE      B
      000000E0H   SFRSYM    DATA     BYTE      ACC
      000000D0H   SFRSYM    DATA     BIT       P
      000000D0H.3 SFRSYM    DATA     BIT       RS0
      000000D0H.4 SFRSYM    DATA     BIT       RS1
      00000083H   SFRSYM    DATA     BYTE      DPH
      000000E8H   SFRSYM    DATA     BYTE      SFRPRT12DR
      00000082H   SFRSYM    DATA     BYTE      DPL
      000000F8H   SFRSYM    DATA     BYTE      SFRPRT15DR
      00000086H   SFRSYM    DATA     BYTE      DPS
      000000E9H   SFRSYM    DATA     BYTE      SFRPRT12PS
      00000093H   SFRSYM    DATA     BYTE      DPX
      000000F9H   SFRSYM    DATA     BYTE      SFRPRT15PS
      000000D0H.5 SFRSYM    DATA     BIT       F0
      000000D0H.1 SFRSYM    DATA     BIT       F1
      0000008AH   SFRSYM    DATA     BYTE      SFRPRT0SEL
      000000D0H   SFRSYM    DATA     BYTE      PSW
      000000A2H   SFRSYM    DATA     BYTE      SFRPRT1SEL
      0000009AH   SFRSYM    DATA     BYTE      SFRPRT2SEL
      000000B2H   SFRSYM    DATA     BYTE      SFRPRT3SEL
      000000C2H   SFRSYM    DATA     BYTE      SFRPRT4SEL
      0100BFF8H   SYMBOL    CODE     ---       ClockSetup
      0100F533H   SYMBOL    CODE     ---       _CyClockStartupError
      0100EAB2H   SYMBOL    CODE     ---       AnalogSetDefault
      0100CD65H   SYMBOL    CODE     ---       cfg_dma_init

      0100F533H   BLOCK     CODE     ---       LVL=0
      02000000H   SYMBOL    XDATA    BYTE      errorCode
      0100F533H   LINE      CODE     ---       #77
      0100F533H   LINE      CODE     ---       #78
      0100F533H   LINE      CODE     ---       #80
      0100F533H   LINE      CODE     ---       #98
      ---         BLOCKEND  ---      ---       LVL=0

      0100CD65H   BLOCK     CODE     ---       LVL=0
      0100CD65H   BLOCK     CODE     NEAR LAB  LVL=1
      0100F53DH   SYMBOL    CONST    ---       BS_DSI3_1_HV_ROUTING_VAL
      0100F5BDH   SYMBOL    CONST    ---       BS_DSISWITCH_1_2_VAL
      0100F63DH   SYMBOL    CONST    ---       BS_DSI3_2_HV_ROUTING_VAL
      0100F6BDH   SYMBOL    CONST    ---       BS_DSISWITCH_1_3_VAL
      0100F73DH   SYMBOL    CONST    ---       BS_DSI3_3_HV_ROUTING_VAL
      0100F7BDH   SYMBOL    CONST    ---       BS_DSISWITCH_1_4_VAL
      0100F83DH   SYMBOL    CONST    ---       BS_DSI3_4_HV_ROUTING_VAL
      0100F8BDH   SYMBOL    CONST    ---       BS_DSISWITCH_1_5_VAL
      0100F93DH   SYMBOL    CONST    ---       BS_DSI3_5_HV_ROUTING_VAL
      0100F9BDH   SYMBOL    CONST    ---       CH1_ADDR_DATA0
      0100F9C5H   SYMBOL    CONST    ---       CH2_ADDR_DATA0
      0100F9CDH   SYMBOL    CONST    ---       CH4_ADDR_DATA0
      0100F9D5H   SYMBOL    CONST    ---       CH5_ADDR_DATA0
LX51 LINKER/LOCATER V4.64.0.0                                                         04/13/2018  12:12:27  PAGE 95


      0100F9DDH   SYMBOL    CONST    ---       CH6_ADDR_DATA0
      0100F9E5H   SYMBOL    CONST    ---       DMA_TD_START_CMD
      020013FEH   SYMBOL    XDATA    DWORD     DMA_ZERO_VAL
      0100F9EAH   SYMBOL    CONST    ---       CFG_TD_LIST0
      ---         BLOCKEND  ---      ---       LVL=1
      0100CD65H   LINE      CODE     ---       #324
      0100CD65H   LINE      CODE     ---       #325
      0100CD65H   LINE      CODE     ---       #549
      0100CD70H   LINE      CODE     ---       #550
      0100CD76H   LINE      CODE     ---       #551
      0100CD7CH   LINE      CODE     ---       #552
      0100CD81H   LINE      CODE     ---       #553
      0100CD8DH   LINE      CODE     ---       #554
      0100CD93H   LINE      CODE     ---       #555
      0100CD97H   LINE      CODE     ---       #556
      0100CDB9H   LINE      CODE     ---       #557
      0100CDC6H   LINE      CODE     ---       #558
      0100CDD3H   LINE      CODE     ---       #559
      0100CDDFH   LINE      CODE     ---       #560
      0100CDE5H   LINE      CODE     ---       #561
      0100CDEAH   LINE      CODE     ---       #562
      0100CDF0H   LINE      CODE     ---       #563
      0100CDF6H   LINE      CODE     ---       #564
      0100CDFCH   LINE      CODE     ---       #566
      0100CDFCH   LINE      CODE     ---       #567
      0100CE02H   LINE      CODE     ---       #568
      0100CE02H   LINE      CODE     ---       #571
      0100CE0AH   LINE      CODE     ---       #572
      0100CE12H   LINE      CODE     ---       #573
      0100CE1AH   LINE      CODE     ---       #574
      0100CE22H   LINE      CODE     ---       #575
      0100CE2AH   LINE      CODE     ---       #576
      0100CE32H   LINE      CODE     ---       #579
      0100CE4DH   LINE      CODE     ---       #581
      ---         BLOCKEND  ---      ---       LVL=0

      0100BFF8H   BLOCK     CODE     ---       LVL=0
      0100BFF8H   BLOCK     CODE     NEAR LAB  LVL=1
      02000000H   SYMBOL    XDATA    DWORD     timeout
      02000004H   SYMBOL    XDATA    BYTE      pllLock
      ---         BLOCKEND  ---      ---       LVL=1
      0100BFF8H   LINE      CODE     ---       #599
      0100BFF8H   LINE      CODE     ---       #600
      0100BFF8H   LINE      CODE     ---       #606
      0100C005H   LINE      CODE     ---       #607
      0100C00BH   LINE      CODE     ---       #608
      0100C017H   LINE      CODE     ---       #609
      0100C01DH   LINE      CODE     ---       #610
      0100C02AH   LINE      CODE     ---       #611
      0100C030H   LINE      CODE     ---       #612
      0100C03DH   LINE      CODE     ---       #613
      0100C043H   LINE      CODE     ---       #614
      0100C050H   LINE      CODE     ---       #615
      0100C056H   LINE      CODE     ---       #616
      0100C063H   LINE      CODE     ---       #617
      0100C069H   LINE      CODE     ---       #618
      0100C076H   LINE      CODE     ---       #619
      0100C07CH   LINE      CODE     ---       #622
      0100C094H   LINE      CODE     ---       #625
      0100C09AH   LINE      CODE     ---       #628
      0100C0A0H   LINE      CODE     ---       #629
      0100C0AEH   LINE      CODE     ---       #632
      0100C0BBH   LINE      CODE     ---       #633
      0100C0C8H   LINE      CODE     ---       #635
      0100C0CDH   LINE      CODE     ---       #636
LX51 LINKER/LOCATER V4.64.0.0                                                         04/13/2018  12:12:27  PAGE 96


      0100C0F2H   LINE      CODE     ---       #637
      0100C0F2H   LINE      CODE     ---       #638
      0100C103H   LINE      CODE     ---       #639
      0100C10DH   LINE      CODE     ---       #640
      0100C135H   LINE      CODE     ---       #642
      0100C143H   LINE      CODE     ---       #643
      0100C143H   LINE      CODE     ---       #644
      0100C148H   LINE      CODE     ---       #645
      0100C148H   LINE      CODE     ---       #648
      0100C155H   LINE      CODE     ---       #649
      0100C15BH   LINE      CODE     ---       #650
      0100C160H   LINE      CODE     ---       #651
      0100C166H   LINE      CODE     ---       #652
      0100C16BH   LINE      CODE     ---       #655
      0100C16FH   LINE      CODE     ---       #656
      0100C175H   LINE      CODE     ---       #657
      0100C17BH   LINE      CODE     ---       #659
      0100C182H   LINE      CODE     ---       #660
      0100C189H   LINE      CODE     ---       #661
      0100C190H   LINE      CODE     ---       #662
      ---         BLOCKEND  ---      ---       LVL=0

      0100EAB2H   BLOCK     CODE     ---       LVL=0
      0100EAB2H   BLOCK     CODE     NEAR LAB  LVL=1
      00000007H   SYMBOL    DATA     BYTE      bg_xover_inl_trim
      ---         BLOCKEND  ---      ---       LVL=1
      0100EAB2H   LINE      CODE     ---       #684
      0100EAB2H   LINE      CODE     ---       #685
      0100EAB2H   LINE      CODE     ---       #686
      0100EABBH   LINE      CODE     ---       #687
      0100EAC2H   LINE      CODE     ---       #688
      0100EAC8H   LINE      CODE     ---       #689
      0100EACEH   LINE      CODE     ---       #690
      0100EAD4H   LINE      CODE     ---       #691
      0100EADAH   LINE      CODE     ---       #692
      0100EAE0H   LINE      CODE     ---       #693
      0100EAE6H   LINE      CODE     ---       #694
      0100EAECH   LINE      CODE     ---       #695
      ---         BLOCKEND  ---      ---       LVL=0
      00000007H   SYMBOL    DATA     BYTE      enabled
      00000006H   SYMBOL    DATA     BYTE      regValue

      0100ED0DH   BLOCK     CODE     ---       LVL=0
      00000007H   SYMBOL    DATA     BYTE      channel
      0100ED0DH   LINE      CODE     ---       #758
      0100ED0DH   LINE      CODE     ---       #759
      0100ED0DH   LINE      CODE     ---       #760
      0100ED13H   LINE      CODE     ---       #761
      0100ED13H   LINE      CODE     ---       #762
      0100ED3CH   LINE      CODE     ---       #763
      0100ED3CH   LINE      CODE     ---       #764
      ---         BLOCKEND  ---      ---       LVL=0

      0100ECABH   BLOCK     CODE     ---       LVL=0
      00000007H   SYMBOL    DATA     BYTE      channel
      0100ECABH   LINE      CODE     ---       #780
      0100ECABH   LINE      CODE     ---       #781
      0100ECABH   LINE      CODE     ---       #782
      0100ECB1H   LINE      CODE     ---       #783
      0100ECB1H   LINE      CODE     ---       #784
      0100ECDBH   LINE      CODE     ---       #785
      0100ECDBH   LINE      CODE     ---       #786
      ---         BLOCKEND  ---      ---       LVL=0

      0100CB44H   BLOCK     CODE     ---       LVL=0
LX51 LINKER/LOCATER V4.64.0.0                                                         04/13/2018  12:12:27  PAGE 97


      0100CB44H   BLOCK     CODE     NEAR LAB  LVL=1
      0100FCB8H   SYMBOL    CONST    ---       BS_IOPINS0_7_VAL
      0100FCC0H   SYMBOL    CONST    ---       BS_IOPINS0_8_VAL
      0100FCCAH   SYMBOL    CONST    ---       BS_IOPINS0_1_VAL
      0100FCD4H   SYMBOL    CONST    ---       BS_IOPINS0_2_VAL
      0100FCDCH   SYMBOL    CONST    ---       BS_PHUB_CFGMEM10_VAL
      ---         BLOCKEND  ---      ---       LVL=1
      0100CB44H   LINE      CODE     ---       #807
      0100CB44H   LINE      CODE     ---       #808
      0100CB44H   LINE      CODE     ---       #830
      0100CB5AH   LINE      CODE     ---       #832
      0100CB5AH   LINE      CODE     ---       #833
      0100CB5DH   LINE      CODE     ---       #836
      0100CB63H   LINE      CODE     ---       #837
      0100CB74H   LINE      CODE     ---       #840
      0100CB8AH   LINE      CODE     ---       #841
      0100CBA0H   LINE      CODE     ---       #844
      0100CBA7H   LINE      CODE     ---       #845
      0100CBAEH   LINE      CODE     ---       #846
      0100CBAEH   LINE      CODE     ---       #850
      0100CBC8H   LINE      CODE     ---       #851
      0100CBD9H   LINE      CODE     ---       #852
      0100CBEAH   LINE      CODE     ---       #853
      0100CBFBH   LINE      CODE     ---       #854
      0100CC0CH   LINE      CODE     ---       #855
      0100CC12H   LINE      CODE     ---       #857
      0100CC19H   LINE      CODE     ---       #858
      0100CC22H   LINE      CODE     ---       #859
      0100CC22H   LINE      CODE     ---       #860
      0100CC28H   LINE      CODE     ---       #861
      0100CC28H   LINE      CODE     ---       #865
      0100CC2EH   LINE      CODE     ---       #867
      0100CC31H   LINE      CODE     ---       #870
      0100CC34H   LINE      CODE     ---       #873
      0100CC55H   LINE      CODE     ---       #874
      0100CC5CH   LINE      CODE     ---       #875
      ---         BLOCKEND  ---      ---       LVL=0

      ---         MODULE    ---      ---       CLOCK_UART
      0100F3FAH   PUBLIC    CODE     ---       CLOCK_UART_GetSourceRegister
      0100F382H   PUBLIC    CODE     ---       CLOCK_UART_GetDividerRegister
      0100C57AH   PUBLIC    CODE     ---       _CLOCK_UART_SetDividerRegister
      00000007H   SYMBOL    DATA     BYTE      state

      0100C57AH   BLOCK     CODE     ---       LVL=0
      0200002CH   SYMBOL    XDATA    WORD      clkDivider
      0200002EH   SYMBOL    XDATA    BYTE      restart
      0100C585H   BLOCK     CODE     NEAR LAB  LVL=1
      0200002FH   SYMBOL    XDATA    BYTE      enabled
      02000030H   SYMBOL    XDATA    BYTE      currSrc
      02000031H   SYMBOL    XDATA    WORD      oldDivider
      ---         BLOCKEND  ---      ---       LVL=1
      0100C57AH   LINE      CODE     ---       #193
      0100C585H   LINE      CODE     ---       #195
      0100C585H   LINE      CODE     ---       #198
      0100C58DH   LINE      CODE     ---       #199
      0100C598H   LINE      CODE     ---       #201
      0100C5AAH   LINE      CODE     ---       #202
      0100C5AAH   LINE      CODE     ---       #203
      0100C5B4H   LINE      CODE     ---       #205
      0100C5C5H   LINE      CODE     ---       #206
      0100C5C5H   LINE      CODE     ---       #208
      0100C5C9H   LINE      CODE     ---       #209
      0100C5C9H   LINE      CODE     ---       #213
      0100C5D2H   LINE      CODE     ---       #214
LX51 LINKER/LOCATER V4.64.0.0                                                         04/13/2018  12:12:27  PAGE 98


      0100C5D9H   LINE      CODE     ---       #215
      0100C5DAH   LINE      CODE     ---       #217
      0100C5DAH   LINE      CODE     ---       #220
      0100C5E1H   LINE      CODE     ---       #221
      0100C5F2H   LINE      CODE     ---       #222
      0100C5F2H   LINE      CODE     ---       #223
      0100C5F3H   LINE      CODE     ---       #225
      0100C5F3H   LINE      CODE     ---       #227
      0100C5F9H   LINE      CODE     ---       #228
      0100C5F9H   LINE      CODE     ---       #229
      0100C5FEH   LINE      CODE     ---       #236
      0100C603H   LINE      CODE     ---       #237
      0100C608H   LINE      CODE     ---       #240
      0100C60FH   LINE      CODE     ---       #243
      0100C621H   LINE      CODE     ---       #244
      0100C621H   LINE      CODE     ---       #246
      0100C632H   LINE      CODE     ---       #247
      0100C638H   LINE      CODE     ---       #250
      0100C640H   LINE      CODE     ---       #253
      0100C647H   LINE      CODE     ---       #257
      0100C64CH   LINE      CODE     ---       #259
      0100C64CH   LINE      CODE     ---       #260
      0100C64CH   LINE      CODE     ---       #263
      0100C654H   LINE      CODE     ---       #264
      0100C654H   LINE      CODE     ---       #266
      0100C665H   LINE      CODE     ---       #268
      0100C678H   LINE      CODE     ---       #269
      0100C682H   LINE      CODE     ---       #270
      0100C683H   LINE      CODE     ---       #272
      0100C683H   LINE      CODE     ---       #274
      0100C694H   LINE      CODE     ---       #275
      0100C6A9H   LINE      CODE     ---       #276
      0100C6A9H   LINE      CODE     ---       #277
      0100C6A9H   LINE      CODE     ---       #278
      0100C6A9H   LINE      CODE     ---       #279
      ---         BLOCKEND  ---      ---       LVL=0

      0100F382H   BLOCK     CODE     ---       LVL=0
      0100F382H   LINE      CODE     ---       #297
      0100F382H   LINE      CODE     ---       #298
      0100F382H   LINE      CODE     ---       #299
      0100F38BH   LINE      CODE     ---       #300
      ---         BLOCKEND  ---      ---       LVL=0
      00000007H   SYMBOL    DATA     BYTE      modeBitMask
      00000007H   SYMBOL    DATA     BYTE      modeBitMask
      00000007H   SYMBOL    DATA     BYTE      oldSrc

      0100F3FAH   BLOCK     CODE     ---       LVL=0
      0100F3FAH   LINE      CODE     ---       #464
      0100F3FAH   LINE      CODE     ---       #465
      0100F3FAH   LINE      CODE     ---       #466
      0100F401H   LINE      CODE     ---       #467
      ---         BLOCKEND  ---      ---       LVL=0

      ---         MODULE    ---      ---       ISR_RS485_RX
      0100F441H   PUBLIC    CODE     ---       ISR_RS485_RX_Disable
      0100F43AH   PUBLIC    CODE     ---       ISR_RS485_RX_Enable
      0100F38CH   PUBLIC    CODE     ---       _ISR_RS485_RX_SetPriority
      0100F280H   PUBLIC    CODE     ---       _ISR_RS485_RX_SetVector
      0100EDCAH   PUBLIC    CODE     ---       ISR_RS485_RX_Interrupt
      0100EF69H   PUBLIC    CODE     ---       _ISR_RS485_RX_StartEx
      000000CAH   SFRSYM    DATA     BYTE      SFRPRT5SEL
      000000DAH   SFRSYM    DATA     BYTE      SFRPRT6SEL
      000000D0H.6 SFRSYM    DATA     BIT       AC
      000000A8H.7 SFRSYM    DATA     BIT       EA
LX51 LINKER/LOCATER V4.64.0.0                                                         04/13/2018  12:12:27  PAGE 99


      000000A8H   SFRSYM    DATA     BYTE      IE
      00000085H   SFRSYM    DATA     BYTE      DPH1
      00000084H   SFRSYM    DATA     BYTE      DPL1
      000000D0H.7 SFRSYM    DATA     BIT       CY
      000000A0H   SFRSYM    DATA     BYTE      P2AX
      00000095H   SFRSYM    DATA     BYTE      DPX1
      00000081H   SFRSYM    DATA     BYTE      SP
      000000D0H.2 SFRSYM    DATA     BIT       OV
      00000080H   SFRSYM    DATA     BYTE      SFRPRT0DR
      00000090H   SFRSYM    DATA     BYTE      SFRPRT1DR
      000000F2H   SFRSYM    DATA     BYTE      SFRPRT12SEL
      00000098H   SFRSYM    DATA     BYTE      SFRPRT2DR
      000000B0H   SFRSYM    DATA     BYTE      SFRPRT3DR
      000000C0H   SFRSYM    DATA     BYTE      SFRPRT4DR
      000000FAH   SFRSYM    DATA     BYTE      SFRPRT15SEL
      000000C8H   SFRSYM    DATA     BYTE      SFRPRT5DR
      000000D8H   SFRSYM    DATA     BYTE      SFRPRT6DR
      00000089H   SFRSYM    DATA     BYTE      SFRPRT0PS
      00000091H   SFRSYM    DATA     BYTE      SFRPRT1PS
      00000099H   SFRSYM    DATA     BYTE      SFRPRT2PS
      000000B1H   SFRSYM    DATA     BYTE      SFRPRT3PS
      000000C1H   SFRSYM    DATA     BYTE      SFRPRT4PS
      000000C9H   SFRSYM    DATA     BYTE      SFRPRT5PS
      000000D9H   SFRSYM    DATA     BYTE      SFRPRT6PS
      000000EAH   SFRSYM    DATA     BYTE      MXAX
      000000F0H   SFRSYM    DATA     BYTE      B
      000000E0H   SFRSYM    DATA     BYTE      ACC
      000000D0H   SFRSYM    DATA     BIT       P
      000000D0H.3 SFRSYM    DATA     BIT       RS0
      000000D0H.4 SFRSYM    DATA     BIT       RS1
      00000083H   SFRSYM    DATA     BYTE      DPH
      000000E8H   SFRSYM    DATA     BYTE      SFRPRT12DR
      00000082H   SFRSYM    DATA     BYTE      DPL
      000000F8H   SFRSYM    DATA     BYTE      SFRPRT15DR
      00000086H   SFRSYM    DATA     BYTE      DPS
      000000E9H   SFRSYM    DATA     BYTE      SFRPRT12PS
      00000093H   SFRSYM    DATA     BYTE      DPX
      000000F9H   SFRSYM    DATA     BYTE      SFRPRT15PS
      000000D0H.5 SFRSYM    DATA     BIT       F0
      000000D0H.1 SFRSYM    DATA     BIT       F1
      0000008AH   SFRSYM    DATA     BYTE      SFRPRT0SEL
      000000D0H   SFRSYM    DATA     BYTE      PSW
      000000A2H   SFRSYM    DATA     BYTE      SFRPRT1SEL
      0000009AH   SFRSYM    DATA     BYTE      SFRPRT2SEL
      000000B2H   SFRSYM    DATA     BYTE      SFRPRT3SEL
      000000C2H   SFRSYM    DATA     BYTE      SFRPRT4SEL

      0100EF69H   BLOCK     CODE     ---       LVL=0
      02000002H   SYMBOL    XDATA    ---       address
      0100EF69H   LINE      CODE     ---       #94
      0100EF71H   LINE      CODE     ---       #95
      0100EF71H   LINE      CODE     ---       #97
      0100EF74H   LINE      CODE     ---       #100
      0100EF7FH   LINE      CODE     ---       #103
      0100EF84H   LINE      CODE     ---       #106
      0100EF87H   LINE      CODE     ---       #107
      ---         BLOCKEND  ---      ---       LVL=0

      0100EDCAH   BLOCK     CODE     ---       LVL=0
      0100EDCAH   LINE      CODE     ---       #151
      0100EDCAH   LINE      CODE     ---       #168
      ---         BLOCKEND  ---      ---       LVL=0

      0100F280H   BLOCK     CODE     ---       LVL=0
      00000006H   SYMBOL    DATA     ---       address
LX51 LINKER/LOCATER V4.64.0.0                                                         04/13/2018  12:12:27  PAGE 100


      0100F280H   LINE      CODE     ---       #198
      0100F280H   LINE      CODE     ---       #199
      0100F280H   LINE      CODE     ---       #200
      0100F28DH   LINE      CODE     ---       #201
      ---         BLOCKEND  ---      ---       LVL=0

      0100F38CH   BLOCK     CODE     ---       LVL=0
      00000007H   SYMBOL    DATA     BYTE      priority
      0100F38CH   LINE      CODE     ---       #248
      0100F38CH   LINE      CODE     ---       #249
      0100F38CH   LINE      CODE     ---       #250
      0100F395H   LINE      CODE     ---       #251
      ---         BLOCKEND  ---      ---       LVL=0
      00000007H   SYMBOL    DATA     BYTE      priority

      0100F43AH   BLOCK     CODE     ---       LVL=0
      0100F43AH   LINE      CODE     ---       #297
      0100F43AH   LINE      CODE     ---       #298
      0100F43AH   LINE      CODE     ---       #300
      0100F440H   LINE      CODE     ---       #301
      ---         BLOCKEND  ---      ---       LVL=0

      0100F441H   BLOCK     CODE     ---       LVL=0
      0100F441H   LINE      CODE     ---       #339
      0100F441H   LINE      CODE     ---       #340
      0100F441H   LINE      CODE     ---       #342
      0100F447H   LINE      CODE     ---       #343
      ---         BLOCKEND  ---      ---       LVL=0

      ---         MODULE    ---      ---       PWM_MOTORS
      02001404H   PUBLIC    XDATA    BYTE      PWM_MOTORS_initVar
      0100F46FH   PUBLIC    CODE     ---       _PWM_MOTORS_WriteCompare2
      0100F469H   PUBLIC    CODE     ---       _PWM_MOTORS_WriteCompare1
      0100F463H   PUBLIC    CODE     ---       _PWM_MOTORS_WritePeriod
      0100F45DH   PUBLIC    CODE     ---       _PWM_MOTORS_WriteCounter
      0100F402H   PUBLIC    CODE     ---       PWM_MOTORS_Enable
      0100EE77H   PUBLIC    CODE     ---       PWM_MOTORS_Init
      0100EAEDH   PUBLIC    CODE     ---       PWM_MOTORS_Start
      000000CAH   SFRSYM    DATA     BYTE      SFRPRT5SEL
      000000DAH   SFRSYM    DATA     BYTE      SFRPRT6SEL
      000000D0H.6 SFRSYM    DATA     BIT       AC
      000000A8H.7 SFRSYM    DATA     BIT       EA
      000000A8H   SFRSYM    DATA     BYTE      IE
      00000085H   SFRSYM    DATA     BYTE      DPH1
      00000084H   SFRSYM    DATA     BYTE      DPL1
      000000D0H.7 SFRSYM    DATA     BIT       CY
      000000A0H   SFRSYM    DATA     BYTE      P2AX
      00000095H   SFRSYM    DATA     BYTE      DPX1
      00000081H   SFRSYM    DATA     BYTE      SP
      000000D0H.2 SFRSYM    DATA     BIT       OV
      00000080H   SFRSYM    DATA     BYTE      SFRPRT0DR
      00000090H   SFRSYM    DATA     BYTE      SFRPRT1DR
      000000F2H   SFRSYM    DATA     BYTE      SFRPRT12SEL
      00000098H   SFRSYM    DATA     BYTE      SFRPRT2DR
      000000B0H   SFRSYM    DATA     BYTE      SFRPRT3DR
      000000C0H   SFRSYM    DATA     BYTE      SFRPRT4DR
      000000FAH   SFRSYM    DATA     BYTE      SFRPRT15SEL
      000000C8H   SFRSYM    DATA     BYTE      SFRPRT5DR
      000000D8H   SFRSYM    DATA     BYTE      SFRPRT6DR
      00000089H   SFRSYM    DATA     BYTE      SFRPRT0PS
      00000091H   SFRSYM    DATA     BYTE      SFRPRT1PS
      00000099H   SFRSYM    DATA     BYTE      SFRPRT2PS
      000000B1H   SFRSYM    DATA     BYTE      SFRPRT3PS
      000000C1H   SFRSYM    DATA     BYTE      SFRPRT4PS
      000000C9H   SFRSYM    DATA     BYTE      SFRPRT5PS
LX51 LINKER/LOCATER V4.64.0.0                                                         04/13/2018  12:12:27  PAGE 101


      000000D9H   SFRSYM    DATA     BYTE      SFRPRT6PS
      000000EAH   SFRSYM    DATA     BYTE      MXAX
      000000F0H   SFRSYM    DATA     BYTE      B
      000000E0H   SFRSYM    DATA     BYTE      ACC
      000000D0H   SFRSYM    DATA     BIT       P
      000000D0H.3 SFRSYM    DATA     BIT       RS0
      000000D0H.4 SFRSYM    DATA     BIT       RS1
      00000083H   SFRSYM    DATA     BYTE      DPH
      000000E8H   SFRSYM    DATA     BYTE      SFRPRT12DR
      00000082H   SFRSYM    DATA     BYTE      DPL
      000000F8H   SFRSYM    DATA     BYTE      SFRPRT15DR
      00000086H   SFRSYM    DATA     BYTE      DPS
      000000E9H   SFRSYM    DATA     BYTE      SFRPRT12PS
      00000093H   SFRSYM    DATA     BYTE      DPX
      000000F9H   SFRSYM    DATA     BYTE      SFRPRT15PS
      000000D0H.5 SFRSYM    DATA     BIT       F0
      000000D0H.1 SFRSYM    DATA     BIT       F1
      0000008AH   SFRSYM    DATA     BYTE      SFRPRT0SEL
      000000D0H   SFRSYM    DATA     BYTE      PSW
      000000A2H   SFRSYM    DATA     BYTE      SFRPRT1SEL
      0000009AH   SFRSYM    DATA     BYTE      SFRPRT2SEL
      000000B2H   SFRSYM    DATA     BYTE      SFRPRT3SEL
      000000C2H   SFRSYM    DATA     BYTE      SFRPRT4SEL

      0100EAEDH   BLOCK     CODE     ---       LVL=0
      0100EAEDH   LINE      CODE     ---       #55
      0100EAEDH   LINE      CODE     ---       #56
      0100EAEDH   LINE      CODE     ---       #58
      0100EAF3H   LINE      CODE     ---       #59
      0100EAF3H   LINE      CODE     ---       #60
      0100EAF6H   LINE      CODE     ---       #61
      0100EAFCH   LINE      CODE     ---       #62
      0100EAFCH   LINE      CODE     ---       #63
      0100EAFFH   LINE      CODE     ---       #65
      ---         BLOCKEND  ---      ---       LVL=0

      0100EE77H   BLOCK     CODE     ---       LVL=0
      0100EE77H   BLOCK     CODE     NEAR LAB  LVL=1
      00000007H   SYMBOL    DATA     BYTE      ctrl
      ---         BLOCKEND  ---      ---       LVL=1
      0100EE77H   LINE      CODE     ---       #84
      0100EE77H   LINE      CODE     ---       #85
      0100EE77H   LINE      CODE     ---       #118
      0100EE7EH   LINE      CODE     ---       #120
      0100EE81H   LINE      CODE     ---       #126
      0100EE88H   LINE      CODE     ---       #133
      0100EE8DH   LINE      CODE     ---       #136
      0100EE92H   LINE      CODE     ---       #141
      0100EE97H   LINE      CODE     ---       #142
      0100EE9CH   LINE      CODE     ---       #179
      ---         BLOCKEND  ---      ---       LVL=0

      0100F402H   BLOCK     CODE     ---       LVL=0
      0100F402H   LINE      CODE     ---       #199
      0100F402H   LINE      CODE     ---       #200
      0100F402H   LINE      CODE     ---       #209
      0100F409H   LINE      CODE     ---       #211
      ---         BLOCKEND  ---      ---       LVL=0

      0100F45DH   BLOCK     CODE     ---       LVL=0
      00000007H   SYMBOL    DATA     BYTE      counter
      0100F45DH   LINE      CODE     ---       #403
      0100F45DH   LINE      CODE     ---       #405
      0100F45DH   LINE      CODE     ---       #406
      0100F462H   LINE      CODE     ---       #407
LX51 LINKER/LOCATER V4.64.0.0                                                         04/13/2018  12:12:27  PAGE 102


      ---         BLOCKEND  ---      ---       LVL=0

      0100F463H   BLOCK     CODE     ---       LVL=0
      00000007H   SYMBOL    DATA     BYTE      period
      0100F463H   LINE      CODE     ---       #482
      0100F463H   LINE      CODE     ---       #483
      0100F463H   LINE      CODE     ---       #487
      0100F468H   LINE      CODE     ---       #489
      ---         BLOCKEND  ---      ---       LVL=0

      0100F469H   BLOCK     CODE     ---       LVL=0
      00000007H   SYMBOL    DATA     BYTE      compare
      0100F469H   LINE      CODE     ---       #555
      0100F469H   LINE      CODE     ---       #557
      0100F469H   LINE      CODE     ---       #561
      0100F46EH   LINE      CODE     ---       #563
      ---         BLOCKEND  ---      ---       LVL=0

      0100F46FH   BLOCK     CODE     ---       LVL=0
      00000007H   SYMBOL    DATA     BYTE      compare
      0100F46FH   LINE      CODE     ---       #584
      0100F46FH   LINE      CODE     ---       #586
      0100F46FH   LINE      CODE     ---       #590
      0100F474H   LINE      CODE     ---       #592
      ---         BLOCKEND  ---      ---       LVL=0
      00000007H   SYMBOL    DATA     BYTE      result
      00000007H   SYMBOL    DATA     BYTE      control

      ---         MODULE    ---      ---       PACER_TIMER
      02001405H   PUBLIC    XDATA    BYTE      PACER_TIMER_initVar
      0100F29CH   PUBLIC    CODE     ---       _PACER_TIMER_WriteCounter
      0100F28EH   PUBLIC    CODE     ---       _PACER_TIMER_WritePeriod
      0100F475H   PUBLIC    CODE     ---       _PACER_TIMER_SetInterruptMode
      0100F13EH   PUBLIC    CODE     ---       PACER_TIMER_Start
      0100F096H   PUBLIC    CODE     ---       PACER_TIMER_Enable
      0100EA00H   PUBLIC    CODE     ---       PACER_TIMER_Init
      000000CAH   SFRSYM    DATA     BYTE      SFRPRT5SEL
      000000DAH   SFRSYM    DATA     BYTE      SFRPRT6SEL
      000000D0H.6 SFRSYM    DATA     BIT       AC
      000000A8H.7 SFRSYM    DATA     BIT       EA
      000000A8H   SFRSYM    DATA     BYTE      IE
      00000085H   SFRSYM    DATA     BYTE      DPH1
      00000084H   SFRSYM    DATA     BYTE      DPL1
      000000D0H.7 SFRSYM    DATA     BIT       CY
      000000A0H   SFRSYM    DATA     BYTE      P2AX
      00000095H   SFRSYM    DATA     BYTE      DPX1
      00000081H   SFRSYM    DATA     BYTE      SP
      000000D0H.2 SFRSYM    DATA     BIT       OV
      00000080H   SFRSYM    DATA     BYTE      SFRPRT0DR
      00000090H   SFRSYM    DATA     BYTE      SFRPRT1DR
      000000F2H   SFRSYM    DATA     BYTE      SFRPRT12SEL
      00000098H   SFRSYM    DATA     BYTE      SFRPRT2DR
      000000B0H   SFRSYM    DATA     BYTE      SFRPRT3DR
      000000C0H   SFRSYM    DATA     BYTE      SFRPRT4DR
      000000FAH   SFRSYM    DATA     BYTE      SFRPRT15SEL
      000000C8H   SFRSYM    DATA     BYTE      SFRPRT5DR
      000000D8H   SFRSYM    DATA     BYTE      SFRPRT6DR
      00000089H   SFRSYM    DATA     BYTE      SFRPRT0PS
      00000091H   SFRSYM    DATA     BYTE      SFRPRT1PS
      00000099H   SFRSYM    DATA     BYTE      SFRPRT2PS
      000000B1H   SFRSYM    DATA     BYTE      SFRPRT3PS
      000000C1H   SFRSYM    DATA     BYTE      SFRPRT4PS
      000000C9H   SFRSYM    DATA     BYTE      SFRPRT5PS
      000000D9H   SFRSYM    DATA     BYTE      SFRPRT6PS
      000000EAH   SFRSYM    DATA     BYTE      MXAX
LX51 LINKER/LOCATER V4.64.0.0                                                         04/13/2018  12:12:27  PAGE 103


      000000F0H   SFRSYM    DATA     BYTE      B
      000000E0H   SFRSYM    DATA     BYTE      ACC
      000000D0H   SFRSYM    DATA     BIT       P
      000000D0H.3 SFRSYM    DATA     BIT       RS0
      000000D0H.4 SFRSYM    DATA     BIT       RS1
      00000083H   SFRSYM    DATA     BYTE      DPH
      000000E8H   SFRSYM    DATA     BYTE      SFRPRT12DR
      00000082H   SFRSYM    DATA     BYTE      DPL
      000000F8H   SFRSYM    DATA     BYTE      SFRPRT15DR
      00000086H   SFRSYM    DATA     BYTE      DPS
      000000E9H   SFRSYM    DATA     BYTE      SFRPRT12PS
      00000093H   SFRSYM    DATA     BYTE      DPX
      000000F9H   SFRSYM    DATA     BYTE      SFRPRT15PS
      000000D0H.5 SFRSYM    DATA     BIT       F0
      000000D0H.1 SFRSYM    DATA     BIT       F1
      0000008AH   SFRSYM    DATA     BYTE      SFRPRT0SEL
      000000D0H   SFRSYM    DATA     BYTE      PSW
      000000A2H   SFRSYM    DATA     BYTE      SFRPRT1SEL
      0000009AH   SFRSYM    DATA     BYTE      SFRPRT2SEL
      000000B2H   SFRSYM    DATA     BYTE      SFRPRT3SEL
      000000C2H   SFRSYM    DATA     BYTE      SFRPRT4SEL

      0100EA00H   BLOCK     CODE     ---       LVL=0
      0100EA00H   LINE      CODE     ---       #43
      0100EA00H   LINE      CODE     ---       #44
      0100EA00H   LINE      CODE     ---       #52
      0100EA07H   LINE      CODE     ---       #60
      0100EA0EH   LINE      CODE     ---       #106
      0100EA15H   LINE      CODE     ---       #107
      0100EA19H   LINE      CODE     ---       #110
      0100EA1DH   LINE      CODE     ---       #111
      0100EA21H   LINE      CODE     ---       #114
      0100EA28H   LINE      CODE     ---       #118
      0100EA2FH   LINE      CODE     ---       #119
      0100EA36H   LINE      CODE     ---       #162
      0100EA3BH   LINE      CODE     ---       #163
      ---         BLOCKEND  ---      ---       LVL=0

      0100F096H   BLOCK     CODE     ---       LVL=0
      0100F096H   LINE      CODE     ---       #180
      0100F096H   LINE      CODE     ---       #181
      0100F096H   LINE      CODE     ---       #184
      0100F09DH   LINE      CODE     ---       #185
      0100F0A4H   LINE      CODE     ---       #190
      0100F0ABH   LINE      CODE     ---       #192
      ---         BLOCKEND  ---      ---       LVL=0

      0100F13EH   BLOCK     CODE     ---       LVL=0
      0100F13EH   LINE      CODE     ---       #215
      0100F13EH   LINE      CODE     ---       #216
      0100F13EH   LINE      CODE     ---       #217
      0100F144H   LINE      CODE     ---       #218
      0100F144H   LINE      CODE     ---       #219
      0100F147H   LINE      CODE     ---       #221
      0100F14DH   LINE      CODE     ---       #222
      0100F14DH   LINE      CODE     ---       #225
      0100F150H   LINE      CODE     ---       #226
      ---         BLOCKEND  ---      ---       LVL=0

      0100F475H   BLOCK     CODE     ---       LVL=0
      00000007H   SYMBOL    DATA     BYTE      interruptMode
      0100F475H   LINE      CODE     ---       #279
      0100F475H   LINE      CODE     ---       #280
      0100F475H   LINE      CODE     ---       #281
      0100F47AH   LINE      CODE     ---       #282
LX51 LINKER/LOCATER V4.64.0.0                                                         04/13/2018  12:12:27  PAGE 104


      ---         BLOCKEND  ---      ---       LVL=0
      00000007H   SYMBOL    DATA     BYTE      control

      0100F28EH   BLOCK     CODE     ---       LVL=0
      00000006H   SYMBOL    DATA     WORD      period
      0100F28EH   BLOCK     CODE     NEAR LAB  LVL=1
      00000006H   SYMBOL    DATA     WORD      period_temp
      ---         BLOCKEND  ---      ---       LVL=1
      0100F28EH   LINE      CODE     ---       #431
      0100F28EH   LINE      CODE     ---       #432
      0100F28EH   LINE      CODE     ---       #434
      0100F28EH   LINE      CODE     ---       #435
      0100F29BH   LINE      CODE     ---       #439
      ---         BLOCKEND  ---      ---       LVL=0

      0100F29CH   BLOCK     CODE     ---       LVL=0
      00000006H   SYMBOL    DATA     WORD      counter
      0100F29CH   LINE      CODE     ---       #480
      0100F29CH   LINE      CODE     ---       #481
      0100F29CH   LINE      CODE     ---       #486
      0100F2A9H   LINE      CODE     ---       #491
      ---         BLOCKEND  ---      ---       LVL=0

      ---         MODULE    ---      ---       UART_RS485
      020013D3H   PUBLIC    XDATA    BYTE      UART_RS485_errorStatus
      020013D2H   PUBLIC    XDATA    BYTE      UART_RS485_rxBufferOverflow
      020013D1H   PUBLIC    XDATA    BYTE      UART_RS485_initVar
      020013D0H   PUBLIC    XDATA    BYTE      UART_RS485_rxBufferWrite
      020013B0H   PUBLIC    XDATA    ---       UART_RS485_rxBuffer
      020013AFH   PUBLIC    XDATA    BYTE      UART_RS485_rxBufferRead
      020013AEH   PUBLIC    XDATA    BYTE      UART_RS485_rxBufferLoopDetect
      0100F1FCH   PUBLIC    CODE     ---       UART_RS485_ClearTxBuffer
      0100EBDEH   PUBLIC    CODE     ---       _UART_RS485_PutString
      0100F2F0H   PUBLIC    CODE     ---       _UART_RS485_PutChar
      0100F47BH   PUBLIC    CODE     ---       UART_RS485_ReadTxStatus
      0100ED6DH   PUBLIC    CODE     ---       UART_RS485_ClearRxBuffer
      0100E67AH   PUBLIC    CODE     ---       UART_RS485_GetRxBufferSize
      0100E479H   PUBLIC    CODE     ---       UART_RS485_GetChar
      0100F12AH   PUBLIC    CODE     ---       UART_RS485_ReadRxStatus
      0100EEE5H   PUBLIC    CODE     ---       UART_RS485_Stop
      0100EEC3H   PUBLIC    CODE     ---       UART_RS485_Enable
      0100EC46H   PUBLIC    CODE     ---       UART_RS485_Init
      0100F151H   PUBLIC    CODE     ---       UART_RS485_Start
      000000CAH   SFRSYM    DATA     BYTE      SFRPRT5SEL
      000000DAH   SFRSYM    DATA     BYTE      SFRPRT6SEL
      000000D0H.6 SFRSYM    DATA     BIT       AC
      000000A8H.7 SFRSYM    DATA     BIT       EA
      000000A8H   SFRSYM    DATA     BYTE      IE
      00000085H   SFRSYM    DATA     BYTE      DPH1
      00000084H   SFRSYM    DATA     BYTE      DPL1
      000000D0H.7 SFRSYM    DATA     BIT       CY
      000000A0H   SFRSYM    DATA     BYTE      P2AX
      00000095H   SFRSYM    DATA     BYTE      DPX1
      00000081H   SFRSYM    DATA     BYTE      SP
      000000D0H.2 SFRSYM    DATA     BIT       OV
      00000080H   SFRSYM    DATA     BYTE      SFRPRT0DR
      00000090H   SFRSYM    DATA     BYTE      SFRPRT1DR
      000000F2H   SFRSYM    DATA     BYTE      SFRPRT12SEL
      00000098H   SFRSYM    DATA     BYTE      SFRPRT2DR
      000000B0H   SFRSYM    DATA     BYTE      SFRPRT3DR
      000000C0H   SFRSYM    DATA     BYTE      SFRPRT4DR
      000000FAH   SFRSYM    DATA     BYTE      SFRPRT15SEL
      000000C8H   SFRSYM    DATA     BYTE      SFRPRT5DR
      000000D8H   SFRSYM    DATA     BYTE      SFRPRT6DR
      00000089H   SFRSYM    DATA     BYTE      SFRPRT0PS
LX51 LINKER/LOCATER V4.64.0.0                                                         04/13/2018  12:12:27  PAGE 105


      00000091H   SFRSYM    DATA     BYTE      SFRPRT1PS
      00000099H   SFRSYM    DATA     BYTE      SFRPRT2PS
      000000B1H   SFRSYM    DATA     BYTE      SFRPRT3PS
      000000C1H   SFRSYM    DATA     BYTE      SFRPRT4PS
      000000C9H   SFRSYM    DATA     BYTE      SFRPRT5PS
      000000D9H   SFRSYM    DATA     BYTE      SFRPRT6PS
      000000EAH   SFRSYM    DATA     BYTE      MXAX
      000000F0H   SFRSYM    DATA     BYTE      B
      000000E0H   SFRSYM    DATA     BYTE      ACC
      000000D0H   SFRSYM    DATA     BIT       P
      000000D0H.3 SFRSYM    DATA     BIT       RS0
      000000D0H.4 SFRSYM    DATA     BIT       RS1
      00000083H   SFRSYM    DATA     BYTE      DPH
      000000E8H   SFRSYM    DATA     BYTE      SFRPRT12DR
      00000082H   SFRSYM    DATA     BYTE      DPL
      000000F8H   SFRSYM    DATA     BYTE      SFRPRT15DR
      00000086H   SFRSYM    DATA     BYTE      DPS
      000000E9H   SFRSYM    DATA     BYTE      SFRPRT12PS
      00000093H   SFRSYM    DATA     BYTE      DPX
      000000F9H   SFRSYM    DATA     BYTE      SFRPRT15PS
      000000D0H.5 SFRSYM    DATA     BIT       F0
      000000D0H.1 SFRSYM    DATA     BIT       F1
      0000008AH   SFRSYM    DATA     BYTE      SFRPRT0SEL
      000000D0H   SFRSYM    DATA     BYTE      PSW
      000000A2H   SFRSYM    DATA     BYTE      SFRPRT1SEL
      0000009AH   SFRSYM    DATA     BYTE      SFRPRT2SEL
      000000B2H   SFRSYM    DATA     BYTE      SFRPRT3SEL
      000000C2H   SFRSYM    DATA     BYTE      SFRPRT4SEL

      0100F151H   BLOCK     CODE     ---       LVL=0
      0100F151H   LINE      CODE     ---       #76
      0100F151H   LINE      CODE     ---       #77
      0100F151H   LINE      CODE     ---       #79
      0100F157H   LINE      CODE     ---       #80
      0100F157H   LINE      CODE     ---       #81
      0100F15AH   LINE      CODE     ---       #82
      0100F160H   LINE      CODE     ---       #83
      0100F160H   LINE      CODE     ---       #85
      0100F163H   LINE      CODE     ---       #86
      ---         BLOCKEND  ---      ---       LVL=0

      0100EC46H   BLOCK     CODE     ---       LVL=0
      0100EC46H   LINE      CODE     ---       #106
      0100EC46H   LINE      CODE     ---       #107
      0100EC46H   LINE      CODE     ---       #112
      0100EC4FH   LINE      CODE     ---       #113
      0100EC56H   LINE      CODE     ---       #114
      0100EC5BH   LINE      CODE     ---       #124
      0100EC61H   LINE      CODE     ---       #126
      0100EC67H   LINE      CODE     ---       #138
      0100EC6DH   LINE      CODE     ---       #139
      0100EC73H   LINE      CODE     ---       #150
      0100EC78H   LINE      CODE     ---       #160
      ---         BLOCKEND  ---      ---       LVL=0

      0100EEC3H   BLOCK     CODE     ---       LVL=0
      0100EEC3H   BLOCK     CODE     NEAR LAB  LVL=1
      00000007H   SYMBOL    DATA     BYTE      enableInterrupts
      ---         BLOCKEND  ---      ---       LVL=1
      0100EEC3H   LINE      CODE     ---       #183
      0100EEC3H   LINE      CODE     ---       #184
      0100EEC3H   LINE      CODE     ---       #186
      0100EEC6H   LINE      CODE     ---       #190
      0100EECDH   LINE      CODE     ---       #193
      0100EED4H   LINE      CODE     ---       #196
LX51 LINKER/LOCATER V4.64.0.0                                                         04/13/2018  12:12:27  PAGE 106


      0100EEDAH   LINE      CODE     ---       #211
      0100EEE1H   LINE      CODE     ---       #222
      0100EEE4H   LINE      CODE     ---       #223
      ---         BLOCKEND  ---      ---       LVL=0

      0100EEE5H   BLOCK     CODE     ---       LVL=0
      0100EEE5H   BLOCK     CODE     NEAR LAB  LVL=1
      00000007H   SYMBOL    DATA     BYTE      enableInterrupts
      ---         BLOCKEND  ---      ---       LVL=1
      0100EEE5H   LINE      CODE     ---       #240
      0100EEE5H   LINE      CODE     ---       #241
      0100EEE5H   LINE      CODE     ---       #243
      0100EEE8H   LINE      CODE     ---       #247
      0100EEEFH   LINE      CODE     ---       #262
      0100EEF6H   LINE      CODE     ---       #265
      0100EEFCH   LINE      CODE     ---       #270
      0100EF03H   LINE      CODE     ---       #277
      0100EF06H   LINE      CODE     ---       #278
      ---         BLOCKEND  ---      ---       LVL=0
      00000007H   SYMBOL    DATA     BYTE      intSrc
      00000007H   SYMBOL    DATA     BYTE      rxData
      00000006H   SYMBOL    DATA     BYTE      locRxBufferRead
      00000005H   SYMBOL    DATA     BYTE      locRxBufferWrite

      0100F12AH   BLOCK     CODE     ---       LVL=0
      0100F12AH   BLOCK     CODE     NEAR LAB  LVL=1
      00000007H   SYMBOL    DATA     BYTE      status
      ---         BLOCKEND  ---      ---       LVL=1
      0100F12AH   LINE      CODE     ---       #485
      0100F12AH   LINE      CODE     ---       #486
      0100F12AH   LINE      CODE     ---       #489
      0100F131H   LINE      CODE     ---       #492
      0100F137H   LINE      CODE     ---       #493
      0100F137H   LINE      CODE     ---       #494
      0100F13BH   LINE      CODE     ---       #495
      0100F13DH   LINE      CODE     ---       #496
      0100F13DH   LINE      CODE     ---       #499
      0100F13DH   LINE      CODE     ---       #500
      ---         BLOCKEND  ---      ---       LVL=0

      0100E479H   BLOCK     CODE     ---       LVL=0
      0100E479H   BLOCK     CODE     NEAR LAB  LVL=1
      00000007H   SYMBOL    DATA     BYTE      rxData
      00000006H   SYMBOL    DATA     BYTE      rxStatus
      00000006H   SYMBOL    DATA     BYTE      locRxBufferRead
      00000005H   SYMBOL    DATA     BYTE      locRxBufferWrite
      ---         BLOCKEND  ---      ---       LVL=1
      0100E479H   LINE      CODE     ---       #532
      0100E479H   LINE      CODE     ---       #533
      0100E479H   LINE      CODE     ---       #534
      0100E47BH   LINE      CODE     ---       #542
      0100E481H   LINE      CODE     ---       #544
      0100E486H   LINE      CODE     ---       #545
      0100E48BH   LINE      CODE     ---       #547
      0100E495H   LINE      CODE     ---       #548
      0100E495H   LINE      CODE     ---       #549
      0100E4A1H   LINE      CODE     ---       #550
      0100E4A2H   LINE      CODE     ---       #551
      0100E4A8H   LINE      CODE     ---       #552
      0100E4A8H   LINE      CODE     ---       #553
      0100E4AAH   LINE      CODE     ---       #554
      0100E4AAH   LINE      CODE     ---       #556
      0100E4AFH   LINE      CODE     ---       #558
      0100E4B5H   LINE      CODE     ---       #559
      0100E4B5H   LINE      CODE     ---       #560
LX51 LINKER/LOCATER V4.64.0.0                                                         04/13/2018  12:12:27  PAGE 107


      0100E4B7H   LINE      CODE     ---       #575
      0100E4B7H   LINE      CODE     ---       #577
      0100E4B9H   LINE      CODE     ---       #579
      0100E4BEH   LINE      CODE     ---       #580
      0100E4C1H   LINE      CODE     ---       #581
      0100E4C1H   LINE      CODE     ---       #582
      0100E4C6H   LINE      CODE     ---       #585
      0100E4CBH   LINE      CODE     ---       #586
      0100E4CBH   LINE      CODE     ---       #587
      0100E4CDH   LINE      CODE     ---       #588
      0100E4CDH   LINE      CODE     ---       #589
      0100E4CDH   LINE      CODE     ---       #590
      0100E4CDH   LINE      CODE     ---       #592
      0100E4D3H   LINE      CODE     ---       #611
      0100E4D3H   LINE      CODE     ---       #612
      ---         BLOCKEND  ---      ---       LVL=0
      00000002H   SYMBOL    DATA     WORD      locErrorStatus

      0100E67AH   BLOCK     CODE     ---       LVL=0
      0100E67AH   BLOCK     CODE     NEAR LAB  LVL=1
      00000007H   SYMBOL    DATA     BYTE      size
      ---         BLOCKEND  ---      ---       LVL=1
      0100E67AH   LINE      CODE     ---       #683
      0100E67AH   LINE      CODE     ---       #685
      0100E67AH   LINE      CODE     ---       #691
      0100E680H   LINE      CODE     ---       #693
      0100E68CH   LINE      CODE     ---       #694
      0100E68CH   LINE      CODE     ---       #695
      0100E692H   LINE      CODE     ---       #696
      0100E692H   LINE      CODE     ---       #697
      0100E694H   LINE      CODE     ---       #698
      0100E696H   LINE      CODE     ---       #700
      0100E696H   LINE      CODE     ---       #701
      0100E698H   LINE      CODE     ---       #702
      0100E698H   LINE      CODE     ---       #703
      0100E69AH   LINE      CODE     ---       #704
      0100E6A7H   LINE      CODE     ---       #705
      0100E6A7H   LINE      CODE     ---       #706
      0100E6B0H   LINE      CODE     ---       #707
      0100E6B2H   LINE      CODE     ---       #709
      0100E6B2H   LINE      CODE     ---       #710
      0100E6C2H   LINE      CODE     ---       #711
      0100E6C2H   LINE      CODE     ---       #713
      0100E6C8H   LINE      CODE     ---       #722
      0100E6C8H   LINE      CODE     ---       #723
      ---         BLOCKEND  ---      ---       LVL=0

      0100ED6DH   BLOCK     CODE     ---       LVL=0
      0100ED6DH   BLOCK     CODE     NEAR LAB  LVL=1
      00000007H   SYMBOL    DATA     BYTE      enableInterrupts
      ---         BLOCKEND  ---      ---       LVL=1
      0100ED6DH   LINE      CODE     ---       #757
      0100ED6DH   LINE      CODE     ---       #758
      0100ED6DH   LINE      CODE     ---       #762
      0100ED70H   LINE      CODE     ---       #763
      0100ED77H   LINE      CODE     ---       #764
      0100ED7BH   LINE      CODE     ---       #765
      0100ED7EH   LINE      CODE     ---       #770
      0100ED84H   LINE      CODE     ---       #772
      0100ED89H   LINE      CODE     ---       #773
      0100ED8DH   LINE      CODE     ---       #774
      0100ED91H   LINE      CODE     ---       #775
      0100ED95H   LINE      CODE     ---       #777
      0100ED9BH   LINE      CODE     ---       #781
      ---         BLOCKEND  ---      ---       LVL=0
LX51 LINKER/LOCATER V4.64.0.0                                                         04/13/2018  12:12:27  PAGE 108


      00000007H   SYMBOL    DATA     BYTE      address
      00000007H   SYMBOL    DATA     BYTE      address
      00000007H   SYMBOL    DATA     BYTE      intSrc
      00000007H   SYMBOL    DATA     BYTE      txDataByte

      0100F47BH   BLOCK     CODE     ---       LVL=0
      0100F47BH   LINE      CODE     ---       #1003
      0100F47BH   LINE      CODE     ---       #1004
      0100F47BH   LINE      CODE     ---       #1005
      0100F480H   LINE      CODE     ---       #1006
      ---         BLOCKEND  ---      ---       LVL=0

      0100F2F0H   BLOCK     CODE     ---       LVL=0
      00000007H   SYMBOL    DATA     BYTE      txDataByte
      0100F2F0H   LINE      CODE     ---       #1041
      0100F2F0H   LINE      CODE     ---       #1042
      0100F2F0H   LINE      CODE     ---       #1107
      0100F2F7H   LINE      CODE     ---       #1108
      0100F2F7H   LINE      CODE     ---       #1110
      0100F2F7H   LINE      CODE     ---       #1113
      0100F2FCH   LINE      CODE     ---       #1116
      ---         BLOCKEND  ---      ---       LVL=0

      0100EBDEH   BLOCK     CODE     ---       LVL=0
      020006D2H   SYMBOL    XDATA    ---       string
      0100EBE9H   BLOCK     CODE     NEAR LAB  LVL=1
      00000004H   SYMBOL    DATA     WORD      bufIndex
      ---         BLOCKEND  ---      ---       LVL=1
      0100EBDEH   LINE      CODE     ---       #1145
      0100EBE9H   LINE      CODE     ---       #1146
      0100EBE9H   LINE      CODE     ---       #1147
      0100EBECH   LINE      CODE     ---       #1150
      0100EBF2H   LINE      CODE     ---       #1151
      0100EBF2H   LINE      CODE     ---       #1153
      0100EC07H   LINE      CODE     ---       #1154
      0100EC07H   LINE      CODE     ---       #1155
      0100EC0AH   LINE      CODE     ---       #1156
      0100EC0FH   LINE      CODE     ---       #1157
      0100EC11H   LINE      CODE     ---       #1158
      0100EC11H   LINE      CODE     ---       #1159
      ---         BLOCKEND  ---      ---       LVL=0
      00000005H   SYMBOL    DATA     BYTE      byteCount
      00000006H   SYMBOL    DATA     BYTE      bufIndex
      00000007H   SYMBOL    DATA     BYTE      txDataByte
      00000007H   SYMBOL    DATA     BYTE      size

      0100F1FCH   BLOCK     CODE     ---       LVL=0
      0100F1FCH   BLOCK     CODE     NEAR LAB  LVL=1
      00000007H   SYMBOL    DATA     BYTE      enableInterrupts
      ---         BLOCKEND  ---      ---       LVL=1
      0100F1FCH   LINE      CODE     ---       #1354
      0100F1FCH   LINE      CODE     ---       #1355
      0100F1FCH   LINE      CODE     ---       #1358
      0100F1FFH   LINE      CODE     ---       #1360
      0100F206H   LINE      CODE     ---       #1361
      0100F20AH   LINE      CODE     ---       #1362
      0100F20DH   LINE      CODE     ---       #1376
      ---         BLOCKEND  ---      ---       LVL=0
      00000007H   SYMBOL    DATA     BYTE      retMode
      020013ADH   SYMBOL    XDATA    BYTE      txPeriod

      ---         MODULE    ---      ---       MOTOR_DIR
      0100F481H   PUBLIC    CODE     ---       _MOTOR_DIR_Write

      0100F481H   BLOCK     CODE     ---       LVL=0
LX51 LINKER/LOCATER V4.64.0.0                                                         04/13/2018  12:12:27  PAGE 109


      00000007H   SYMBOL    DATA     BYTE      control
      0100F481H   LINE      CODE     ---       #37
      0100F481H   LINE      CODE     ---       #38
      0100F481H   LINE      CODE     ---       #39
      0100F486H   LINE      CODE     ---       #40
      ---         BLOCKEND  ---      ---       LVL=0

      ---         MODULE    ---      ---       COUNTER_ENC
      02001406H   PUBLIC    XDATA    BYTE      COUNTER_ENC_initVar
      0100F2FDH   PUBLIC    CODE     ---       COUNTER_ENC_ClearFIFO
      0100F4A5H   PUBLIC    CODE     ---       _COUNTER_ENC_WriteCompare
      0100F49FH   PUBLIC    CODE     ---       _COUNTER_ENC_WritePeriod
      0100F499H   PUBLIC    CODE     ---       COUNTER_ENC_ReadCapture
      0100F493H   PUBLIC    CODE     ---       _COUNTER_ENC_WriteCounter
      0100F48DH   PUBLIC    CODE     ---       COUNTER_ENC_ReadStatusRegister
      0100F487H   PUBLIC    CODE     ---       _COUNTER_ENC_SetInterruptMode
      0100F164H   PUBLIC    CODE     ---       COUNTER_ENC_Start
      0100F40AH   PUBLIC    CODE     ---       COUNTER_ENC_Enable
      0100EBA9H   PUBLIC    CODE     ---       COUNTER_ENC_Init
      000000CAH   SFRSYM    DATA     BYTE      SFRPRT5SEL
      000000DAH   SFRSYM    DATA     BYTE      SFRPRT6SEL
      000000D0H.6 SFRSYM    DATA     BIT       AC
      000000A8H.7 SFRSYM    DATA     BIT       EA
      000000A8H   SFRSYM    DATA     BYTE      IE
      00000085H   SFRSYM    DATA     BYTE      DPH1
      00000084H   SFRSYM    DATA     BYTE      DPL1
      000000D0H.7 SFRSYM    DATA     BIT       CY
      000000A0H   SFRSYM    DATA     BYTE      P2AX
      00000095H   SFRSYM    DATA     BYTE      DPX1
      00000081H   SFRSYM    DATA     BYTE      SP
      000000D0H.2 SFRSYM    DATA     BIT       OV
      00000080H   SFRSYM    DATA     BYTE      SFRPRT0DR
      00000090H   SFRSYM    DATA     BYTE      SFRPRT1DR
      000000F2H   SFRSYM    DATA     BYTE      SFRPRT12SEL
      00000098H   SFRSYM    DATA     BYTE      SFRPRT2DR
      000000B0H   SFRSYM    DATA     BYTE      SFRPRT3DR
      000000C0H   SFRSYM    DATA     BYTE      SFRPRT4DR
      000000FAH   SFRSYM    DATA     BYTE      SFRPRT15SEL
      000000C8H   SFRSYM    DATA     BYTE      SFRPRT5DR
      000000D8H   SFRSYM    DATA     BYTE      SFRPRT6DR
      00000089H   SFRSYM    DATA     BYTE      SFRPRT0PS
      00000091H   SFRSYM    DATA     BYTE      SFRPRT1PS
      00000099H   SFRSYM    DATA     BYTE      SFRPRT2PS
      000000B1H   SFRSYM    DATA     BYTE      SFRPRT3PS
      000000C1H   SFRSYM    DATA     BYTE      SFRPRT4PS
      000000C9H   SFRSYM    DATA     BYTE      SFRPRT5PS
      000000D9H   SFRSYM    DATA     BYTE      SFRPRT6PS
      000000EAH   SFRSYM    DATA     BYTE      MXAX
      000000F0H   SFRSYM    DATA     BYTE      B
      000000E0H   SFRSYM    DATA     BYTE      ACC
      000000D0H   SFRSYM    DATA     BIT       P
      000000D0H.3 SFRSYM    DATA     BIT       RS0
      000000D0H.4 SFRSYM    DATA     BIT       RS1
      00000083H   SFRSYM    DATA     BYTE      DPH
      000000E8H   SFRSYM    DATA     BYTE      SFRPRT12DR
      00000082H   SFRSYM    DATA     BYTE      DPL
      000000F8H   SFRSYM    DATA     BYTE      SFRPRT15DR
      00000086H   SFRSYM    DATA     BYTE      DPS
      000000E9H   SFRSYM    DATA     BYTE      SFRPRT12PS
      00000093H   SFRSYM    DATA     BYTE      DPX
      000000F9H   SFRSYM    DATA     BYTE      SFRPRT15PS
      000000D0H.5 SFRSYM    DATA     BIT       F0
      000000D0H.1 SFRSYM    DATA     BIT       F1
      0000008AH   SFRSYM    DATA     BYTE      SFRPRT0SEL
      000000D0H   SFRSYM    DATA     BYTE      PSW
LX51 LINKER/LOCATER V4.64.0.0                                                         04/13/2018  12:12:27  PAGE 110


      000000A2H   SFRSYM    DATA     BYTE      SFRPRT1SEL
      0000009AH   SFRSYM    DATA     BYTE      SFRPRT2SEL
      000000B2H   SFRSYM    DATA     BYTE      SFRPRT3SEL
      000000C2H   SFRSYM    DATA     BYTE      SFRPRT4SEL

      0100EBA9H   BLOCK     CODE     ---       LVL=0
      0100EBA9H   BLOCK     CODE     NEAR LAB  LVL=1
      00000007H   SYMBOL    DATA     BYTE      ctrl
      00000007H   SYMBOL    DATA     BYTE      COUNTER_ENC_interruptState
      ---         BLOCKEND  ---      ---       LVL=1
      0100EBA9H   LINE      CODE     ---       #37
      0100EBA9H   LINE      CODE     ---       #38
      0100EBA9H   LINE      CODE     ---       #79
      0100EBB0H   LINE      CODE     ---       #80
      0100EBB1H   LINE      CODE     ---       #83
      0100EBB5H   LINE      CODE     ---       #88
      0100EBB6H   LINE      CODE     ---       #96
      0100EBB9H   LINE      CODE     ---       #100
      0100EBBEH   LINE      CODE     ---       #102
      0100EBC3H   LINE      CODE     ---       #104
      0100EBC8H   LINE      CODE     ---       #108
      0100EBCBH   LINE      CODE     ---       #110
      0100EBD0H   LINE      CODE     ---       #115
      0100EBD3H   LINE      CODE     ---       #117
      0100EBDAH   LINE      CODE     ---       #120
      0100EBDDH   LINE      CODE     ---       #123
      ---         BLOCKEND  ---      ---       LVL=0

      0100F40AH   BLOCK     CODE     ---       LVL=0
      0100F40AH   LINE      CODE     ---       #143
      0100F40AH   LINE      CODE     ---       #144
      0100F40AH   LINE      CODE     ---       #155
      0100F411H   LINE      CODE     ---       #158
      ---         BLOCKEND  ---      ---       LVL=0

      0100F164H   BLOCK     CODE     ---       LVL=0
      0100F164H   LINE      CODE     ---       #178
      0100F164H   LINE      CODE     ---       #179
      0100F164H   LINE      CODE     ---       #180
      0100F16AH   LINE      CODE     ---       #181
      0100F16AH   LINE      CODE     ---       #182
      0100F16DH   LINE      CODE     ---       #184
      0100F173H   LINE      CODE     ---       #185
      0100F173H   LINE      CODE     ---       #188
      0100F176H   LINE      CODE     ---       #189
      ---         BLOCKEND  ---      ---       LVL=0

      0100F487H   BLOCK     CODE     ---       LVL=0
      00000007H   SYMBOL    DATA     BYTE      interruptsMask
      0100F487H   LINE      CODE     ---       #237
      0100F487H   LINE      CODE     ---       #238
      0100F487H   LINE      CODE     ---       #239
      0100F48CH   LINE      CODE     ---       #240
      ---         BLOCKEND  ---      ---       LVL=0

      0100F48DH   BLOCK     CODE     ---       LVL=0
      0100F48DH   LINE      CODE     ---       #261
      0100F48DH   LINE      CODE     ---       #262
      0100F48DH   LINE      CODE     ---       #263
      0100F492H   LINE      CODE     ---       #264
      ---         BLOCKEND  ---      ---       LVL=0
      00000007H   SYMBOL    DATA     BYTE      control

      0100F493H   BLOCK     CODE     ---       LVL=0
      00000007H   SYMBOL    DATA     BYTE      counter
LX51 LINKER/LOCATER V4.64.0.0                                                         04/13/2018  12:12:27  PAGE 111


      0100F493H   LINE      CODE     ---       #326
      0100F493H   LINE      CODE     ---       #328
      0100F493H   LINE      CODE     ---       #337
      0100F498H   LINE      CODE     ---       #339
      ---         BLOCKEND  ---      ---       LVL=0

      0100F499H   BLOCK     CODE     ---       LVL=0
      0100F499H   LINE      CODE     ---       #390
      0100F499H   LINE      CODE     ---       #391
      0100F499H   LINE      CODE     ---       #395
      0100F49EH   LINE      CODE     ---       #397
      ---         BLOCKEND  ---      ---       LVL=0

      0100F49FH   BLOCK     CODE     ---       LVL=0
      00000007H   SYMBOL    DATA     BYTE      period
      0100F49FH   LINE      CODE     ---       #415
      0100F49FH   LINE      CODE     ---       #416
      0100F49FH   LINE      CODE     ---       #420
      0100F4A4H   LINE      CODE     ---       #422
      ---         BLOCKEND  ---      ---       LVL=0

      0100F4A5H   BLOCK     CODE     ---       LVL=0
      00000007H   SYMBOL    DATA     BYTE      compare
      0100F4A5H   LINE      CODE     ---       #465
      0100F4A5H   LINE      CODE     ---       #467
      0100F4A5H   LINE      CODE     ---       #471
      0100F4AAH   LINE      CODE     ---       #473
      ---         BLOCKEND  ---      ---       LVL=0

      0100F2FDH   BLOCK     CODE     ---       LVL=0
      0100F2FDH   LINE      CODE     ---       #558
      0100F2FDH   LINE      CODE     ---       #559
      0100F2FDH   LINE      CODE     ---       #561
      0100F304H   LINE      CODE     ---       #562
      0100F304H   LINE      CODE     ---       #563
      0100F307H   LINE      CODE     ---       #564
      0100F309H   LINE      CODE     ---       #566
      ---         BLOCKEND  ---      ---       LVL=0

      ---         MODULE    ---      ---       SHIFTREG_ENC_3
      02001407H   PUBLIC    XDATA    BYTE      SHIFTREG_ENC_3_initVar
      0100F396H   PUBLIC    CODE     ---       SHIFTREG_ENC_3_ReadData
      0100F220H   PUBLIC    CODE     ---       _SHIFTREG_ENC_3_SetIntMode
      0100F2AAH   PUBLIC    CODE     ---       SHIFTREG_ENC_3_EnableInt
      0100F4ABH   PUBLIC    CODE     ---       SHIFTREG_ENC_3_Init
      0100F361H   PUBLIC    CODE     ---       SHIFTREG_ENC_3_Enable
      0100F177H   PUBLIC    CODE     ---       SHIFTREG_ENC_3_Start
      000000CAH   SFRSYM    DATA     BYTE      SFRPRT5SEL
      000000DAH   SFRSYM    DATA     BYTE      SFRPRT6SEL
      000000D0H.6 SFRSYM    DATA     BIT       AC
      000000A8H.7 SFRSYM    DATA     BIT       EA
      000000A8H   SFRSYM    DATA     BYTE      IE
      00000085H   SFRSYM    DATA     BYTE      DPH1
      00000084H   SFRSYM    DATA     BYTE      DPL1
      000000D0H.7 SFRSYM    DATA     BIT       CY
      000000A0H   SFRSYM    DATA     BYTE      P2AX
      00000095H   SFRSYM    DATA     BYTE      DPX1
      00000081H   SFRSYM    DATA     BYTE      SP
      000000D0H.2 SFRSYM    DATA     BIT       OV
      00000080H   SFRSYM    DATA     BYTE      SFRPRT0DR
      00000090H   SFRSYM    DATA     BYTE      SFRPRT1DR
      000000F2H   SFRSYM    DATA     BYTE      SFRPRT12SEL
      00000098H   SFRSYM    DATA     BYTE      SFRPRT2DR
      000000B0H   SFRSYM    DATA     BYTE      SFRPRT3DR
      000000C0H   SFRSYM    DATA     BYTE      SFRPRT4DR
LX51 LINKER/LOCATER V4.64.0.0                                                         04/13/2018  12:12:27  PAGE 112


      000000FAH   SFRSYM    DATA     BYTE      SFRPRT15SEL
      000000C8H   SFRSYM    DATA     BYTE      SFRPRT5DR
      000000D8H   SFRSYM    DATA     BYTE      SFRPRT6DR
      00000089H   SFRSYM    DATA     BYTE      SFRPRT0PS
      00000091H   SFRSYM    DATA     BYTE      SFRPRT1PS
      00000099H   SFRSYM    DATA     BYTE      SFRPRT2PS
      000000B1H   SFRSYM    DATA     BYTE      SFRPRT3PS
      000000C1H   SFRSYM    DATA     BYTE      SFRPRT4PS
      000000C9H   SFRSYM    DATA     BYTE      SFRPRT5PS
      000000D9H   SFRSYM    DATA     BYTE      SFRPRT6PS
      000000EAH   SFRSYM    DATA     BYTE      MXAX
      000000F0H   SFRSYM    DATA     BYTE      B
      000000E0H   SFRSYM    DATA     BYTE      ACC
      000000D0H   SFRSYM    DATA     BIT       P
      000000D0H.3 SFRSYM    DATA     BIT       RS0
      000000D0H.4 SFRSYM    DATA     BIT       RS1
      00000083H   SFRSYM    DATA     BYTE      DPH
      000000E8H   SFRSYM    DATA     BYTE      SFRPRT12DR
      00000082H   SFRSYM    DATA     BYTE      DPL
      000000F8H   SFRSYM    DATA     BYTE      SFRPRT15DR
      00000086H   SFRSYM    DATA     BYTE      DPS
      000000E9H   SFRSYM    DATA     BYTE      SFRPRT12PS
      00000093H   SFRSYM    DATA     BYTE      DPX
      000000F9H   SFRSYM    DATA     BYTE      SFRPRT15PS
      000000D0H.5 SFRSYM    DATA     BIT       F0
      000000D0H.1 SFRSYM    DATA     BIT       F1
      0000008AH   SFRSYM    DATA     BYTE      SFRPRT0SEL
      000000D0H   SFRSYM    DATA     BYTE      PSW
      000000A2H   SFRSYM    DATA     BYTE      SFRPRT1SEL
      0000009AH   SFRSYM    DATA     BYTE      SFRPRT2SEL
      000000B2H   SFRSYM    DATA     BYTE      SFRPRT3SEL
      000000C2H   SFRSYM    DATA     BYTE      SFRPRT4SEL

      0100F177H   BLOCK     CODE     ---       LVL=0
      0100F177H   LINE      CODE     ---       #43
      0100F177H   LINE      CODE     ---       #44
      0100F177H   LINE      CODE     ---       #45
      0100F17DH   LINE      CODE     ---       #46
      0100F17DH   LINE      CODE     ---       #47
      0100F180H   LINE      CODE     ---       #48
      0100F186H   LINE      CODE     ---       #49
      0100F186H   LINE      CODE     ---       #51
      0100F189H   LINE      CODE     ---       #52
      ---         BLOCKEND  ---      ---       LVL=0

      0100F361H   BLOCK     CODE     ---       LVL=0
      0100F361H   LINE      CODE     ---       #69
      0100F361H   LINE      CODE     ---       #70
      0100F361H   LINE      CODE     ---       #73
      0100F368H   LINE      CODE     ---       #75
      0100F36BH   LINE      CODE     ---       #76
      ---         BLOCKEND  ---      ---       LVL=0

      0100F4ABH   BLOCK     CODE     ---       LVL=0
      0100F4ABH   LINE      CODE     ---       #93
      0100F4ABH   LINE      CODE     ---       #94
      0100F4ABH   LINE      CODE     ---       #95
      0100F4B0H   LINE      CODE     ---       #96
      ---         BLOCKEND  ---      ---       LVL=0

      0100F2AAH   BLOCK     CODE     ---       LVL=0
      0100F2AAH   BLOCK     CODE     NEAR LAB  LVL=1
      00000007H   SYMBOL    DATA     BYTE      interruptState
      ---         BLOCKEND  ---      ---       LVL=1
      0100F2AAH   LINE      CODE     ---       #135
LX51 LINKER/LOCATER V4.64.0.0                                                         04/13/2018  12:12:27  PAGE 113


      0100F2AAH   LINE      CODE     ---       #136
      0100F2AAH   LINE      CODE     ---       #139
      0100F2ADH   LINE      CODE     ---       #140
      0100F2B4H   LINE      CODE     ---       #141
      0100F2B7H   LINE      CODE     ---       #142
      ---         BLOCKEND  ---      ---       LVL=0
      00000007H   SYMBOL    DATA     BYTE      interruptState
      00000007H   SYMBOL    DATA     BYTE      fifoId
      00000005H   SYMBOL    DATA     BYTE      result

      0100F220H   BLOCK     CODE     ---       LVL=0
      00000007H   SYMBOL    DATA     BYTE      interruptSource
      0100F220H   LINE      CODE     ---       #261
      0100F220H   LINE      CODE     ---       #262
      0100F220H   LINE      CODE     ---       #263
      0100F227H   LINE      CODE     ---       #264
      0100F230H   LINE      CODE     ---       #265
      ---         BLOCKEND  ---      ---       LVL=0
      00000004H   SYMBOL    DATA     DWORD     shiftData

      0100F396H   BLOCK     CODE     ---       LVL=0
      0100F396H   LINE      CODE     ---       #366
      0100F396H   LINE      CODE     ---       #367
      0100F396H   LINE      CODE     ---       #368
      0100F39FH   LINE      CODE     ---       #369
      ---         BLOCKEND  ---      ---       LVL=0

      ---         MODULE    ---      ---       SHIFTREG_ENC_2
      02001408H   PUBLIC    XDATA    BYTE      SHIFTREG_ENC_2_initVar
      0100F3A0H   PUBLIC    CODE     ---       SHIFTREG_ENC_2_ReadData
      0100F231H   PUBLIC    CODE     ---       _SHIFTREG_ENC_2_SetIntMode
      0100F2B8H   PUBLIC    CODE     ---       SHIFTREG_ENC_2_EnableInt
      0100F4B1H   PUBLIC    CODE     ---       SHIFTREG_ENC_2_Init
      0100F36CH   PUBLIC    CODE     ---       SHIFTREG_ENC_2_Enable
      0100F18AH   PUBLIC    CODE     ---       SHIFTREG_ENC_2_Start
      000000CAH   SFRSYM    DATA     BYTE      SFRPRT5SEL
      000000DAH   SFRSYM    DATA     BYTE      SFRPRT6SEL
      000000D0H.6 SFRSYM    DATA     BIT       AC
      000000A8H.7 SFRSYM    DATA     BIT       EA
      000000A8H   SFRSYM    DATA     BYTE      IE
      00000085H   SFRSYM    DATA     BYTE      DPH1
      00000084H   SFRSYM    DATA     BYTE      DPL1
      000000D0H.7 SFRSYM    DATA     BIT       CY
      000000A0H   SFRSYM    DATA     BYTE      P2AX
      00000095H   SFRSYM    DATA     BYTE      DPX1
      00000081H   SFRSYM    DATA     BYTE      SP
      000000D0H.2 SFRSYM    DATA     BIT       OV
      00000080H   SFRSYM    DATA     BYTE      SFRPRT0DR
      00000090H   SFRSYM    DATA     BYTE      SFRPRT1DR
      000000F2H   SFRSYM    DATA     BYTE      SFRPRT12SEL
      00000098H   SFRSYM    DATA     BYTE      SFRPRT2DR
      000000B0H   SFRSYM    DATA     BYTE      SFRPRT3DR
      000000C0H   SFRSYM    DATA     BYTE      SFRPRT4DR
      000000FAH   SFRSYM    DATA     BYTE      SFRPRT15SEL
      000000C8H   SFRSYM    DATA     BYTE      SFRPRT5DR
      000000D8H   SFRSYM    DATA     BYTE      SFRPRT6DR
      00000089H   SFRSYM    DATA     BYTE      SFRPRT0PS
      00000091H   SFRSYM    DATA     BYTE      SFRPRT1PS
      00000099H   SFRSYM    DATA     BYTE      SFRPRT2PS
      000000B1H   SFRSYM    DATA     BYTE      SFRPRT3PS
      000000C1H   SFRSYM    DATA     BYTE      SFRPRT4PS
      000000C9H   SFRSYM    DATA     BYTE      SFRPRT5PS
      000000D9H   SFRSYM    DATA     BYTE      SFRPRT6PS
      000000EAH   SFRSYM    DATA     BYTE      MXAX
      000000F0H   SFRSYM    DATA     BYTE      B
LX51 LINKER/LOCATER V4.64.0.0                                                         04/13/2018  12:12:27  PAGE 114


      000000E0H   SFRSYM    DATA     BYTE      ACC
      000000D0H   SFRSYM    DATA     BIT       P
      000000D0H.3 SFRSYM    DATA     BIT       RS0
      000000D0H.4 SFRSYM    DATA     BIT       RS1
      00000083H   SFRSYM    DATA     BYTE      DPH
      000000E8H   SFRSYM    DATA     BYTE      SFRPRT12DR
      00000082H   SFRSYM    DATA     BYTE      DPL
      000000F8H   SFRSYM    DATA     BYTE      SFRPRT15DR
      00000086H   SFRSYM    DATA     BYTE      DPS
      000000E9H   SFRSYM    DATA     BYTE      SFRPRT12PS
      00000093H   SFRSYM    DATA     BYTE      DPX
      000000F9H   SFRSYM    DATA     BYTE      SFRPRT15PS
      000000D0H.5 SFRSYM    DATA     BIT       F0
      000000D0H.1 SFRSYM    DATA     BIT       F1
      0000008AH   SFRSYM    DATA     BYTE      SFRPRT0SEL
      000000D0H   SFRSYM    DATA     BYTE      PSW
      000000A2H   SFRSYM    DATA     BYTE      SFRPRT1SEL
      0000009AH   SFRSYM    DATA     BYTE      SFRPRT2SEL
      000000B2H   SFRSYM    DATA     BYTE      SFRPRT3SEL
      000000C2H   SFRSYM    DATA     BYTE      SFRPRT4SEL

      0100F18AH   BLOCK     CODE     ---       LVL=0
      0100F18AH   LINE      CODE     ---       #43
      0100F18AH   LINE      CODE     ---       #44
      0100F18AH   LINE      CODE     ---       #45
      0100F190H   LINE      CODE     ---       #46
      0100F190H   LINE      CODE     ---       #47
      0100F193H   LINE      CODE     ---       #48
      0100F199H   LINE      CODE     ---       #49
      0100F199H   LINE      CODE     ---       #51
      0100F19CH   LINE      CODE     ---       #52
      ---         BLOCKEND  ---      ---       LVL=0

      0100F36CH   BLOCK     CODE     ---       LVL=0
      0100F36CH   LINE      CODE     ---       #69
      0100F36CH   LINE      CODE     ---       #70
      0100F36CH   LINE      CODE     ---       #73
      0100F373H   LINE      CODE     ---       #75
      0100F376H   LINE      CODE     ---       #76
      ---         BLOCKEND  ---      ---       LVL=0

      0100F4B1H   BLOCK     CODE     ---       LVL=0
      0100F4B1H   LINE      CODE     ---       #93
      0100F4B1H   LINE      CODE     ---       #94
      0100F4B1H   LINE      CODE     ---       #95
      0100F4B6H   LINE      CODE     ---       #96
      ---         BLOCKEND  ---      ---       LVL=0

      0100F2B8H   BLOCK     CODE     ---       LVL=0
      0100F2B8H   BLOCK     CODE     NEAR LAB  LVL=1
      00000007H   SYMBOL    DATA     BYTE      interruptState
      ---         BLOCKEND  ---      ---       LVL=1
      0100F2B8H   LINE      CODE     ---       #135
      0100F2B8H   LINE      CODE     ---       #136
      0100F2B8H   LINE      CODE     ---       #139
      0100F2BBH   LINE      CODE     ---       #140
      0100F2C2H   LINE      CODE     ---       #141
      0100F2C5H   LINE      CODE     ---       #142
      ---         BLOCKEND  ---      ---       LVL=0
      00000007H   SYMBOL    DATA     BYTE      interruptState
      00000007H   SYMBOL    DATA     BYTE      fifoId
      00000005H   SYMBOL    DATA     BYTE      result

      0100F231H   BLOCK     CODE     ---       LVL=0
      00000007H   SYMBOL    DATA     BYTE      interruptSource
LX51 LINKER/LOCATER V4.64.0.0                                                         04/13/2018  12:12:27  PAGE 115


      0100F231H   LINE      CODE     ---       #261
      0100F231H   LINE      CODE     ---       #262
      0100F231H   LINE      CODE     ---       #263
      0100F238H   LINE      CODE     ---       #264
      0100F241H   LINE      CODE     ---       #265
      ---         BLOCKEND  ---      ---       LVL=0
      00000004H   SYMBOL    DATA     DWORD     shiftData

      0100F3A0H   BLOCK     CODE     ---       LVL=0
      0100F3A0H   LINE      CODE     ---       #366
      0100F3A0H   LINE      CODE     ---       #367
      0100F3A0H   LINE      CODE     ---       #368
      0100F3A9H   LINE      CODE     ---       #369
      ---         BLOCKEND  ---      ---       LVL=0

      ---         MODULE    ---      ---       EEPROM
      0100CE4EH   PUBLIC    CODE     ---       _EEPROM_Write
      0100F529H   PUBLIC    CODE     ---       EEPROM_Start
      0100F448H   PUBLIC    CODE     ---       EEPROM_Enable
      000000CAH   SFRSYM    DATA     BYTE      SFRPRT5SEL
      000000DAH   SFRSYM    DATA     BYTE      SFRPRT6SEL
      000000D0H.6 SFRSYM    DATA     BIT       AC
      000000A8H.7 SFRSYM    DATA     BIT       EA
      000000A8H   SFRSYM    DATA     BYTE      IE
      00000085H   SFRSYM    DATA     BYTE      DPH1
      00000084H   SFRSYM    DATA     BYTE      DPL1
      000000D0H.7 SFRSYM    DATA     BIT       CY
      000000A0H   SFRSYM    DATA     BYTE      P2AX
      00000095H   SFRSYM    DATA     BYTE      DPX1
      00000081H   SFRSYM    DATA     BYTE      SP
      000000D0H.2 SFRSYM    DATA     BIT       OV
      00000080H   SFRSYM    DATA     BYTE      SFRPRT0DR
      00000090H   SFRSYM    DATA     BYTE      SFRPRT1DR
      000000F2H   SFRSYM    DATA     BYTE      SFRPRT12SEL
      00000098H   SFRSYM    DATA     BYTE      SFRPRT2DR
      000000B0H   SFRSYM    DATA     BYTE      SFRPRT3DR
      000000C0H   SFRSYM    DATA     BYTE      SFRPRT4DR
      000000FAH   SFRSYM    DATA     BYTE      SFRPRT15SEL
      000000C8H   SFRSYM    DATA     BYTE      SFRPRT5DR
      000000D8H   SFRSYM    DATA     BYTE      SFRPRT6DR
      00000089H   SFRSYM    DATA     BYTE      SFRPRT0PS
      00000091H   SFRSYM    DATA     BYTE      SFRPRT1PS
      00000099H   SFRSYM    DATA     BYTE      SFRPRT2PS
      000000B1H   SFRSYM    DATA     BYTE      SFRPRT3PS
      000000C1H   SFRSYM    DATA     BYTE      SFRPRT4PS
      000000C9H   SFRSYM    DATA     BYTE      SFRPRT5PS
      000000D9H   SFRSYM    DATA     BYTE      SFRPRT6PS
      000000EAH   SFRSYM    DATA     BYTE      MXAX
      000000F0H   SFRSYM    DATA     BYTE      B
      000000E0H   SFRSYM    DATA     BYTE      ACC
      000000D0H   SFRSYM    DATA     BIT       P
      000000D0H.3 SFRSYM    DATA     BIT       RS0
      000000D0H.4 SFRSYM    DATA     BIT       RS1
      00000083H   SFRSYM    DATA     BYTE      DPH
      000000E8H   SFRSYM    DATA     BYTE      SFRPRT12DR
      00000082H   SFRSYM    DATA     BYTE      DPL
      000000F8H   SFRSYM    DATA     BYTE      SFRPRT15DR
      00000086H   SFRSYM    DATA     BYTE      DPS
      000000E9H   SFRSYM    DATA     BYTE      SFRPRT12PS
      00000093H   SFRSYM    DATA     BYTE      DPX
      000000F9H   SFRSYM    DATA     BYTE      SFRPRT15PS
      000000D0H.5 SFRSYM    DATA     BIT       F0
      000000D0H.1 SFRSYM    DATA     BIT       F1
      0000008AH   SFRSYM    DATA     BYTE      SFRPRT0SEL
      000000D0H   SFRSYM    DATA     BYTE      PSW
LX51 LINKER/LOCATER V4.64.0.0                                                         04/13/2018  12:12:27  PAGE 116


      000000A2H   SFRSYM    DATA     BYTE      SFRPRT1SEL
      0000009AH   SFRSYM    DATA     BYTE      SFRPRT2SEL
      000000B2H   SFRSYM    DATA     BYTE      SFRPRT3SEL
      000000C2H   SFRSYM    DATA     BYTE      SFRPRT4SEL

      0100F448H   BLOCK     CODE     ---       LVL=0
      0100F448H   LINE      CODE     ---       #33
      0100F448H   LINE      CODE     ---       #34
      0100F448H   LINE      CODE     ---       #36
      0100F44BH   LINE      CODE     ---       #39
      0100F44EH   LINE      CODE     ---       #40
      ---         BLOCKEND  ---      ---       LVL=0

      0100F529H   BLOCK     CODE     ---       LVL=0
      0100F529H   LINE      CODE     ---       #57
      0100F529H   LINE      CODE     ---       #58
      0100F529H   LINE      CODE     ---       #59
      0100F52CH   LINE      CODE     ---       #60
      ---         BLOCKEND  ---      ---       LVL=0

      0100CE4EH   BLOCK     CODE     ---       LVL=0
      02000043H   SYMBOL    XDATA    ---       rowData
      02000046H   SYMBOL    XDATA    BYTE      rowNumber
      0100CE5CH   BLOCK     CODE     NEAR LAB  LVL=1
      02000047H   SYMBOL    XDATA    BYTE      status
      ---         BLOCKEND  ---      ---       LVL=1
      0100CE4EH   LINE      CODE     ---       #345
      0100CE5CH   LINE      CODE     ---       #346
      0100CE5CH   LINE      CODE     ---       #349
      0100CE5FH   LINE      CODE     ---       #351
      0100CE6BH   LINE      CODE     ---       #352
      0100CE6BH   LINE      CODE     ---       #354
      0100CE74H   LINE      CODE     ---       #355
      0100CE74H   LINE      CODE     ---       #357
      0100CE7AH   LINE      CODE     ---       #360
      0100CE98H   LINE      CODE     ---       #361
      0100CE98H   LINE      CODE     ---       #362
      0100CEA0H   LINE      CODE     ---       #363
      0100CEA0H   LINE      CODE     ---       #365
      0100CEA0H   LINE      CODE     ---       #368
      0100CEB6H   LINE      CODE     ---       #369
      0100CEB6H   LINE      CODE     ---       #370
      0100CEBAH   LINE      CODE     ---       #371
      0100CEBAH   LINE      CODE     ---       #374
      0100CEC0H   LINE      CODE     ---       #375
      0100CEC0H   LINE      CODE     ---       #376
      0100CEDCH   LINE      CODE     ---       #378
      0100CEDCH   LINE      CODE     ---       #380
      0100CEE2H   LINE      CODE     ---       #382
      0100CEEAH   LINE      CODE     ---       #383
      0100CEEAH   LINE      CODE     ---       #385
      0100CEEAH   LINE      CODE     ---       #388
      0100CF00H   LINE      CODE     ---       #389
      0100CF00H   LINE      CODE     ---       #390
      0100CF04H   LINE      CODE     ---       #391
      0100CF04H   LINE      CODE     ---       #392
      0100CF06H   LINE      CODE     ---       #394
      0100CF06H   LINE      CODE     ---       #395
      0100CF0CH   LINE      CODE     ---       #396
      0100CF0CH   LINE      CODE     ---       #397
      0100CF0EH   LINE      CODE     ---       #399
      0100CF0EH   LINE      CODE     ---       #400
      0100CF14H   LINE      CODE     ---       #401
      0100CF14H   LINE      CODE     ---       #402
      0100CF14H   LINE      CODE     ---       #405
LX51 LINKER/LOCATER V4.64.0.0                                                         04/13/2018  12:12:27  PAGE 117


      0100CF17H   LINE      CODE     ---       #406
      0100CF19H   LINE      CODE     ---       #408
      0100CF19H   LINE      CODE     ---       #409
      0100CF1FH   LINE      CODE     ---       #410
      0100CF1FH   LINE      CODE     ---       #411
      0100CF21H   LINE      CODE     ---       #413
      0100CF21H   LINE      CODE     ---       #414
      0100CF27H   LINE      CODE     ---       #415
      0100CF27H   LINE      CODE     ---       #417
      0100CF2CH   LINE      CODE     ---       #418
      ---         BLOCKEND  ---      ---       LVL=0

      ---         MODULE    ---      ---       ADC
      020013E0H   PUBLIC    XDATA    LONG      ADC_CountsPerVolt
      020013DFH   PUBLIC    XDATA    BYTE      ADC_convDone
      020013DBH   PUBLIC    XDATA    BYTE      ADC_started
      020013DAH   PUBLIC    XDATA    BYTE      ADC_stopConversion
      020013D6H   PUBLIC    XDATA    LONG      ADC_Offset
      020013D5H   PUBLIC    XDATA    BYTE      ADC_initVar
      020013D4H   PUBLIC    XDATA    BYTE      ADC_Config
      0100F01BH   PUBLIC    CODE     ---       ADC_Start
      0100D7A5H   PUBLIC    CODE     ---       ADC_Enable
      0100D3D1H   PUBLIC    CODE     ---       ADC_Init
      000000CAH   SFRSYM    DATA     BYTE      SFRPRT5SEL
      000000DAH   SFRSYM    DATA     BYTE      SFRPRT6SEL
      000000D0H.6 SFRSYM    DATA     BIT       AC
      000000A8H.7 SFRSYM    DATA     BIT       EA
      000000A8H   SFRSYM    DATA     BYTE      IE
      00000085H   SFRSYM    DATA     BYTE      DPH1
      00000084H   SFRSYM    DATA     BYTE      DPL1
      000000D0H.7 SFRSYM    DATA     BIT       CY
      000000A0H   SFRSYM    DATA     BYTE      P2AX
      00000095H   SFRSYM    DATA     BYTE      DPX1
      00000081H   SFRSYM    DATA     BYTE      SP
      000000D0H.2 SFRSYM    DATA     BIT       OV
      00000080H   SFRSYM    DATA     BYTE      SFRPRT0DR
      00000090H   SFRSYM    DATA     BYTE      SFRPRT1DR
      000000F2H   SFRSYM    DATA     BYTE      SFRPRT12SEL
      00000098H   SFRSYM    DATA     BYTE      SFRPRT2DR
      000000B0H   SFRSYM    DATA     BYTE      SFRPRT3DR
      000000C0H   SFRSYM    DATA     BYTE      SFRPRT4DR
      000000FAH   SFRSYM    DATA     BYTE      SFRPRT15SEL
      000000C8H   SFRSYM    DATA     BYTE      SFRPRT5DR
      000000D8H   SFRSYM    DATA     BYTE      SFRPRT6DR
      00000089H   SFRSYM    DATA     BYTE      SFRPRT0PS
      00000091H   SFRSYM    DATA     BYTE      SFRPRT1PS
      00000099H   SFRSYM    DATA     BYTE      SFRPRT2PS
      000000B1H   SFRSYM    DATA     BYTE      SFRPRT3PS
      000000C1H   SFRSYM    DATA     BYTE      SFRPRT4PS
      000000C9H   SFRSYM    DATA     BYTE      SFRPRT5PS
      000000D9H   SFRSYM    DATA     BYTE      SFRPRT6PS
      000000EAH   SFRSYM    DATA     BYTE      MXAX
      000000F0H   SFRSYM    DATA     BYTE      B
      000000E0H   SFRSYM    DATA     BYTE      ACC
      000000D0H   SFRSYM    DATA     BIT       P
      000000D0H.3 SFRSYM    DATA     BIT       RS0
      000000D0H.4 SFRSYM    DATA     BIT       RS1
      00000083H   SFRSYM    DATA     BYTE      DPH
      000000E8H   SFRSYM    DATA     BYTE      SFRPRT12DR
      00000082H   SFRSYM    DATA     BYTE      DPL
      000000F8H   SFRSYM    DATA     BYTE      SFRPRT15DR
      00000086H   SFRSYM    DATA     BYTE      DPS
      000000E9H   SFRSYM    DATA     BYTE      SFRPRT12PS
      00000093H   SFRSYM    DATA     BYTE      DPX
      000000F9H   SFRSYM    DATA     BYTE      SFRPRT15PS
LX51 LINKER/LOCATER V4.64.0.0                                                         04/13/2018  12:12:27  PAGE 118


      000000D0H.5 SFRSYM    DATA     BIT       F0
      000000D0H.1 SFRSYM    DATA     BIT       F1
      0000008AH   SFRSYM    DATA     BYTE      SFRPRT0SEL
      000000D0H   SFRSYM    DATA     BYTE      PSW
      000000A2H   SFRSYM    DATA     BYTE      SFRPRT1SEL
      0000009AH   SFRSYM    DATA     BYTE      SFRPRT2SEL
      000000B2H   SFRSYM    DATA     BYTE      SFRPRT3SEL
      000000C2H   SFRSYM    DATA     BYTE      SFRPRT4SEL
      0100D533H   SYMBOL    CODE     ---       _ADC_InitConfig
      0100BE57H   SYMBOL    CODE     ---       _ADC_GainCompensation
      0100E9C3H   SYMBOL    CODE     ---       _ADC_SetDSMRef0Reg
      020013DCH   SYMBOL    XDATA    ---       ADC_gcor

      0100D3D1H   BLOCK     CODE     ---       LVL=0
      0100D3D1H   LINE      CODE     ---       #91
      0100D3D1H   LINE      CODE     ---       #92
      0100D3D1H   LINE      CODE     ---       #94
      0100D3D7H   LINE      CODE     ---       #95
      0100D3DCH   LINE      CODE     ---       #97
      0100D3E1H   LINE      CODE     ---       #101
      0100D3E6H   LINE      CODE     ---       #106
      0100D3EDH   LINE      CODE     ---       #110
      0100D3F3H   LINE      CODE     ---       #111
      0100D3F6H   LINE      CODE     ---       #112
      0100D3FAH   LINE      CODE     ---       #113
      0100D401H   LINE      CODE     ---       #114
      0100D406H   LINE      CODE     ---       #116
      0100D40AH   LINE      CODE     ---       #117
      0100D40CH   LINE      CODE     ---       #119
      0100D412H   LINE      CODE     ---       #120
      0100D415H   LINE      CODE     ---       #124
      0100D419H   LINE      CODE     ---       #126
      0100D41FH   LINE      CODE     ---       #127
      0100D422H   LINE      CODE     ---       #128
      0100D427H   LINE      CODE     ---       #130
      0100D42DH   LINE      CODE     ---       #133
      0100D444H   LINE      CODE     ---       #161
      0100D45AH   LINE      CODE     ---       #162
      0100D479H   LINE      CODE     ---       #165
      0100D481H   LINE      CODE     ---       #166
      ---         BLOCKEND  ---      ---       LVL=0

      0100D7A5H   BLOCK     CODE     ---       LVL=0
      0100D7A5H   BLOCK     CODE     NEAR LAB  LVL=1
      02000002H   SYMBOL    XDATA    BYTE      config
      02000003H   SYMBOL    XDATA    BYTE      enableInterrupts
      ---         BLOCKEND  ---      ---       LVL=1
      0100D7A5H   LINE      CODE     ---       #184
      0100D7A5H   LINE      CODE     ---       #185
      0100D7A5H   LINE      CODE     ---       #188
      0100D7ADH   LINE      CODE     ---       #191
      0100D7B5H   LINE      CODE     ---       #194
      0100D7BCH   LINE      CODE     ---       #195
      0100D7C0H   LINE      CODE     ---       #198
      0100D7C7H   LINE      CODE     ---       #199
      0100D7CBH   LINE      CODE     ---       #202
      0100D7D2H   LINE      CODE     ---       #203
      0100D7D7H   LINE      CODE     ---       #205
      0100D7DEH   LINE      CODE     ---       #265
      0100D7DEH   LINE      CODE     ---       #266
      0100D7DEH   LINE      CODE     ---       #268
      0100D7DEH   LINE      CODE     ---       #271
      0100D7E5H   LINE      CODE     ---       #274
      0100D7ECH   LINE      CODE     ---       #275
      0100D7F1H   LINE      CODE     ---       #278
LX51 LINKER/LOCATER V4.64.0.0                                                         04/13/2018  12:12:27  PAGE 119


      0100D7F8H   LINE      CODE     ---       #281
      0100D7FEH   LINE      CODE     ---       #285
      0100D805H   LINE      CODE     ---       #286
      0100D80CH   LINE      CODE     ---       #290
      0100D813H   LINE      CODE     ---       #291
      0100D81AH   LINE      CODE     ---       #295
      0100D820H   LINE      CODE     ---       #297
      0100D824H   LINE      CODE     ---       #300
      0100D82CH   LINE      CODE     ---       #302
      ---         BLOCKEND  ---      ---       LVL=0

      0100F01BH   BLOCK     CODE     ---       LVL=0
      0100F01BH   LINE      CODE     ---       #329
      0100F01BH   LINE      CODE     ---       #330
      0100F01BH   LINE      CODE     ---       #331
      0100F021H   LINE      CODE     ---       #332
      0100F021H   LINE      CODE     ---       #333
      0100F027H   LINE      CODE     ---       #334
      0100F027H   LINE      CODE     ---       #335
      0100F02AH   LINE      CODE     ---       #336
      0100F02AH   LINE      CODE     ---       #337
      0100F030H   LINE      CODE     ---       #338
      0100F030H   LINE      CODE     ---       #341
      0100F033H   LINE      CODE     ---       #342
      ---         BLOCKEND  ---      ---       LVL=0
      00000007H   SYMBOL    DATA     BYTE      gain
      00000006H   SYMBOL    DATA     BYTE      tmpReg
      00000007H   SYMBOL    DATA     BYTE      coherency
      00000006H   SYMBOL    DATA     BYTE      tmpReg
      00000004H   SYMBOL    DATA     WORD      gcorValue
      00000007H   SYMBOL    DATA     BYTE      retMode
      00000006H   SYMBOL    DATA     BYTE      status
      00000006H   SYMBOL    DATA     CHAR      result
      00000007H   SYMBOL    DATA     BYTE      coherency
      00000004H   SYMBOL    DATA     LONG      offset
      00000004H   SYMBOL    DATA     LONG      adcGain
      00000006H   SYMBOL    DATA     INT       mVolts
      00000004H   SYMBOL    DATA     FLOAT     Volts
      00000004H   SYMBOL    DATA     LONG      uVolts

      0100D533H   BLOCK     CODE     ---       LVL=0
      00000007H   SYMBOL    DATA     BYTE      config
      0100D533H   LINE      CODE     ---       #1242
      0100D533H   LINE      CODE     ---       #1243
      0100D533H   LINE      CODE     ---       #1244
      0100D538H   LINE      CODE     ---       #1246
      0100D540H   LINE      CODE     ---       #1247
      0100D540H   LINE      CODE     ---       #1249
      0100D546H   LINE      CODE     ---       #1250
      0100D54CH   LINE      CODE     ---       #1251
      0100D550H   LINE      CODE     ---       #1252
      0100D553H   LINE      CODE     ---       #1253
      0100D555H   LINE      CODE     ---       #1254
      0100D559H   LINE      CODE     ---       #1255
      0100D55EH   LINE      CODE     ---       #1256
      0100D560H   LINE      CODE     ---       #1257
      0100D562H   LINE      CODE     ---       #1258
      0100D567H   LINE      CODE     ---       #1260
      0100D56DH   LINE      CODE     ---       #1261
      0100D571H   LINE      CODE     ---       #1262
      0100D575H   LINE      CODE     ---       #1263
      0100D578H   LINE      CODE     ---       #1264
      0100D57EH   LINE      CODE     ---       #1265
      0100D582H   LINE      CODE     ---       #1266
      0100D586H   LINE      CODE     ---       #1267
LX51 LINKER/LOCATER V4.64.0.0                                                         04/13/2018  12:12:27  PAGE 120


      0100D58BH   LINE      CODE     ---       #1268
      0100D58FH   LINE      CODE     ---       #1269
      0100D593H   LINE      CODE     ---       #1270
      0100D597H   LINE      CODE     ---       #1272
      0100D59CH   LINE      CODE     ---       #1273
      0100D5A2H   LINE      CODE     ---       #1274
      0100D5A5H   LINE      CODE     ---       #1276
      0100D5AAH   LINE      CODE     ---       #1277
      0100D5ACH   LINE      CODE     ---       #1278
      0100D5AFH   LINE      CODE     ---       #1279
      0100D5B3H   LINE      CODE     ---       #1288
      0100D5B8H   LINE      CODE     ---       #1300
      0100D5C5H   LINE      CODE     ---       #1302
      0100D5CEH   LINE      CODE     ---       #1306
      0100D5D7H   LINE      CODE     ---       #1311
      0100D5E0H   LINE      CODE     ---       #1313
      0100D5E0H   LINE      CODE     ---       #1526
      ---         BLOCKEND  ---      ---       LVL=0

      0100BE57H   BLOCK     CODE     ---       LVL=0
      00000007H   SYMBOL    DATA     BYTE      inputRange
      02000003H   SYMBOL    XDATA    WORD      idealDecGain
      02000005H   SYMBOL    XDATA    WORD      idealOddDecGain
      02000007H   SYMBOL    XDATA    BYTE      resolution
      02000008H   SYMBOL    XDATA    BYTE      config
      0100BE65H   BLOCK     CODE     NEAR LAB  LVL=1
      02000009H   SYMBOL    XDATA    CHAR      flash
      00000004H   SYMBOL    DATA     LONG      normalised
      00000004H   SYMBOL    DATA     WORD      gcorValue
      00000004H   SYMBOL    DATA     DWORD     gcorTmp
      ---         BLOCKEND  ---      ---       LVL=1
      0100BE57H   LINE      CODE     ---       #1617
      0100BE65H   LINE      CODE     ---       #1619
      0100BE65H   LINE      CODE     ---       #1625
      0100BE7BH   LINE      CODE     ---       #1626
      0100BE7BH   LINE      CODE     ---       #1627
      0100BE95H   LINE      CODE     ---       #1628
      0100BE95H   LINE      CODE     ---       #1629
      0100BE95H   LINE      CODE     ---       #1630
      0100BE95H   LINE      CODE     ---       #1632
      0100BE9EH   LINE      CODE     ---       #1633
      0100BE9EH   LINE      CODE     ---       #1634
      0100BEACH   LINE      CODE     ---       #1635
      0100BEAFH   LINE      CODE     ---       #1637
      0100BEAFH   LINE      CODE     ---       #1638
      0100BEBDH   LINE      CODE     ---       #1639
      0100BEBDH   LINE      CODE     ---       #1640
      0100BEC0H   LINE      CODE     ---       #1642
      0100BEC0H   LINE      CODE     ---       #1644
      0100BEC9H   LINE      CODE     ---       #1645
      0100BEC9H   LINE      CODE     ---       #1646
      0100BED7H   LINE      CODE     ---       #1647
      0100BED9H   LINE      CODE     ---       #1649
      0100BED9H   LINE      CODE     ---       #1650
      0100BEE7H   LINE      CODE     ---       #1651
      0100BEE7H   LINE      CODE     ---       #1652
      0100BEE9H   LINE      CODE     ---       #1654
      0100BEE9H   LINE      CODE     ---       #1656
      0100BEF2H   LINE      CODE     ---       #1657
      0100BEF2H   LINE      CODE     ---       #1658
      0100BF00H   LINE      CODE     ---       #1659
      0100BF02H   LINE      CODE     ---       #1661
      0100BF02H   LINE      CODE     ---       #1662
      0100BF10H   LINE      CODE     ---       #1663
      0100BF10H   LINE      CODE     ---       #1664
LX51 LINKER/LOCATER V4.64.0.0                                                         04/13/2018  12:12:27  PAGE 121


      0100BF12H   LINE      CODE     ---       #1666
      0100BF12H   LINE      CODE     ---       #1668
      0100BF1BH   LINE      CODE     ---       #1669
      0100BF1BH   LINE      CODE     ---       #1670
      0100BF29H   LINE      CODE     ---       #1671
      0100BF2BH   LINE      CODE     ---       #1673
      0100BF2BH   LINE      CODE     ---       #1674
      0100BF39H   LINE      CODE     ---       #1675
      0100BF39H   LINE      CODE     ---       #1676
      0100BF3BH   LINE      CODE     ---       #1678
      0100BF3BH   LINE      CODE     ---       #1679
      0100BF40H   LINE      CODE     ---       #1680
      0100BF40H   LINE      CODE     ---       #1681
      0100BF40H   LINE      CODE     ---       #1684
      0100BF73H   LINE      CODE     ---       #1685
      0100BF86H   LINE      CODE     ---       #1686
      0100BF93H   LINE      CODE     ---       #1688
      0100BF9CH   LINE      CODE     ---       #1689
      0100BF9CH   LINE      CODE     ---       #1690
      0100BFB3H   LINE      CODE     ---       #1691
      0100BFC9H   LINE      CODE     ---       #1692
      0100BFCBH   LINE      CODE     ---       #1694
      0100BFCBH   LINE      CODE     ---       #1696
      0100BFDFH   LINE      CODE     ---       #1697
      0100BFDFH   LINE      CODE     ---       #1700
      0100BFF7H   LINE      CODE     ---       #1701
      0100BFF7H   LINE      CODE     ---       #1703
      0100BFF7H   LINE      CODE     ---       #1706
      0100BFF7H   LINE      CODE     ---       #1707
      ---         BLOCKEND  ---      ---       LVL=0

      0100E9C3H   BLOCK     CODE     ---       LVL=0
      02000002H   SYMBOL    XDATA    BYTE      value
      0100E9C8H   BLOCK     CODE     NEAR LAB  LVL=1
      02000003H   SYMBOL    XDATA    BYTE      enableInterrupts
      ---         BLOCKEND  ---      ---       LVL=1
      0100E9C3H   LINE      CODE     ---       #1724
      0100E9C8H   LINE      CODE     ---       #1725
      0100E9C8H   LINE      CODE     ---       #1727
      0100E9D0H   LINE      CODE     ---       #1730
      0100E9D7H   LINE      CODE     ---       #1731
      0100E9DCH   LINE      CODE     ---       #1732
      0100E9E4H   LINE      CODE     ---       #1735
      0100E9EBH   LINE      CODE     ---       #1737
      0100E9F2H   LINE      CODE     ---       #1738
      0100E9F7H   LINE      CODE     ---       #1740
      0100E9FFH   LINE      CODE     ---       #1741
      ---         BLOCKEND  ---      ---       LVL=0
      00000007H   SYMBOL    DATA     CHAR      result
      00000006H   SYMBOL    DATA     INT       result
      00000004H   SYMBOL    DATA     LONG      result

      ---         MODULE    ---      ---       RS485_CTS
      0100F4B7H   PUBLIC    CODE     ---       _RS485_CTS_Write

      0100F4B7H   BLOCK     CODE     ---       LVL=0
      00000007H   SYMBOL    DATA     BYTE      control
      0100F4B7H   LINE      CODE     ---       #37
      0100F4B7H   LINE      CODE     ---       #38
      0100F4B7H   LINE      CODE     ---       #39
      0100F4BCH   LINE      CODE     ---       #40
      ---         BLOCKEND  ---      ---       LVL=0

      ---         MODULE    ---      ---       BOOTLOADABLE
      0100F3AAH   PUBLIC    CODE     ---       Bootloadable_Load
LX51 LINKER/LOCATER V4.64.0.0                                                         04/13/2018  12:12:27  PAGE 122


      000000CAH   SFRSYM    DATA     BYTE      SFRPRT5SEL
      000000DAH   SFRSYM    DATA     BYTE      SFRPRT6SEL
      000000D0H.6 SFRSYM    DATA     BIT       AC
      000000A8H.7 SFRSYM    DATA     BIT       EA
      000000A8H   SFRSYM    DATA     BYTE      IE
      00000085H   SFRSYM    DATA     BYTE      DPH1
      00000084H   SFRSYM    DATA     BYTE      DPL1
      000000D0H.7 SFRSYM    DATA     BIT       CY
      000000A0H   SFRSYM    DATA     BYTE      P2AX
      00000095H   SFRSYM    DATA     BYTE      DPX1
      00000081H   SFRSYM    DATA     BYTE      SP
      000000D0H.2 SFRSYM    DATA     BIT       OV
      00000080H   SFRSYM    DATA     BYTE      SFRPRT0DR
      00000090H   SFRSYM    DATA     BYTE      SFRPRT1DR
      000000F2H   SFRSYM    DATA     BYTE      SFRPRT12SEL
      00000098H   SFRSYM    DATA     BYTE      SFRPRT2DR
      000000B0H   SFRSYM    DATA     BYTE      SFRPRT3DR
      000000C0H   SFRSYM    DATA     BYTE      SFRPRT4DR
      000000FAH   SFRSYM    DATA     BYTE      SFRPRT15SEL
      000000C8H   SFRSYM    DATA     BYTE      SFRPRT5DR
      000000D8H   SFRSYM    DATA     BYTE      SFRPRT6DR
      00000089H   SFRSYM    DATA     BYTE      SFRPRT0PS
      00000091H   SFRSYM    DATA     BYTE      SFRPRT1PS
      00000099H   SFRSYM    DATA     BYTE      SFRPRT2PS
      000000B1H   SFRSYM    DATA     BYTE      SFRPRT3PS
      000000C1H   SFRSYM    DATA     BYTE      SFRPRT4PS
      000000C9H   SFRSYM    DATA     BYTE      SFRPRT5PS
      000000D9H   SFRSYM    DATA     BYTE      SFRPRT6PS
      000000EAH   SFRSYM    DATA     BYTE      MXAX
      000000F0H   SFRSYM    DATA     BYTE      B
      000000E0H   SFRSYM    DATA     BYTE      ACC
      000000D0H   SFRSYM    DATA     BIT       P
      000000D0H.3 SFRSYM    DATA     BIT       RS0
      000000D0H.4 SFRSYM    DATA     BIT       RS1
      00000083H   SFRSYM    DATA     BYTE      DPH
      000000E8H   SFRSYM    DATA     BYTE      SFRPRT12DR
      00000082H   SFRSYM    DATA     BYTE      DPL
      000000F8H   SFRSYM    DATA     BYTE      SFRPRT15DR
      00000086H   SFRSYM    DATA     BYTE      DPS
      000000E9H   SFRSYM    DATA     BYTE      SFRPRT12PS
      00000093H   SFRSYM    DATA     BYTE      DPX
      000000F9H   SFRSYM    DATA     BYTE      SFRPRT15PS
      000000D0H.5 SFRSYM    DATA     BIT       F0
      000000D0H.1 SFRSYM    DATA     BIT       F1
      0000008AH   SFRSYM    DATA     BYTE      SFRPRT0SEL
      000000D0H   SFRSYM    DATA     BYTE      PSW
      000000A2H   SFRSYM    DATA     BYTE      SFRPRT1SEL
      0000009AH   SFRSYM    DATA     BYTE      SFRPRT2SEL
      000000B2H   SFRSYM    DATA     BYTE      SFRPRT3SEL
      000000C2H   SFRSYM    DATA     BYTE      SFRPRT4SEL

      0100F3AAH   BLOCK     CODE     ---       LVL=0
      0100F3AAH   LINE      CODE     ---       #41
      0100F3AAH   LINE      CODE     ---       #42
      0100F3AAH   LINE      CODE     ---       #44
      0100F3B0H   LINE      CODE     ---       #46
      0100F3B3H   LINE      CODE     ---       #47
      ---         BLOCKEND  ---      ---       LVL=0
      00000002H   SYMBOL    DATA     WORD      idx

      ---         MODULE    ---      ---       MOTOR_ON_OFF
      0100F4BDH   PUBLIC    CODE     ---       _MOTOR_ON_OFF_Write

      0100F4BDH   BLOCK     CODE     ---       LVL=0
      00000007H   SYMBOL    DATA     BYTE      control
LX51 LINKER/LOCATER V4.64.0.0                                                         04/13/2018  12:12:27  PAGE 123


      0100F4BDH   LINE      CODE     ---       #37
      0100F4BDH   LINE      CODE     ---       #38
      0100F4BDH   LINE      CODE     ---       #39
      0100F4C2H   LINE      CODE     ---       #40
      ---         BLOCKEND  ---      ---       LVL=0

      ---         MODULE    ---      ---       FTDI_ENABLE_REG
      0100F4C3H   PUBLIC    CODE     ---       _FTDI_ENABLE_REG_Write

      0100F4C3H   BLOCK     CODE     ---       LVL=0
      00000007H   SYMBOL    DATA     BYTE      control
      0100F4C3H   LINE      CODE     ---       #37
      0100F4C3H   LINE      CODE     ---       #38
      0100F4C3H   LINE      CODE     ---       #39
      0100F4C8H   LINE      CODE     ---       #40
      ---         BLOCKEND  ---      ---       LVL=0

      ---         MODULE    ---      ---       RESET_FF
      0100F4C9H   PUBLIC    CODE     ---       _RESET_FF_Write

      0100F4C9H   BLOCK     CODE     ---       LVL=0
      00000007H   SYMBOL    DATA     BYTE      control
      0100F4C9H   LINE      CODE     ---       #37
      0100F4C9H   LINE      CODE     ---       #38
      0100F4C9H   LINE      CODE     ---       #39
      0100F4CEH   LINE      CODE     ---       #40
      ---         BLOCKEND  ---      ---       LVL=0

      ---         MODULE    ---      ---       FF_STATUS
      0100F4CFH   PUBLIC    CODE     ---       FF_STATUS_Read
      000000CAH   SFRSYM    DATA     BYTE      SFRPRT5SEL
      000000DAH   SFRSYM    DATA     BYTE      SFRPRT6SEL
      000000D0H.6 SFRSYM    DATA     BIT       AC
      000000A8H.7 SFRSYM    DATA     BIT       EA
      000000A8H   SFRSYM    DATA     BYTE      IE
      00000085H   SFRSYM    DATA     BYTE      DPH1
      00000084H   SFRSYM    DATA     BYTE      DPL1
      000000D0H.7 SFRSYM    DATA     BIT       CY
      000000A0H   SFRSYM    DATA     BYTE      P2AX
      00000095H   SFRSYM    DATA     BYTE      DPX1
      00000081H   SFRSYM    DATA     BYTE      SP
      000000D0H.2 SFRSYM    DATA     BIT       OV
      00000080H   SFRSYM    DATA     BYTE      SFRPRT0DR
      00000090H   SFRSYM    DATA     BYTE      SFRPRT1DR
      000000F2H   SFRSYM    DATA     BYTE      SFRPRT12SEL
      00000098H   SFRSYM    DATA     BYTE      SFRPRT2DR
      000000B0H   SFRSYM    DATA     BYTE      SFRPRT3DR
      000000C0H   SFRSYM    DATA     BYTE      SFRPRT4DR
      000000FAH   SFRSYM    DATA     BYTE      SFRPRT15SEL
      000000C8H   SFRSYM    DATA     BYTE      SFRPRT5DR
      000000D8H   SFRSYM    DATA     BYTE      SFRPRT6DR
      00000089H   SFRSYM    DATA     BYTE      SFRPRT0PS
      00000091H   SFRSYM    DATA     BYTE      SFRPRT1PS
      00000099H   SFRSYM    DATA     BYTE      SFRPRT2PS
      000000B1H   SFRSYM    DATA     BYTE      SFRPRT3PS
      000000C1H   SFRSYM    DATA     BYTE      SFRPRT4PS
      000000C9H   SFRSYM    DATA     BYTE      SFRPRT5PS
      000000D9H   SFRSYM    DATA     BYTE      SFRPRT6PS
      000000EAH   SFRSYM    DATA     BYTE      MXAX
      000000F0H   SFRSYM    DATA     BYTE      B
      000000E0H   SFRSYM    DATA     BYTE      ACC
      000000D0H   SFRSYM    DATA     BIT       P
      000000D0H.3 SFRSYM    DATA     BIT       RS0
      000000D0H.4 SFRSYM    DATA     BIT       RS1
      00000083H   SFRSYM    DATA     BYTE      DPH
LX51 LINKER/LOCATER V4.64.0.0                                                         04/13/2018  12:12:27  PAGE 124


      000000E8H   SFRSYM    DATA     BYTE      SFRPRT12DR
      00000082H   SFRSYM    DATA     BYTE      DPL
      000000F8H   SFRSYM    DATA     BYTE      SFRPRT15DR
      00000086H   SFRSYM    DATA     BYTE      DPS
      000000E9H   SFRSYM    DATA     BYTE      SFRPRT12PS
      00000093H   SFRSYM    DATA     BYTE      DPX
      000000F9H   SFRSYM    DATA     BYTE      SFRPRT15PS
      000000D0H.5 SFRSYM    DATA     BIT       F0
      000000D0H.1 SFRSYM    DATA     BIT       F1
      0000008AH   SFRSYM    DATA     BYTE      SFRPRT0SEL
      000000D0H   SFRSYM    DATA     BYTE      PSW
      000000A2H   SFRSYM    DATA     BYTE      SFRPRT1SEL
      0000009AH   SFRSYM    DATA     BYTE      SFRPRT2SEL
      000000B2H   SFRSYM    DATA     BYTE      SFRPRT3SEL
      000000C2H   SFRSYM    DATA     BYTE      SFRPRT4SEL

      0100F4CFH   BLOCK     CODE     ---       LVL=0
      0100F4CFH   LINE      CODE     ---       #37
      0100F4CFH   LINE      CODE     ---       #38
      0100F4CFH   LINE      CODE     ---       #39
      0100F4D4H   LINE      CODE     ---       #40
      ---         BLOCKEND  ---      ---       LVL=0
      00000007H   SYMBOL    DATA     BYTE      interruptState
      00000007H   SYMBOL    DATA     BYTE      interruptState
      00000007H   SYMBOL    DATA     BYTE      mask

      ---         MODULE    ---      ---       MY_TIMER
      02001409H   PUBLIC    XDATA    BYTE      MY_TIMER_initVar
      0100F30AH   PUBLIC    CODE     ---       MY_TIMER_ClearFIFO
      0100F253H   PUBLIC    CODE     ---       MY_TIMER_ReadCounter
      0100F3C8H   PUBLIC    CODE     ---       _MY_TIMER_WriteCounter
      0100F3BEH   PUBLIC    CODE     ---       MY_TIMER_ReadCapture
      0100F3B4H   PUBLIC    CODE     ---       _MY_TIMER_WritePeriod
      0100F4DBH   PUBLIC    CODE     ---       MY_TIMER_ReadStatusRegister
      0100F4D5H   PUBLIC    CODE     ---       _MY_TIMER_SetInterruptMode
      0100F19DH   PUBLIC    CODE     ---       MY_TIMER_Start
      0100F412H   PUBLIC    CODE     ---       MY_TIMER_Enable
      0100EDF9H   PUBLIC    CODE     ---       MY_TIMER_Init
      000000CAH   SFRSYM    DATA     BYTE      SFRPRT5SEL
      000000DAH   SFRSYM    DATA     BYTE      SFRPRT6SEL
      000000D0H.6 SFRSYM    DATA     BIT       AC
      000000A8H.7 SFRSYM    DATA     BIT       EA
      000000A8H   SFRSYM    DATA     BYTE      IE
      00000085H   SFRSYM    DATA     BYTE      DPH1
      00000084H   SFRSYM    DATA     BYTE      DPL1
      000000D0H.7 SFRSYM    DATA     BIT       CY
      000000A0H   SFRSYM    DATA     BYTE      P2AX
      00000095H   SFRSYM    DATA     BYTE      DPX1
      00000081H   SFRSYM    DATA     BYTE      SP
      000000D0H.2 SFRSYM    DATA     BIT       OV
      00000080H   SFRSYM    DATA     BYTE      SFRPRT0DR
      00000090H   SFRSYM    DATA     BYTE      SFRPRT1DR
      000000F2H   SFRSYM    DATA     BYTE      SFRPRT12SEL
      00000098H   SFRSYM    DATA     BYTE      SFRPRT2DR
      000000B0H   SFRSYM    DATA     BYTE      SFRPRT3DR
      000000C0H   SFRSYM    DATA     BYTE      SFRPRT4DR
      000000FAH   SFRSYM    DATA     BYTE      SFRPRT15SEL
      000000C8H   SFRSYM    DATA     BYTE      SFRPRT5DR
      000000D8H   SFRSYM    DATA     BYTE      SFRPRT6DR
      00000089H   SFRSYM    DATA     BYTE      SFRPRT0PS
      00000091H   SFRSYM    DATA     BYTE      SFRPRT1PS
      00000099H   SFRSYM    DATA     BYTE      SFRPRT2PS
      000000B1H   SFRSYM    DATA     BYTE      SFRPRT3PS
      000000C1H   SFRSYM    DATA     BYTE      SFRPRT4PS
      000000C9H   SFRSYM    DATA     BYTE      SFRPRT5PS
LX51 LINKER/LOCATER V4.64.0.0                                                         04/13/2018  12:12:27  PAGE 125


      000000D9H   SFRSYM    DATA     BYTE      SFRPRT6PS
      000000EAH   SFRSYM    DATA     BYTE      MXAX
      000000F0H   SFRSYM    DATA     BYTE      B
      000000E0H   SFRSYM    DATA     BYTE      ACC
      000000D0H   SFRSYM    DATA     BIT       P
      000000D0H.3 SFRSYM    DATA     BIT       RS0
      000000D0H.4 SFRSYM    DATA     BIT       RS1
      00000083H   SFRSYM    DATA     BYTE      DPH
      000000E8H   SFRSYM    DATA     BYTE      SFRPRT12DR
      00000082H   SFRSYM    DATA     BYTE      DPL
      000000F8H   SFRSYM    DATA     BYTE      SFRPRT15DR
      00000086H   SFRSYM    DATA     BYTE      DPS
      000000E9H   SFRSYM    DATA     BYTE      SFRPRT12PS
      00000093H   SFRSYM    DATA     BYTE      DPX
      000000F9H   SFRSYM    DATA     BYTE      SFRPRT15PS
      000000D0H.5 SFRSYM    DATA     BIT       F0
      000000D0H.1 SFRSYM    DATA     BIT       F1
      0000008AH   SFRSYM    DATA     BYTE      SFRPRT0SEL
      000000D0H   SFRSYM    DATA     BYTE      PSW
      000000A2H   SFRSYM    DATA     BYTE      SFRPRT1SEL
      0000009AH   SFRSYM    DATA     BYTE      SFRPRT2SEL
      000000B2H   SFRSYM    DATA     BYTE      SFRPRT3SEL
      000000C2H   SFRSYM    DATA     BYTE      SFRPRT4SEL

      0100EDF9H   BLOCK     CODE     ---       LVL=0
      0100EDF9H   BLOCK     CODE     NEAR LAB  LVL=1
      00000007H   SYMBOL    DATA     BYTE      MY_TIMER_interruptState
      ---         BLOCKEND  ---      ---       LVL=1
      0100EDF9H   LINE      CODE     ---       #43
      0100EDF9H   LINE      CODE     ---       #44
      0100EDF9H   LINE      CODE     ---       #118
      0100EE04H   LINE      CODE     ---       #119
      0100EE0FH   LINE      CODE     ---       #142
      0100EE12H   LINE      CODE     ---       #145
      0100EE19H   LINE      CODE     ---       #148
      0100EE1CH   LINE      CODE     ---       #159
      0100EE1FH   LINE      CODE     ---       #162
      0100EE24H   LINE      CODE     ---       #163
      ---         BLOCKEND  ---      ---       LVL=0

      0100F412H   BLOCK     CODE     ---       LVL=0
      0100F412H   LINE      CODE     ---       #180
      0100F412H   LINE      CODE     ---       #181
      0100F412H   LINE      CODE     ---       #190
      0100F419H   LINE      CODE     ---       #192
      ---         BLOCKEND  ---      ---       LVL=0

      0100F19DH   BLOCK     CODE     ---       LVL=0
      0100F19DH   LINE      CODE     ---       #215
      0100F19DH   LINE      CODE     ---       #216
      0100F19DH   LINE      CODE     ---       #217
      0100F1A3H   LINE      CODE     ---       #218
      0100F1A3H   LINE      CODE     ---       #219
      0100F1A6H   LINE      CODE     ---       #221
      0100F1ACH   LINE      CODE     ---       #222
      0100F1ACH   LINE      CODE     ---       #225
      0100F1AFH   LINE      CODE     ---       #226
      ---         BLOCKEND  ---      ---       LVL=0

      0100F4D5H   BLOCK     CODE     ---       LVL=0
      00000007H   SYMBOL    DATA     BYTE      interruptMode
      0100F4D5H   LINE      CODE     ---       #279
      0100F4D5H   LINE      CODE     ---       #280
      0100F4D5H   LINE      CODE     ---       #281
      0100F4DAH   LINE      CODE     ---       #282
LX51 LINKER/LOCATER V4.64.0.0                                                         04/13/2018  12:12:27  PAGE 126


      ---         BLOCKEND  ---      ---       LVL=0

      0100F4DBH   BLOCK     CODE     ---       LVL=0
      0100F4DBH   LINE      CODE     ---       #333
      0100F4DBH   LINE      CODE     ---       #334
      0100F4DBH   LINE      CODE     ---       #335
      0100F4E0H   LINE      CODE     ---       #336
      ---         BLOCKEND  ---      ---       LVL=0
      00000007H   SYMBOL    DATA     BYTE      control

      0100F3B4H   BLOCK     CODE     ---       LVL=0
      00000004H   SYMBOL    DATA     DWORD     period
      0100F3B4H   LINE      CODE     ---       #431
      0100F3B4H   LINE      CODE     ---       #432
      0100F3B4H   LINE      CODE     ---       #437
      0100F3BDH   LINE      CODE     ---       #439
      ---         BLOCKEND  ---      ---       LVL=0

      0100F3BEH   BLOCK     CODE     ---       LVL=0
      0100F3BEH   LINE      CODE     ---       #456
      0100F3BEH   LINE      CODE     ---       #457
      0100F3BEH   LINE      CODE     ---       #461
      0100F3C7H   LINE      CODE     ---       #463
      ---         BLOCKEND  ---      ---       LVL=0

      0100F3C8H   BLOCK     CODE     ---       LVL=0
      00000004H   SYMBOL    DATA     DWORD     counter
      0100F3C8H   LINE      CODE     ---       #480
      0100F3C8H   LINE      CODE     ---       #481
      0100F3C8H   LINE      CODE     ---       #489
      0100F3D1H   LINE      CODE     ---       #491
      ---         BLOCKEND  ---      ---       LVL=0

      0100F253H   BLOCK     CODE     ---       LVL=0
      0100F253H   LINE      CODE     ---       #508
      0100F253H   LINE      CODE     ---       #509
      0100F253H   LINE      CODE     ---       #516
      0100F258H   LINE      CODE     ---       #523
      0100F261H   LINE      CODE     ---       #525
      ---         BLOCKEND  ---      ---       LVL=0

      0100F30AH   BLOCK     CODE     ---       LVL=0
      0100F30AH   LINE      CODE     ---       #763
      0100F30AH   LINE      CODE     ---       #764
      0100F30AH   LINE      CODE     ---       #765
      0100F311H   LINE      CODE     ---       #766
      0100F311H   LINE      CODE     ---       #767
      0100F314H   LINE      CODE     ---       #768
      0100F316H   LINE      CODE     ---       #769
      ---         BLOCKEND  ---      ---       LVL=0

      ---         MODULE    ---      ---       SHIFTREG_ENC_1
      0200140AH   PUBLIC    XDATA    BYTE      SHIFTREG_ENC_1_initVar
      0100F3D2H   PUBLIC    CODE     ---       SHIFTREG_ENC_1_ReadData
      0100F242H   PUBLIC    CODE     ---       _SHIFTREG_ENC_1_SetIntMode
      0100F2C6H   PUBLIC    CODE     ---       SHIFTREG_ENC_1_EnableInt
      0100F4E1H   PUBLIC    CODE     ---       SHIFTREG_ENC_1_Init
      0100F377H   PUBLIC    CODE     ---       SHIFTREG_ENC_1_Enable
      0100F1B0H   PUBLIC    CODE     ---       SHIFTREG_ENC_1_Start
      000000CAH   SFRSYM    DATA     BYTE      SFRPRT5SEL
      000000DAH   SFRSYM    DATA     BYTE      SFRPRT6SEL
      000000D0H.6 SFRSYM    DATA     BIT       AC
      000000A8H.7 SFRSYM    DATA     BIT       EA
      000000A8H   SFRSYM    DATA     BYTE      IE
      00000085H   SFRSYM    DATA     BYTE      DPH1
LX51 LINKER/LOCATER V4.64.0.0                                                         04/13/2018  12:12:27  PAGE 127


      00000084H   SFRSYM    DATA     BYTE      DPL1
      000000D0H.7 SFRSYM    DATA     BIT       CY
      000000A0H   SFRSYM    DATA     BYTE      P2AX
      00000095H   SFRSYM    DATA     BYTE      DPX1
      00000081H   SFRSYM    DATA     BYTE      SP
      000000D0H.2 SFRSYM    DATA     BIT       OV
      00000080H   SFRSYM    DATA     BYTE      SFRPRT0DR
      00000090H   SFRSYM    DATA     BYTE      SFRPRT1DR
      000000F2H   SFRSYM    DATA     BYTE      SFRPRT12SEL
      00000098H   SFRSYM    DATA     BYTE      SFRPRT2DR
      000000B0H   SFRSYM    DATA     BYTE      SFRPRT3DR
      000000C0H   SFRSYM    DATA     BYTE      SFRPRT4DR
      000000FAH   SFRSYM    DATA     BYTE      SFRPRT15SEL
      000000C8H   SFRSYM    DATA     BYTE      SFRPRT5DR
      000000D8H   SFRSYM    DATA     BYTE      SFRPRT6DR
      00000089H   SFRSYM    DATA     BYTE      SFRPRT0PS
      00000091H   SFRSYM    DATA     BYTE      SFRPRT1PS
      00000099H   SFRSYM    DATA     BYTE      SFRPRT2PS
      000000B1H   SFRSYM    DATA     BYTE      SFRPRT3PS
      000000C1H   SFRSYM    DATA     BYTE      SFRPRT4PS
      000000C9H   SFRSYM    DATA     BYTE      SFRPRT5PS
      000000D9H   SFRSYM    DATA     BYTE      SFRPRT6PS
      000000EAH   SFRSYM    DATA     BYTE      MXAX
      000000F0H   SFRSYM    DATA     BYTE      B
      000000E0H   SFRSYM    DATA     BYTE      ACC
      000000D0H   SFRSYM    DATA     BIT       P
      000000D0H.3 SFRSYM    DATA     BIT       RS0
      000000D0H.4 SFRSYM    DATA     BIT       RS1
      00000083H   SFRSYM    DATA     BYTE      DPH
      000000E8H   SFRSYM    DATA     BYTE      SFRPRT12DR
      00000082H   SFRSYM    DATA     BYTE      DPL
      000000F8H   SFRSYM    DATA     BYTE      SFRPRT15DR
      00000086H   SFRSYM    DATA     BYTE      DPS
      000000E9H   SFRSYM    DATA     BYTE      SFRPRT12PS
      00000093H   SFRSYM    DATA     BYTE      DPX
      000000F9H   SFRSYM    DATA     BYTE      SFRPRT15PS
      000000D0H.5 SFRSYM    DATA     BIT       F0
      000000D0H.1 SFRSYM    DATA     BIT       F1
      0000008AH   SFRSYM    DATA     BYTE      SFRPRT0SEL
      000000D0H   SFRSYM    DATA     BYTE      PSW
      000000A2H   SFRSYM    DATA     BYTE      SFRPRT1SEL
      0000009AH   SFRSYM    DATA     BYTE      SFRPRT2SEL
      000000B2H   SFRSYM    DATA     BYTE      SFRPRT3SEL
      000000C2H   SFRSYM    DATA     BYTE      SFRPRT4SEL

      0100F1B0H   BLOCK     CODE     ---       LVL=0
      0100F1B0H   LINE      CODE     ---       #43
      0100F1B0H   LINE      CODE     ---       #44
      0100F1B0H   LINE      CODE     ---       #45
      0100F1B6H   LINE      CODE     ---       #46
      0100F1B6H   LINE      CODE     ---       #47
      0100F1B9H   LINE      CODE     ---       #48
      0100F1BFH   LINE      CODE     ---       #49
      0100F1BFH   LINE      CODE     ---       #51
      0100F1C2H   LINE      CODE     ---       #52
      ---         BLOCKEND  ---      ---       LVL=0

      0100F377H   BLOCK     CODE     ---       LVL=0
      0100F377H   LINE      CODE     ---       #69
      0100F377H   LINE      CODE     ---       #70
      0100F377H   LINE      CODE     ---       #73
      0100F37EH   LINE      CODE     ---       #75
      0100F381H   LINE      CODE     ---       #76
      ---         BLOCKEND  ---      ---       LVL=0

LX51 LINKER/LOCATER V4.64.0.0                                                         04/13/2018  12:12:27  PAGE 128


      0100F4E1H   BLOCK     CODE     ---       LVL=0
      0100F4E1H   LINE      CODE     ---       #93
      0100F4E1H   LINE      CODE     ---       #94
      0100F4E1H   LINE      CODE     ---       #95
      0100F4E6H   LINE      CODE     ---       #96
      ---         BLOCKEND  ---      ---       LVL=0

      0100F2C6H   BLOCK     CODE     ---       LVL=0
      0100F2C6H   BLOCK     CODE     NEAR LAB  LVL=1
      00000007H   SYMBOL    DATA     BYTE      interruptState
      ---         BLOCKEND  ---      ---       LVL=1
      0100F2C6H   LINE      CODE     ---       #135
      0100F2C6H   LINE      CODE     ---       #136
      0100F2C6H   LINE      CODE     ---       #139
      0100F2C9H   LINE      CODE     ---       #140
      0100F2D0H   LINE      CODE     ---       #141
      0100F2D3H   LINE      CODE     ---       #142
      ---         BLOCKEND  ---      ---       LVL=0
      00000007H   SYMBOL    DATA     BYTE      interruptState
      00000007H   SYMBOL    DATA     BYTE      fifoId
      00000005H   SYMBOL    DATA     BYTE      result

      0100F242H   BLOCK     CODE     ---       LVL=0
      00000007H   SYMBOL    DATA     BYTE      interruptSource
      0100F242H   LINE      CODE     ---       #261
      0100F242H   LINE      CODE     ---       #262
      0100F242H   LINE      CODE     ---       #263
      0100F249H   LINE      CODE     ---       #264
      0100F252H   LINE      CODE     ---       #265
      ---         BLOCKEND  ---      ---       LVL=0
      00000004H   SYMBOL    DATA     DWORD     shiftData

      0100F3D2H   BLOCK     CODE     ---       LVL=0
      0100F3D2H   LINE      CODE     ---       #366
      0100F3D2H   LINE      CODE     ---       #367
      0100F3D2H   LINE      CODE     ---       #368
      0100F3DBH   LINE      CODE     ---       #369
      ---         BLOCKEND  ---      ---       LVL=0

      ---         MODULE    ---      ---       RESET_COUNTERS
      0100F4E7H   PUBLIC    CODE     ---       _RESET_COUNTERS_Write

      0100F4E7H   BLOCK     CODE     ---       LVL=0
      00000007H   SYMBOL    DATA     BYTE      control
      0100F4E7H   LINE      CODE     ---       #37
      0100F4E7H   LINE      CODE     ---       #38
      0100F4E7H   LINE      CODE     ---       #39
      0100F4ECH   LINE      CODE     ---       #40
      ---         BLOCKEND  ---      ---       LVL=0

      ---         MODULE    ---      ---       ADC_STATUS
      0100F4EDH   PUBLIC    CODE     ---       ADC_STATUS_Read
      000000CAH   SFRSYM    DATA     BYTE      SFRPRT5SEL
      000000DAH   SFRSYM    DATA     BYTE      SFRPRT6SEL
      000000D0H.6 SFRSYM    DATA     BIT       AC
      000000A8H.7 SFRSYM    DATA     BIT       EA
      000000A8H   SFRSYM    DATA     BYTE      IE
      00000085H   SFRSYM    DATA     BYTE      DPH1
      00000084H   SFRSYM    DATA     BYTE      DPL1
      000000D0H.7 SFRSYM    DATA     BIT       CY
      000000A0H   SFRSYM    DATA     BYTE      P2AX
      00000095H   SFRSYM    DATA     BYTE      DPX1
      00000081H   SFRSYM    DATA     BYTE      SP
      000000D0H.2 SFRSYM    DATA     BIT       OV
      00000080H   SFRSYM    DATA     BYTE      SFRPRT0DR
LX51 LINKER/LOCATER V4.64.0.0                                                         04/13/2018  12:12:27  PAGE 129


      00000090H   SFRSYM    DATA     BYTE      SFRPRT1DR
      000000F2H   SFRSYM    DATA     BYTE      SFRPRT12SEL
      00000098H   SFRSYM    DATA     BYTE      SFRPRT2DR
      000000B0H   SFRSYM    DATA     BYTE      SFRPRT3DR
      000000C0H   SFRSYM    DATA     BYTE      SFRPRT4DR
      000000FAH   SFRSYM    DATA     BYTE      SFRPRT15SEL
      000000C8H   SFRSYM    DATA     BYTE      SFRPRT5DR
      000000D8H   SFRSYM    DATA     BYTE      SFRPRT6DR
      00000089H   SFRSYM    DATA     BYTE      SFRPRT0PS
      00000091H   SFRSYM    DATA     BYTE      SFRPRT1PS
      00000099H   SFRSYM    DATA     BYTE      SFRPRT2PS
      000000B1H   SFRSYM    DATA     BYTE      SFRPRT3PS
      000000C1H   SFRSYM    DATA     BYTE      SFRPRT4PS
      000000C9H   SFRSYM    DATA     BYTE      SFRPRT5PS
      000000D9H   SFRSYM    DATA     BYTE      SFRPRT6PS
      000000EAH   SFRSYM    DATA     BYTE      MXAX
      000000F0H   SFRSYM    DATA     BYTE      B
      000000E0H   SFRSYM    DATA     BYTE      ACC
      000000D0H   SFRSYM    DATA     BIT       P
      000000D0H.3 SFRSYM    DATA     BIT       RS0
      000000D0H.4 SFRSYM    DATA     BIT       RS1
      00000083H   SFRSYM    DATA     BYTE      DPH
      000000E8H   SFRSYM    DATA     BYTE      SFRPRT12DR
      00000082H   SFRSYM    DATA     BYTE      DPL
      000000F8H   SFRSYM    DATA     BYTE      SFRPRT15DR
      00000086H   SFRSYM    DATA     BYTE      DPS
      000000E9H   SFRSYM    DATA     BYTE      SFRPRT12PS
      00000093H   SFRSYM    DATA     BYTE      DPX
      000000F9H   SFRSYM    DATA     BYTE      SFRPRT15PS
      000000D0H.5 SFRSYM    DATA     BIT       F0
      000000D0H.1 SFRSYM    DATA     BIT       F1
      0000008AH   SFRSYM    DATA     BYTE      SFRPRT0SEL
      000000D0H   SFRSYM    DATA     BYTE      PSW
      000000A2H   SFRSYM    DATA     BYTE      SFRPRT1SEL
      0000009AH   SFRSYM    DATA     BYTE      SFRPRT2SEL
      000000B2H   SFRSYM    DATA     BYTE      SFRPRT3SEL
      000000C2H   SFRSYM    DATA     BYTE      SFRPRT4SEL

      0100F4EDH   BLOCK     CODE     ---       LVL=0
      0100F4EDH   LINE      CODE     ---       #37
      0100F4EDH   LINE      CODE     ---       #38
      0100F4EDH   LINE      CODE     ---       #39
      0100F4F2H   LINE      CODE     ---       #40
      ---         BLOCKEND  ---      ---       LVL=0
      00000007H   SYMBOL    DATA     BYTE      interruptState
      00000007H   SYMBOL    DATA     BYTE      interruptState
      00000007H   SYMBOL    DATA     BYTE      mask

      ---         MODULE    ---      ---       DMA_DMA
      0200140BH   PUBLIC    XDATA    BYTE      DMA_DmaHandle
      02000002H   PUBLIC    XDATA    BYTE      ?_DMA_DmaInitialize?BYTE
      0100E761H   PUBLIC    CODE     ---       _DMA_DmaInitialize
      000000CAH   SFRSYM    DATA     BYTE      SFRPRT5SEL
      000000DAH   SFRSYM    DATA     BYTE      SFRPRT6SEL
      000000D0H.6 SFRSYM    DATA     BIT       AC
      000000A8H.7 SFRSYM    DATA     BIT       EA
      000000A8H   SFRSYM    DATA     BYTE      IE
      00000085H   SFRSYM    DATA     BYTE      DPH1
      00000084H   SFRSYM    DATA     BYTE      DPL1
      000000D0H.7 SFRSYM    DATA     BIT       CY
      000000A0H   SFRSYM    DATA     BYTE      P2AX
      00000095H   SFRSYM    DATA     BYTE      DPX1
      00000081H   SFRSYM    DATA     BYTE      SP
      000000D0H.2 SFRSYM    DATA     BIT       OV
      00000080H   SFRSYM    DATA     BYTE      SFRPRT0DR
LX51 LINKER/LOCATER V4.64.0.0                                                         04/13/2018  12:12:27  PAGE 130


      00000090H   SFRSYM    DATA     BYTE      SFRPRT1DR
      000000F2H   SFRSYM    DATA     BYTE      SFRPRT12SEL
      00000098H   SFRSYM    DATA     BYTE      SFRPRT2DR
      000000B0H   SFRSYM    DATA     BYTE      SFRPRT3DR
      000000C0H   SFRSYM    DATA     BYTE      SFRPRT4DR
      000000FAH   SFRSYM    DATA     BYTE      SFRPRT15SEL
      000000C8H   SFRSYM    DATA     BYTE      SFRPRT5DR
      000000D8H   SFRSYM    DATA     BYTE      SFRPRT6DR
      00000089H   SFRSYM    DATA     BYTE      SFRPRT0PS
      00000091H   SFRSYM    DATA     BYTE      SFRPRT1PS
      00000099H   SFRSYM    DATA     BYTE      SFRPRT2PS
      000000B1H   SFRSYM    DATA     BYTE      SFRPRT3PS
      000000C1H   SFRSYM    DATA     BYTE      SFRPRT4PS
      000000C9H   SFRSYM    DATA     BYTE      SFRPRT5PS
      000000D9H   SFRSYM    DATA     BYTE      SFRPRT6PS
      000000EAH   SFRSYM    DATA     BYTE      MXAX
      000000F0H   SFRSYM    DATA     BYTE      B
      000000E0H   SFRSYM    DATA     BYTE      ACC
      000000D0H   SFRSYM    DATA     BIT       P
      000000D0H.3 SFRSYM    DATA     BIT       RS0
      000000D0H.4 SFRSYM    DATA     BIT       RS1
      00000083H   SFRSYM    DATA     BYTE      DPH
      000000E8H   SFRSYM    DATA     BYTE      SFRPRT12DR
      00000082H   SFRSYM    DATA     BYTE      DPL
      000000F8H   SFRSYM    DATA     BYTE      SFRPRT15DR
      00000086H   SFRSYM    DATA     BYTE      DPS
      000000E9H   SFRSYM    DATA     BYTE      SFRPRT12PS
      00000093H   SFRSYM    DATA     BYTE      DPX
      000000F9H   SFRSYM    DATA     BYTE      SFRPRT15PS
      000000D0H.5 SFRSYM    DATA     BIT       F0
      000000D0H.1 SFRSYM    DATA     BIT       F1
      0000008AH   SFRSYM    DATA     BYTE      SFRPRT0SEL
      000000D0H   SFRSYM    DATA     BYTE      PSW
      000000A2H   SFRSYM    DATA     BYTE      SFRPRT1SEL
      0000009AH   SFRSYM    DATA     BYTE      SFRPRT2SEL
      000000B2H   SFRSYM    DATA     BYTE      SFRPRT3SEL
      000000C2H   SFRSYM    DATA     BYTE      SFRPRT4SEL

      0100E761H   BLOCK     CODE     ---       LVL=0
      00000007H   SYMBOL    DATA     BYTE      BurstCount
      00000006H   SYMBOL    DATA     BYTE      ReqestPerBurst
      02000004H   SYMBOL    XDATA    WORD      UpperSrcAddress
      02000006H   SYMBOL    XDATA    WORD      UpperDestAddress
      0100E761H   LINE      CODE     ---       #97
      0100E76BH   LINE      CODE     ---       #98
      0100E76BH   LINE      CODE     ---       #101
      0100E771H   LINE      CODE     ---       #109
      0100E785H   LINE      CODE     ---       #112
      0100E79BH   LINE      CODE     ---       #115
      0100E7A5H   LINE      CODE     ---       #117
      0100E7AAH   LINE      CODE     ---       #118
      ---         BLOCKEND  ---      ---       LVL=0

      ---         MODULE    ---      ---       ADC_SOC
      0100F4F3H   PUBLIC    CODE     ---       _ADC_SOC_Write

      0100F4F3H   BLOCK     CODE     ---       LVL=0
      00000007H   SYMBOL    DATA     BYTE      control
      0100F4F3H   LINE      CODE     ---       #37
      0100F4F3H   LINE      CODE     ---       #38
      0100F4F3H   LINE      CODE     ---       #39
      0100F4F8H   LINE      CODE     ---       #40
      ---         BLOCKEND  ---      ---       LVL=0

      ---         MODULE    ---      ---       ISR_WATCHDOG
LX51 LINKER/LOCATER V4.64.0.0                                                         04/13/2018  12:12:27  PAGE 131


      0100F456H   PUBLIC    CODE     ---       ISR_WATCHDOG_Disable
      0100F44FH   PUBLIC    CODE     ---       ISR_WATCHDOG_Enable
      0100F3DCH   PUBLIC    CODE     ---       _ISR_WATCHDOG_SetPriority
      0100F2D4H   PUBLIC    CODE     ---       _ISR_WATCHDOG_SetVector
      0100EDCBH   PUBLIC    CODE     ---       ISR_WATCHDOG_Interrupt
      0100EF88H   PUBLIC    CODE     ---       _ISR_WATCHDOG_StartEx
      000000CAH   SFRSYM    DATA     BYTE      SFRPRT5SEL
      000000DAH   SFRSYM    DATA     BYTE      SFRPRT6SEL
      000000D0H.6 SFRSYM    DATA     BIT       AC
      000000A8H.7 SFRSYM    DATA     BIT       EA
      000000A8H   SFRSYM    DATA     BYTE      IE
      00000085H   SFRSYM    DATA     BYTE      DPH1
      00000084H   SFRSYM    DATA     BYTE      DPL1
      000000D0H.7 SFRSYM    DATA     BIT       CY
      000000A0H   SFRSYM    DATA     BYTE      P2AX
      00000095H   SFRSYM    DATA     BYTE      DPX1
      00000081H   SFRSYM    DATA     BYTE      SP
      000000D0H.2 SFRSYM    DATA     BIT       OV
      00000080H   SFRSYM    DATA     BYTE      SFRPRT0DR
      00000090H   SFRSYM    DATA     BYTE      SFRPRT1DR
      000000F2H   SFRSYM    DATA     BYTE      SFRPRT12SEL
      00000098H   SFRSYM    DATA     BYTE      SFRPRT2DR
      000000B0H   SFRSYM    DATA     BYTE      SFRPRT3DR
      000000C0H   SFRSYM    DATA     BYTE      SFRPRT4DR
      000000FAH   SFRSYM    DATA     BYTE      SFRPRT15SEL
      000000C8H   SFRSYM    DATA     BYTE      SFRPRT5DR
      000000D8H   SFRSYM    DATA     BYTE      SFRPRT6DR
      00000089H   SFRSYM    DATA     BYTE      SFRPRT0PS
      00000091H   SFRSYM    DATA     BYTE      SFRPRT1PS
      00000099H   SFRSYM    DATA     BYTE      SFRPRT2PS
      000000B1H   SFRSYM    DATA     BYTE      SFRPRT3PS
      000000C1H   SFRSYM    DATA     BYTE      SFRPRT4PS
      000000C9H   SFRSYM    DATA     BYTE      SFRPRT5PS
      000000D9H   SFRSYM    DATA     BYTE      SFRPRT6PS
      000000EAH   SFRSYM    DATA     BYTE      MXAX
      000000F0H   SFRSYM    DATA     BYTE      B
      000000E0H   SFRSYM    DATA     BYTE      ACC
      000000D0H   SFRSYM    DATA     BIT       P
      000000D0H.3 SFRSYM    DATA     BIT       RS0
      000000D0H.4 SFRSYM    DATA     BIT       RS1
      00000083H   SFRSYM    DATA     BYTE      DPH
      000000E8H   SFRSYM    DATA     BYTE      SFRPRT12DR
      00000082H   SFRSYM    DATA     BYTE      DPL
      000000F8H   SFRSYM    DATA     BYTE      SFRPRT15DR
      00000086H   SFRSYM    DATA     BYTE      DPS
      000000E9H   SFRSYM    DATA     BYTE      SFRPRT12PS
      00000093H   SFRSYM    DATA     BYTE      DPX
      000000F9H   SFRSYM    DATA     BYTE      SFRPRT15PS
      000000D0H.5 SFRSYM    DATA     BIT       F0
      000000D0H.1 SFRSYM    DATA     BIT       F1
      0000008AH   SFRSYM    DATA     BYTE      SFRPRT0SEL
      000000D0H   SFRSYM    DATA     BYTE      PSW
      000000A2H   SFRSYM    DATA     BYTE      SFRPRT1SEL
      0000009AH   SFRSYM    DATA     BYTE      SFRPRT2SEL
      000000B2H   SFRSYM    DATA     BYTE      SFRPRT3SEL
      000000C2H   SFRSYM    DATA     BYTE      SFRPRT4SEL

      0100EF88H   BLOCK     CODE     ---       LVL=0
      02000002H   SYMBOL    XDATA    ---       address
      0100EF88H   LINE      CODE     ---       #94
      0100EF90H   LINE      CODE     ---       #95
      0100EF90H   LINE      CODE     ---       #97
      0100EF93H   LINE      CODE     ---       #100
      0100EF9EH   LINE      CODE     ---       #103
      0100EFA3H   LINE      CODE     ---       #106
LX51 LINKER/LOCATER V4.64.0.0                                                         04/13/2018  12:12:27  PAGE 132


      0100EFA6H   LINE      CODE     ---       #107
      ---         BLOCKEND  ---      ---       LVL=0

      0100EDCBH   BLOCK     CODE     ---       LVL=0
      0100EDCBH   LINE      CODE     ---       #151
      0100EDCBH   LINE      CODE     ---       #168
      ---         BLOCKEND  ---      ---       LVL=0

      0100F2D4H   BLOCK     CODE     ---       LVL=0
      00000006H   SYMBOL    DATA     ---       address
      0100F2D4H   LINE      CODE     ---       #198
      0100F2D4H   LINE      CODE     ---       #199
      0100F2D4H   LINE      CODE     ---       #200
      0100F2E1H   LINE      CODE     ---       #201
      ---         BLOCKEND  ---      ---       LVL=0

      0100F3DCH   BLOCK     CODE     ---       LVL=0
      00000007H   SYMBOL    DATA     BYTE      priority
      0100F3DCH   LINE      CODE     ---       #248
      0100F3DCH   LINE      CODE     ---       #249
      0100F3DCH   LINE      CODE     ---       #250
      0100F3E5H   LINE      CODE     ---       #251
      ---         BLOCKEND  ---      ---       LVL=0
      00000007H   SYMBOL    DATA     BYTE      priority

      0100F44FH   BLOCK     CODE     ---       LVL=0
      0100F44FH   LINE      CODE     ---       #297
      0100F44FH   LINE      CODE     ---       #298
      0100F44FH   LINE      CODE     ---       #300
      0100F455H   LINE      CODE     ---       #301
      ---         BLOCKEND  ---      ---       LVL=0

      0100F456H   BLOCK     CODE     ---       LVL=0
      0100F456H   LINE      CODE     ---       #339
      0100F456H   LINE      CODE     ---       #340
      0100F456H   LINE      CODE     ---       #342
      0100F45CH   LINE      CODE     ---       #343
      ---         BLOCKEND  ---      ---       LVL=0

      ---         MODULE    ---      ---       WATCHDOG_COUNTER
      0200140CH   PUBLIC    XDATA    BYTE      WATCHDOG_COUNTER_initVar
      0100F2E2H   PUBLIC    CODE     ---       _WATCHDOG_COUNTER_WritePeriod
      0100EFE4H   PUBLIC    CODE     ---       _WATCHDOG_COUNTER_WriteCounter
      0100F4F9H   PUBLIC    CODE     ---       _WATCHDOG_COUNTER_SetInterruptMode
      0100F1C3H   PUBLIC    CODE     ---       WATCHDOG_COUNTER_Start
      0100F0ACH   PUBLIC    CODE     ---       WATCHDOG_COUNTER_Enable
      0100EB3BH   PUBLIC    CODE     ---       WATCHDOG_COUNTER_Init
      000000CAH   SFRSYM    DATA     BYTE      SFRPRT5SEL
      000000DAH   SFRSYM    DATA     BYTE      SFRPRT6SEL
      000000D0H.6 SFRSYM    DATA     BIT       AC
      000000A8H.7 SFRSYM    DATA     BIT       EA
      000000A8H   SFRSYM    DATA     BYTE      IE
      00000085H   SFRSYM    DATA     BYTE      DPH1
      00000084H   SFRSYM    DATA     BYTE      DPL1
      000000D0H.7 SFRSYM    DATA     BIT       CY
      000000A0H   SFRSYM    DATA     BYTE      P2AX
      00000095H   SFRSYM    DATA     BYTE      DPX1
      00000081H   SFRSYM    DATA     BYTE      SP
      000000D0H.2 SFRSYM    DATA     BIT       OV
      00000080H   SFRSYM    DATA     BYTE      SFRPRT0DR
      00000090H   SFRSYM    DATA     BYTE      SFRPRT1DR
      000000F2H   SFRSYM    DATA     BYTE      SFRPRT12SEL
      00000098H   SFRSYM    DATA     BYTE      SFRPRT2DR
      000000B0H   SFRSYM    DATA     BYTE      SFRPRT3DR
      000000C0H   SFRSYM    DATA     BYTE      SFRPRT4DR
LX51 LINKER/LOCATER V4.64.0.0                                                         04/13/2018  12:12:27  PAGE 133


      000000FAH   SFRSYM    DATA     BYTE      SFRPRT15SEL
      000000C8H   SFRSYM    DATA     BYTE      SFRPRT5DR
      000000D8H   SFRSYM    DATA     BYTE      SFRPRT6DR
      00000089H   SFRSYM    DATA     BYTE      SFRPRT0PS
      00000091H   SFRSYM    DATA     BYTE      SFRPRT1PS
      00000099H   SFRSYM    DATA     BYTE      SFRPRT2PS
      000000B1H   SFRSYM    DATA     BYTE      SFRPRT3PS
      000000C1H   SFRSYM    DATA     BYTE      SFRPRT4PS
      000000C9H   SFRSYM    DATA     BYTE      SFRPRT5PS
      000000D9H   SFRSYM    DATA     BYTE      SFRPRT6PS
      000000EAH   SFRSYM    DATA     BYTE      MXAX
      000000F0H   SFRSYM    DATA     BYTE      B
      000000E0H   SFRSYM    DATA     BYTE      ACC
      000000D0H   SFRSYM    DATA     BIT       P
      000000D0H.3 SFRSYM    DATA     BIT       RS0
      000000D0H.4 SFRSYM    DATA     BIT       RS1
      00000083H   SFRSYM    DATA     BYTE      DPH
      000000E8H   SFRSYM    DATA     BYTE      SFRPRT12DR
      00000082H   SFRSYM    DATA     BYTE      DPL
      000000F8H   SFRSYM    DATA     BYTE      SFRPRT15DR
      00000086H   SFRSYM    DATA     BYTE      DPS
      000000E9H   SFRSYM    DATA     BYTE      SFRPRT12PS
      00000093H   SFRSYM    DATA     BYTE      DPX
      000000F9H   SFRSYM    DATA     BYTE      SFRPRT15PS
      000000D0H.5 SFRSYM    DATA     BIT       F0
      000000D0H.1 SFRSYM    DATA     BIT       F1
      0000008AH   SFRSYM    DATA     BYTE      SFRPRT0SEL
      000000D0H   SFRSYM    DATA     BYTE      PSW
      000000A2H   SFRSYM    DATA     BYTE      SFRPRT1SEL
      0000009AH   SFRSYM    DATA     BYTE      SFRPRT2SEL
      000000B2H   SFRSYM    DATA     BYTE      SFRPRT3SEL
      000000C2H   SFRSYM    DATA     BYTE      SFRPRT4SEL

      0100EB3BH   BLOCK     CODE     ---       LVL=0
      0100EB3BH   LINE      CODE     ---       #37
      0100EB3BH   LINE      CODE     ---       #38
      0100EB3BH   LINE      CODE     ---       #50
      0100EB42H   LINE      CODE     ---       #57
      0100EB49H   LINE      CODE     ---       #66
      0100EB50H   LINE      CODE     ---       #69
      0100EB57H   LINE      CODE     ---       #70
      0100EB5BH   LINE      CODE     ---       #73
      0100EB5FH   LINE      CODE     ---       #74
      0100EB63H   LINE      CODE     ---       #100
      0100EB68H   LINE      CODE     ---       #102
      0100EB6DH   LINE      CODE     ---       #104
      0100EB72H   LINE      CODE     ---       #123
      ---         BLOCKEND  ---      ---       LVL=0

      0100F0ACH   BLOCK     CODE     ---       LVL=0
      0100F0ACH   LINE      CODE     ---       #143
      0100F0ACH   LINE      CODE     ---       #144
      0100F0ACH   LINE      CODE     ---       #147
      0100F0B3H   LINE      CODE     ---       #148
      0100F0BAH   LINE      CODE     ---       #155
      0100F0C1H   LINE      CODE     ---       #158
      ---         BLOCKEND  ---      ---       LVL=0

      0100F1C3H   BLOCK     CODE     ---       LVL=0
      0100F1C3H   LINE      CODE     ---       #178
      0100F1C3H   LINE      CODE     ---       #179
      0100F1C3H   LINE      CODE     ---       #180
      0100F1C9H   LINE      CODE     ---       #181
      0100F1C9H   LINE      CODE     ---       #182
      0100F1CCH   LINE      CODE     ---       #184
LX51 LINKER/LOCATER V4.64.0.0                                                         04/13/2018  12:12:27  PAGE 134


      0100F1D2H   LINE      CODE     ---       #185
      0100F1D2H   LINE      CODE     ---       #188
      0100F1D5H   LINE      CODE     ---       #189
      ---         BLOCKEND  ---      ---       LVL=0

      0100F4F9H   BLOCK     CODE     ---       LVL=0
      00000007H   SYMBOL    DATA     BYTE      interruptsMask
      0100F4F9H   LINE      CODE     ---       #237
      0100F4F9H   LINE      CODE     ---       #238
      0100F4F9H   LINE      CODE     ---       #239
      0100F4FEH   LINE      CODE     ---       #240
      ---         BLOCKEND  ---      ---       LVL=0
      00000007H   SYMBOL    DATA     BYTE      control

      0100EFE4H   BLOCK     CODE     ---       LVL=0
      00000007H   SYMBOL    DATA     BYTE      counter
      0100EFE4H   LINE      CODE     ---       #326
      0100EFE4H   LINE      CODE     ---       #328
      0100EFE4H   LINE      CODE     ---       #333
      0100EFEBH   LINE      CODE     ---       #334
      0100EFF8H   LINE      CODE     ---       #335
      0100EFFFH   LINE      CODE     ---       #339
      ---         BLOCKEND  ---      ---       LVL=0

      0100F2E2H   BLOCK     CODE     ---       LVL=0
      00000007H   SYMBOL    DATA     BYTE      period
      0100F2E2H   LINE      CODE     ---       #415
      0100F2E2H   LINE      CODE     ---       #416
      0100F2E2H   LINE      CODE     ---       #418
      0100F2EFH   LINE      CODE     ---       #422
      ---         BLOCKEND  ---      ---       LVL=0

      ---         MODULE    ---      ---       WATCHDOG_ENABLER
      0100F4FFH   PUBLIC    CODE     ---       _WATCHDOG_ENABLER_Write

      0100F4FFH   BLOCK     CODE     ---       LVL=0
      00000007H   SYMBOL    DATA     BYTE      control
      0100F4FFH   LINE      CODE     ---       #37
      0100F4FFH   LINE      CODE     ---       #38
      0100F4FFH   LINE      CODE     ---       #39
      0100F504H   LINE      CODE     ---       #40
      ---         BLOCKEND  ---      ---       LVL=0

      ---         MODULE    ---      ---       WATCHDOG_REFRESH
      0100F505H   PUBLIC    CODE     ---       _WATCHDOG_REFRESH_Write

      0100F505H   BLOCK     CODE     ---       LVL=0
      00000007H   SYMBOL    DATA     BYTE      control
      0100F505H   LINE      CODE     ---       #37
      0100F505H   LINE      CODE     ---       #38
      0100F505H   LINE      CODE     ---       #39
      0100F50AH   LINE      CODE     ---       #40
      ---         BLOCKEND  ---      ---       LVL=0

      ---         MODULE    ---      ---       CYDMAC
      0100DFC7H   PUBLIC    CODE     ---       _CyDmaTdSetAddress
      02000002H   PUBLIC    XDATA    BYTE      ?_CyDmaTdSetConfiguration?BYTE
      0100D8B5H   PUBLIC    CODE     ---       _CyDmaTdSetConfiguration
      0100E985H   PUBLIC    CODE     ---       CyDmaTdAllocate
      02000008H   PUBLIC    XDATA    BYTE      ?_CyDmaChSetConfiguration?BYTE
      0100DED6H   PUBLIC    CODE     ---       _CyDmaChSetConfiguration
      0100EFC6H   PUBLIC    CODE     ---       _CyDmaChSetInitialTd
      0100DF4FH   PUBLIC    CODE     ---       _CyDmaChSetExtendedAddress
      0100E945H   PUBLIC    CODE     ---       _CyDmaChPriority
      0100E716H   PUBLIC    CODE     ---       _CyDmaChEnable
LX51 LINKER/LOCATER V4.64.0.0                                                         04/13/2018  12:12:27  PAGE 135


      0100EB73H   PUBLIC    CODE     ---       CyDmacConfigure
      000000CAH   SFRSYM    DATA     BYTE      SFRPRT5SEL
      000000DAH   SFRSYM    DATA     BYTE      SFRPRT6SEL
      000000D0H.6 SFRSYM    DATA     BIT       AC
      000000A8H.7 SFRSYM    DATA     BIT       EA
      000000A8H   SFRSYM    DATA     BYTE      IE
      00000085H   SFRSYM    DATA     BYTE      DPH1
      00000084H   SFRSYM    DATA     BYTE      DPL1
      000000D0H.7 SFRSYM    DATA     BIT       CY
      000000A0H   SFRSYM    DATA     BYTE      P2AX
      00000095H   SFRSYM    DATA     BYTE      DPX1
      00000081H   SFRSYM    DATA     BYTE      SP
      000000D0H.2 SFRSYM    DATA     BIT       OV
      00000080H   SFRSYM    DATA     BYTE      SFRPRT0DR
      00000090H   SFRSYM    DATA     BYTE      SFRPRT1DR
      000000F2H   SFRSYM    DATA     BYTE      SFRPRT12SEL
      00000098H   SFRSYM    DATA     BYTE      SFRPRT2DR
      000000B0H   SFRSYM    DATA     BYTE      SFRPRT3DR
      000000C0H   SFRSYM    DATA     BYTE      SFRPRT4DR
      000000FAH   SFRSYM    DATA     BYTE      SFRPRT15SEL
      000000C8H   SFRSYM    DATA     BYTE      SFRPRT5DR
      000000D8H   SFRSYM    DATA     BYTE      SFRPRT6DR
      00000089H   SFRSYM    DATA     BYTE      SFRPRT0PS
      00000091H   SFRSYM    DATA     BYTE      SFRPRT1PS
      00000099H   SFRSYM    DATA     BYTE      SFRPRT2PS
      000000B1H   SFRSYM    DATA     BYTE      SFRPRT3PS
      000000C1H   SFRSYM    DATA     BYTE      SFRPRT4PS
      000000C9H   SFRSYM    DATA     BYTE      SFRPRT5PS
      000000D9H   SFRSYM    DATA     BYTE      SFRPRT6PS
      000000EAH   SFRSYM    DATA     BYTE      MXAX
      000000F0H   SFRSYM    DATA     BYTE      B
      000000E0H   SFRSYM    DATA     BYTE      ACC
      000000D0H   SFRSYM    DATA     BIT       P
      000000D0H.3 SFRSYM    DATA     BIT       RS0
      000000D0H.4 SFRSYM    DATA     BIT       RS1
      00000083H   SFRSYM    DATA     BYTE      DPH
      000000E8H   SFRSYM    DATA     BYTE      SFRPRT12DR
      00000082H   SFRSYM    DATA     BYTE      DPL
      000000F8H   SFRSYM    DATA     BYTE      SFRPRT15DR
      00000086H   SFRSYM    DATA     BYTE      DPS
      000000E9H   SFRSYM    DATA     BYTE      SFRPRT12PS
      00000093H   SFRSYM    DATA     BYTE      DPX
      000000F9H   SFRSYM    DATA     BYTE      SFRPRT15PS
      000000D0H.5 SFRSYM    DATA     BIT       F0
      000000D0H.1 SFRSYM    DATA     BIT       F1
      0000008AH   SFRSYM    DATA     BYTE      SFRPRT0SEL
      000000D0H   SFRSYM    DATA     BYTE      PSW
      000000A2H   SFRSYM    DATA     BYTE      SFRPRT1SEL
      0000009AH   SFRSYM    DATA     BYTE      SFRPRT2SEL
      000000B2H   SFRSYM    DATA     BYTE      SFRPRT3SEL
      000000C2H   SFRSYM    DATA     BYTE      SFRPRT4SEL
      020013F3H   SYMBOL    XDATA    DWORD     CyDmaChannels
      020013F7H   SYMBOL    XDATA    BYTE      CyDmaTdFreeIndex
      020013F8H   SYMBOL    XDATA    BYTE      CyDmaTdCurrentNumber

      0100EB73H   BLOCK     CODE     ---       LVL=0
      0100EB73H   BLOCK     CODE     NEAR LAB  LVL=1
      00000007H   SYMBOL    DATA     BYTE      dmaIndex
      ---         BLOCKEND  ---      ---       LVL=1
      0100EB73H   LINE      CODE     ---       #53
      0100EB73H   LINE      CODE     ---       #54
      0100EB73H   LINE      CODE     ---       #58
      0100EB79H   LINE      CODE     ---       #59
      0100EB7CH   LINE      CODE     ---       #62
      0100EB81H   LINE      CODE     ---       #63
LX51 LINKER/LOCATER V4.64.0.0                                                         04/13/2018  12:12:27  PAGE 136


      0100EB81H   LINE      CODE     ---       #64
      0100EB94H   LINE      CODE     ---       #65
      0100EB97H   LINE      CODE     ---       #68
      0100EBA8H   LINE      CODE     ---       #69
      ---         BLOCKEND  ---      ---       LVL=0
      00000007H   SYMBOL    DATA     BYTE      error

      0100E716H   BLOCK     CODE     ---       LVL=0
      00000007H   SYMBOL    DATA     BYTE      chHandle
      00000005H   SYMBOL    DATA     BYTE      preserveTds
      0100E716H   BLOCK     CODE     NEAR LAB  LVL=1
      00000006H   SYMBOL    DATA     BYTE      status
      ---         BLOCKEND  ---      ---       LVL=1
      0100E716H   LINE      CODE     ---       #269
      0100E716H   LINE      CODE     ---       #270
      0100E716H   LINE      CODE     ---       #271
      0100E718H   LINE      CODE     ---       #273
      0100E71EH   LINE      CODE     ---       #274
      0100E71EH   LINE      CODE     ---       #275
      0100E721H   LINE      CODE     ---       #276
      0100E721H   LINE      CODE     ---       #280
      0100E734H   LINE      CODE     ---       #281
      0100E736H   LINE      CODE     ---       #283
      0100E736H   LINE      CODE     ---       #285
      0100E749H   LINE      CODE     ---       #286
      0100E749H   LINE      CODE     ---       #289
      0100E75CH   LINE      CODE     ---       #291
      0100E75EH   LINE      CODE     ---       #292
      0100E75EH   LINE      CODE     ---       #294
      0100E760H   LINE      CODE     ---       #295
      ---         BLOCKEND  ---      ---       LVL=0
      00000007H   SYMBOL    DATA     BYTE      chHandle
      00000006H   SYMBOL    DATA     BYTE      status
      00000007H   SYMBOL    DATA     BYTE      chHandle
      00000006H   SYMBOL    DATA     BYTE      status

      0100E945H   BLOCK     CODE     ---       LVL=0
      00000004H   SYMBOL    DATA     BYTE      chHandle
      00000005H   SYMBOL    DATA     BYTE      priority
      0100E947H   BLOCK     CODE     NEAR LAB  LVL=1
      00000002H   SYMBOL    DATA     BYTE      value
      00000003H   SYMBOL    DATA     BYTE      status
      ---         BLOCKEND  ---      ---       LVL=1
      0100E945H   LINE      CODE     ---       #383
      0100E947H   LINE      CODE     ---       #384
      0100E947H   LINE      CODE     ---       #386
      0100E949H   LINE      CODE     ---       #388
      0100E94FH   LINE      CODE     ---       #389
      0100E94FH   LINE      CODE     ---       #390
      0100E962H   LINE      CODE     ---       #392
      0100E980H   LINE      CODE     ---       #394
      0100E982H   LINE      CODE     ---       #395
      0100E982H   LINE      CODE     ---       #397
      0100E984H   LINE      CODE     ---       #398
      ---         BLOCKEND  ---      ---       LVL=0

      0100DF4FH   BLOCK     CODE     ---       LVL=0
      02000008H   SYMBOL    XDATA    BYTE      chHandle
      02000009H   SYMBOL    XDATA    WORD      source
      0200000BH   SYMBOL    XDATA    WORD      destination
      0100DF62H   BLOCK     CODE     NEAR LAB  LVL=1
      0200000DH   SYMBOL    XDATA    BYTE      status
      0200000EH   SYMBOL    XDATA    ---       convert
      ---         BLOCKEND  ---      ---       LVL=1
      0100DF4FH   LINE      CODE     ---       #419
LX51 LINKER/LOCATER V4.64.0.0                                                         04/13/2018  12:12:27  PAGE 137


      0100DF62H   LINE      CODE     ---       #421
      0100DF62H   LINE      CODE     ---       #422
      0100DF68H   LINE      CODE     ---       #441
      0100DF6EH   LINE      CODE     ---       #442
      0100DF6EH   LINE      CODE     ---       #444
      0100DF85H   LINE      CODE     ---       #445
      0100DF95H   LINE      CODE     ---       #448
      0100DFACH   LINE      CODE     ---       #449
      0100DFBCH   LINE      CODE     ---       #450
      0100DFC1H   LINE      CODE     ---       #451
      0100DFC1H   LINE      CODE     ---       #453
      0100DFC6H   LINE      CODE     ---       #454
      ---         BLOCKEND  ---      ---       LVL=0

      0100EFC6H   BLOCK     CODE     ---       LVL=0
      00000007H   SYMBOL    DATA     BYTE      chHandle
      00000005H   SYMBOL    DATA     BYTE      startTd
      0100EFC6H   BLOCK     CODE     NEAR LAB  LVL=1
      00000006H   SYMBOL    DATA     BYTE      status
      ---         BLOCKEND  ---      ---       LVL=1
      0100EFC6H   LINE      CODE     ---       #474
      0100EFC6H   LINE      CODE     ---       #475
      0100EFC6H   LINE      CODE     ---       #476
      0100EFC8H   LINE      CODE     ---       #478
      0100EFCEH   LINE      CODE     ---       #479
      0100EFCEH   LINE      CODE     ---       #480
      0100EFDFH   LINE      CODE     ---       #481
      0100EFE1H   LINE      CODE     ---       #482
      0100EFE1H   LINE      CODE     ---       #484
      0100EFE3H   LINE      CODE     ---       #485
      ---         BLOCKEND  ---      ---       LVL=0
      00000007H   SYMBOL    DATA     BYTE      chHandle
      00000005H   SYMBOL    DATA     BYTE      request
      00000006H   SYMBOL    DATA     BYTE      status
      00000007H   SYMBOL    DATA     BYTE      chHandle
      00000003H   SYMBOL    DATA     BYTE      status
      00000007H   SYMBOL    DATA     BYTE      chHandle
      00000006H   SYMBOL    DATA     BYTE      status

      0100DED6H   BLOCK     CODE     ---       LVL=0
      00000004H   SYMBOL    DATA     BYTE      chHandle
      00000005H   SYMBOL    DATA     BYTE      burstCount
      00000003H   SYMBOL    DATA     BYTE      requestPerBurst
      0200000BH   SYMBOL    XDATA    BYTE      tdDone0
      0200000CH   SYMBOL    XDATA    BYTE      tdDone1
      0200000DH   SYMBOL    XDATA    BYTE      tdStop
      0100DED8H   BLOCK     CODE     NEAR LAB  LVL=1
      00000002H   SYMBOL    DATA     BYTE      status
      ---         BLOCKEND  ---      ---       LVL=1
      0100DED6H   LINE      CODE     ---       #647
      0100DED8H   LINE      CODE     ---       #649
      0100DED8H   LINE      CODE     ---       #650
      0100DEDAH   LINE      CODE     ---       #652
      0100DEE0H   LINE      CODE     ---       #653
      0100DEE0H   LINE      CODE     ---       #654
      0100DEFEH   LINE      CODE     ---       #655
      0100DF22H   LINE      CODE     ---       #656
      0100DF3AH   LINE      CODE     ---       #657
      0100DF4BH   LINE      CODE     ---       #659
      0100DF4CH   LINE      CODE     ---       #660
      0100DF4CH   LINE      CODE     ---       #662
      0100DF4EH   LINE      CODE     ---       #663
      ---         BLOCKEND  ---      ---       LVL=0

      0100E985H   BLOCK     CODE     ---       LVL=0
LX51 LINKER/LOCATER V4.64.0.0                                                         04/13/2018  12:12:27  PAGE 138


      0100E985H   BLOCK     CODE     NEAR LAB  LVL=1
      00000007H   SYMBOL    DATA     BYTE      interruptState
      02000002H   SYMBOL    XDATA    BYTE      element
      ---         BLOCKEND  ---      ---       LVL=1
      0100E985H   LINE      CODE     ---       #679
      0100E985H   LINE      CODE     ---       #680
      0100E985H   LINE      CODE     ---       #682
      0100E98BH   LINE      CODE     ---       #685
      0100E98EH   LINE      CODE     ---       #687
      0100E997H   LINE      CODE     ---       #688
      0100E997H   LINE      CODE     ---       #690
      0100E9A0H   LINE      CODE     ---       #693
      0100E9A6H   LINE      CODE     ---       #696
      0100E9BAH   LINE      CODE     ---       #697
      0100E9BAH   LINE      CODE     ---       #700
      0100E9BDH   LINE      CODE     ---       #702
      0100E9C2H   LINE      CODE     ---       #703
      ---         BLOCKEND  ---      ---       LVL=0

      0100D8B5H   BLOCK     CODE     ---       LVL=0
      02000002H   SYMBOL    XDATA    BYTE      tdHandle
      02000003H   SYMBOL    XDATA    WORD      transferCount
      02000005H   SYMBOL    XDATA    BYTE      nextTd
      02000006H   SYMBOL    XDATA    BYTE      configuration
      0100D8C5H   BLOCK     CODE     NEAR LAB  LVL=1
      02000007H   SYMBOL    XDATA    BYTE      status
      0100D8DAH   BLOCK     CODE     NEAR LAB  LVL=2
      02000008H   SYMBOL    XDATA    ---       convert
      ---         BLOCKEND  ---      ---       LVL=2
      ---         BLOCKEND  ---      ---       LVL=1
      0100D8B5H   LINE      CODE     ---       #807
      0100D8C5H   LINE      CODE     ---       #809
      0100D8C5H   LINE      CODE     ---       #810
      0100D8CBH   LINE      CODE     ---       #812
      0100D8DAH   LINE      CODE     ---       #813
      0100D8DAH   LINE      CODE     ---       #815
      0100D8F1H   LINE      CODE     ---       #816
      0100D901H   LINE      CODE     ---       #819
      0100D91BH   LINE      CODE     ---       #822
      0100D931H   LINE      CODE     ---       #824
      0100D936H   LINE      CODE     ---       #825
      0100D936H   LINE      CODE     ---       #827
      0100D93BH   LINE      CODE     ---       #828
      ---         BLOCKEND  ---      ---       LVL=0

      0100DFC7H   BLOCK     CODE     ---       LVL=0
      02000002H   SYMBOL    XDATA    BYTE      tdHandle
      02000003H   SYMBOL    XDATA    WORD      source
      02000005H   SYMBOL    XDATA    WORD      destination
      0100DFDAH   BLOCK     CODE     NEAR LAB  LVL=1
      02000007H   SYMBOL    XDATA    BYTE      status
      02000008H   SYMBOL    XDATA    ---       convert
      ---         BLOCKEND  ---      ---       LVL=1
      0100DFC7H   LINE      CODE     ---       #922
      0100DFDAH   LINE      CODE     ---       #923
      0100DFDAH   LINE      CODE     ---       #924
      0100DFE0H   LINE      CODE     ---       #927
      0100DFE6H   LINE      CODE     ---       #928
      0100DFE6H   LINE      CODE     ---       #930
      0100DFFDH   LINE      CODE     ---       #931
      0100E00DH   LINE      CODE     ---       #934
      0100E024H   LINE      CODE     ---       #935
      0100E034H   LINE      CODE     ---       #937
      0100E039H   LINE      CODE     ---       #938
      0100E039H   LINE      CODE     ---       #940
LX51 LINKER/LOCATER V4.64.0.0                                                         04/13/2018  12:12:27  PAGE 139


      0100E03EH   LINE      CODE     ---       #941
      ---         BLOCKEND  ---      ---       LVL=0
      00000007H   SYMBOL    DATA     BYTE      chHandle
      00000005H   SYMBOL    DATA     BYTE      enableRR
      00000006H   SYMBOL    DATA     BYTE      status

      ---         MODULE    ---      ---       CYFLASH
      020013FCH   PUBLIC    XDATA    ---       dieTemperature
      0100ECDCH   PUBLIC    CODE     ---       CyEEPROM_Start
      0100F066H   PUBLIC    CODE     ---       CySetTemp
      000000CAH   SFRSYM    DATA     BYTE      SFRPRT5SEL
      000000DAH   SFRSYM    DATA     BYTE      SFRPRT6SEL
      000000D0H.6 SFRSYM    DATA     BIT       AC
      000000A8H.7 SFRSYM    DATA     BIT       EA
      000000A8H   SFRSYM    DATA     BYTE      IE
      00000085H   SFRSYM    DATA     BYTE      DPH1
      00000084H   SFRSYM    DATA     BYTE      DPL1
      000000D0H.7 SFRSYM    DATA     BIT       CY
      000000A0H   SFRSYM    DATA     BYTE      P2AX
      00000095H   SFRSYM    DATA     BYTE      DPX1
      00000081H   SFRSYM    DATA     BYTE      SP
      000000D0H.2 SFRSYM    DATA     BIT       OV
      00000080H   SFRSYM    DATA     BYTE      SFRPRT0DR
      00000090H   SFRSYM    DATA     BYTE      SFRPRT1DR
      000000F2H   SFRSYM    DATA     BYTE      SFRPRT12SEL
      00000098H   SFRSYM    DATA     BYTE      SFRPRT2DR
      000000B0H   SFRSYM    DATA     BYTE      SFRPRT3DR
      000000C0H   SFRSYM    DATA     BYTE      SFRPRT4DR
      000000FAH   SFRSYM    DATA     BYTE      SFRPRT15SEL
      000000C8H   SFRSYM    DATA     BYTE      SFRPRT5DR
      000000D8H   SFRSYM    DATA     BYTE      SFRPRT6DR
      00000089H   SFRSYM    DATA     BYTE      SFRPRT0PS
      00000091H   SFRSYM    DATA     BYTE      SFRPRT1PS
      00000099H   SFRSYM    DATA     BYTE      SFRPRT2PS
      000000B1H   SFRSYM    DATA     BYTE      SFRPRT3PS
      000000C1H   SFRSYM    DATA     BYTE      SFRPRT4PS
      000000C9H   SFRSYM    DATA     BYTE      SFRPRT5PS
      000000D9H   SFRSYM    DATA     BYTE      SFRPRT6PS
      000000EAH   SFRSYM    DATA     BYTE      MXAX
      000000F0H   SFRSYM    DATA     BYTE      B
      000000E0H   SFRSYM    DATA     BYTE      ACC
      000000D0H   SFRSYM    DATA     BIT       P
      000000D0H.3 SFRSYM    DATA     BIT       RS0
      000000D0H.4 SFRSYM    DATA     BIT       RS1
      00000083H   SFRSYM    DATA     BYTE      DPH
      000000E8H   SFRSYM    DATA     BYTE      SFRPRT12DR
      00000082H   SFRSYM    DATA     BYTE      DPL
      000000F8H   SFRSYM    DATA     BYTE      SFRPRT15DR
      00000086H   SFRSYM    DATA     BYTE      DPS
      000000E9H   SFRSYM    DATA     BYTE      SFRPRT12PS
      00000093H   SFRSYM    DATA     BYTE      DPX
      000000F9H   SFRSYM    DATA     BYTE      SFRPRT15PS
      000000D0H.5 SFRSYM    DATA     BIT       F0
      000000D0H.1 SFRSYM    DATA     BIT       F1
      0000008AH   SFRSYM    DATA     BYTE      SFRPRT0SEL
      000000D0H   SFRSYM    DATA     BYTE      PSW
      000000A2H   SFRSYM    DATA     BYTE      SFRPRT1SEL
      0000009AH   SFRSYM    DATA     BYTE      SFRPRT2SEL
      000000B2H   SFRSYM    DATA     BYTE      SFRPRT3SEL
      000000C2H   SFRSYM    DATA     BYTE      SFRPRT4SEL
      0100E62AH   SYMBOL    CODE     ---       CyFlashGetSpcAlgorithm
      0100E52CH   SYMBOL    CODE     ---       CySetTempInt
      020013F9H   SYMBOL    XDATA    ---       rowBuffer
      00000007H   SYMBOL    DATA     BYTE      interruptState
      00000007H   SYMBOL    DATA     BYTE      interruptState
LX51 LINKER/LOCATER V4.64.0.0                                                         04/13/2018  12:12:27  PAGE 140



      0100E52CH   BLOCK     CODE     ---       LVL=0
      0100E52CH   BLOCK     CODE     NEAR LAB  LVL=1
      02000044H   SYMBOL    XDATA    BYTE      status
      ---         BLOCKEND  ---      ---       LVL=1
      0100E52CH   LINE      CODE     ---       #135
      0100E52CH   LINE      CODE     ---       #136
      0100E52CH   LINE      CODE     ---       #140
      0100E52FH   LINE      CODE     ---       #143
      0100E535H   LINE      CODE     ---       #145
      0100E53BH   LINE      CODE     ---       #146
      0100E53BH   LINE      CODE     ---       #148
      0100E545H   LINE      CODE     ---       #149
      0100E545H   LINE      CODE     ---       #151
      0100E545H   LINE      CODE     ---       #152
      0100E554H   LINE      CODE     ---       #153
      0100E554H   LINE      CODE     ---       #154
      0100E559H   LINE      CODE     ---       #156
      0100E561H   LINE      CODE     ---       #157
      0100E561H   LINE      CODE     ---       #159
      0100E567H   LINE      CODE     ---       #160
      0100E569H   LINE      CODE     ---       #161
      0100E569H   LINE      CODE     ---       #162
      0100E569H   LINE      CODE     ---       #164
      0100E571H   LINE      CODE     ---       #165
      0100E571H   LINE      CODE     ---       #167
      0100E574H   LINE      CODE     ---       #168
      0100E576H   LINE      CODE     ---       #170
      0100E576H   LINE      CODE     ---       #171
      0100E57CH   LINE      CODE     ---       #172
      0100E57CH   LINE      CODE     ---       #174
      0100E581H   LINE      CODE     ---       #175
      ---         BLOCKEND  ---      ---       LVL=0

      0100E62AH   BLOCK     CODE     ---       LVL=0
      0100E62AH   BLOCK     CODE     NEAR LAB  LVL=1
      02000044H   SYMBOL    XDATA    BYTE      status
      ---         BLOCKEND  ---      ---       LVL=1
      0100E62AH   LINE      CODE     ---       #191
      0100E62AH   LINE      CODE     ---       #192
      0100E62AH   LINE      CODE     ---       #196
      0100E62DH   LINE      CODE     ---       #198
      0100E633H   LINE      CODE     ---       #199
      0100E633H   LINE      CODE     ---       #200
      0100E63BH   LINE      CODE     ---       #202
      0100E63FH   LINE      CODE     ---       #203
      0100E63FH   LINE      CODE     ---       #204
      0100E647H   LINE      CODE     ---       #205
      0100E647H   LINE      CODE     ---       #207
      0100E64DH   LINE      CODE     ---       #208
      0100E64FH   LINE      CODE     ---       #210
      0100E665H   LINE      CODE     ---       #211
      0100E665H   LINE      CODE     ---       #212
      0100E669H   LINE      CODE     ---       #213
      0100E669H   LINE      CODE     ---       #214
      0100E669H   LINE      CODE     ---       #215
      0100E66CH   LINE      CODE     ---       #216
      0100E66EH   LINE      CODE     ---       #218
      0100E66EH   LINE      CODE     ---       #219
      0100E674H   LINE      CODE     ---       #220
      0100E674H   LINE      CODE     ---       #222
      0100E679H   LINE      CODE     ---       #223
      ---         BLOCKEND  ---      ---       LVL=0

      0100F066H   BLOCK     CODE     ---       LVL=0
LX51 LINKER/LOCATER V4.64.0.0                                                         04/13/2018  12:12:27  PAGE 141


      0100F066H   BLOCK     CODE     NEAR LAB  LVL=1
      02000043H   SYMBOL    XDATA    BYTE      status
      ---         BLOCKEND  ---      ---       LVL=1
      0100F066H   LINE      CODE     ---       #245
      0100F066H   LINE      CODE     ---       #246
      0100F066H   LINE      CODE     ---       #247
      0100F06EH   LINE      CODE     ---       #249
      0100F070H   LINE      CODE     ---       #250
      0100F070H   LINE      CODE     ---       #251
      0100F078H   LINE      CODE     ---       #252
      0100F078H   LINE      CODE     ---       #254
      0100F07DH   LINE      CODE     ---       #255
      ---         BLOCKEND  ---      ---       LVL=0
      00000004H   SYMBOL    DATA     WORD      rowAddress
      00000001H   SYMBOL    DATA     ---       rowData
      00000007H   SYMBOL    DATA     BYTE      status
      00000007H   SYMBOL    DATA     BYTE      interruptState

      0100ECDCH   BLOCK     CODE     ---       LVL=0
      0100ECDCH   BLOCK     CODE     NEAR LAB  LVL=1
      00000007H   SYMBOL    DATA     BYTE      interruptState
      ---         BLOCKEND  ---      ---       LVL=1
      0100ECDCH   LINE      CODE     ---       #588
      0100ECDCH   LINE      CODE     ---       #589
      0100ECDCH   LINE      CODE     ---       #592
      0100ECDFH   LINE      CODE     ---       #599
      0100ECE6H   LINE      CODE     ---       #600
      0100ECEDH   LINE      CODE     ---       #613
      0100ECF3H   LINE      CODE     ---       #620
      0100ECFAH   LINE      CODE     ---       #621
      0100ED01H   LINE      CODE     ---       #623
      0100ED09H   LINE      CODE     ---       #624
      0100ED09H   LINE      CODE     ---       #626
      0100ED09H   LINE      CODE     ---       #628
      0100ED0CH   LINE      CODE     ---       #629
      ---         BLOCKEND  ---      ---       LVL=0
      00000007H   SYMBOL    DATA     BYTE      interruptState

      ---         MODULE    ---      ---       CYLIB
      020013EFH   PUBLIC    XDATA    DWORD     cydelay_32k_ms
      020013EEH   PUBLIC    XDATA    BYTE      CyResetStatus
      020013EAH   PUBLIC    XDATA    DWORD     cydelay_freq_hz
      020013E9H   PUBLIC    XDATA    BYTE      cydelay_freq_mhz
      020013E5H   PUBLIC    XDATA    DWORD     cydelay_freq_khz
      0100F034H   PUBLIC    CODE     ---       _CyIntSetPriority
      0100E582H   PUBLIC    CODE     ---       _CyIntSetVector
      0100ED3DH   PUBLIC    CODE     ---       CyIntInitVectors
      0100F536H   PUBLIC    CODE     ---       IntDefaultHandler
      0100D82DH   PUBLIC    CODE     ---       _?CyDelay
      0100F41AH   PUBLIC    CODE     ---       CySoftwareReset
      000000CAH   SFRSYM    DATA     BYTE      SFRPRT5SEL
      000000DAH   SFRSYM    DATA     BYTE      SFRPRT6SEL
      000000D0H.6 SFRSYM    DATA     BIT       AC
      000000A8H.7 SFRSYM    DATA     BIT       EA
      000000A8H   SFRSYM    DATA     BYTE      IE
      00000085H   SFRSYM    DATA     BYTE      DPH1
      00000084H   SFRSYM    DATA     BYTE      DPL1
      000000D0H.7 SFRSYM    DATA     BIT       CY
      000000A0H   SFRSYM    DATA     BYTE      P2AX
      00000095H   SFRSYM    DATA     BYTE      DPX1
      00000081H   SFRSYM    DATA     BYTE      SP
      000000D0H.2 SFRSYM    DATA     BIT       OV
      00000080H   SFRSYM    DATA     BYTE      SFRPRT0DR
      00000090H   SFRSYM    DATA     BYTE      SFRPRT1DR
      000000F2H   SFRSYM    DATA     BYTE      SFRPRT12SEL
LX51 LINKER/LOCATER V4.64.0.0                                                         04/13/2018  12:12:27  PAGE 142


      00000098H   SFRSYM    DATA     BYTE      SFRPRT2DR
      000000B0H   SFRSYM    DATA     BYTE      SFRPRT3DR
      000000C0H   SFRSYM    DATA     BYTE      SFRPRT4DR
      000000FAH   SFRSYM    DATA     BYTE      SFRPRT15SEL
      000000C8H   SFRSYM    DATA     BYTE      SFRPRT5DR
      000000D8H   SFRSYM    DATA     BYTE      SFRPRT6DR
      00000089H   SFRSYM    DATA     BYTE      SFRPRT0PS
      00000091H   SFRSYM    DATA     BYTE      SFRPRT1PS
      00000099H   SFRSYM    DATA     BYTE      SFRPRT2PS
      000000B1H   SFRSYM    DATA     BYTE      SFRPRT3PS
      000000C1H   SFRSYM    DATA     BYTE      SFRPRT4PS
      000000C9H   SFRSYM    DATA     BYTE      SFRPRT5PS
      000000D9H   SFRSYM    DATA     BYTE      SFRPRT6PS
      000000EAH   SFRSYM    DATA     BYTE      MXAX
      000000F0H   SFRSYM    DATA     BYTE      B
      000000E0H   SFRSYM    DATA     BYTE      ACC
      000000D0H   SFRSYM    DATA     BIT       P
      000000D0H.3 SFRSYM    DATA     BIT       RS0
      000000D0H.4 SFRSYM    DATA     BIT       RS1
      00000083H   SFRSYM    DATA     BYTE      DPH
      000000E8H   SFRSYM    DATA     BYTE      SFRPRT12DR
      00000082H   SFRSYM    DATA     BYTE      DPL
      000000F8H   SFRSYM    DATA     BYTE      SFRPRT15DR
      00000086H   SFRSYM    DATA     BYTE      DPS
      000000E9H   SFRSYM    DATA     BYTE      SFRPRT12PS
      00000093H   SFRSYM    DATA     BYTE      DPX
      000000F9H   SFRSYM    DATA     BYTE      SFRPRT15PS
      000000D0H.5 SFRSYM    DATA     BIT       F0
      000000D0H.1 SFRSYM    DATA     BIT       F1
      0000008AH   SFRSYM    DATA     BYTE      SFRPRT0SEL
      000000D0H   SFRSYM    DATA     BYTE      PSW
      000000A2H   SFRSYM    DATA     BYTE      SFRPRT1SEL
      0000009AH   SFRSYM    DATA     BYTE      SFRPRT2SEL
      000000B2H   SFRSYM    DATA     BYTE      SFRPRT3SEL
      000000C2H   SFRSYM    DATA     BYTE      SFRPRT4SEL
      00000007H   SYMBOL    DATA     BYTE      wait
      00000007H   SYMBOL    DATA     BYTE      pDiv
      00000005H   SYMBOL    DATA     BYTE      qDiv
      00000003H   SYMBOL    DATA     BYTE      current
      00000007H   SYMBOL    DATA     BYTE      source
      00000007H   SYMBOL    DATA     BYTE      wait
      00000007H   SYMBOL    DATA     BYTE      poweredOn
      00000006H   SYMBOL    DATA     BYTE      freq
      00000007H   SYMBOL    DATA     BYTE      source
      00000007H   SYMBOL    DATA     BYTE      source
      00000007H   SYMBOL    DATA     BYTE      divider
      00000006H   SYMBOL    DATA     WORD      divider
      00000005H   SYMBOL    DATA     BYTE      masterClkDiv
      00000006H   SYMBOL    DATA     WORD      busClkDiv
      00000001H   SYMBOL    DATA     BYTE      interruptState
      00000007H   SYMBOL    DATA     BYTE      divider
      00000007H   SYMBOL    DATA     BYTE      source
      00000007H   SYMBOL    DATA     BYTE      source
      00000007H   SYMBOL    DATA     BYTE      mode
      00000006H   SYMBOL    DATA     BYTE      state
      00000007H   SYMBOL    DATA     BYTE      mode
      00000007H   SYMBOL    DATA     BYTE      wait
      00000007H   SYMBOL    DATA     BYTE      setting
      00000007H   SYMBOL    DATA     BYTE      setting
      00000007H   SYMBOL    DATA     BYTE      setting
      00000000H   SYMBOL    XSTK     BYTE      reason

      0100F41AH   BLOCK     CODE     ---       LVL=0
      0100F41AH   LINE      CODE     ---       #1438
      0100F41AH   LINE      CODE     ---       #1439
LX51 LINKER/LOCATER V4.64.0.0                                                         04/13/2018  12:12:27  PAGE 143


      0100F41AH   LINE      CODE     ---       #1440
      0100F421H   LINE      CODE     ---       #1441
      ---         BLOCKEND  ---      ---       LVL=0

      0100D82DH   BLOCK     CODE     ---       LVL=0
      00000000H   SYMBOL    XSTK     DWORD     milliseconds
      0100D82DH   LINE      CODE     ---       #1459
      0100D836H   LINE      CODE     ---       #1461
      0100D84CH   LINE      CODE     ---       #1462
      0100D84CH   LINE      CODE     ---       #1467
      0100D85DH   LINE      CODE     ---       #1468
      0100D887H   LINE      CODE     ---       #1469
      0100D889H   LINE      CODE     ---       #1471
      0100D8AEH   LINE      CODE     ---       #1472
      ---         BLOCKEND  ---      ---       LVL=0
      00000000H   SYMBOL    XSTK     DWORD     freq
      00000007H   SYMBOL    DATA     BYTE      ticks
      00000005H   SYMBOL    DATA     BYTE      lpMode
      020013E4H   SYMBOL    XDATA    BYTE      interruptStatus
      00000005H   SYMBOL    DATA     BYTE      interruptState
      00000005H   SYMBOL    DATA     BYTE      interruptState
      00000003H   SYMBOL    DATA     BYTE      interruptState

      0100F536H   BLOCK     CODE     ---       LVL=0
      0100F536H   LINE      CODE     ---       #2304
      0100F536H   LINE      CODE     ---       #2310
      0100F536H   LINE      CODE     ---       #2311
      0100F536H   LINE      CODE     ---       #2316
      ---         BLOCKEND  ---      ---       LVL=0

      0100ED3DH   BLOCK     CODE     ---       LVL=0
      0100ED3DH   BLOCK     CODE     NEAR LAB  LVL=1
      02000000H   SYMBOL    XDATA    BYTE      i
      ---         BLOCKEND  ---      ---       LVL=1
      0100ED3DH   LINE      CODE     ---       #2328
      0100ED3DH   LINE      CODE     ---       #2329
      0100ED3DH   LINE      CODE     ---       #2332
      0100ED4CH   LINE      CODE     ---       #2333
      0100ED4CH   LINE      CODE     ---       #2334
      0100ED64H   LINE      CODE     ---       #2335
      0100ED6CH   LINE      CODE     ---       #2336
      ---         BLOCKEND  ---      ---       LVL=0

      0100E582H   BLOCK     CODE     ---       LVL=0
      02000002H   SYMBOL    XDATA    BYTE      number
      02000003H   SYMBOL    XDATA    ---       address
      0100E58FH   BLOCK     CODE     NEAR LAB  LVL=1
      02000005H   SYMBOL    XDATA    ---       oldIsr
      ---         BLOCKEND  ---      ---       LVL=1
      0100E582H   LINE      CODE     ---       #2352
      0100E58FH   LINE      CODE     ---       #2353
      0100E58FH   LINE      CODE     ---       #2359
      0100E5ADH   LINE      CODE     ---       #2363
      0100E5CDH   LINE      CODE     ---       #2365
      0100E5D5H   LINE      CODE     ---       #2366
      ---         BLOCKEND  ---      ---       LVL=0
      00000007H   SYMBOL    DATA     BYTE      number

      0100F034H   BLOCK     CODE     ---       LVL=0
      00000004H   SYMBOL    DATA     BYTE      number
      00000005H   SYMBOL    DATA     BYTE      priority
      0100F034H   LINE      CODE     ---       #2400
      0100F036H   LINE      CODE     ---       #2401
      0100F036H   LINE      CODE     ---       #2406
      0100F04CH   LINE      CODE     ---       #2408
LX51 LINKER/LOCATER V4.64.0.0                                                         04/13/2018  12:12:27  PAGE 144


      ---         BLOCKEND  ---      ---       LVL=0
      00000007H   SYMBOL    DATA     BYTE      number
      00000007H   SYMBOL    DATA     BYTE      priority
      00000005H   SYMBOL    DATA     BYTE      number
      00000006H   SYMBOL    DATA     ---       stateReg

      ---         MODULE    ---      ---       LED_BLINK
      0200140DH   PUBLIC    XDATA    BYTE      LED_BLINK_initVar
      0100F517H   PUBLIC    CODE     ---       _LED_BLINK_WriteCompare
      0100F511H   PUBLIC    CODE     ---       _LED_BLINK_WritePeriod
      0100F50BH   PUBLIC    CODE     ---       _LED_BLINK_WriteCounter
      0100F422H   PUBLIC    CODE     ---       LED_BLINK_Enable
      0100EF07H   PUBLIC    CODE     ---       LED_BLINK_Init
      0100F1D6H   PUBLIC    CODE     ---       LED_BLINK_Start
      000000CAH   SFRSYM    DATA     BYTE      SFRPRT5SEL
      000000DAH   SFRSYM    DATA     BYTE      SFRPRT6SEL
      000000D0H.6 SFRSYM    DATA     BIT       AC
      000000A8H.7 SFRSYM    DATA     BIT       EA
      000000A8H   SFRSYM    DATA     BYTE      IE
      00000085H   SFRSYM    DATA     BYTE      DPH1
      00000084H   SFRSYM    DATA     BYTE      DPL1
      000000D0H.7 SFRSYM    DATA     BIT       CY
      000000A0H   SFRSYM    DATA     BYTE      P2AX
      00000095H   SFRSYM    DATA     BYTE      DPX1
      00000081H   SFRSYM    DATA     BYTE      SP
      000000D0H.2 SFRSYM    DATA     BIT       OV
      00000080H   SFRSYM    DATA     BYTE      SFRPRT0DR
      00000090H   SFRSYM    DATA     BYTE      SFRPRT1DR
      000000F2H   SFRSYM    DATA     BYTE      SFRPRT12SEL
      00000098H   SFRSYM    DATA     BYTE      SFRPRT2DR
      000000B0H   SFRSYM    DATA     BYTE      SFRPRT3DR
      000000C0H   SFRSYM    DATA     BYTE      SFRPRT4DR
      000000FAH   SFRSYM    DATA     BYTE      SFRPRT15SEL
      000000C8H   SFRSYM    DATA     BYTE      SFRPRT5DR
      000000D8H   SFRSYM    DATA     BYTE      SFRPRT6DR
      00000089H   SFRSYM    DATA     BYTE      SFRPRT0PS
      00000091H   SFRSYM    DATA     BYTE      SFRPRT1PS
      00000099H   SFRSYM    DATA     BYTE      SFRPRT2PS
      000000B1H   SFRSYM    DATA     BYTE      SFRPRT3PS
      000000C1H   SFRSYM    DATA     BYTE      SFRPRT4PS
      000000C9H   SFRSYM    DATA     BYTE      SFRPRT5PS
      000000D9H   SFRSYM    DATA     BYTE      SFRPRT6PS
      000000EAH   SFRSYM    DATA     BYTE      MXAX
      000000F0H   SFRSYM    DATA     BYTE      B
      000000E0H   SFRSYM    DATA     BYTE      ACC
      000000D0H   SFRSYM    DATA     BIT       P
      000000D0H.3 SFRSYM    DATA     BIT       RS0
      000000D0H.4 SFRSYM    DATA     BIT       RS1
      00000083H   SFRSYM    DATA     BYTE      DPH
      000000E8H   SFRSYM    DATA     BYTE      SFRPRT12DR
      00000082H   SFRSYM    DATA     BYTE      DPL
      000000F8H   SFRSYM    DATA     BYTE      SFRPRT15DR
      00000086H   SFRSYM    DATA     BYTE      DPS
      000000E9H   SFRSYM    DATA     BYTE      SFRPRT12PS
      00000093H   SFRSYM    DATA     BYTE      DPX
      000000F9H   SFRSYM    DATA     BYTE      SFRPRT15PS
      000000D0H.5 SFRSYM    DATA     BIT       F0
      000000D0H.1 SFRSYM    DATA     BIT       F1
      0000008AH   SFRSYM    DATA     BYTE      SFRPRT0SEL
      000000D0H   SFRSYM    DATA     BYTE      PSW
      000000A2H   SFRSYM    DATA     BYTE      SFRPRT1SEL
      0000009AH   SFRSYM    DATA     BYTE      SFRPRT2SEL
      000000B2H   SFRSYM    DATA     BYTE      SFRPRT3SEL
      000000C2H   SFRSYM    DATA     BYTE      SFRPRT4SEL

LX51 LINKER/LOCATER V4.64.0.0                                                         04/13/2018  12:12:27  PAGE 145


      0100F1D6H   BLOCK     CODE     ---       LVL=0
      0100F1D6H   LINE      CODE     ---       #55
      0100F1D6H   LINE      CODE     ---       #56
      0100F1D6H   LINE      CODE     ---       #58
      0100F1DCH   LINE      CODE     ---       #59
      0100F1DCH   LINE      CODE     ---       #60
      0100F1DFH   LINE      CODE     ---       #61
      0100F1E5H   LINE      CODE     ---       #62
      0100F1E5H   LINE      CODE     ---       #63
      0100F1E8H   LINE      CODE     ---       #65
      ---         BLOCKEND  ---      ---       LVL=0

      0100EF07H   BLOCK     CODE     ---       LVL=0
      0100EF07H   BLOCK     CODE     NEAR LAB  LVL=1
      00000007H   SYMBOL    DATA     BYTE      ctrl
      ---         BLOCKEND  ---      ---       LVL=1
      0100EF07H   LINE      CODE     ---       #84
      0100EF07H   LINE      CODE     ---       #85
      0100EF07H   LINE      CODE     ---       #118
      0100EF0EH   LINE      CODE     ---       #120
      0100EF11H   LINE      CODE     ---       #126
      0100EF18H   LINE      CODE     ---       #133
      0100EF1DH   LINE      CODE     ---       #136
      0100EF22H   LINE      CODE     ---       #139
      0100EF27H   LINE      CODE     ---       #179
      ---         BLOCKEND  ---      ---       LVL=0

      0100F422H   BLOCK     CODE     ---       LVL=0
      0100F422H   LINE      CODE     ---       #199
      0100F422H   LINE      CODE     ---       #200
      0100F422H   LINE      CODE     ---       #209
      0100F429H   LINE      CODE     ---       #211
      ---         BLOCKEND  ---      ---       LVL=0

      0100F50BH   BLOCK     CODE     ---       LVL=0
      00000007H   SYMBOL    DATA     BYTE      counter
      0100F50BH   LINE      CODE     ---       #403
      0100F50BH   LINE      CODE     ---       #405
      0100F50BH   LINE      CODE     ---       #406
      0100F510H   LINE      CODE     ---       #407
      ---         BLOCKEND  ---      ---       LVL=0

      0100F511H   BLOCK     CODE     ---       LVL=0
      00000007H   SYMBOL    DATA     BYTE      period
      0100F511H   LINE      CODE     ---       #482
      0100F511H   LINE      CODE     ---       #483
      0100F511H   LINE      CODE     ---       #487
      0100F516H   LINE      CODE     ---       #489
      ---         BLOCKEND  ---      ---       LVL=0

      0100F517H   BLOCK     CODE     ---       LVL=0
      00000007H   SYMBOL    DATA     BYTE      compare
      0100F517H   LINE      CODE     ---       #516
      0100F517H   LINE      CODE     ---       #518
      0100F517H   LINE      CODE     ---       #522
      0100F51CH   LINE      CODE     ---       #532
      ---         BLOCKEND  ---      ---       LVL=0
      00000007H   SYMBOL    DATA     BYTE      result
      00000007H   SYMBOL    DATA     BYTE      control

      ---         MODULE    ---      ---       LED_CTRL
      0100F51DH   PUBLIC    CODE     ---       _LED_CTRL_Write

      0100F51DH   BLOCK     CODE     ---       LVL=0
      00000007H   SYMBOL    DATA     BYTE      control
LX51 LINKER/LOCATER V4.64.0.0                                                         04/13/2018  12:12:27  PAGE 146


      0100F51DH   LINE      CODE     ---       #37
      0100F51DH   LINE      CODE     ---       #38
      0100F51DH   LINE      CODE     ---       #39
      0100F522H   LINE      CODE     ---       #40
      ---         BLOCKEND  ---      ---       LVL=0

      ---         MODULE    ---      ---       LED_BLINK_EN
      0100F523H   PUBLIC    CODE     ---       _LED_BLINK_EN_Write

      0100F523H   BLOCK     CODE     ---       LVL=0
      00000007H   SYMBOL    DATA     BYTE      control
      0100F523H   LINE      CODE     ---       #37
      0100F523H   LINE      CODE     ---       #38
      0100F523H   LINE      CODE     ---       #39
      0100F528H   LINE      CODE     ---       #40
      ---         BLOCKEND  ---      ---       LVL=0

      ---         MODULE    ---      ---       CYBOOTASMKEIL
      0100F0D7H   PUBLIC    CODE     NEAR LAB  CyEnterCriticalSection
      0100EB00H   PUBLIC    CODE     NEAR LAB  _CyDelayCycles
      0100EDCCH   PUBLIC    CODE     NEAR LAB  _CyDelayUs
      0100F07EH   PUBLIC    CODE     NEAR LAB  _CyExitCriticalSection

      ---         MODULE    ---      ---       CYMEM
      02000005H   PUBLIC    XDATA    BYTE      ?_cyconfigcpy?BYTE
      0100EC12H   PUBLIC    CODE     NEAR LAB  _cyconfigcpy
      0100EE9DH   PUBLIC    CODE     NEAR LAB  _cyconfigcpycode
      0100F262H   PUBLIC    CODE     NEAR LAB  _cyread16
      0100F264H   PUBLIC    CODE     NEAR LAB  _cyread16_nodpx
      0100F1E9H   PUBLIC    CODE     NEAR LAB  _cyread24
      0100F1EBH   PUBLIC    CODE     NEAR LAB  _cyread24_nodpx
      0100F331H   PUBLIC    CODE     NEAR LAB  _cyread8
      0100F333H   PUBLIC    CODE     NEAR LAB  _cyread8_nodpx
      0100F271H   PUBLIC    CODE     NEAR LAB  _cywrite16
      0100F273H   PUBLIC    CODE     NEAR LAB  _cywrite16_nodpx
      0100F20EH   PUBLIC    CODE     NEAR LAB  _cywrite24
      0100F210H   PUBLIC    CODE     NEAR LAB  _cywrite24_nodpx
      0100F33DH   PUBLIC    CODE     NEAR LAB  _cywrite8
      0100F33FH   PUBLIC    CODE     NEAR LAB  _cywrite8_nodpx

      ---         MODULE    ---      ---       ?C_STARTUP
      00000000H   PUBLIC    NUMBER   ---       ?C?XPAGE1RST
      00000093H   PUBLIC    DATA     BYTE      ?C?XPAGE1SFR
      01002600H   PUBLIC    CODE     NEAR LAB  ?C_STARTUP
      0100C908H   PUBLIC    CODE     NEAR LAB  STARTUP1
      01002604H   PUBLIC    CODE     NEAR LAB  _dma_wait

      ---         MODULE    ---      ---       UART_RS485_INT
      0100D482H   PUBLIC    CODE     ---       UART_RS485_RXISR
      000000CAH   SFRSYM    DATA     BYTE      SFRPRT5SEL
      000000DAH   SFRSYM    DATA     BYTE      SFRPRT6SEL
      000000D0H.6 SFRSYM    DATA     BIT       AC
      000000A8H.7 SFRSYM    DATA     BIT       EA
      000000A8H   SFRSYM    DATA     BYTE      IE
      00000085H   SFRSYM    DATA     BYTE      DPH1
      00000084H   SFRSYM    DATA     BYTE      DPL1
      000000D0H.7 SFRSYM    DATA     BIT       CY
      000000A0H   SFRSYM    DATA     BYTE      P2AX
      00000095H   SFRSYM    DATA     BYTE      DPX1
      00000081H   SFRSYM    DATA     BYTE      SP
      000000D0H.2 SFRSYM    DATA     BIT       OV
      00000080H   SFRSYM    DATA     BYTE      SFRPRT0DR
      00000090H   SFRSYM    DATA     BYTE      SFRPRT1DR
      000000F2H   SFRSYM    DATA     BYTE      SFRPRT12SEL
      00000098H   SFRSYM    DATA     BYTE      SFRPRT2DR
LX51 LINKER/LOCATER V4.64.0.0                                                         04/13/2018  12:12:27  PAGE 147


      000000B0H   SFRSYM    DATA     BYTE      SFRPRT3DR
      000000C0H   SFRSYM    DATA     BYTE      SFRPRT4DR
      000000FAH   SFRSYM    DATA     BYTE      SFRPRT15SEL
      000000C8H   SFRSYM    DATA     BYTE      SFRPRT5DR
      000000D8H   SFRSYM    DATA     BYTE      SFRPRT6DR
      00000089H   SFRSYM    DATA     BYTE      SFRPRT0PS
      00000091H   SFRSYM    DATA     BYTE      SFRPRT1PS
      00000099H   SFRSYM    DATA     BYTE      SFRPRT2PS
      000000B1H   SFRSYM    DATA     BYTE      SFRPRT3PS
      000000C1H   SFRSYM    DATA     BYTE      SFRPRT4PS
      000000C9H   SFRSYM    DATA     BYTE      SFRPRT5PS
      000000D9H   SFRSYM    DATA     BYTE      SFRPRT6PS
      000000EAH   SFRSYM    DATA     BYTE      MXAX
      000000F0H   SFRSYM    DATA     BYTE      B
      000000E0H   SFRSYM    DATA     BYTE      ACC
      000000D0H   SFRSYM    DATA     BIT       P
      000000D0H.3 SFRSYM    DATA     BIT       RS0
      000000D0H.4 SFRSYM    DATA     BIT       RS1
      00000083H   SFRSYM    DATA     BYTE      DPH
      000000E8H   SFRSYM    DATA     BYTE      SFRPRT12DR
      00000082H   SFRSYM    DATA     BYTE      DPL
      000000F8H   SFRSYM    DATA     BYTE      SFRPRT15DR
      00000086H   SFRSYM    DATA     BYTE      DPS
      000000E9H   SFRSYM    DATA     BYTE      SFRPRT12PS
      00000093H   SFRSYM    DATA     BYTE      DPX
      000000F9H   SFRSYM    DATA     BYTE      SFRPRT15PS
      000000D0H.5 SFRSYM    DATA     BIT       F0
      000000D0H.1 SFRSYM    DATA     BIT       F1
      0000008AH   SFRSYM    DATA     BYTE      SFRPRT0SEL
      000000D0H   SFRSYM    DATA     BYTE      PSW
      000000A2H   SFRSYM    DATA     BYTE      SFRPRT1SEL
      0000009AH   SFRSYM    DATA     BYTE      SFRPRT2SEL
      000000B2H   SFRSYM    DATA     BYTE      SFRPRT3SEL
      000000C2H   SFRSYM    DATA     BYTE      SFRPRT4SEL

      0100D482H   BLOCK     CODE     ---       LVL=0
      0100D4A5H   BLOCK     CODE     NEAR LAB  LVL=1
      00000006H   SYMBOL    DATA     BYTE      readData
      00000007H   SYMBOL    DATA     BYTE      readStatus
      00000003H   SYMBOL    DATA     BYTE      increment_pointer
      00000002H   SYMBOL    DATA     BYTE      int_en
      ---         BLOCKEND  ---      ---       LVL=1
      0100D482H   LINE      CODE     ---       #59
      0100D4A5H   LINE      CODE     ---       #63
      0100D4A7H   LINE      CODE     ---       #79
      0100D4ABH   LINE      CODE     ---       #80
      0100D4B3H   LINE      CODE     ---       #84
      0100D4B3H   LINE      CODE     ---       #86
      0100D4B8H   LINE      CODE     ---       #90
      0100D4B9H   LINE      CODE     ---       #95
      0100D4BEH   LINE      CODE     ---       #96
      0100D4BEH   LINE      CODE     ---       #101
      0100D4C4H   LINE      CODE     ---       #109
      0100D4C4H   LINE      CODE     ---       #111
      0100D4C8H   LINE      CODE     ---       #112
      0100D4C8H   LINE      CODE     ---       #114
      0100D4CDH   LINE      CODE     ---       #141
      0100D4DCH   LINE      CODE     ---       #142
      0100D4DEH   LINE      CODE     ---       #146
      0100D4E1H   LINE      CODE     ---       #147
      0100D4E1H   LINE      CODE     ---       #148
      0100D4E7H   LINE      CODE     ---       #149
      0100D4E7H   LINE      CODE     ---       #150
      0100D4EDH   LINE      CODE     ---       #151
      0100D4EDH   LINE      CODE     ---       #153
LX51 LINKER/LOCATER V4.64.0.0                                                         04/13/2018  12:12:27  PAGE 148


      0100D4F3H   LINE      CODE     ---       #156
      0100D4F9H   LINE      CODE     ---       #157
      0100D4F9H   LINE      CODE     ---       #158
      0100D4FBH   LINE      CODE     ---       #159
      0100D4FBH   LINE      CODE     ---       #162
      0100D507H   LINE      CODE     ---       #163
      0100D507H   LINE      CODE     ---       #164
      0100D50DH   LINE      CODE     ---       #172
      0100D50DH   LINE      CODE     ---       #173
      0100D50DH   LINE      CODE     ---       #174
      0100D50DH   LINE      CODE     ---       #175
      0100D511H   LINE      CODE     ---       #187
      0100D518H   LINE      CODE     ---       #189
      ---         BLOCKEND  ---      ---       LVL=0

      ---         MODULE    ---      ---       ADC_INT
      0100F53CH   PUBLIC    CODE     ---       ADC_ISR4
      0100F53BH   PUBLIC    CODE     ---       ADC_ISR3
      0100F53AH   PUBLIC    CODE     ---       ADC_ISR2
      0100F539H   PUBLIC    CODE     ---       ADC_ISR1
      000000CAH   SFRSYM    DATA     BYTE      SFRPRT5SEL
      000000DAH   SFRSYM    DATA     BYTE      SFRPRT6SEL
      000000D0H.6 SFRSYM    DATA     BIT       AC
      000000A8H.7 SFRSYM    DATA     BIT       EA
      000000A8H   SFRSYM    DATA     BYTE      IE
      00000085H   SFRSYM    DATA     BYTE      DPH1
      00000084H   SFRSYM    DATA     BYTE      DPL1
      000000D0H.7 SFRSYM    DATA     BIT       CY
      000000A0H   SFRSYM    DATA     BYTE      P2AX
      00000095H   SFRSYM    DATA     BYTE      DPX1
      00000081H   SFRSYM    DATA     BYTE      SP
      000000D0H.2 SFRSYM    DATA     BIT       OV
      00000080H   SFRSYM    DATA     BYTE      SFRPRT0DR
      00000090H   SFRSYM    DATA     BYTE      SFRPRT1DR
      000000F2H   SFRSYM    DATA     BYTE      SFRPRT12SEL
      00000098H   SFRSYM    DATA     BYTE      SFRPRT2DR
      000000B0H   SFRSYM    DATA     BYTE      SFRPRT3DR
      000000C0H   SFRSYM    DATA     BYTE      SFRPRT4DR
      000000FAH   SFRSYM    DATA     BYTE      SFRPRT15SEL
      000000C8H   SFRSYM    DATA     BYTE      SFRPRT5DR
      000000D8H   SFRSYM    DATA     BYTE      SFRPRT6DR
      00000089H   SFRSYM    DATA     BYTE      SFRPRT0PS
      00000091H   SFRSYM    DATA     BYTE      SFRPRT1PS
      00000099H   SFRSYM    DATA     BYTE      SFRPRT2PS
      000000B1H   SFRSYM    DATA     BYTE      SFRPRT3PS
      000000C1H   SFRSYM    DATA     BYTE      SFRPRT4PS
      000000C9H   SFRSYM    DATA     BYTE      SFRPRT5PS
      000000D9H   SFRSYM    DATA     BYTE      SFRPRT6PS
      000000EAH   SFRSYM    DATA     BYTE      MXAX
      000000F0H   SFRSYM    DATA     BYTE      B
      000000E0H   SFRSYM    DATA     BYTE      ACC
      000000D0H   SFRSYM    DATA     BIT       P
      000000D0H.3 SFRSYM    DATA     BIT       RS0
      000000D0H.4 SFRSYM    DATA     BIT       RS1
      00000083H   SFRSYM    DATA     BYTE      DPH
      000000E8H   SFRSYM    DATA     BYTE      SFRPRT12DR
      00000082H   SFRSYM    DATA     BYTE      DPL
      000000F8H   SFRSYM    DATA     BYTE      SFRPRT15DR
      00000086H   SFRSYM    DATA     BYTE      DPS
      000000E9H   SFRSYM    DATA     BYTE      SFRPRT12PS
      00000093H   SFRSYM    DATA     BYTE      DPX
      000000F9H   SFRSYM    DATA     BYTE      SFRPRT15PS
      000000D0H.5 SFRSYM    DATA     BIT       F0
      000000D0H.1 SFRSYM    DATA     BIT       F1
      0000008AH   SFRSYM    DATA     BYTE      SFRPRT0SEL
LX51 LINKER/LOCATER V4.64.0.0                                                         04/13/2018  12:12:27  PAGE 149


      000000D0H   SFRSYM    DATA     BYTE      PSW
      000000A2H   SFRSYM    DATA     BYTE      SFRPRT1SEL
      0000009AH   SFRSYM    DATA     BYTE      SFRPRT2SEL
      000000B2H   SFRSYM    DATA     BYTE      SFRPRT3SEL
      000000C2H   SFRSYM    DATA     BYTE      SFRPRT4SEL

      0100F539H   BLOCK     CODE     ---       LVL=0
      0100F539H   LINE      CODE     ---       #51
      0100F539H   LINE      CODE     ---       #81
      ---         BLOCKEND  ---      ---       LVL=0

      0100F53AH   BLOCK     CODE     ---       LVL=0
      0100F53AH   LINE      CODE     ---       #101
      0100F53AH   LINE      CODE     ---       #131
      ---         BLOCKEND  ---      ---       LVL=0

      0100F53BH   BLOCK     CODE     ---       LVL=0
      0100F53BH   LINE      CODE     ---       #151
      0100F53BH   LINE      CODE     ---       #181
      ---         BLOCKEND  ---      ---       LVL=0

      0100F53CH   BLOCK     CODE     ---       LVL=0
      0100F53CH   LINE      CODE     ---       #201
      0100F53CH   LINE      CODE     ---       #231
      ---         BLOCKEND  ---      ---       LVL=0

      ---         MODULE    ---      ---       ADC_AMUX
      0100F04DH   PUBLIC    CODE     ---       _ADC_AMux_Select
      0100EF28H   PUBLIC    CODE     ---       ADC_AMux_Start
      0200140EH   SYMBOL    XDATA    BYTE      ADC_AMux_lastChannel

      0100EF28H   BLOCK     CODE     ---       LVL=0
      0100EF28H   BLOCK     CODE     NEAR LAB  LVL=1
      02000003H   SYMBOL    XDATA    BYTE      chan
      ---         BLOCKEND  ---      ---       LVL=1
      0100EF28H   LINE      CODE     ---       #36
      0100EF28H   LINE      CODE     ---       #37
      0100EF28H   LINE      CODE     ---       #40
      0100EF37H   LINE      CODE     ---       #41
      0100EF37H   LINE      CODE     ---       #43
      0100EF3AH   LINE      CODE     ---       #48
      0100EF42H   LINE      CODE     ---       #50
      0100EF48H   LINE      CODE     ---       #51
      ---         BLOCKEND  ---      ---       LVL=0

      0100F04DH   BLOCK     CODE     ---       LVL=0
      02000002H   SYMBOL    XDATA    BYTE      channel
      0100F04DH   LINE      CODE     ---       #69
      0100F052H   LINE      CODE     ---       #70
      0100F052H   LINE      CODE     ---       #71
      0100F055H   LINE      CODE     ---       #72
      0100F05DH   LINE      CODE     ---       #73
      0100F065H   LINE      CODE     ---       #74
      ---         BLOCKEND  ---      ---       LVL=0

      ---         MODULE    ---      ---       ADC_EXT_CP_CLK
      0100F42AH   PUBLIC    CODE     ---       ADC_Ext_CP_Clk_GetSourceRegister
      0100F317H   PUBLIC    CODE     ---       _ADC_Ext_CP_Clk_SetModeRegister
      0100F3E6H   PUBLIC    CODE     ---       ADC_Ext_CP_Clk_GetDividerRegister
      0100C319H   PUBLIC    CODE     ---       _ADC_Ext_CP_Clk_SetDividerRegister
      00000007H   SYMBOL    DATA     BYTE      state

      0100C319H   BLOCK     CODE     ---       LVL=0
      02000002H   SYMBOL    XDATA    WORD      clkDivider
      02000004H   SYMBOL    XDATA    BYTE      restart
LX51 LINKER/LOCATER V4.64.0.0                                                         04/13/2018  12:12:27  PAGE 150


      0100C324H   BLOCK     CODE     NEAR LAB  LVL=1
      02000005H   SYMBOL    XDATA    BYTE      enabled
      02000006H   SYMBOL    XDATA    BYTE      currSrc
      02000007H   SYMBOL    XDATA    WORD      oldDivider
      ---         BLOCKEND  ---      ---       LVL=1
      0100C319H   LINE      CODE     ---       #193
      0100C324H   LINE      CODE     ---       #195
      0100C324H   LINE      CODE     ---       #198
      0100C32CH   LINE      CODE     ---       #199
      0100C337H   LINE      CODE     ---       #201
      0100C349H   LINE      CODE     ---       #202
      0100C349H   LINE      CODE     ---       #203
      0100C353H   LINE      CODE     ---       #205
      0100C364H   LINE      CODE     ---       #206
      0100C364H   LINE      CODE     ---       #208
      0100C368H   LINE      CODE     ---       #209
      0100C368H   LINE      CODE     ---       #213
      0100C371H   LINE      CODE     ---       #214
      0100C378H   LINE      CODE     ---       #215
      0100C379H   LINE      CODE     ---       #217
      0100C379H   LINE      CODE     ---       #220
      0100C380H   LINE      CODE     ---       #221
      0100C391H   LINE      CODE     ---       #222
      0100C391H   LINE      CODE     ---       #223
      0100C392H   LINE      CODE     ---       #225
      0100C392H   LINE      CODE     ---       #227
      0100C398H   LINE      CODE     ---       #228
      0100C398H   LINE      CODE     ---       #229
      0100C39DH   LINE      CODE     ---       #236
      0100C3A3H   LINE      CODE     ---       #237
      0100C3A8H   LINE      CODE     ---       #240
      0100C3AFH   LINE      CODE     ---       #243
      0100C3C1H   LINE      CODE     ---       #244
      0100C3C1H   LINE      CODE     ---       #246
      0100C3D2H   LINE      CODE     ---       #247
      0100C3D8H   LINE      CODE     ---       #250
      0100C3E0H   LINE      CODE     ---       #253
      0100C3E7H   LINE      CODE     ---       #257
      0100C3ECH   LINE      CODE     ---       #259
      0100C3ECH   LINE      CODE     ---       #260
      0100C3ECH   LINE      CODE     ---       #263
      0100C3F4H   LINE      CODE     ---       #264
      0100C3F4H   LINE      CODE     ---       #266
      0100C405H   LINE      CODE     ---       #268
      0100C418H   LINE      CODE     ---       #269
      0100C422H   LINE      CODE     ---       #270
      0100C423H   LINE      CODE     ---       #272
      0100C423H   LINE      CODE     ---       #274
      0100C434H   LINE      CODE     ---       #275
      0100C449H   LINE      CODE     ---       #276
      0100C449H   LINE      CODE     ---       #277
      0100C449H   LINE      CODE     ---       #278
      0100C449H   LINE      CODE     ---       #279
      ---         BLOCKEND  ---      ---       LVL=0

      0100F3E6H   BLOCK     CODE     ---       LVL=0
      0100F3E6H   LINE      CODE     ---       #297
      0100F3E6H   LINE      CODE     ---       #298
      0100F3E6H   LINE      CODE     ---       #299
      0100F3EFH   LINE      CODE     ---       #300
      ---         BLOCKEND  ---      ---       LVL=0

      0100F317H   BLOCK     CODE     ---       LVL=0
      00000007H   SYMBOL    DATA     BYTE      modeBitMask
      0100F317H   LINE      CODE     ---       #332
LX51 LINKER/LOCATER V4.64.0.0                                                         04/13/2018  12:12:27  PAGE 151


      0100F317H   LINE      CODE     ---       #333
      0100F317H   LINE      CODE     ---       #334
      0100F323H   LINE      CODE     ---       #335
      ---         BLOCKEND  ---      ---       LVL=0
      00000007H   SYMBOL    DATA     BYTE      modeBitMask
      00000007H   SYMBOL    DATA     BYTE      oldSrc

      0100F42AH   BLOCK     CODE     ---       LVL=0
      0100F42AH   LINE      CODE     ---       #464
      0100F42AH   LINE      CODE     ---       #465
      0100F42AH   LINE      CODE     ---       #466
      0100F431H   LINE      CODE     ---       #467
      ---         BLOCKEND  ---      ---       LVL=0

      ---         MODULE    ---      ---       ADC_THEACLK
      0100F432H   PUBLIC    CODE     ---       ADC_theACLK_GetSourceRegister
      0100F324H   PUBLIC    CODE     ---       _ADC_theACLK_SetModeRegister
      0100F3F0H   PUBLIC    CODE     ---       ADC_theACLK_GetDividerRegister
      0100C7D9H   PUBLIC    CODE     ---       _ADC_theACLK_SetDividerRegister
      00000007H   SYMBOL    DATA     BYTE      state

      0100C7D9H   BLOCK     CODE     ---       LVL=0
      02000002H   SYMBOL    XDATA    WORD      clkDivider
      02000004H   SYMBOL    XDATA    BYTE      restart
      0100C7E4H   BLOCK     CODE     NEAR LAB  LVL=1
      02000005H   SYMBOL    XDATA    BYTE      enabled
      02000006H   SYMBOL    XDATA    BYTE      currSrc
      02000007H   SYMBOL    XDATA    WORD      oldDivider
      ---         BLOCKEND  ---      ---       LVL=1
      0100C7D9H   LINE      CODE     ---       #193
      0100C7E4H   LINE      CODE     ---       #195
      0100C7E4H   LINE      CODE     ---       #198
      0100C7ECH   LINE      CODE     ---       #199
      0100C7F7H   LINE      CODE     ---       #201
      0100C809H   LINE      CODE     ---       #202
      0100C809H   LINE      CODE     ---       #203
      0100C813H   LINE      CODE     ---       #205
      0100C824H   LINE      CODE     ---       #206
      0100C824H   LINE      CODE     ---       #208
      0100C828H   LINE      CODE     ---       #209
      0100C828H   LINE      CODE     ---       #213
      0100C830H   LINE      CODE     ---       #214
      0100C837H   LINE      CODE     ---       #215
      0100C838H   LINE      CODE     ---       #217
      0100C838H   LINE      CODE     ---       #220
      0100C83FH   LINE      CODE     ---       #221
      0100C850H   LINE      CODE     ---       #222
      0100C850H   LINE      CODE     ---       #223
      0100C851H   LINE      CODE     ---       #225
      0100C851H   LINE      CODE     ---       #227
      0100C857H   LINE      CODE     ---       #228
      0100C857H   LINE      CODE     ---       #229
      0100C85CH   LINE      CODE     ---       #233
      0100C861H   LINE      CODE     ---       #234
      0100C866H   LINE      CODE     ---       #240
      0100C86DH   LINE      CODE     ---       #243
      0100C87FH   LINE      CODE     ---       #244
      0100C87FH   LINE      CODE     ---       #246
      0100C890H   LINE      CODE     ---       #247
      0100C896H   LINE      CODE     ---       #250
      0100C89EH   LINE      CODE     ---       #253
      0100C8A5H   LINE      CODE     ---       #257
      0100C8AAH   LINE      CODE     ---       #259
      0100C8AAH   LINE      CODE     ---       #260
      0100C8AAH   LINE      CODE     ---       #263
LX51 LINKER/LOCATER V4.64.0.0                                                         04/13/2018  12:12:27  PAGE 152


      0100C8B2H   LINE      CODE     ---       #264
      0100C8B2H   LINE      CODE     ---       #266
      0100C8C3H   LINE      CODE     ---       #268
      0100C8D6H   LINE      CODE     ---       #269
      0100C8E0H   LINE      CODE     ---       #270
      0100C8E1H   LINE      CODE     ---       #272
      0100C8E1H   LINE      CODE     ---       #274
      0100C8F2H   LINE      CODE     ---       #275
      0100C907H   LINE      CODE     ---       #276
      0100C907H   LINE      CODE     ---       #277
      0100C907H   LINE      CODE     ---       #278
      0100C907H   LINE      CODE     ---       #279
      ---         BLOCKEND  ---      ---       LVL=0

      0100F3F0H   BLOCK     CODE     ---       LVL=0
      0100F3F0H   LINE      CODE     ---       #297
      0100F3F0H   LINE      CODE     ---       #298
      0100F3F0H   LINE      CODE     ---       #299
      0100F3F9H   LINE      CODE     ---       #300
      ---         BLOCKEND  ---      ---       LVL=0

      0100F324H   BLOCK     CODE     ---       LVL=0
      00000007H   SYMBOL    DATA     BYTE      modeBitMask
      0100F324H   LINE      CODE     ---       #332
      0100F324H   LINE      CODE     ---       #333
      0100F324H   LINE      CODE     ---       #334
      0100F330H   LINE      CODE     ---       #335
      ---         BLOCKEND  ---      ---       LVL=0
      00000007H   SYMBOL    DATA     BYTE      modeBitMask
      00000007H   SYMBOL    DATA     BYTE      oldSrc

      0100F432H   BLOCK     CODE     ---       LVL=0
      0100F432H   LINE      CODE     ---       #464
      0100F432H   LINE      CODE     ---       #465
      0100F432H   LINE      CODE     ---       #466
      0100F439H   LINE      CODE     ---       #467
      ---         BLOCKEND  ---      ---       LVL=0
      00000007H   SYMBOL    DATA     BYTE      clkPhase

      ---         MODULE    ---      ---       CYPM
      000000CAH   SFRSYM    DATA     BYTE      SFRPRT5SEL
      000000DAH   SFRSYM    DATA     BYTE      SFRPRT6SEL
      000000D0H.6 SFRSYM    DATA     BIT       AC
      000000A8H.7 SFRSYM    DATA     BIT       EA
      000000A8H   SFRSYM    DATA     BYTE      IE
      00000085H   SFRSYM    DATA     BYTE      DPH1
      00000084H   SFRSYM    DATA     BYTE      DPL1
      000000D0H.7 SFRSYM    DATA     BIT       CY
      000000A0H   SFRSYM    DATA     BYTE      P2AX
      00000095H   SFRSYM    DATA     BYTE      DPX1
      00000081H   SFRSYM    DATA     BYTE      SP
      000000D0H.2 SFRSYM    DATA     BIT       OV
      00000080H   SFRSYM    DATA     BYTE      SFRPRT0DR
      00000090H   SFRSYM    DATA     BYTE      SFRPRT1DR
      000000F2H   SFRSYM    DATA     BYTE      SFRPRT12SEL
      00000098H   SFRSYM    DATA     BYTE      SFRPRT2DR
      000000B0H   SFRSYM    DATA     BYTE      SFRPRT3DR
      000000C0H   SFRSYM    DATA     BYTE      SFRPRT4DR
      000000FAH   SFRSYM    DATA     BYTE      SFRPRT15SEL
      000000C8H   SFRSYM    DATA     BYTE      SFRPRT5DR
      000000D8H   SFRSYM    DATA     BYTE      SFRPRT6DR
      00000089H   SFRSYM    DATA     BYTE      SFRPRT0PS
      00000091H   SFRSYM    DATA     BYTE      SFRPRT1PS
      00000099H   SFRSYM    DATA     BYTE      SFRPRT2PS
      000000B1H   SFRSYM    DATA     BYTE      SFRPRT3PS
LX51 LINKER/LOCATER V4.64.0.0                                                         04/13/2018  12:12:27  PAGE 153


      000000C1H   SFRSYM    DATA     BYTE      SFRPRT4PS
      000000C9H   SFRSYM    DATA     BYTE      SFRPRT5PS
      000000D9H   SFRSYM    DATA     BYTE      SFRPRT6PS
      000000EAH   SFRSYM    DATA     BYTE      MXAX
      000000F0H   SFRSYM    DATA     BYTE      B
      000000E0H   SFRSYM    DATA     BYTE      ACC
      000000D0H   SFRSYM    DATA     BIT       P
      000000D0H.3 SFRSYM    DATA     BIT       RS0
      000000D0H.4 SFRSYM    DATA     BIT       RS1
      00000083H   SFRSYM    DATA     BYTE      DPH
      000000E8H   SFRSYM    DATA     BYTE      SFRPRT12DR
      00000082H   SFRSYM    DATA     BYTE      DPL
      000000F8H   SFRSYM    DATA     BYTE      SFRPRT15DR
      00000086H   SFRSYM    DATA     BYTE      DPS
      000000E9H   SFRSYM    DATA     BYTE      SFRPRT12PS
      00000093H   SFRSYM    DATA     BYTE      DPX
      000000F9H   SFRSYM    DATA     BYTE      SFRPRT15PS
      000000D0H.5 SFRSYM    DATA     BIT       F0
      000000D0H.1 SFRSYM    DATA     BIT       F1
      0000008AH   SFRSYM    DATA     BYTE      SFRPRT0SEL
      000000D0H   SFRSYM    DATA     BYTE      PSW
      000000A2H   SFRSYM    DATA     BYTE      SFRPRT1SEL
      0000009AH   SFRSYM    DATA     BYTE      SFRPRT2SEL
      000000B2H   SFRSYM    DATA     BYTE      SFRPRT3SEL
      000000C2H   SFRSYM    DATA     BYTE      SFRPRT4SEL
      0200136BH   SYMBOL    XDATA    ---       cyPmClockBackup
      0200137BH   SYMBOL    XDATA    ---       cyPmBackup
      00000006H   SYMBOL    DATA     WORD      clkBusDivTmp
      0200136AH   SYMBOL    XDATA    BYTE      interruptStatus
      00000005H   SYMBOL    DATA     BYTE      interruptState

      ---         MODULE    ---      ---       CYSPC
      0200140FH   PUBLIC    XDATA    BYTE      SpcLockState
      0100F000H   PUBLIC    CODE     ---       CySpcGetAlgorithm
      0100F349H   PUBLIC    CODE     ---       CySpcUnlock
      0100EFA7H   PUBLIC    CODE     ---       CySpcLock
      0100ED9CH   PUBLIC    CODE     ---       _CySpcGetTemp
      02000048H   PUBLIC    XDATA    BYTE      ?_CySpcWriteRow?BYTE
      0100E5D6H   PUBLIC    CODE     ---       _CySpcWriteRow
      02000048H   PUBLIC    XDATA    BYTE      ?_CySpcLoadRow?BYTE
      0100E19EH   PUBLIC    CODE     ---       _CySpcLoadRow
      0100E419H   PUBLIC    CODE     ---       _CySpcReadData
      0100F0ECH   PUBLIC    CODE     ---       CySpcStart
      000000CAH   SFRSYM    DATA     BYTE      SFRPRT5SEL
      000000DAH   SFRSYM    DATA     BYTE      SFRPRT6SEL
      000000D0H.6 SFRSYM    DATA     BIT       AC
      000000A8H.7 SFRSYM    DATA     BIT       EA
      000000A8H   SFRSYM    DATA     BYTE      IE
      00000085H   SFRSYM    DATA     BYTE      DPH1
      00000084H   SFRSYM    DATA     BYTE      DPL1
      000000D0H.7 SFRSYM    DATA     BIT       CY
      000000A0H   SFRSYM    DATA     BYTE      P2AX
      00000095H   SFRSYM    DATA     BYTE      DPX1
      00000081H   SFRSYM    DATA     BYTE      SP
      000000D0H.2 SFRSYM    DATA     BIT       OV
      00000080H   SFRSYM    DATA     BYTE      SFRPRT0DR
      00000090H   SFRSYM    DATA     BYTE      SFRPRT1DR
      000000F2H   SFRSYM    DATA     BYTE      SFRPRT12SEL
      00000098H   SFRSYM    DATA     BYTE      SFRPRT2DR
      000000B0H   SFRSYM    DATA     BYTE      SFRPRT3DR
      000000C0H   SFRSYM    DATA     BYTE      SFRPRT4DR
      000000FAH   SFRSYM    DATA     BYTE      SFRPRT15SEL
      000000C8H   SFRSYM    DATA     BYTE      SFRPRT5DR
      000000D8H   SFRSYM    DATA     BYTE      SFRPRT6DR
      00000089H   SFRSYM    DATA     BYTE      SFRPRT0PS
LX51 LINKER/LOCATER V4.64.0.0                                                         04/13/2018  12:12:27  PAGE 154


      00000091H   SFRSYM    DATA     BYTE      SFRPRT1PS
      00000099H   SFRSYM    DATA     BYTE      SFRPRT2PS
      000000B1H   SFRSYM    DATA     BYTE      SFRPRT3PS
      000000C1H   SFRSYM    DATA     BYTE      SFRPRT4PS
      000000C9H   SFRSYM    DATA     BYTE      SFRPRT5PS
      000000D9H   SFRSYM    DATA     BYTE      SFRPRT6PS
      000000EAH   SFRSYM    DATA     BYTE      MXAX
      000000F0H   SFRSYM    DATA     BYTE      B
      000000E0H   SFRSYM    DATA     BYTE      ACC
      000000D0H   SFRSYM    DATA     BIT       P
      000000D0H.3 SFRSYM    DATA     BIT       RS0
      000000D0H.4 SFRSYM    DATA     BIT       RS1
      00000083H   SFRSYM    DATA     BYTE      DPH
      000000E8H   SFRSYM    DATA     BYTE      SFRPRT12DR
      00000082H   SFRSYM    DATA     BYTE      DPL
      000000F8H   SFRSYM    DATA     BYTE      SFRPRT15DR
      00000086H   SFRSYM    DATA     BYTE      DPS
      000000E9H   SFRSYM    DATA     BYTE      SFRPRT12PS
      00000093H   SFRSYM    DATA     BYTE      DPX
      000000F9H   SFRSYM    DATA     BYTE      SFRPRT15PS
      000000D0H.5 SFRSYM    DATA     BIT       F0
      000000D0H.1 SFRSYM    DATA     BIT       F1
      0000008AH   SFRSYM    DATA     BYTE      SFRPRT0SEL
      000000D0H   SFRSYM    DATA     BYTE      PSW
      000000A2H   SFRSYM    DATA     BYTE      SFRPRT1SEL
      0000009AH   SFRSYM    DATA     BYTE      SFRPRT2SEL
      000000B2H   SFRSYM    DATA     BYTE      SFRPRT3SEL
      000000C2H   SFRSYM    DATA     BYTE      SFRPRT4SEL

      0100F0ECH   BLOCK     CODE     ---       LVL=0
      0100F0ECH   BLOCK     CODE     NEAR LAB  LVL=1
      00000007H   SYMBOL    DATA     BYTE      interruptState
      ---         BLOCKEND  ---      ---       LVL=1
      0100F0ECH   LINE      CODE     ---       #71
      0100F0ECH   LINE      CODE     ---       #72
      0100F0ECH   LINE      CODE     ---       #74
      0100F0EFH   LINE      CODE     ---       #76
      0100F0F6H   LINE      CODE     ---       #77
      0100F0FDH   LINE      CODE     ---       #80
      0100F100H   LINE      CODE     ---       #81
      ---         BLOCKEND  ---      ---       LVL=0
      00000007H   SYMBOL    DATA     BYTE      interruptState

      0100E419H   BLOCK     CODE     ---       LVL=0
      02000045H   SYMBOL    XDATA    ---       buffer
      02000048H   SYMBOL    XDATA    BYTE      size
      0100E427H   BLOCK     CODE     NEAR LAB  LVL=1
      02000049H   SYMBOL    XDATA    BYTE      i
      ---         BLOCKEND  ---      ---       LVL=1
      0100E419H   LINE      CODE     ---       #119
      0100E427H   LINE      CODE     ---       #120
      0100E427H   LINE      CODE     ---       #123
      0100E435H   LINE      CODE     ---       #124
      0100E435H   LINE      CODE     ---       #125
      0100E443H   LINE      CODE     ---       #126
      0100E443H   LINE      CODE     ---       #127
      0100E44AH   LINE      CODE     ---       #128
      0100E44CH   LINE      CODE     ---       #129
      0100E46BH   LINE      CODE     ---       #130
      0100E473H   LINE      CODE     ---       #132
      0100E478H   LINE      CODE     ---       #133
      ---         BLOCKEND  ---      ---       LVL=0
      00000005H   SYMBOL    DATA     BYTE      status
      00000007H   SYMBOL    DATA     BYTE      i

LX51 LINKER/LOCATER V4.64.0.0                                                         04/13/2018  12:12:27  PAGE 155


      0100E19EH   BLOCK     CODE     ---       LVL=0
      00000007H   SYMBOL    DATA     BYTE      array
      02000049H   SYMBOL    XDATA    ---       buffer
      0200004CH   SYMBOL    XDATA    WORD      size
      0100E1A9H   BLOCK     CODE     NEAR LAB  LVL=1
      0200004EH   SYMBOL    XDATA    BYTE      status
      00000006H   SYMBOL    DATA     WORD      i
      ---         BLOCKEND  ---      ---       LVL=1
      0100E19EH   LINE      CODE     ---       #238
      0100E1A9H   LINE      CODE     ---       #239
      0100E1A9H   LINE      CODE     ---       #240
      0100E1AFH   LINE      CODE     ---       #244
      0100E1B7H   LINE      CODE     ---       #245
      0100E1B7H   LINE      CODE     ---       #246
      0100E1BDH   LINE      CODE     ---       #247
      0100E1C0H   LINE      CODE     ---       #248
      0100E1C3H   LINE      CODE     ---       #251
      0100E1CBH   LINE      CODE     ---       #252
      0100E1CBH   LINE      CODE     ---       #253
      0100E1D0H   LINE      CODE     ---       #255
      0100E1E0H   LINE      CODE     ---       #256
      0100E1E0H   LINE      CODE     ---       #257
      0100E1F6H   LINE      CODE     ---       #258
      0100E1FDH   LINE      CODE     ---       #259
      0100E1FDH   LINE      CODE     ---       #261
      0100E1FDH   LINE      CODE     ---       #262
      0100E203H   LINE      CODE     ---       #263
      0100E203H   LINE      CODE     ---       #264
      0100E205H   LINE      CODE     ---       #266
      0100E205H   LINE      CODE     ---       #267
      0100E20BH   LINE      CODE     ---       #268
      0100E20BH   LINE      CODE     ---       #270
      0100E210H   LINE      CODE     ---       #271
      ---         BLOCKEND  ---      ---       LVL=0

      0100E5D6H   BLOCK     CODE     ---       LVL=0
      00000004H   SYMBOL    DATA     BYTE      array
      02000049H   SYMBOL    XDATA    WORD      address
      00000003H   SYMBOL    DATA     BYTE      tempPolarity
      0200004CH   SYMBOL    XDATA    BYTE      tempMagnitude
      0100E5E0H   BLOCK     CODE     NEAR LAB  LVL=1
      00000005H   SYMBOL    DATA     BYTE      status
      ---         BLOCKEND  ---      ---       LVL=1
      0100E5D6H   LINE      CODE     ---       #440
      0100E5E0H   LINE      CODE     ---       #442
      0100E5E0H   LINE      CODE     ---       #443
      0100E5E2H   LINE      CODE     ---       #446
      0100E5EAH   LINE      CODE     ---       #447
      0100E5EAH   LINE      CODE     ---       #448
      0100E5F0H   LINE      CODE     ---       #449
      0100E5F3H   LINE      CODE     ---       #450
      0100E5F6H   LINE      CODE     ---       #453
      0100E5FEH   LINE      CODE     ---       #454
      0100E5FEH   LINE      CODE     ---       #455
      0100E603H   LINE      CODE     ---       #456
      0100E60BH   LINE      CODE     ---       #457
      0100E615H   LINE      CODE     ---       #458
      0100E617H   LINE      CODE     ---       #459
      0100E61FH   LINE      CODE     ---       #460
      0100E621H   LINE      CODE     ---       #462
      0100E621H   LINE      CODE     ---       #463
      0100E623H   LINE      CODE     ---       #464
      0100E623H   LINE      CODE     ---       #465
      0100E625H   LINE      CODE     ---       #467
      0100E625H   LINE      CODE     ---       #468
LX51 LINKER/LOCATER V4.64.0.0                                                         04/13/2018  12:12:27  PAGE 156


      0100E627H   LINE      CODE     ---       #469
      0100E627H   LINE      CODE     ---       #471
      0100E629H   LINE      CODE     ---       #472
      ---         BLOCKEND  ---      ---       LVL=0
      00000007H   SYMBOL    DATA     BYTE      array
      00000005H   SYMBOL    DATA     BYTE      sectorNumber
      00000006H   SYMBOL    DATA     BYTE      status

      0100ED9CH   BLOCK     CODE     ---       LVL=0
      00000007H   SYMBOL    DATA     BYTE      numSamples
      0100ED9CH   BLOCK     CODE     NEAR LAB  LVL=1
      00000006H   SYMBOL    DATA     BYTE      status
      ---         BLOCKEND  ---      ---       LVL=1
      0100ED9CH   LINE      CODE     ---       #545
      0100ED9CH   LINE      CODE     ---       #546
      0100ED9CH   LINE      CODE     ---       #547
      0100ED9EH   LINE      CODE     ---       #550
      0100EDA6H   LINE      CODE     ---       #551
      0100EDA6H   LINE      CODE     ---       #552
      0100EDACH   LINE      CODE     ---       #553
      0100EDAFH   LINE      CODE     ---       #554
      0100EDB2H   LINE      CODE     ---       #557
      0100EDBAH   LINE      CODE     ---       #558
      0100EDBAH   LINE      CODE     ---       #559
      0100EDBFH   LINE      CODE     ---       #560
      0100EDC1H   LINE      CODE     ---       #562
      0100EDC1H   LINE      CODE     ---       #563
      0100EDC3H   LINE      CODE     ---       #564
      0100EDC3H   LINE      CODE     ---       #565
      0100EDC5H   LINE      CODE     ---       #567
      0100EDC5H   LINE      CODE     ---       #568
      0100EDC7H   LINE      CODE     ---       #569
      0100EDC7H   LINE      CODE     ---       #571
      0100EDC9H   LINE      CODE     ---       #572
      ---         BLOCKEND  ---      ---       LVL=0

      0100EFA7H   BLOCK     CODE     ---       LVL=0
      0100EFA7H   BLOCK     CODE     NEAR LAB  LVL=1
      02000048H   SYMBOL    XDATA    BYTE      status
      00000007H   SYMBOL    DATA     BYTE      interruptState
      ---         BLOCKEND  ---      ---       LVL=1
      0100EFA7H   LINE      CODE     ---       #586
      0100EFA7H   LINE      CODE     ---       #587
      0100EFA7H   LINE      CODE     ---       #588
      0100EFADH   LINE      CODE     ---       #592
      0100EFB0H   LINE      CODE     ---       #594
      0100EFB6H   LINE      CODE     ---       #595
      0100EFB6H   LINE      CODE     ---       #596
      0100EFB8H   LINE      CODE     ---       #597
      0100EFBDH   LINE      CODE     ---       #615
      0100EFBDH   LINE      CODE     ---       #618
      0100EFC0H   LINE      CODE     ---       #620
      0100EFC5H   LINE      CODE     ---       #621
      ---         BLOCKEND  ---      ---       LVL=0

      0100F349H   BLOCK     CODE     ---       LVL=0
      0100F349H   BLOCK     CODE     NEAR LAB  LVL=1
      00000007H   SYMBOL    DATA     BYTE      interruptState
      ---         BLOCKEND  ---      ---       LVL=1
      0100F349H   LINE      CODE     ---       #631
      0100F349H   LINE      CODE     ---       #632
      0100F349H   LINE      CODE     ---       #636
      0100F34CH   LINE      CODE     ---       #639
      0100F351H   LINE      CODE     ---       #659
      0100F354H   LINE      CODE     ---       #660
LX51 LINKER/LOCATER V4.64.0.0                                                         04/13/2018  12:12:27  PAGE 157


      ---         BLOCKEND  ---      ---       LVL=0

      0100F000H   BLOCK     CODE     ---       LVL=0
      0100F000H   BLOCK     CODE     NEAR LAB  LVL=1
      00000007H   SYMBOL    DATA     BYTE      status
      ---         BLOCKEND  ---      ---       LVL=1
      0100F000H   LINE      CODE     ---       #673
      0100F000H   LINE      CODE     ---       #674
      0100F000H   LINE      CODE     ---       #675
      0100F002H   LINE      CODE     ---       #678
      0100F00AH   LINE      CODE     ---       #679
      0100F00AH   LINE      CODE     ---       #680
      0100F010H   LINE      CODE     ---       #681
      0100F013H   LINE      CODE     ---       #682
      0100F016H   LINE      CODE     ---       #683
      0100F018H   LINE      CODE     ---       #685
      0100F018H   LINE      CODE     ---       #686
      0100F01AH   LINE      CODE     ---       #687
      0100F01AH   LINE      CODE     ---       #689
      0100F01AH   LINE      CODE     ---       #690
      ---         BLOCKEND  ---      ---       LVL=0

      ---         MODULE    ---      ---       ?C?FPADD
      01008C30H   PUBLIC    CODE     ---       ?C?FPADD
      01008C2CH   PUBLIC    CODE     ---       ?C?FPSUB

      ---         MODULE    ---      ---       ?C?FPMUL
      01008D21H   PUBLIC    CODE     ---       ?C?FPMUL

      ---         MODULE    ---      ---       ?C?FPDIV
      01008E2AH   PUBLIC    CODE     ---       ?C?FPDIV

      ---         MODULE    ---      ---       ?C?FPCMP
      01008EC9H   PUBLIC    CODE     ---       ?C?FPCMP
      01008EC7H   PUBLIC    CODE     ---       ?C?FPCMP3

      ---         MODULE    ---      ---       ?C?FCAST
      01008F4AH   PUBLIC    CODE     ---       ?C?FCASTC
      01008F45H   PUBLIC    CODE     ---       ?C?FCASTI
      01008F40H   PUBLIC    CODE     ---       ?C?FCASTL

      ---         MODULE    ---      ---       ?C?CASTF
      01008F7EH   PUBLIC    CODE     ---       ?C?CASTF

      ---         MODULE    ---      ---       PRINTF
      0200073BH   PUBLIC    XDATA    ---       ?_PRINTF?BYTE
      0200073BH   PUBLIC    XDATA    ---       ?_SPRINTF?BYTE
      0100AF37H   PUBLIC    CODE     ---       _PRINTF
      0100AF31H   PUBLIC    CODE     ---       _SPRINTF

      ---         MODULE    ---      ---       ?C?FPGETOPN
      01008FB5H   PUBLIC    CODE     ---       ?C?FPGETOPN2
      01008FEAH   PUBLIC    CODE     ---       ?C?FPNANRESULT
      01008FF4H   PUBLIC    CODE     ---       ?C?FPOVERFLOW
      01008FCCH   PUBLIC    CODE     ---       ?C?FPRESULT
      01008FE0H   PUBLIC    CODE     ---       ?C?FPRESULT2
      01008FF1H   PUBLIC    CODE     ---       ?C?FPUNDERFLOW

      ---         MODULE    ---      ---       ?C?FPROUND
      01008FFFH   PUBLIC    CODE     ---       ?C?FPROUND

      ---         MODULE    ---      ---       ?C?FPCONVERT
      0100903CH   PUBLIC    CODE     ---       ?C?FPCONVERT

      ---         MODULE    ---      ---       ?C?FTNPWR
LX51 LINKER/LOCATER V4.64.0.0                                                         04/13/2018  12:12:27  PAGE 158


      01009171H   PUBLIC    CODE     ---       ?C?FTNPWR

      ---         MODULE    ---      ---       ?C_INIT
      0100C9E3H   PUBLIC    CODE     ---       ?C_START

      ---         MODULE    ---      ---       ?C?CLDPTR
      010091B1H   PUBLIC    CODE     ---       ?C?CLDPTR

      ---         MODULE    ---      ---       ?C?CLDOPTR
      010091CAH   PUBLIC    CODE     ---       ?C?CLDOPTR

      ---         MODULE    ---      ---       ?C?CSTPTR
      010091F7H   PUBLIC    CODE     ---       ?C?CSTPTR

      ---         MODULE    ---      ---       ?C?IMUL
      01009209H   PUBLIC    CODE     ---       ?C?IMUL

      ---         MODULE    ---      ---       ?C?ISTPTR
      0100921BH   PUBLIC    CODE     ---       ?C?ISTPTR

      ---         MODULE    ---      ---       ?C?LMUL
      0100923AH   PUBLIC    CODE     ---       ?C?LMUL

      ---         MODULE    ---      ---       ?C?ULDIV
      010092C5H   PUBLIC    CODE     ---       ?C?ULDIV

      ---         MODULE    ---      ---       ?C?SLDIV
      0100E83CH   PUBLIC    CODE     ---       ?C?SLDIV

      ---         MODULE    ---      ---       ?C?LNOT
      01009357H   PUBLIC    CODE     ---       ?C?LNOT

      ---         MODULE    ---      ---       ?C?LNEG
      01009364H   PUBLIC    CODE     ---       ?C?LNEG

      ---         MODULE    ---      ---       ?C?SLCMP
      01009372H   PUBLIC    CODE     ---       ?C?SLCMP

      ---         MODULE    ---      ---       ?C?ULCMP
      01009388H   PUBLIC    CODE     ---       ?C?ULCMP

      ---         MODULE    ---      ---       ?C?ULSHR
      01009399H   PUBLIC    CODE     ---       ?C?ULSHR

      ---         MODULE    ---      ---       ?C?SLSHR
      010093ACH   PUBLIC    CODE     ---       ?C?SLSHR

      ---         MODULE    ---      ---       ?C?LSHL
      010093C0H   PUBLIC    CODE     ---       ?C?LSHL

      ---         MODULE    ---      ---       ?C?LLDPTR
      010093D3H   PUBLIC    CODE     ---       ?C?LLDPTR

      ---         MODULE    ---      ---       ?C?LSTPTR
      010093F3H   PUBLIC    CODE     ---       ?C?LSTPTR

      ---         MODULE    ---      ---       ?C?LSTXDATA
      0100940DH   PUBLIC    CODE     ---       ?C?LSTXDATA

      ---         MODULE    ---      ---       ?C?PLDIXDATA
      01009419H   PUBLIC    CODE     ---       ?C?PLDIXDATA

      ---         MODULE    ---      ---       ?C?PSTXDATA
      01009430H   PUBLIC    CODE     ---       ?C?PSTXDATA

LX51 LINKER/LOCATER V4.64.0.0                                                         04/13/2018  12:12:27  PAGE 159


      ---         MODULE    ---      ---       ?C?CCASE
      01009439H   PUBLIC    CODE     ---       ?C?CCASE

      ---         MODULE    ---      ---       ?C_XBP
      00000073H   PUBLIC    DATA     ---       ?C_XBP

      ---         MODULE    ---      ---       ?C?ADDXBP
      0100945FH   PUBLIC    CODE     ---       ?C?ADDXBP

      ---         MODULE    ---      ---       ?C?LIMUL
      01009483H   PUBLIC    CODE     ---       ?C?LIMUL

      ---         MODULE    ---      ---       PUTCHAR
      0100EE50H   PUBLIC    CODE     ---       _PUTCHAR

      ---         MODULE    ---      ---       ABS
      0100F355H   PUBLIC    CODE     ---       _ABS

      ---         MODULE    ---      ---       STRCAT
      02000EDBH   PUBLIC    XDATA    ---       ?_STRCAT?BYTE
      0100E2E8H   PUBLIC    CODE     ---       _STRCAT

      ---         MODULE    ---      ---       STRLEN
      0100F101H   PUBLIC    CODE     ---       _STRLEN

      ---         MODULE    ---      ---       ?C?COPYAMD
      0100956CH   PUBLIC    CODE     ---       ?C?COPYAMD

      ---         MODULE    ---      ---       ?C?STRCPYAMD
      0100964AH   PUBLIC    CODE     ---       ?C?STRCPYAMD

      ---         MODULE    ---      ---       ?C?IILDX
      01009667H   PUBLIC    CODE     ---       ?C?IILDX

      ---         MODULE    ---      ---       ?C?ILDIX
      0100967DH   PUBLIC    CODE     ---       ?C?ILDIX

      ---         MODULE    ---      ---       ?C?LLDIDATA
      01009693H   PUBLIC    CODE     ---       ?C?LLDIDATA

      ---         MODULE    ---      ---       ?C?LLDXDATA
      0100969FH   PUBLIC    CODE     ---       ?C?LLDXDATA

      ---         MODULE    ---      ---       ?C?LLDPDATA
      010096ABH   PUBLIC    CODE     ---       ?C?LLDPDATA

      ---         MODULE    ---      ---       ?C?LLDCODE
      010096B7H   PUBLIC    CODE     ---       ?C?LLDCODE

      ---         MODULE    ---      ---       ?C?LSTIDATA
      010096C7H   PUBLIC    CODE     ---       ?C?LSTIDATA

      ---         MODULE    ---      ---       ?C?LSTPDATA
      010096D3H   PUBLIC    CODE     ---       ?C?LSTPDATA



INTER-MODULE CROSS-REFERENCE LISTING


NAME . . . . . . . . . . . . . . . . . . CLASS    MODULE NAMES
==============================================================

?_Bootloadable_SetFlashByte?BYTE . . . . XDATA    BOOTLOADABLE  
?_calc_turns_fcn?BYTE. . . . . . . . . . XDATA    UTILS  INTERRUPTIONS  
LX51 LINKER/LOCATER V4.64.0.0                                                         04/13/2018  12:12:27  PAGE 160


?_commWrite_old_id?BYTE. . . . . . . . . XDATA    COMMAND_PROCESSING  
?_commWriteID?BYTE . . . . . . . . . . . XDATA    COMMAND_PROCESSING  
?_cyconfigcpy?BYTE . . . . . . . . . . . XDATA    CYMEM  CYFITTER_CFG  
?_CyDmaChSetConfiguration?BYTE . . . . . XDATA    CYDMAC  DMA_DMA  
?_CyDmaChStatus?BYTE . . . . . . . . . . XDATA    CYDMAC  
?_CyDmaTdGetAddress?BYTE . . . . . . . . XDATA    CYDMAC  
?_CyDmaTdGetConfiguration?BYTE . . . . . XDATA    CYDMAC  
?_CyDmaTdSetConfiguration?BYTE . . . . . XDATA    CYDMAC  MAIN  
?_CySpcLoadMultiByte?BYTE. . . . . . . . XDATA    CYSPC  EEPROM  
?_CySpcLoadRow?BYTE. . . . . . . . . . . XDATA    CYSPC  EEPROM  
?_CySpcLoadRowFull?BYTE. . . . . . . . . XDATA    CYSPC  CYFLASH  
?_CySpcWriteRow?BYTE . . . . . . . . . . XDATA    CYSPC  CYFLASH  EEPROM  
?_CyWriteRowFull?BYTE. . . . . . . . . . XDATA    CYFLASH  
?_DMA_DmaInitialize?BYTE . . . . . . . . XDATA    DMA_DMA  MAIN  
?_my_mod?BYTE. . . . . . . . . . . . . . XDATA    UTILS  
?_PRINTF?BYTE. . . . . . . . . . . . . . XDATA    PRINTF  
?_SPRINTF?BYTE . . . . . . . . . . . . . XDATA    PRINTF  COMMAND_PROCESSING  
?_strcat?BYTE. . . . . . . . . . . . . . XDATA    STRCAT  COMMAND_PROCESSING  
?C?ADDXBP. . . . . . . . . . . . . . . . CODE     ?C?ADDXBP  CYLIB  
?C?CASTF . . . . . . . . . . . . . . . . CODE     ?C?CASTF  ADC  COMMAND_PROCESSING  INTERRUPTIONS  UTILS  
?C?CCASE . . . . . . . . . . . . . . . . CODE     ?C?CCASE  COMMAND_PROCESSING  PRINTF  
?C?CLDOPTR . . . . . . . . . . . . . . . CODE     ?C?CLDOPTR  PRINTF  
?C?CLDPTR. . . . . . . . . . . . . . . . CODE     ?C?CLDPTR  COMMAND_PROCESSING  CYSPC  PRINTF  STRCAT  STRLEN  UART_RS4
                                                  85  UTILS  
?C?CODESEG . . . . . . . . . . . . . . . NUMBER   ** LX51 GENERATED **  
?C?COPYAMD . . . . . . . . . . . . . . . CODE     ?C?COPYAMD  COMMAND_PROCESSING  INTERRUPTIONS  MAIN  
?C?CSTPTR. . . . . . . . . . . . . . . . CODE     ?C?CSTPTR  CYDMAC  CYSPC  PRINTF  STRCAT  
?C?FCASTC. . . . . . . . . . . . . . . . CODE     ?C?FCAST  
?C?FCASTI. . . . . . . . . . . . . . . . CODE     ?C?FCAST  ADC  COMMAND_PROCESSING  INTERRUPTIONS  
?C?FCASTL. . . . . . . . . . . . . . . . CODE     ?C?FCAST  ADC  COMMAND_PROCESSING  INTERRUPTIONS  UTILS  
?C?FPADD . . . . . . . . . . . . . . . . CODE     ?C?FPADD  ?C?FPCONVERT  INTERRUPTIONS  UTILS  
?C?FPCMP . . . . . . . . . . . . . . . . CODE     ?C?FPCMP  
?C?FPCMP3. . . . . . . . . . . . . . . . CODE     ?C?FPCMP  ADC  INTERRUPTIONS  UTILS  
?C?FPCONVERT . . . . . . . . . . . . . . CODE     ?C?FPCONVERT  PRINTF  
?C?FPDIV . . . . . . . . . . . . . . . . CODE     ?C?FPDIV  ?C?FPCONVERT  ADC  COMMAND_PROCESSING  INTERRUPTIONS  UTILS 
                                                   
?C?FPGETOPN2 . . . . . . . . . . . . . . CODE     ?C?FPGETOPN  ?C?FPADD  ?C?FPDIV  ?C?FPMUL  
?C?FPMUL . . . . . . . . . . . . . . . . CODE     ?C?FPMUL  ?C?FPCONVERT  ?C?FTNPWR  ADC  COMMAND_PROCESSING  INTERRUPTI
                                                  ONS  UTILS  
?C?FPNANRESULT . . . . . . . . . . . . . CODE     ?C?FPGETOPN  ?C?FPADD  ?C?FPDIV  ?C?FPMUL  
?C?FPOVERFLOW. . . . . . . . . . . . . . CODE     ?C?FPGETOPN  ?C?FPADD  ?C?FPDIV  ?C?FPMUL  
?C?FPRESULT. . . . . . . . . . . . . . . CODE     ?C?FPGETOPN  ?C?FPADD  ?C?FPDIV  ?C?FPMUL  
?C?FPRESULT2 . . . . . . . . . . . . . . CODE     ?C?FPGETOPN  ?C?FPDIV  ?C?FPMUL  
?C?FPROUND . . . . . . . . . . . . . . . CODE     ?C?FPROUND  PRINTF  
?C?FPSUB . . . . . . . . . . . . . . . . CODE     ?C?FPADD  
?C?FPUNDERFLOW . . . . . . . . . . . . . CODE     ?C?FPGETOPN  ?C?FPADD  ?C?FPDIV  ?C?FPMUL  
?C?FTNPWR. . . . . . . . . . . . . . . . CODE     ?C?FTNPWR  ?C?FPCONVERT  
?C?IILDX . . . . . . . . . . . . . . . . CODE     ?C?IILDX  STRCAT  
?C?ILDIX . . . . . . . . . . . . . . . . CODE     ?C?ILDIX  STRCAT  
?C?IMUL. . . . . . . . . . . . . . . . . CODE     ?C?IMUL  INTERRUPTIONS  
?C?ISTPTR. . . . . . . . . . . . . . . . CODE     ?C?ISTPTR  CYDMAC  
?C?LIMUL . . . . . . . . . . . . . . . . CODE     ?C?LIMUL  COMMAND_PROCESSING  CYSPC  
?C?LLDCODE . . . . . . . . . . . . . . . CODE     ?C?LLDCODE  ?C?LLDPTR  
?C?LLDIDATA. . . . . . . . . . . . . . . CODE     ?C?LLDIDATA  ?C?LLDPTR  
?C?LLDPDATA. . . . . . . . . . . . . . . CODE     ?C?LLDPDATA  ?C?LLDPTR  
?C?LLDPTR. . . . . . . . . . . . . . . . CODE     ?C?LLDPTR  CYLIB  
?C?LLDXDATA. . . . . . . . . . . . . . . CODE     ?C?LLDXDATA  ?C?LLDPTR  
?C?LMUL. . . . . . . . . . . . . . . . . CODE     ?C?LMUL  ADC  CYLIB  CYPM  INTERRUPTIONS  UTILS  
?C?LNEG. . . . . . . . . . . . . . . . . CODE     ?C?LNEG  ?C?CASTF  ?C?FCAST  COMMAND_PROCESSING  UTILS  
?C?LNOT. . . . . . . . . . . . . . . . . CODE     ?C?LNOT  CYDMAC  
?C?LSHL. . . . . . . . . . . . . . . . . CODE     ?C?LSHL  ADC  COMMAND_PROCESSING  CYDMAC  CYLIB  INTERRUPTIONS  UTILS 
                                                   
?C?LSTIDATA. . . . . . . . . . . . . . . CODE     ?C?LSTIDATA  ?C?LSTPTR  
?C?LSTPDATA. . . . . . . . . . . . . . . CODE     ?C?LSTPDATA  ?C?LSTPTR  
?C?LSTPTR. . . . . . . . . . . . . . . . CODE     ?C?LSTPTR  CYLIB  
LX51 LINKER/LOCATER V4.64.0.0                                                         04/13/2018  12:12:27  PAGE 161


?C?LSTXDATA. . . . . . . . . . . . . . . CODE     ?C?LSTXDATA  ?C?LSTPTR  ADC  BOOTLOADABLE  COMMAND_PROCESSING  CYDMAC 
                                                   CYFITTER_CFG  CYLIB  CYSPC  INTERRUPTIONS  MAIN  SHIFTREG_ENC_1  SHIF
                                                  TREG_ENC_2  SHIFTREG_ENC_3  UTILS  
?C?PLDIXDATA . . . . . . . . . . . . . . CODE     ?C?PLDIXDATA  PRINTF  
?C?PSTXDATA. . . . . . . . . . . . . . . CODE     ?C?PSTXDATA  PRINTF  
?C?SLCMP . . . . . . . . . . . . . . . . CODE     ?C?SLCMP  COMMAND_PROCESSING  INTERRUPTIONS  UTILS  
?C?SLDIV . . . . . . . . . . . . . . . . CODE     ?C?SLDIV  ADC  INTERRUPTIONS  UTILS  
?C?SLSHR . . . . . . . . . . . . . . . . CODE     ?C?SLSHR  COMMAND_PROCESSING  INTERRUPTIONS  UTILS  
?C?STRCPYAMD . . . . . . . . . . . . . . CODE     ?C?STRCPYAMD  COMMAND_PROCESSING  
?C?ULCMP . . . . . . . . . . . . . . . . CODE     ?C?ULCMP  COMMAND_PROCESSING  CYDMAC  CYFLASH  INTERRUPTIONS  UTILS  
?C?ULDIV . . . . . . . . . . . . . . . . CODE     ?C?ULDIV  ?C?SLDIV  ADC  BOOTLOADABLE  CYLIB  CYPM  INTERRUPTIONS  UTI
                                                  LS  
?C?ULSHR . . . . . . . . . . . . . . . . CODE     ?C?ULSHR  COMMAND_PROCESSING  CYLIB  INTERRUPTIONS  
?C?XDATASEG. . . . . . . . . . . . . . . NUMBER   ** LX51 GENERATED **  
?C?XPAGE1RST . . . . . . . . . . . . . . NUMBER   ?C_STARTUP  ADC_INT  CYLIB  INTERRUPTIONS  ISR_RS485_RX  ISR_WATCHDOG 
                                                   UART_RS485_INT  
?C?XPAGE1SFR . . . . . . . . . . . . . . DATA     ?C_STARTUP  ADC_INT  CYLIB  INTERRUPTIONS  ISR_RS485_RX  ISR_WATCHDOG 
                                                   UART_RS485_INT  
?C_START . . . . . . . . . . . . . . . . CODE     ?C_INIT  ?C_STARTUP  
?C_STARTUP . . . . . . . . . . . . . . . CODE     ?C_STARTUP  MAIN  
?C_XBP . . . . . . . . . . . . . . . . . DATA     ?C_XBP  ?C?ADDXBP  ?C_STARTUP  CYLIB  
_?CyDelay. . . . . . . . . . . . . . . . CODE     CYLIB  COMMAND_PROCESSING  CYBOOTASMKEIL  MAIN  
_?CyDelayFreq. . . . . . . . . . . . . . CODE     CYLIB  
_?CyHalt . . . . . . . . . . . . . . . . CODE     CYLIB  
_ABS . . . . . . . . . . . . . . . . . . CODE     ABS  INTERRUPTIONS  
_ADC_AMux_FastSelect . . . . . . . . . . CODE     ADC_AMUX  
_ADC_AMux_Select . . . . . . . . . . . . CODE     ADC_AMUX  ADC  
_ADC_AMux_Set. . . . . . . . . . . . . . CODE     CYFITTER_CFG  ADC_AMUX  
_ADC_AMux_Unset. . . . . . . . . . . . . CODE     CYFITTER_CFG  ADC_AMUX  
_ADC_CountsTo_mVolts . . . . . . . . . . CODE     ADC  
_ADC_CountsTo_uVolts . . . . . . . . . . CODE     ADC  
_ADC_CountsTo_Volts. . . . . . . . . . . CODE     ADC  
_ADC_Ext_CP_Clk_ClearModeRegister. . . . CODE     ADC_EXT_CP_CLK  
_ADC_Ext_CP_Clk_SetDividerRegister . . . CODE     ADC_EXT_CP_CLK  ADC  
_ADC_Ext_CP_Clk_SetModeRegister. . . . . CODE     ADC_EXT_CP_CLK  ADC  
_ADC_Ext_CP_Clk_SetSourceRegister. . . . CODE     ADC_EXT_CP_CLK  
_ADC_Ext_CP_Clk_StandbyPower . . . . . . CODE     ADC_EXT_CP_CLK  
_ADC_IsEndConversion . . . . . . . . . . CODE     ADC  
_ADC_SelectConfiguration . . . . . . . . CODE     ADC  
_ADC_SetBufferGain . . . . . . . . . . . CODE     ADC  
_ADC_SetCoherency. . . . . . . . . . . . CODE     ADC  
_ADC_SetGain . . . . . . . . . . . . . . CODE     ADC  
_ADC_SetGCOR . . . . . . . . . . . . . . CODE     ADC  
_ADC_SetOffset . . . . . . . . . . . . . CODE     ADC  
_ADC_SOC_Write . . . . . . . . . . . . . CODE     ADC_SOC  INTERRUPTIONS  MAIN  
_ADC_STATUS_WriteMask. . . . . . . . . . CODE     ADC_STATUS  
_ADC_theACLK_ClearModeRegister . . . . . CODE     ADC_THEACLK  
_ADC_theACLK_SetDividerRegister. . . . . CODE     ADC_THEACLK  ADC  
_ADC_theACLK_SetModeRegister . . . . . . CODE     ADC_THEACLK  ADC  
_ADC_theACLK_SetPhaseRegister. . . . . . CODE     ADC_THEACLK  
_ADC_theACLK_SetSourceRegister . . . . . CODE     ADC_THEACLK  
_ADC_theACLK_StandbyPower. . . . . . . . CODE     ADC_THEACLK  
_Bootloadable_SetFlashByte . . . . . . . CODE     BOOTLOADABLE  
_calc_turns_fcn. . . . . . . . . . . . . CODE     UTILS  INTERRUPTIONS  
_cfg_write_bytes . . . . . . . . . . . . CODE     CYMEM  
_cfg_write_bytes_code. . . . . . . . . . CODE     CYMEM  
_check_enc_data. . . . . . . . . . . . . CODE     UTILS  INTERRUPTIONS  
_CLOCK_UART_ClearModeRegister. . . . . . CODE     CLOCK_UART  
_CLOCK_UART_SetDividerRegister . . . . . CODE     CLOCK_UART  COMMAND_PROCESSING  
_CLOCK_UART_SetModeRegister. . . . . . . CODE     CLOCK_UART  
_CLOCK_UART_SetSourceRegister. . . . . . CODE     CLOCK_UART  
_CLOCK_UART_StandbyPower . . . . . . . . CODE     CLOCK_UART  
_commWrite . . . . . . . . . . . . . . . CODE     COMMAND_PROCESSING  
_commWrite_old_id. . . . . . . . . . . . CODE     COMMAND_PROCESSING  
_commWriteID . . . . . . . . . . . . . . CODE     COMMAND_PROCESSING  
LX51 LINKER/LOCATER V4.64.0.0                                                         04/13/2018  12:12:27  PAGE 162


_COUNTER_ENC_SetInterruptMode. . . . . . CODE     COUNTER_ENC  
_COUNTER_ENC_WriteCompare. . . . . . . . CODE     COUNTER_ENC  
_COUNTER_ENC_WriteControlRegister. . . . CODE     COUNTER_ENC  
_COUNTER_ENC_WriteCounter. . . . . . . . CODE     COUNTER_ENC  
_COUNTER_ENC_WritePeriod . . . . . . . . CODE     COUNTER_ENC  
_CyBusClk_SetDivider . . . . . . . . . . CODE     CYLIB  CYPM  
_cyconfigcpy . . . . . . . . . . . . . . CODE     CYMEM  CYFITTER_CFG  
_cyconfigcpycode . . . . . . . . . . . . CODE     CYMEM  CYFITTER_CFG  
_CyCpuClk_SetDivider . . . . . . . . . . CODE     CYLIB  
_CyDelay . . . . . . . . . . . . . . . . CODE     CYBOOTASMKEIL  
_CyDelayCycles . . . . . . . . . . . . . CODE     CYBOOTASMKEIL  CYFITTER_CFG  CYLIB  CYPM  
_CyDelayUs . . . . . . . . . . . . . . . CODE     CYBOOTASMKEIL  ADC  CYFLASH  CYLIB  CYPM  CYSPC  
_CyDmacClearError. . . . . . . . . . . . CODE     CYDMAC  
_CyDmaChDisable. . . . . . . . . . . . . CODE     CYDMAC  DMA_DMA  
_CyDmaChEnable . . . . . . . . . . . . . CODE     CYDMAC  MAIN  
_CyDmaChFree . . . . . . . . . . . . . . CODE     CYDMAC  
_CyDmaChGetRequest . . . . . . . . . . . CODE     CYDMAC  
_CyDmaChPriority . . . . . . . . . . . . CODE     CYDMAC  DMA_DMA  
_CyDmaChRoundRobin . . . . . . . . . . . CODE     CYDMAC  
_CyDmaChSetConfiguration . . . . . . . . CODE     CYDMAC  DMA_DMA  
_CyDmaChSetExtendedAddress . . . . . . . CODE     CYDMAC  DMA_DMA  
_CyDmaChSetInitialTd . . . . . . . . . . CODE     CYDMAC  MAIN  
_CyDmaChSetRequest . . . . . . . . . . . CODE     CYDMAC  
_CyDmaChStatus . . . . . . . . . . . . . CODE     CYDMAC  
_CyDmaClearPendingDrq. . . . . . . . . . CODE     CYDMAC  
_CyDmaTdFree . . . . . . . . . . . . . . CODE     CYDMAC  
_CyDmaTdGetAddress . . . . . . . . . . . CODE     CYDMAC  
_CyDmaTdGetConfiguration . . . . . . . . CODE     CYDMAC  
_CyDmaTdSetAddress . . . . . . . . . . . CODE     CYDMAC  MAIN  
_CyDmaTdSetConfiguration . . . . . . . . CODE     CYDMAC  MAIN  
_CyEnableInts. . . . . . . . . . . . . . CODE     CYLIB  
_CyExitCriticalSection . . . . . . . . . CODE     CYBOOTASMKEIL  ADC  ADC_STATUS  COUNTER_ENC  CYDMAC  CYFLASH  CYLIB  C
                                                  YPM  CYSPC  EEPROM  FF_STATUS  MY_TIMER  SHIFTREG_ENC_1  SHIFTREG_ENC_
                                                  2  SHIFTREG_ENC_3  UART_RS485  
_CyFlash_SetWaitCycles . . . . . . . . . CODE     CYFLASH  CYPM  
_CyGetUniqueId . . . . . . . . . . . . . CODE     CYLIB  
_CyILO_SetPowerMode. . . . . . . . . . . CODE     CYLIB  CYPM  
_CyILO_SetSource . . . . . . . . . . . . CODE     CYLIB  
_CyIMO_SetFreq . . . . . . . . . . . . . CODE     CYLIB  CYPM  
_CyIMO_SetSource . . . . . . . . . . . . CODE     CYLIB  CYPM  
_CyIMO_Start . . . . . . . . . . . . . . CODE     CYLIB  CYPM  
_CyIntGetPriority. . . . . . . . . . . . CODE     CYLIB  
_CyIntGetState . . . . . . . . . . . . . CODE     CYLIB  
_CyIntGetVector. . . . . . . . . . . . . CODE     CYLIB  
_CyIntSetPriority. . . . . . . . . . . . CODE     CYLIB  ADC  UART_RS485  
_CyIntSetVector. . . . . . . . . . . . . CODE     CYLIB  ADC  UART_RS485  
_CyMasterClk_SetDivider. . . . . . . . . CODE     CYLIB  CYPM  
_CyMasterClk_SetSource . . . . . . . . . CODE     CYLIB  CYPM  
_cymemzero . . . . . . . . . . . . . . . CODE     CYMEM  
_CyPLL_OUT_SetPQ . . . . . . . . . . . . CODE     CYLIB  
_CyPLL_OUT_SetSource . . . . . . . . . . CODE     CYLIB  
_CyPLL_OUT_Start . . . . . . . . . . . . CODE     CYLIB  CYPM  
_CyPmAltAct. . . . . . . . . . . . . . . CODE     CYPM  
_CyPmCtwSetInterval. . . . . . . . . . . CODE     CYPM  
_CyPmFtwSetInterval. . . . . . . . . . . CODE     CYPM  CYLIB  
_CyPmHibernateEx . . . . . . . . . . . . CODE     CYPM  
_CyPmReadStatus. . . . . . . . . . . . . CODE     CYPM  CYLIB  
_CyPmSleep . . . . . . . . . . . . . . . CODE     CYPM  
_cyread16. . . . . . . . . . . . . . . . CODE     CYMEM  
_cyread16_nodpx. . . . . . . . . . . . . CODE     CYMEM  ADC  ADC_EXT_CP_CLK  ADC_THEACLK  CLOCK_UART  CYDMAC  CYLIB  IS
                                                  R_RS485_RX  ISR_WATCHDOG  PACER_TIMER  WATCHDOG_COUNTER  
_cyread24. . . . . . . . . . . . . . . . CODE     CYMEM  
_cyread24_nodpx. . . . . . . . . . . . . CODE     CYMEM  MY_TIMER  SHIFTREG_ENC_1  SHIFTREG_ENC_2  SHIFTREG_ENC_3  
_cyread32. . . . . . . . . . . . . . . . CODE     CYMEM  
_cyread32_nodpx. . . . . . . . . . . . . CODE     CYMEM  CYDMAC  
LX51 LINKER/LOCATER V4.64.0.0                                                         04/13/2018  12:12:27  PAGE 163


_cyread8 . . . . . . . . . . . . . . . . CODE     CYMEM  ADC  CYFITTER_CFG  CYLIB  CYSPC  
_cyread8_nodpx . . . . . . . . . . . . . CODE     CYMEM  
_CySetFlashEEBuffer. . . . . . . . . . . CODE     CYFLASH  
_CySpcEraseSector. . . . . . . . . . . . CODE     CYSPC  EEPROM  
_CySpcGetTemp. . . . . . . . . . . . . . CODE     CYSPC  CYFLASH  
_CySpcLoadMultiByte. . . . . . . . . . . CODE     CYSPC  EEPROM  
_CySpcLoadRow. . . . . . . . . . . . . . CODE     CYSPC  EEPROM  
_CySpcLoadRowFull. . . . . . . . . . . . CODE     CYSPC  CYFLASH  
_CySpcReadData . . . . . . . . . . . . . CODE     CYSPC  CYFLASH  
_CySpcWriteRow . . . . . . . . . . . . . CODE     CYSPC  CYFLASH  EEPROM  
_CyUsbClk_SetSource. . . . . . . . . . . CODE     CYLIB  
_CyVdLvAnalogEnable. . . . . . . . . . . CODE     CYLIB  CYPM  
_CyVdLvDigitEnable . . . . . . . . . . . CODE     CYLIB  CYPM  
_CyVdStickyStatus. . . . . . . . . . . . CODE     CYLIB  
_CyWdtStart. . . . . . . . . . . . . . . CODE     CYLIB  
_cywrite16 . . . . . . . . . . . . . . . CODE     CYMEM  CYFITTER_CFG  
_cywrite16_nodpx . . . . . . . . . . . . CODE     CYMEM  ADC  ADC_EXT_CP_CLK  ADC_THEACLK  CLOCK_UART  CYDMAC  CYFITTER_
                                                  CFG  CYLIB  ISR_RS485_RX  ISR_WATCHDOG  PACER_TIMER  WATCHDOG_COUNTER 
                                                   
_cywrite24 . . . . . . . . . . . . . . . CODE     CYMEM  
_cywrite24_nodpx . . . . . . . . . . . . CODE     CYMEM  MY_TIMER  SHIFTREG_ENC_1  SHIFTREG_ENC_2  SHIFTREG_ENC_3  
_cywrite32 . . . . . . . . . . . . . . . CODE     CYMEM  
_cywrite32_nodpx . . . . . . . . . . . . CODE     CYMEM  
_cywrite8. . . . . . . . . . . . . . . . CODE     CYMEM  CYFITTER_CFG  
_cywrite8_nodpx. . . . . . . . . . . . . CODE     CYMEM  
_CyWriteRowData. . . . . . . . . . . . . CODE     CYFLASH  BOOTLOADABLE  
_CyWriteRowFull. . . . . . . . . . . . . CODE     CYFLASH  
_CyXTAL_32KHZ_SetPowerMode . . . . . . . CODE     CYLIB  
_CyXTAL_SetFbVoltage . . . . . . . . . . CODE     CYLIB  
_CyXTAL_SetStartup . . . . . . . . . . . CODE     CYLIB  
_CyXTAL_SetWdVoltage . . . . . . . . . . CODE     CYLIB  
_CyXTAL_Start. . . . . . . . . . . . . . CODE     CYLIB  CYPM  
_DMA_DmaInitialize . . . . . . . . . . . CODE     DMA_DMA  MAIN  
_dma_wait. . . . . . . . . . . . . . . . CODE     ?C_STARTUP  
_EEPROM_ByteWritePos . . . . . . . . . . CODE     EEPROM  
_EEPROM_EraseSector. . . . . . . . . . . CODE     EEPROM  
_EEPROM_ReadByte . . . . . . . . . . . . CODE     EEPROM  
_EEPROM_StartErase . . . . . . . . . . . CODE     EEPROM  
_EEPROM_StartWrite . . . . . . . . . . . CODE     EEPROM  
_EEPROM_Write. . . . . . . . . . . . . . CODE     EEPROM  COMMAND_PROCESSING  
_EEPROM_WriteByte. . . . . . . . . . . . CODE     EEPROM  
_encoder_reading . . . . . . . . . . . . CODE     INTERRUPTIONS  
_FF_STATUS_WriteMask . . . . . . . . . . CODE     FF_STATUS  
_filter_acc_1. . . . . . . . . . . . . . CODE     UTILS  INTERRUPTIONS  
_filter_acc_2. . . . . . . . . . . . . . CODE     UTILS  INTERRUPTIONS  
_filter_acc_3. . . . . . . . . . . . . . CODE     UTILS  INTERRUPTIONS  
_filter_ch1. . . . . . . . . . . . . . . CODE     UTILS  INTERRUPTIONS  
_filter_ch2. . . . . . . . . . . . . . . CODE     UTILS  INTERRUPTIONS  
_filter_i1 . . . . . . . . . . . . . . . CODE     UTILS  INTERRUPTIONS  
_filter_v. . . . . . . . . . . . . . . . CODE     UTILS  
_filter_vel_1. . . . . . . . . . . . . . CODE     UTILS  INTERRUPTIONS  
_filter_vel_2. . . . . . . . . . . . . . CODE     UTILS  INTERRUPTIONS  
_filter_vel_3. . . . . . . . . . . . . . CODE     UTILS  INTERRUPTIONS  
_filter_voltage. . . . . . . . . . . . . CODE     UTILS  INTERRUPTIONS  
_FTDI_ENABLE_REG_Write . . . . . . . . . CODE     FTDI_ENABLE_REG  COMMAND_PROCESSING  MAIN  
_get_param_list. . . . . . . . . . . . . CODE     COMMAND_PROCESSING  
_infoGet . . . . . . . . . . . . . . . . CODE     COMMAND_PROCESSING  INTERRUPTIONS  
_infoPrepare . . . . . . . . . . . . . . CODE     COMMAND_PROCESSING  
_ISR_RS485_RX_SetPriority. . . . . . . . CODE     ISR_RS485_RX  
_ISR_RS485_RX_SetVector. . . . . . . . . CODE     ISR_RS485_RX  
_ISR_RS485_RX_StartEx. . . . . . . . . . CODE     ISR_RS485_RX  MAIN  
_ISR_WATCHDOG_SetPriority. . . . . . . . CODE     ISR_WATCHDOG  
_ISR_WATCHDOG_SetVector. . . . . . . . . CODE     ISR_WATCHDOG  
_ISR_WATCHDOG_StartEx. . . . . . . . . . CODE     ISR_WATCHDOG  MAIN  
_LCRChecksum . . . . . . . . . . . . . . CODE     COMMAND_PROCESSING  
LX51 LINKER/LOCATER V4.64.0.0                                                         04/13/2018  12:12:27  PAGE 164


_LED_BLINK_EN_Write. . . . . . . . . . . CODE     LED_BLINK_EN  INTERRUPTIONS  MAIN  
_LED_BLINK_WriteCompare. . . . . . . . . CODE     LED_BLINK  MAIN  
_LED_BLINK_WriteControlRegister. . . . . CODE     LED_BLINK  
_LED_BLINK_WriteCounter. . . . . . . . . CODE     LED_BLINK  
_LED_BLINK_WritePeriod . . . . . . . . . CODE     LED_BLINK  
_LED_CTRL_Write. . . . . . . . . . . . . CODE     LED_CTRL  INTERRUPTIONS  MAIN  
_memStore. . . . . . . . . . . . . . . . CODE     COMMAND_PROCESSING  
_MOTOR_DIR_Write . . . . . . . . . . . . CODE     MOTOR_DIR  INTERRUPTIONS  MAIN  
_MOTOR_ON_OFF_Write. . . . . . . . . . . CODE     MOTOR_ON_OFF  COMMAND_PROCESSING  INTERRUPTIONS  MAIN  
_my_mod. . . . . . . . . . . . . . . . . CODE     UTILS  
_my_round. . . . . . . . . . . . . . . . CODE     UTILS  
_MY_TIMER_SetInterruptMode . . . . . . . CODE     MY_TIMER  
_MY_TIMER_WriteControlRegister . . . . . CODE     MY_TIMER  
_MY_TIMER_WriteCounter . . . . . . . . . CODE     MY_TIMER  INTERRUPTIONS  
_MY_TIMER_WritePeriod. . . . . . . . . . CODE     MY_TIMER  
_PACER_TIMER_SetInterruptMode. . . . . . CODE     PACER_TIMER  
_PACER_TIMER_WriteControlRegister. . . . CODE     PACER_TIMER  
_PACER_TIMER_WriteCounter. . . . . . . . CODE     PACER_TIMER  
_PACER_TIMER_WritePeriod . . . . . . . . CODE     PACER_TIMER  
_PRINTF. . . . . . . . . . . . . . . . . CODE     PRINTF  
_PUTCHAR . . . . . . . . . . . . . . . . CODE     PUTCHAR  PRINTF  
_PWM_MOTORS_WriteCompare1. . . . . . . . CODE     PWM_MOTORS  COMMAND_PROCESSING  INTERRUPTIONS  MAIN  
_PWM_MOTORS_WriteCompare2. . . . . . . . CODE     PWM_MOTORS  COMMAND_PROCESSING  MAIN  
_PWM_MOTORS_WriteControlRegister . . . . CODE     PWM_MOTORS  
_PWM_MOTORS_WriteCounter . . . . . . . . CODE     PWM_MOTORS  
_PWM_MOTORS_WritePeriod. . . . . . . . . CODE     PWM_MOTORS  
_RESET_COUNTERS_Write. . . . . . . . . . CODE     RESET_COUNTERS  MAIN  
_RESET_FF_Write. . . . . . . . . . . . . CODE     RESET_FF  MAIN  
_RS485_CTS_Write . . . . . . . . . . . . CODE     RS485_CTS  COMMAND_PROCESSING  INTERRUPTIONS  MAIN  
_sendAcknowledgment. . . . . . . . . . . CODE     COMMAND_PROCESSING  
_SetAnalogRoutingPumps . . . . . . . . . CODE     CYFITTER_CFG  
_SHIFTREG_ENC_1_GetFIFOStatus. . . . . . CODE     SHIFTREG_ENC_1  
_SHIFTREG_ENC_1_SetIntMode . . . . . . . CODE     SHIFTREG_ENC_1  
_SHIFTREG_ENC_1_WriteRegValue. . . . . . CODE     SHIFTREG_ENC_1  
_SHIFTREG_ENC_2_GetFIFOStatus. . . . . . CODE     SHIFTREG_ENC_2  
_SHIFTREG_ENC_2_SetIntMode . . . . . . . CODE     SHIFTREG_ENC_2  
_SHIFTREG_ENC_2_WriteRegValue. . . . . . CODE     SHIFTREG_ENC_2  
_SHIFTREG_ENC_3_GetFIFOStatus. . . . . . CODE     SHIFTREG_ENC_3  
_SHIFTREG_ENC_3_SetIntMode . . . . . . . CODE     SHIFTREG_ENC_3  
_SHIFTREG_ENC_3_WriteRegValue. . . . . . CODE     SHIFTREG_ENC_3  
_SPRINTF . . . . . . . . . . . . . . . . CODE     PRINTF  COMMAND_PROCESSING  
_strcat. . . . . . . . . . . . . . . . . CODE     STRCAT  COMMAND_PROCESSING  
_STRLEN. . . . . . . . . . . . . . . . . CODE     STRLEN  COMMAND_PROCESSING  
_UART_RS485_PutArray . . . . . . . . . . CODE     UART_RS485  
_UART_RS485_PutChar. . . . . . . . . . . CODE     UART_RS485  COMMAND_PROCESSING  
_UART_RS485_PutCRLF. . . . . . . . . . . CODE     UART_RS485  
_UART_RS485_PutString. . . . . . . . . . CODE     UART_RS485  COMMAND_PROCESSING  
_UART_RS485_SendBreak. . . . . . . . . . CODE     UART_RS485  
_UART_RS485_SetRxAddress1. . . . . . . . CODE     UART_RS485  
_UART_RS485_SetRxAddress2. . . . . . . . CODE     UART_RS485  
_UART_RS485_SetRxAddressMode . . . . . . CODE     UART_RS485  
_UART_RS485_SetRxInterruptMode . . . . . CODE     UART_RS485  
_UART_RS485_SetTxAddressMode . . . . . . CODE     UART_RS485  
_UART_RS485_SetTxInterruptMode . . . . . CODE     UART_RS485  
_UART_RS485_WriteControlRegister . . . . CODE     UART_RS485  
_UART_RS485_WriteTxData. . . . . . . . . CODE     UART_RS485  
_WATCHDOG_COUNTER_SetInterruptMode . . . CODE     WATCHDOG_COUNTER  
_WATCHDOG_COUNTER_WriteControlRegister . CODE     WATCHDOG_COUNTER  
_WATCHDOG_COUNTER_WriteCounter . . . . . CODE     WATCHDOG_COUNTER  
_WATCHDOG_COUNTER_WritePeriod. . . . . . CODE     WATCHDOG_COUNTER  COMMAND_PROCESSING  
_WATCHDOG_ENABLER_Write. . . . . . . . . CODE     WATCHDOG_ENABLER  COMMAND_PROCESSING  
_WATCHDOG_REFRESH_Write. . . . . . . . . CODE     WATCHDOG_REFRESH  MAIN  
AC . . . . . . . . . . . . . . . . . . . DATA     COMMAND_PROCESSING  
ACC. . . . . . . . . . . . . . . . . . . DATA     COMMAND_PROCESSING  
ADC_AMux__addrTable. . . . . . . . . . . CONST    CYFITTER_CFG  
LX51 LINKER/LOCATER V4.64.0.0                                                         04/13/2018  12:12:27  PAGE 165


ADC_AMux__maskTable. . . . . . . . . . . CONST    CYFITTER_CFG  
ADC_AMux_Start . . . . . . . . . . . . . CODE     ADC_AMUX  
ADC_buf. . . . . . . . . . . . . . . . . XDATA    GLOBALS  INTERRUPTIONS  MAIN  
ADC_Config . . . . . . . . . . . . . . . XDATA    ADC  
ADC_convDone . . . . . . . . . . . . . . XDATA    ADC  
ADC_CountsPerVolt. . . . . . . . . . . . XDATA    ADC  
ADC_Enable . . . . . . . . . . . . . . . CODE     ADC  
ADC_Ext_CP_Clk_GetDividerRegister. . . . CODE     ADC_EXT_CP_CLK  
ADC_Ext_CP_Clk_GetModeRegister . . . . . CODE     ADC_EXT_CP_CLK  
ADC_Ext_CP_Clk_GetSourceRegister . . . . CODE     ADC_EXT_CP_CLK  
ADC_Ext_CP_Clk_Start . . . . . . . . . . CODE     ADC_EXT_CP_CLK  
ADC_Ext_CP_Clk_Stop. . . . . . . . . . . CODE     ADC_EXT_CP_CLK  
ADC_Ext_CP_Clk_StopBlock . . . . . . . . CODE     ADC_EXT_CP_CLK  
ADC_GetResult16. . . . . . . . . . . . . CODE     ADC  
ADC_GetResult32. . . . . . . . . . . . . CODE     ADC  
ADC_GetResult8 . . . . . . . . . . . . . CODE     ADC  
ADC_Init . . . . . . . . . . . . . . . . CODE     ADC  
ADC_initVar. . . . . . . . . . . . . . . XDATA    ADC  
ADC_ISR1 . . . . . . . . . . . . . . . . CODE     ADC_INT  ADC  
ADC_ISR2 . . . . . . . . . . . . . . . . CODE     ADC_INT  
ADC_ISR3 . . . . . . . . . . . . . . . . CODE     ADC_INT  
ADC_ISR4 . . . . . . . . . . . . . . . . CODE     ADC_INT  
ADC_Offset . . . . . . . . . . . . . . . XDATA    ADC  
ADC_Read16 . . . . . . . . . . . . . . . CODE     ADC  
ADC_Read32 . . . . . . . . . . . . . . . CODE     ADC  
ADC_Read8. . . . . . . . . . . . . . . . CODE     ADC  
ADC_ReadGCOR . . . . . . . . . . . . . . CODE     ADC  
ADC_SOC_Read . . . . . . . . . . . . . . CODE     ADC_SOC  
ADC_Start. . . . . . . . . . . . . . . . CODE     ADC  MAIN  
ADC_StartConvert . . . . . . . . . . . . CODE     ADC  
ADC_started. . . . . . . . . . . . . . . XDATA    ADC  
ADC_STATUS_InterruptDisable. . . . . . . CODE     ADC_STATUS  
ADC_STATUS_InterruptEnable . . . . . . . CODE     ADC_STATUS  
ADC_STATUS_Read. . . . . . . . . . . . . CODE     ADC_STATUS  INTERRUPTIONS  
ADC_STATUS_ReadMask. . . . . . . . . . . CODE     ADC_STATUS  
ADC_Stop . . . . . . . . . . . . . . . . CODE     ADC  
ADC_stopConversion . . . . . . . . . . . XDATA    ADC  
ADC_StopConvert. . . . . . . . . . . . . CODE     ADC  
ADC_theACLK_GetDividerRegister . . . . . CODE     ADC_THEACLK  
ADC_theACLK_GetModeRegister. . . . . . . CODE     ADC_THEACLK  
ADC_theACLK_GetPhaseRegister . . . . . . CODE     ADC_THEACLK  
ADC_theACLK_GetSourceRegister. . . . . . CODE     ADC_THEACLK  
ADC_theACLK_Start. . . . . . . . . . . . CODE     ADC_THEACLK  
ADC_theACLK_Stop . . . . . . . . . . . . CODE     ADC_THEACLK  
ADC_theACLK_StopBlock. . . . . . . . . . CODE     ADC_THEACLK  
analog_read_end. . . . . . . . . . . . . CODE     INTERRUPTIONS  
B. . . . . . . . . . . . . . . . . . . . DATA     COMMAND_PROCESSING  
Bootloadable_Load. . . . . . . . . . . . CODE     BOOTLOADABLE  COMMAND_PROCESSING  
c_mem. . . . . . . . . . . . . . . . . . XDATA    GLOBALS  COMMAND_PROCESSING  INTERRUPTIONS  MAIN  UTILS  
calib. . . . . . . . . . . . . . . . . . XDATA    GLOBALS  COMMAND_PROCESSING  INTERRUPTIONS  UTILS  
calibration. . . . . . . . . . . . . . . CODE     UTILS  INTERRUPTIONS  
check_rest_position. . . . . . . . . . . CODE     UTILS  INTERRUPTIONS  
CLOCK_UART_GetDividerRegister. . . . . . CODE     CLOCK_UART  
CLOCK_UART_GetModeRegister . . . . . . . CODE     CLOCK_UART  
CLOCK_UART_GetSourceRegister . . . . . . CODE     CLOCK_UART  
CLOCK_UART_Start . . . . . . . . . . . . CODE     CLOCK_UART  
CLOCK_UART_Stop. . . . . . . . . . . . . CODE     CLOCK_UART  
CLOCK_UART_StopBlock . . . . . . . . . . CODE     CLOCK_UART  
cmd_activate . . . . . . . . . . . . . . CODE     COMMAND_PROCESSING  
cmd_get_activate . . . . . . . . . . . . CODE     COMMAND_PROCESSING  
cmd_get_curr_and_meas. . . . . . . . . . CODE     COMMAND_PROCESSING  
cmd_get_currents . . . . . . . . . . . . CODE     COMMAND_PROCESSING  
cmd_get_emg. . . . . . . . . . . . . . . CODE     COMMAND_PROCESSING  
cmd_get_inputs . . . . . . . . . . . . . CODE     COMMAND_PROCESSING  
cmd_get_joystick . . . . . . . . . . . . CODE     COMMAND_PROCESSING  
LX51 LINKER/LOCATER V4.64.0.0                                                         04/13/2018  12:12:27  PAGE 166


cmd_get_measurements . . . . . . . . . . CODE     COMMAND_PROCESSING  
cmd_ping . . . . . . . . . . . . . . . . CODE     COMMAND_PROCESSING  
cmd_set_baudrate . . . . . . . . . . . . CODE     COMMAND_PROCESSING  
cmd_set_inputs . . . . . . . . . . . . . CODE     COMMAND_PROCESSING  
cmd_set_watchdog . . . . . . . . . . . . CODE     COMMAND_PROCESSING  
cmd_store_params . . . . . . . . . . . . CODE     COMMAND_PROCESSING  
commProcess. . . . . . . . . . . . . . . CODE     COMMAND_PROCESSING  INTERRUPTIONS  
commReadMeasFromSH . . . . . . . . . . . CODE     COMMAND_PROCESSING  INTERRUPTIONS  
commReadResCurrFromSH. . . . . . . . . . CODE     COMMAND_PROCESSING  
count_tension_valid. . . . . . . . . . . XDATA    GLOBALS  MAIN  
COUNTER_ENC_ClearFIFO. . . . . . . . . . CODE     COUNTER_ENC  
COUNTER_ENC_Enable . . . . . . . . . . . CODE     COUNTER_ENC  
COUNTER_ENC_Init . . . . . . . . . . . . CODE     COUNTER_ENC  
COUNTER_ENC_initVar. . . . . . . . . . . XDATA    COUNTER_ENC  
COUNTER_ENC_ReadCapture. . . . . . . . . CODE     COUNTER_ENC  
COUNTER_ENC_ReadCompare. . . . . . . . . CODE     COUNTER_ENC  
COUNTER_ENC_ReadControlRegister. . . . . CODE     COUNTER_ENC  
COUNTER_ENC_ReadCounter. . . . . . . . . CODE     COUNTER_ENC  
COUNTER_ENC_ReadPeriod . . . . . . . . . CODE     COUNTER_ENC  
COUNTER_ENC_ReadStatusRegister . . . . . CODE     COUNTER_ENC  
COUNTER_ENC_Start. . . . . . . . . . . . CODE     COUNTER_ENC  MAIN  
COUNTER_ENC_Stop . . . . . . . . . . . . CODE     COUNTER_ENC  
curr_pos_res . . . . . . . . . . . . . . XDATA    GLOBALS  INTERRUPTIONS  UTILS  
CY . . . . . . . . . . . . . . . . . . . DATA     COMMAND_PROCESSING  
cydelay_32k_ms . . . . . . . . . . . . . XDATA    CYLIB  
cydelay_freq_hz. . . . . . . . . . . . . XDATA    CYLIB  
cydelay_freq_khz . . . . . . . . . . . . XDATA    CYLIB  
cydelay_freq_mhz . . . . . . . . . . . . XDATA    CYLIB  CYBOOTASMKEIL  
CyDisableInts. . . . . . . . . . . . . . CODE     CYLIB  
CyDmacConfigure. . . . . . . . . . . . . CODE     CYDMAC  ?C_STARTUP  
CyDmacError. . . . . . . . . . . . . . . CODE     CYDMAC  
CyDmacErrorAddress . . . . . . . . . . . CODE     CYDMAC  
CyDmaChAlloc . . . . . . . . . . . . . . CODE     CYDMAC  
CyDmaTdAllocate. . . . . . . . . . . . . CODE     CYDMAC  MAIN  
CyDmaTdFreeCount . . . . . . . . . . . . CODE     CYDMAC  
CyEEPROM_ReadRelease . . . . . . . . . . CODE     CYFLASH  EEPROM  
CyEEPROM_ReadReserve . . . . . . . . . . CODE     CYFLASH  EEPROM  
CyEEPROM_Start . . . . . . . . . . . . . CODE     CYFLASH  EEPROM  
CyEEPROM_Stop. . . . . . . . . . . . . . CODE     CYFLASH  EEPROM  
CyEnterCriticalSection . . . . . . . . . CODE     CYBOOTASMKEIL  ADC  ADC_STATUS  COUNTER_ENC  CYDMAC  CYFLASH  CYLIB  C
                                                  YPM  CYSPC  EEPROM  FF_STATUS  MY_TIMER  SHIFTREG_ENC_1  SHIFTREG_ENC_
                                                  2  SHIFTREG_ENC_3  UART_RS485  
cyfitter_cfg . . . . . . . . . . . . . . CODE     CYFITTER_CFG  ?C_STARTUP  
CyFlash_Start. . . . . . . . . . . . . . CODE     CYFLASH  
CyFlash_Stop . . . . . . . . . . . . . . CODE     CYFLASH  
CyILO_Disable33K . . . . . . . . . . . . CODE     CYLIB  
CyILO_Enable33K. . . . . . . . . . . . . CODE     CYLIB  
CyILO_Start100K. . . . . . . . . . . . . CODE     CYLIB  CYPM  
CyILO_Start1K. . . . . . . . . . . . . . CODE     CYLIB  CYPM  
CyILO_Stop100K . . . . . . . . . . . . . CODE     CYLIB  
CyILO_Stop1K . . . . . . . . . . . . . . CODE     CYLIB  
CyIMO_DisableDoubler . . . . . . . . . . CODE     CYLIB  CYPM  
CyIMO_EnableDoubler. . . . . . . . . . . CODE     CYLIB  CYPM  
CyIMO_Stop . . . . . . . . . . . . . . . CODE     CYLIB  CYPM  
CyIntInitVectors . . . . . . . . . . . . CODE     CYLIB  ?C_STARTUP  
CyPLL_OUT_Stop . . . . . . . . . . . . . CODE     CYLIB  CYPM  
CyPmHibernate. . . . . . . . . . . . . . CODE     CYPM  
CyPmOppsSet. . . . . . . . . . . . . . . CODE     CYPM  
CyPmRestoreClocks. . . . . . . . . . . . CODE     CYPM  
CyPmSaveClocks . . . . . . . . . . . . . CODE     CYPM  
CyResetStatus. . . . . . . . . . . . . . XDATA    CYLIB  ?C_STARTUP  
CySetTemp. . . . . . . . . . . . . . . . CODE     CYFLASH  COMMAND_PROCESSING  EEPROM  
CySoftwareReset. . . . . . . . . . . . . CODE     CYLIB  BOOTLOADABLE  
CySpcGetAlgorithm. . . . . . . . . . . . CODE     CYSPC  CYFLASH  
CySpcLock. . . . . . . . . . . . . . . . CODE     CYSPC  CYFLASH  EEPROM  
LX51 LINKER/LOCATER V4.64.0.0                                                         04/13/2018  12:12:27  PAGE 167


CySpcStart . . . . . . . . . . . . . . . CODE     CYSPC  CYFLASH  EEPROM  
CySpcStop. . . . . . . . . . . . . . . . CODE     CYSPC  
CySpcUnlock. . . . . . . . . . . . . . . CODE     CYSPC  CYFLASH  EEPROM  
CyVdHvAnalogDisable. . . . . . . . . . . CODE     CYLIB  CYPM  
CyVdHvAnalogEnable . . . . . . . . . . . CODE     CYLIB  CYPM  
CyVdLvAnalogDisable. . . . . . . . . . . CODE     CYLIB  CYPM  
CyVdLvDigitDisable . . . . . . . . . . . CODE     CYLIB  CYPM  
CyVdRealTimeStatus . . . . . . . . . . . CODE     CYLIB  
CyWdtClear . . . . . . . . . . . . . . . CODE     CYLIB  
CyXTAL_32KHZ_ReadStatus. . . . . . . . . CODE     CYLIB  
CyXTAL_32KHZ_Start . . . . . . . . . . . CODE     CYLIB  CYPM  
CyXTAL_32KHZ_Stop. . . . . . . . . . . . CODE     CYLIB  
CyXTAL_DisableErrStatus. . . . . . . . . CODE     CYLIB  
CyXTAL_DisableFaultRecovery. . . . . . . CODE     CYLIB  
CyXTAL_EnableErrStatus . . . . . . . . . CODE     CYLIB  
CyXTAL_EnableFaultRecovery . . . . . . . CODE     CYLIB  
CyXTAL_ReadStatus. . . . . . . . . . . . CODE     CYLIB  
CyXTAL_Stop. . . . . . . . . . . . . . . CODE     CYLIB  CYPM  
deactivate_slaves. . . . . . . . . . . . CODE     COMMAND_PROCESSING  INTERRUPTIONS  
dev_pwm_limit. . . . . . . . . . . . . . XDATA    GLOBALS  COMMAND_PROCESSING  INTERRUPTIONS  MAIN  
dev_tension. . . . . . . . . . . . . . . XDATA    GLOBALS  COMMAND_PROCESSING  INTERRUPTIONS  
dev_tension_f. . . . . . . . . . . . . . XDATA    GLOBALS  INTERRUPTIONS  
dieTemperature . . . . . . . . . . . . . XDATA    CYFLASH  EEPROM  
DMA_DmaHandle. . . . . . . . . . . . . . XDATA    DMA_DMA  
DMA_DmaRelease . . . . . . . . . . . . . CODE     DMA_DMA  
DPH. . . . . . . . . . . . . . . . . . . DATA     COMMAND_PROCESSING  
DPH1 . . . . . . . . . . . . . . . . . . DATA     COMMAND_PROCESSING  
DPL. . . . . . . . . . . . . . . . . . . DATA     COMMAND_PROCESSING  
DPL1 . . . . . . . . . . . . . . . . . . DATA     COMMAND_PROCESSING  
DPS. . . . . . . . . . . . . . . . . . . DATA     COMMAND_PROCESSING  
DPX. . . . . . . . . . . . . . . . . . . DATA     COMMAND_PROCESSING  
DPX1 . . . . . . . . . . . . . . . . . . DATA     COMMAND_PROCESSING  
drive_force_fb . . . . . . . . . . . . . CODE     COMMAND_PROCESSING  INTERRUPTIONS  
drive_proprio_fb . . . . . . . . . . . . CODE     COMMAND_PROCESSING  INTERRUPTIONS  
drive_SH . . . . . . . . . . . . . . . . CODE     COMMAND_PROCESSING  INTERRUPTIONS  
EA . . . . . . . . . . . . . . . . . . . DATA     COMMAND_PROCESSING  
EEPROM_ADDR. . . . . . . . . . . . . . . XDATA    COMMAND_PROCESSING  
EEPROM_Enable. . . . . . . . . . . . . . CODE     EEPROM  
EEPROM_Query . . . . . . . . . . . . . . CODE     EEPROM  
EEPROM_Start . . . . . . . . . . . . . . CODE     EEPROM  MAIN  
EEPROM_Stop. . . . . . . . . . . . . . . CODE     EEPROM  
EEPROM_UpdateTemperature . . . . . . . . CODE     EEPROM  
F0 . . . . . . . . . . . . . . . . . . . DATA     COMMAND_PROCESSING  
F1 . . . . . . . . . . . . . . . . . . . DATA     COMMAND_PROCESSING  
FF_STATUS_InterruptDisable . . . . . . . CODE     FF_STATUS  
FF_STATUS_InterruptEnable. . . . . . . . CODE     FF_STATUS  
FF_STATUS_Read . . . . . . . . . . . . . CODE     FF_STATUS  MAIN  
FF_STATUS_ReadMask . . . . . . . . . . . CODE     FF_STATUS  
first_tension_valid. . . . . . . . . . . XDATA    GLOBALS  INTERRUPTIONS  MAIN  
forced_open. . . . . . . . . . . . . . . XDATA    GLOBALS  INTERRUPTIONS  UTILS  
FTDI_ENABLE_REG_Read . . . . . . . . . . CODE     FTDI_ENABLE_REG  
function_scheduler . . . . . . . . . . . CODE     INTERRUPTIONS  MAIN  
g_meas . . . . . . . . . . . . . . . . . XDATA    GLOBALS  COMMAND_PROCESSING  INTERRUPTIONS  MAIN  UTILS  
g_measOld. . . . . . . . . . . . . . . . XDATA    GLOBALS  COMMAND_PROCESSING  INTERRUPTIONS  
g_mem. . . . . . . . . . . . . . . . . . XDATA    GLOBALS  COMMAND_PROCESSING  INTERRUPTIONS  UTILS  
g_ref. . . . . . . . . . . . . . . . . . XDATA    GLOBALS  COMMAND_PROCESSING  INTERRUPTIONS  MAIN  UTILS  
g_refNew . . . . . . . . . . . . . . . . XDATA    GLOBALS  COMMAND_PROCESSING  INTERRUPTIONS  MAIN  
g_refOld . . . . . . . . . . . . . . . . XDATA    GLOBALS  COMMAND_PROCESSING  INTERRUPTIONS  
g_rx . . . . . . . . . . . . . . . . . . XDATA    GLOBALS  COMMAND_PROCESSING  INTERRUPTIONS  MAIN  
IE . . . . . . . . . . . . . . . . . . . DATA     COMMAND_PROCESSING  
infoSend . . . . . . . . . . . . . . . . CODE     COMMAND_PROCESSING  
IntDefaultHandler. . . . . . . . . . . . CODE     CYLIB  
interrupt_flag . . . . . . . . . . . . . BIT      GLOBALS  COMMAND_PROCESSING  INTERRUPTIONS  MAIN  
interrupt_manager. . . . . . . . . . . . CODE     INTERRUPTIONS  COMMAND_PROCESSING  MAIN  
ISR_RS485_RX_ClearPending. . . . . . . . CODE     ISR_RS485_RX  
LX51 LINKER/LOCATER V4.64.0.0                                                         04/13/2018  12:12:27  PAGE 168


ISR_RS485_RX_Disable . . . . . . . . . . CODE     ISR_RS485_RX  COMMAND_PROCESSING  
ISR_RS485_RX_Enable. . . . . . . . . . . CODE     ISR_RS485_RX  COMMAND_PROCESSING  
ISR_RS485_RX_ExInterrupt . . . . . . . . CODE     INTERRUPTIONS  MAIN  
ISR_RS485_RX_GetPriority . . . . . . . . CODE     ISR_RS485_RX  
ISR_RS485_RX_GetState. . . . . . . . . . CODE     ISR_RS485_RX  
ISR_RS485_RX_GetVector . . . . . . . . . CODE     ISR_RS485_RX  
ISR_RS485_RX_Interrupt . . . . . . . . . CODE     ISR_RS485_RX  
ISR_RS485_RX_SetPending. . . . . . . . . CODE     ISR_RS485_RX  
ISR_RS485_RX_Start . . . . . . . . . . . CODE     ISR_RS485_RX  
ISR_RS485_RX_Stop. . . . . . . . . . . . CODE     ISR_RS485_RX  
ISR_WATCHDOG_ClearPending. . . . . . . . CODE     ISR_WATCHDOG  
ISR_WATCHDOG_Disable . . . . . . . . . . CODE     ISR_WATCHDOG  
ISR_WATCHDOG_Enable. . . . . . . . . . . CODE     ISR_WATCHDOG  
ISR_WATCHDOG_GetPriority . . . . . . . . CODE     ISR_WATCHDOG  
ISR_WATCHDOG_GetState. . . . . . . . . . CODE     ISR_WATCHDOG  
ISR_WATCHDOG_GetVector . . . . . . . . . CODE     ISR_WATCHDOG  
ISR_WATCHDOG_Handler . . . . . . . . . . CODE     INTERRUPTIONS  MAIN  
ISR_WATCHDOG_Interrupt . . . . . . . . . CODE     ISR_WATCHDOG  
ISR_WATCHDOG_SetPending. . . . . . . . . CODE     ISR_WATCHDOG  
ISR_WATCHDOG_Start . . . . . . . . . . . CODE     ISR_WATCHDOG  
ISR_WATCHDOG_Stop. . . . . . . . . . . . CODE     ISR_WATCHDOG  
LED_BLINK_EN_Read. . . . . . . . . . . . CODE     LED_BLINK_EN  
LED_BLINK_Enable . . . . . . . . . . . . CODE     LED_BLINK  
LED_BLINK_Init . . . . . . . . . . . . . CODE     LED_BLINK  
LED_BLINK_initVar. . . . . . . . . . . . XDATA    LED_BLINK  
LED_BLINK_ReadCapture. . . . . . . . . . CODE     LED_BLINK  
LED_BLINK_ReadCompare. . . . . . . . . . CODE     LED_BLINK  
LED_BLINK_ReadControlRegister. . . . . . CODE     LED_BLINK  
LED_BLINK_ReadCounter. . . . . . . . . . CODE     LED_BLINK  
LED_BLINK_ReadPeriod . . . . . . . . . . CODE     LED_BLINK  
LED_BLINK_Start. . . . . . . . . . . . . CODE     LED_BLINK  MAIN  
LED_BLINK_Stop . . . . . . . . . . . . . CODE     LED_BLINK  
LED_CTRL_Read. . . . . . . . . . . . . . CODE     LED_CTRL  
main . . . . . . . . . . . . . . . . . . CODE     MAIN  ?C_INIT  
master_mode. . . . . . . . . . . . . . . XDATA    GLOBALS  COMMAND_PROCESSING  INTERRUPTIONS  MAIN  UTILS  
memInit. . . . . . . . . . . . . . . . . CODE     COMMAND_PROCESSING  
memRecall. . . . . . . . . . . . . . . . CODE     COMMAND_PROCESSING  MAIN  
memRestore . . . . . . . . . . . . . . . CODE     COMMAND_PROCESSING  
motor_control. . . . . . . . . . . . . . CODE     INTERRUPTIONS  
MOTOR_DIR_Read . . . . . . . . . . . . . CODE     MOTOR_DIR  
MOTOR_ON_OFF_Read. . . . . . . . . . . . CODE     MOTOR_ON_OFF  
MXAX . . . . . . . . . . . . . . . . . . DATA     COMMAND_PROCESSING  
MY_TIMER_ClearFIFO . . . . . . . . . . . CODE     MY_TIMER  
MY_TIMER_Enable. . . . . . . . . . . . . CODE     MY_TIMER  
MY_TIMER_Init. . . . . . . . . . . . . . CODE     MY_TIMER  
MY_TIMER_initVar . . . . . . . . . . . . XDATA    MY_TIMER  
MY_TIMER_ReadCapture . . . . . . . . . . CODE     MY_TIMER  
MY_TIMER_ReadControlRegister . . . . . . CODE     MY_TIMER  
MY_TIMER_ReadCounter . . . . . . . . . . CODE     MY_TIMER  COMMAND_PROCESSING  INTERRUPTIONS  
MY_TIMER_ReadPeriod. . . . . . . . . . . CODE     MY_TIMER  
MY_TIMER_ReadStatusRegister. . . . . . . CODE     MY_TIMER  
MY_TIMER_SoftwareCapture . . . . . . . . CODE     MY_TIMER  
MY_TIMER_Start . . . . . . . . . . . . . CODE     MY_TIMER  MAIN  
MY_TIMER_Stop. . . . . . . . . . . . . . CODE     MY_TIMER  
OV . . . . . . . . . . . . . . . . . . . DATA     COMMAND_PROCESSING  
overcurrent_control. . . . . . . . . . . CODE     INTERRUPTIONS  
P. . . . . . . . . . . . . . . . . . . . DATA     COMMAND_PROCESSING  
P2AX . . . . . . . . . . . . . . . . . . DATA     COMMAND_PROCESSING  
PACER_TIMER_Enable . . . . . . . . . . . CODE     PACER_TIMER  
PACER_TIMER_Init . . . . . . . . . . . . CODE     PACER_TIMER  
PACER_TIMER_initVar. . . . . . . . . . . XDATA    PACER_TIMER  
PACER_TIMER_ReadCapture. . . . . . . . . CODE     PACER_TIMER  
PACER_TIMER_ReadControlRegister. . . . . CODE     PACER_TIMER  
PACER_TIMER_ReadCounter. . . . . . . . . CODE     PACER_TIMER  
PACER_TIMER_ReadPeriod . . . . . . . . . CODE     PACER_TIMER  
LX51 LINKER/LOCATER V4.64.0.0                                                         04/13/2018  12:12:27  PAGE 169


PACER_TIMER_ReadStatusRegister . . . . . CODE     PACER_TIMER  
PACER_TIMER_SoftwareCapture. . . . . . . CODE     PACER_TIMER  
PACER_TIMER_Start. . . . . . . . . . . . CODE     PACER_TIMER  MAIN  
PACER_TIMER_Stop . . . . . . . . . . . . CODE     PACER_TIMER  
pow_tension. . . . . . . . . . . . . . . XDATA    GLOBALS  COMMAND_PROCESSING  INTERRUPTIONS  MAIN  
PSW. . . . . . . . . . . . . . . . . . . DATA     COMMAND_PROCESSING  
pwm_limit_search . . . . . . . . . . . . CODE     INTERRUPTIONS  
PWM_MOTORS_Enable. . . . . . . . . . . . CODE     PWM_MOTORS  
PWM_MOTORS_Init. . . . . . . . . . . . . CODE     PWM_MOTORS  
PWM_MOTORS_initVar . . . . . . . . . . . XDATA    PWM_MOTORS  
PWM_MOTORS_ReadCapture . . . . . . . . . CODE     PWM_MOTORS  
PWM_MOTORS_ReadCompare1. . . . . . . . . CODE     PWM_MOTORS  
PWM_MOTORS_ReadCompare2. . . . . . . . . CODE     PWM_MOTORS  
PWM_MOTORS_ReadControlRegister . . . . . CODE     PWM_MOTORS  
PWM_MOTORS_ReadCounter . . . . . . . . . CODE     PWM_MOTORS  
PWM_MOTORS_ReadPeriod. . . . . . . . . . CODE     PWM_MOTORS  
PWM_MOTORS_Start . . . . . . . . . . . . CODE     PWM_MOTORS  MAIN  
PWM_MOTORS_Stop. . . . . . . . . . . . . CODE     PWM_MOTORS  
pwm_sign . . . . . . . . . . . . . . . . XDATA    GLOBALS  INTERRUPTIONS  
RESET_COUNTERS_Read. . . . . . . . . . . CODE     RESET_COUNTERS  
RESET_FF_Read. . . . . . . . . . . . . . CODE     RESET_FF  
reset_last_value_flag. . . . . . . . . . BIT      GLOBALS  COMMAND_PROCESSING  INTERRUPTIONS  MAIN  
rest_enabled . . . . . . . . . . . . . . XDATA    GLOBALS  INTERRUPTIONS  UTILS  
rest_pos_curr_ref. . . . . . . . . . . . XDATA    GLOBALS  INTERRUPTIONS  UTILS  
RS0. . . . . . . . . . . . . . . . . . . DATA     COMMAND_PROCESSING  
RS1. . . . . . . . . . . . . . . . . . . DATA     COMMAND_PROCESSING  
RS485_CTS_Read . . . . . . . . . . . . . CODE     RS485_CTS  
setZeros . . . . . . . . . . . . . . . . CODE     COMMAND_PROCESSING  
SFRPRT0DR. . . . . . . . . . . . . . . . DATA     COMMAND_PROCESSING  
SFRPRT0PS. . . . . . . . . . . . . . . . DATA     COMMAND_PROCESSING  
SFRPRT0SEL . . . . . . . . . . . . . . . DATA     COMMAND_PROCESSING  
SFRPRT12DR . . . . . . . . . . . . . . . DATA     COMMAND_PROCESSING  
SFRPRT12PS . . . . . . . . . . . . . . . DATA     COMMAND_PROCESSING  
SFRPRT12SEL. . . . . . . . . . . . . . . DATA     COMMAND_PROCESSING  
SFRPRT15DR . . . . . . . . . . . . . . . DATA     COMMAND_PROCESSING  
SFRPRT15PS . . . . . . . . . . . . . . . DATA     COMMAND_PROCESSING  
SFRPRT15SEL. . . . . . . . . . . . . . . DATA     COMMAND_PROCESSING  
SFRPRT1DR. . . . . . . . . . . . . . . . DATA     COMMAND_PROCESSING  
SFRPRT1PS. . . . . . . . . . . . . . . . DATA     COMMAND_PROCESSING  
SFRPRT1SEL . . . . . . . . . . . . . . . DATA     COMMAND_PROCESSING  
SFRPRT2DR. . . . . . . . . . . . . . . . DATA     COMMAND_PROCESSING  
SFRPRT2PS. . . . . . . . . . . . . . . . DATA     COMMAND_PROCESSING  
SFRPRT2SEL . . . . . . . . . . . . . . . DATA     COMMAND_PROCESSING  
SFRPRT3DR. . . . . . . . . . . . . . . . DATA     COMMAND_PROCESSING  
SFRPRT3PS. . . . . . . . . . . . . . . . DATA     COMMAND_PROCESSING  
SFRPRT3SEL . . . . . . . . . . . . . . . DATA     COMMAND_PROCESSING  
SFRPRT4DR. . . . . . . . . . . . . . . . DATA     COMMAND_PROCESSING  
SFRPRT4PS. . . . . . . . . . . . . . . . DATA     COMMAND_PROCESSING  
SFRPRT4SEL . . . . . . . . . . . . . . . DATA     COMMAND_PROCESSING  
SFRPRT5DR. . . . . . . . . . . . . . . . DATA     COMMAND_PROCESSING  
SFRPRT5PS. . . . . . . . . . . . . . . . DATA     COMMAND_PROCESSING  
SFRPRT5SEL . . . . . . . . . . . . . . . DATA     COMMAND_PROCESSING  
SFRPRT6DR. . . . . . . . . . . . . . . . DATA     COMMAND_PROCESSING  
SFRPRT6PS. . . . . . . . . . . . . . . . DATA     COMMAND_PROCESSING  
SFRPRT6SEL . . . . . . . . . . . . . . . DATA     COMMAND_PROCESSING  
SH_current_position. . . . . . . . . . . XDATA    GLOBALS  COMMAND_PROCESSING  INTERRUPTIONS  
SHIFTREG_ENC_1_DisableInt. . . . . . . . CODE     SHIFTREG_ENC_1  
SHIFTREG_ENC_1_Enable. . . . . . . . . . CODE     SHIFTREG_ENC_1  
SHIFTREG_ENC_1_EnableInt . . . . . . . . CODE     SHIFTREG_ENC_1  
SHIFTREG_ENC_1_GetIntStatus. . . . . . . CODE     SHIFTREG_ENC_1  
SHIFTREG_ENC_1_Init. . . . . . . . . . . CODE     SHIFTREG_ENC_1  
SHIFTREG_ENC_1_initVar . . . . . . . . . XDATA    SHIFTREG_ENC_1  
SHIFTREG_ENC_1_ReadData. . . . . . . . . CODE     SHIFTREG_ENC_1  INTERRUPTIONS  
SHIFTREG_ENC_1_ReadRegValue. . . . . . . CODE     SHIFTREG_ENC_1  
SHIFTREG_ENC_1_Start . . . . . . . . . . CODE     SHIFTREG_ENC_1  MAIN  
LX51 LINKER/LOCATER V4.64.0.0                                                         04/13/2018  12:12:27  PAGE 170


SHIFTREG_ENC_1_Stop. . . . . . . . . . . CODE     SHIFTREG_ENC_1  
SHIFTREG_ENC_2_DisableInt. . . . . . . . CODE     SHIFTREG_ENC_2  
SHIFTREG_ENC_2_Enable. . . . . . . . . . CODE     SHIFTREG_ENC_2  
SHIFTREG_ENC_2_EnableInt . . . . . . . . CODE     SHIFTREG_ENC_2  
SHIFTREG_ENC_2_GetIntStatus. . . . . . . CODE     SHIFTREG_ENC_2  
SHIFTREG_ENC_2_Init. . . . . . . . . . . CODE     SHIFTREG_ENC_2  
SHIFTREG_ENC_2_initVar . . . . . . . . . XDATA    SHIFTREG_ENC_2  
SHIFTREG_ENC_2_ReadData. . . . . . . . . CODE     SHIFTREG_ENC_2  INTERRUPTIONS  
SHIFTREG_ENC_2_ReadRegValue. . . . . . . CODE     SHIFTREG_ENC_2  
SHIFTREG_ENC_2_Start . . . . . . . . . . CODE     SHIFTREG_ENC_2  MAIN  
SHIFTREG_ENC_2_Stop. . . . . . . . . . . CODE     SHIFTREG_ENC_2  
SHIFTREG_ENC_3_DisableInt. . . . . . . . CODE     SHIFTREG_ENC_3  
SHIFTREG_ENC_3_Enable. . . . . . . . . . CODE     SHIFTREG_ENC_3  
SHIFTREG_ENC_3_EnableInt . . . . . . . . CODE     SHIFTREG_ENC_3  
SHIFTREG_ENC_3_GetIntStatus. . . . . . . CODE     SHIFTREG_ENC_3  
SHIFTREG_ENC_3_Init. . . . . . . . . . . CODE     SHIFTREG_ENC_3  
SHIFTREG_ENC_3_initVar . . . . . . . . . XDATA    SHIFTREG_ENC_3  
SHIFTREG_ENC_3_ReadData. . . . . . . . . CODE     SHIFTREG_ENC_3  INTERRUPTIONS  
SHIFTREG_ENC_3_ReadRegValue. . . . . . . CODE     SHIFTREG_ENC_3  
SHIFTREG_ENC_3_Start . . . . . . . . . . CODE     SHIFTREG_ENC_3  MAIN  
SHIFTREG_ENC_3_Stop. . . . . . . . . . . CODE     SHIFTREG_ENC_3  
SP . . . . . . . . . . . . . . . . . . . DATA     COMMAND_PROCESSING  
SpcLockState . . . . . . . . . . . . . . XDATA    CYSPC  
STARTUP1 . . . . . . . . . . . . . . . . CODE     ?C_STARTUP  
tau_feedback . . . . . . . . . . . . . . XDATA    GLOBALS  
tension_valid. . . . . . . . . . . . . . BIT      GLOBALS  INTERRUPTIONS  MAIN  
timer_value. . . . . . . . . . . . . . . XDATA    GLOBALS  COMMAND_PROCESSING  INTERRUPTIONS  
timer_value0 . . . . . . . . . . . . . . XDATA    GLOBALS  COMMAND_PROCESSING  INTERRUPTIONS  
UART_RS485_ClearRxBuffer . . . . . . . . CODE     UART_RS485  MAIN  
UART_RS485_ClearTxBuffer . . . . . . . . CODE     UART_RS485  MAIN  
UART_RS485_Enable. . . . . . . . . . . . CODE     UART_RS485  
UART_RS485_errorStatus . . . . . . . . . XDATA    UART_RS485  UART_RS485_INT  
UART_RS485_GetByte . . . . . . . . . . . CODE     UART_RS485  
UART_RS485_GetChar . . . . . . . . . . . CODE     UART_RS485  INTERRUPTIONS  
UART_RS485_GetRxBufferSize . . . . . . . CODE     UART_RS485  INTERRUPTIONS  
UART_RS485_GetTxBufferSize . . . . . . . CODE     UART_RS485  
UART_RS485_Init. . . . . . . . . . . . . CODE     UART_RS485  MAIN  
UART_RS485_initVar . . . . . . . . . . . XDATA    UART_RS485  
UART_RS485_ReadControlRegister . . . . . CODE     UART_RS485  
UART_RS485_ReadRxData. . . . . . . . . . CODE     UART_RS485  
UART_RS485_ReadRxStatus. . . . . . . . . CODE     UART_RS485  MAIN  
UART_RS485_ReadTxStatus. . . . . . . . . CODE     UART_RS485  COMMAND_PROCESSING  
UART_RS485_rxBuffer. . . . . . . . . . . XDATA    UART_RS485  UART_RS485_INT  
UART_RS485_rxBufferLoopDetect. . . . . . XDATA    UART_RS485  UART_RS485_INT  
UART_RS485_rxBufferOverflow. . . . . . . XDATA    UART_RS485  UART_RS485_INT  
UART_RS485_rxBufferRead. . . . . . . . . XDATA    UART_RS485  UART_RS485_INT  
UART_RS485_rxBufferWrite . . . . . . . . XDATA    UART_RS485  UART_RS485_INT  
UART_RS485_RXISR . . . . . . . . . . . . CODE     UART_RS485_INT  UART_RS485  
UART_RS485_Start . . . . . . . . . . . . CODE     UART_RS485  MAIN  
UART_RS485_Stop. . . . . . . . . . . . . CODE     UART_RS485  MAIN  
WATCHDOG_COUNTER_Enable. . . . . . . . . CODE     WATCHDOG_COUNTER  
WATCHDOG_COUNTER_Init. . . . . . . . . . CODE     WATCHDOG_COUNTER  
WATCHDOG_COUNTER_initVar . . . . . . . . XDATA    WATCHDOG_COUNTER  
WATCHDOG_COUNTER_ReadCapture . . . . . . CODE     WATCHDOG_COUNTER  
WATCHDOG_COUNTER_ReadControlRegister . . CODE     WATCHDOG_COUNTER  
WATCHDOG_COUNTER_ReadCounter . . . . . . CODE     WATCHDOG_COUNTER  
WATCHDOG_COUNTER_ReadPeriod. . . . . . . CODE     WATCHDOG_COUNTER  
WATCHDOG_COUNTER_ReadStatusRegister. . . CODE     WATCHDOG_COUNTER  
WATCHDOG_COUNTER_Start . . . . . . . . . CODE     WATCHDOG_COUNTER  MAIN  
WATCHDOG_COUNTER_Stop. . . . . . . . . . CODE     WATCHDOG_COUNTER  
WATCHDOG_ENABLER_Read. . . . . . . . . . CODE     WATCHDOG_ENABLER  
watchdog_flag. . . . . . . . . . . . . . BIT      GLOBALS  INTERRUPTIONS  MAIN  
WATCHDOG_REFRESH_Read. . . . . . . . . . CODE     WATCHDOG_REFRESH  

Program Size: data=120.1 xdata=5136 const=1955 code=53053
LX51 LINKER/LOCATER V4.64.0.0                                                         04/13/2018  12:12:27  PAGE 171


LX51 RUN COMPLETE.  0 WARNING(S),  0 ERROR(S)
