LX51 LINKER/LOCATER V4.64.0.0                                                           04/04/2018  09:18:43  PAGE 1


LX51 LINKER/LOCATER V4.64.0.0, INVOKED BY:
C:\PROGRAM FILES (X86)\CYPRESS\PSOC CREATOR\4.1\PSOC CREATOR\IMPORT\KEIL\PK51\9.51\C51\BIN\LX51.EXE .\DP8051_Keil_951\Re
>> lease\command_processing.obj, .\DP8051_Keil_951\Release\globals.obj, .\DP8051_Keil_951\Release\interruptions.obj, .\D
>> P8051_Keil_951\Release\main.obj, .\DP8051_Keil_951\Release\utils.obj, .\DP8051_Keil_951\Release\cyfitter_cfg.obj, .\D
>> P8051_Keil_951\Release\hand_firmware_micro.lib, C:\Program Files (x86)\Cypress\PSoC Creator\4.1\PSoC Creator\psoc\con
>> tent\cycomponentlibrary\CyComponentLibrary.cylib\DP8051\DP8051_Keil_951\Release\CyComponentLibrary.lib TO .\DP8051_Ke
>> il_951\Release\hand_firmware_micro.omf CODE RU RC (10) DW (16) WL (2) PR (.\DP8051_Keil_951\Release/hand_firmware_mic
>> ro.map) IX CL (XDATA (X:0X0000-X:0X1FFF)) CL (CODE (C:0X2600-C:0XFFBF)) CL (CONST (C:0X2600-C:0XFFBF))


CPU MODE:     8051 MODE
MEMORY MODEL: LARGE WITH FLOATING POINT ARITHMETIC


INPUT MODULES INCLUDED:
  .\DP8051_Keil_951\Release\command_processing.obj (COMMAND_PROCESSING)
         COMMENT TYPE 0: C51 V9.51
  .\DP8051_Keil_951\Release\globals.obj (GLOBALS)
         COMMENT TYPE 0: C51 V9.51
  .\DP8051_Keil_951\Release\interruptions.obj (INTERRUPTIONS)
         COMMENT TYPE 0: C51 V9.51
  .\DP8051_Keil_951\Release\main.obj (MAIN)
         COMMENT TYPE 0: C51 V9.51
  .\DP8051_Keil_951\Release\utils.obj (UTILS)
         COMMENT TYPE 0: C51 V9.51
  .\DP8051_Keil_951\Release\cyfitter_cfg.obj (CYFITTER_CFG)
         COMMENT TYPE 0: C51 V9.51
  .\DP8051_Keil_951\Release\hand_firmware_micro.lib (CLOCK_UART)
         COMMENT TYPE 0: C51 V9.51
  .\DP8051_Keil_951\Release\hand_firmware_micro.lib (ISR_RS485_RX)
         COMMENT TYPE 0: C51 V9.51
  .\DP8051_Keil_951\Release\hand_firmware_micro.lib (PWM_MOTORS)
         COMMENT TYPE 0: C51 V9.51
  .\DP8051_Keil_951\Release\hand_firmware_micro.lib (PACER_TIMER)
         COMMENT TYPE 0: C51 V9.51
  .\DP8051_Keil_951\Release\hand_firmware_micro.lib (UART_RS485)
         COMMENT TYPE 0: C51 V9.51
  .\DP8051_Keil_951\Release\hand_firmware_micro.lib (MOTOR_DIR)
         COMMENT TYPE 0: C51 V9.51
  .\DP8051_Keil_951\Release\hand_firmware_micro.lib (COUNTER_ENC)
         COMMENT TYPE 0: C51 V9.51
  .\DP8051_Keil_951\Release\hand_firmware_micro.lib (SHIFTREG_ENC_3)
         COMMENT TYPE 0: C51 V9.51
  .\DP8051_Keil_951\Release\hand_firmware_micro.lib (SHIFTREG_ENC_2)
         COMMENT TYPE 0: C51 V9.51
  .\DP8051_Keil_951\Release\hand_firmware_micro.lib (EEPROM)
         COMMENT TYPE 0: C51 V9.51
  .\DP8051_Keil_951\Release\hand_firmware_micro.lib (ADC)
         COMMENT TYPE 0: C51 V9.51
  .\DP8051_Keil_951\Release\hand_firmware_micro.lib (RS485_CTS)
         COMMENT TYPE 0: C51 V9.51
  .\DP8051_Keil_951\Release\hand_firmware_micro.lib (BOOTLOADABLE)
         COMMENT TYPE 0: C51 V9.51
  .\DP8051_Keil_951\Release\hand_firmware_micro.lib (MOTOR_ON_OFF)
         COMMENT TYPE 0: C51 V9.51
  .\DP8051_Keil_951\Release\hand_firmware_micro.lib (FTDI_ENABLE_REG)
         COMMENT TYPE 0: C51 V9.51
  .\DP8051_Keil_951\Release\hand_firmware_micro.lib (RESET_FF)
         COMMENT TYPE 0: C51 V9.51
  .\DP8051_Keil_951\Release\hand_firmware_micro.lib (FF_STATUS)
         COMMENT TYPE 0: C51 V9.51
  .\DP8051_Keil_951\Release\hand_firmware_micro.lib (MY_TIMER)
         COMMENT TYPE 0: C51 V9.51
  .\DP8051_Keil_951\Release\hand_firmware_micro.lib (SHIFTREG_ENC_1)
         COMMENT TYPE 0: C51 V9.51
  .\DP8051_Keil_951\Release\hand_firmware_micro.lib (RESET_COUNTERS)
LX51 LINKER/LOCATER V4.64.0.0                                                         04/04/2018  09:18:43  PAGE 2


         COMMENT TYPE 0: C51 V9.51
  .\DP8051_Keil_951\Release\hand_firmware_micro.lib (ADC_STATUS)
         COMMENT TYPE 0: C51 V9.51
  .\DP8051_Keil_951\Release\hand_firmware_micro.lib (DMA_DMA)
         COMMENT TYPE 0: C51 V9.51
  .\DP8051_Keil_951\Release\hand_firmware_micro.lib (ADC_SOC)
         COMMENT TYPE 0: C51 V9.51
  .\DP8051_Keil_951\Release\hand_firmware_micro.lib (ISR_WATCHDOG)
         COMMENT TYPE 0: C51 V9.51
  .\DP8051_Keil_951\Release\hand_firmware_micro.lib (WATCHDOG_COUNTER)
         COMMENT TYPE 0: C51 V9.51
  .\DP8051_Keil_951\Release\hand_firmware_micro.lib (WATCHDOG_ENABLER)
         COMMENT TYPE 0: C51 V9.51
  .\DP8051_Keil_951\Release\hand_firmware_micro.lib (WATCHDOG_REFRESH)
         COMMENT TYPE 0: C51 V9.51
  .\DP8051_Keil_951\Release\hand_firmware_micro.lib (CYDMAC)
         COMMENT TYPE 0: C51 V9.51
  .\DP8051_Keil_951\Release\hand_firmware_micro.lib (CYFLASH)
         COMMENT TYPE 0: C51 V9.51
  .\DP8051_Keil_951\Release\hand_firmware_micro.lib (CYLIB)
         COMMENT TYPE 0: C51 V9.51
  .\DP8051_Keil_951\Release\hand_firmware_micro.lib (LED_BLINK)
         COMMENT TYPE 0: C51 V9.51
  .\DP8051_Keil_951\Release\hand_firmware_micro.lib (LED_CTRL)
         COMMENT TYPE 0: C51 V9.51
  .\DP8051_Keil_951\Release\hand_firmware_micro.lib (LED_BLINK_EN)
         COMMENT TYPE 0: C51 V9.51
  .\DP8051_Keil_951\Release\hand_firmware_micro.lib (CYBOOTASMKEIL)
         COMMENT TYPE 0: AX51 V3.07d
  .\DP8051_Keil_951\Release\hand_firmware_micro.lib (CYMEM)
         COMMENT TYPE 0: AX51 V3.07d
  .\DP8051_Keil_951\Release\hand_firmware_micro.lib (?C_STARTUP)
         COMMENT TYPE 0: AX51 V3.07d
  .\DP8051_Keil_951\Release\hand_firmware_micro.lib (UART_RS485_INT)
         COMMENT TYPE 0: C51 V9.51
  .\DP8051_Keil_951\Release\hand_firmware_micro.lib (ADC_INT)
         COMMENT TYPE 0: C51 V9.51
  .\DP8051_Keil_951\Release\hand_firmware_micro.lib (ADC_AMUX)
         COMMENT TYPE 0: C51 V9.51
  .\DP8051_Keil_951\Release\hand_firmware_micro.lib (ADC_EXT_CP_CLK)
         COMMENT TYPE 0: C51 V9.51
  .\DP8051_Keil_951\Release\hand_firmware_micro.lib (ADC_THEACLK)
         COMMENT TYPE 0: C51 V9.51
  .\DP8051_Keil_951\Release\hand_firmware_micro.lib (CYPM)
         COMMENT TYPE 0: C51 V9.51
  .\DP8051_Keil_951\Release\hand_firmware_micro.lib (CYSPC)
         COMMENT TYPE 0: C51 V9.51
  C:\PROGRAM FILES (X86)\CYPRESS\PSOC CREATOR\4.1\PSOC CREATOR\IMPORT\KEIL\PK51\9.51\C51\LIB\C51FPL.LIB (?C?FPADD)
         COMMENT TYPE 1: A51 / ASM51 Assembler
  C:\PROGRAM FILES (X86)\CYPRESS\PSOC CREATOR\4.1\PSOC CREATOR\IMPORT\KEIL\PK51\9.51\C51\LIB\C51FPL.LIB (?C?FPMUL)
         COMMENT TYPE 1: A51 / ASM51 Assembler
  C:\PROGRAM FILES (X86)\CYPRESS\PSOC CREATOR\4.1\PSOC CREATOR\IMPORT\KEIL\PK51\9.51\C51\LIB\C51FPL.LIB (?C?FPDIV)
         COMMENT TYPE 1: A51 / ASM51 Assembler
  C:\PROGRAM FILES (X86)\CYPRESS\PSOC CREATOR\4.1\PSOC CREATOR\IMPORT\KEIL\PK51\9.51\C51\LIB\C51FPL.LIB (?C?FPCMP)
         COMMENT TYPE 1: A51 / ASM51 Assembler
  C:\PROGRAM FILES (X86)\CYPRESS\PSOC CREATOR\4.1\PSOC CREATOR\IMPORT\KEIL\PK51\9.51\C51\LIB\C51FPL.LIB (?C?FCAST)
         COMMENT TYPE 1: A51 / ASM51 Assembler
  C:\PROGRAM FILES (X86)\CYPRESS\PSOC CREATOR\4.1\PSOC CREATOR\IMPORT\KEIL\PK51\9.51\C51\LIB\C51FPL.LIB (?C?CASTF)
         COMMENT TYPE 1: A51 / ASM51 Assembler
  C:\PROGRAM FILES (X86)\CYPRESS\PSOC CREATOR\4.1\PSOC CREATOR\IMPORT\KEIL\PK51\9.51\C51\LIB\C51FPL.LIB (PRINTF)
         COMMENT TYPE 1: A51 / ASM51 Assembler
  C:\PROGRAM FILES (X86)\CYPRESS\PSOC CREATOR\4.1\PSOC CREATOR\IMPORT\KEIL\PK51\9.51\C51\LIB\C51FPL.LIB (POW)
         COMMENT TYPE 1: C51 Compiler
  C:\PROGRAM FILES (X86)\CYPRESS\PSOC CREATOR\4.1\PSOC CREATOR\IMPORT\KEIL\PK51\9.51\C51\LIB\C51FPL.LIB (?C?FPGETOPN)
         COMMENT TYPE 1: A51 / ASM51 Assembler
LX51 LINKER/LOCATER V4.64.0.0                                                         04/04/2018  09:18:43  PAGE 3


  C:\PROGRAM FILES (X86)\CYPRESS\PSOC CREATOR\4.1\PSOC CREATOR\IMPORT\KEIL\PK51\9.51\C51\LIB\C51FPL.LIB (?C?CHKFLOAT)
         COMMENT TYPE 1: A51 / ASM51 Assembler
  C:\PROGRAM FILES (X86)\CYPRESS\PSOC CREATOR\4.1\PSOC CREATOR\IMPORT\KEIL\PK51\9.51\C51\LIB\C51FPL.LIB (?C?FPNEG)
         COMMENT TYPE 1: A51 / ASM51 Assembler
  C:\PROGRAM FILES (X86)\CYPRESS\PSOC CREATOR\4.1\PSOC CREATOR\IMPORT\KEIL\PK51\9.51\C51\LIB\C51FPL.LIB (?C?FPROUND)
         COMMENT TYPE 1: A51 / ASM51 Assembler
  C:\PROGRAM FILES (X86)\CYPRESS\PSOC CREATOR\4.1\PSOC CREATOR\IMPORT\KEIL\PK51\9.51\C51\LIB\C51FPL.LIB (?C?FPCONVERT)
         COMMENT TYPE 1: A51 / ASM51 Assembler
  C:\PROGRAM FILES (X86)\CYPRESS\PSOC CREATOR\4.1\PSOC CREATOR\IMPORT\KEIL\PK51\9.51\C51\LIB\C51FPL.LIB (EXP)
         COMMENT TYPE 1: A51 / ASM51 Assembler
  C:\PROGRAM FILES (X86)\CYPRESS\PSOC CREATOR\4.1\PSOC CREATOR\IMPORT\KEIL\PK51\9.51\C51\LIB\C51FPL.LIB (LOG)
         COMMENT TYPE 1: A51 / ASM51 Assembler
  C:\PROGRAM FILES (X86)\CYPRESS\PSOC CREATOR\4.1\PSOC CREATOR\IMPORT\KEIL\PK51\9.51\C51\LIB\C51FPL.LIB (?C?FTNPWR)
         COMMENT TYPE 1: A51 / ASM51 Assembler
  C:\PROGRAM FILES (X86)\CYPRESS\PSOC CREATOR\4.1\PSOC CREATOR\IMPORT\KEIL\PK51\9.51\C51\LIB\C51FPL.LIB (?C?FPSERIES)
         COMMENT TYPE 1: A51 / ASM51 Assembler
  C:\PROGRAM FILES (X86)\CYPRESS\PSOC CREATOR\4.1\PSOC CREATOR\IMPORT\KEIL\PK51\9.51\C51\LIB\C51L.LIB (?C_INIT)
         COMMENT TYPE 1: A51 / ASM51 Assembler
  C:\PROGRAM FILES (X86)\CYPRESS\PSOC CREATOR\4.1\PSOC CREATOR\IMPORT\KEIL\PK51\9.51\C51\LIB\C51L.LIB (?C?CLDPTR)
         COMMENT TYPE 1: A51 / ASM51 Assembler
  C:\PROGRAM FILES (X86)\CYPRESS\PSOC CREATOR\4.1\PSOC CREATOR\IMPORT\KEIL\PK51\9.51\C51\LIB\C51L.LIB (?C?CLDOPTR)
         COMMENT TYPE 1: A51 / ASM51 Assembler
  C:\PROGRAM FILES (X86)\CYPRESS\PSOC CREATOR\4.1\PSOC CREATOR\IMPORT\KEIL\PK51\9.51\C51\LIB\C51L.LIB (?C?CSTPTR)
         COMMENT TYPE 1: A51 / ASM51 Assembler
  C:\PROGRAM FILES (X86)\CYPRESS\PSOC CREATOR\4.1\PSOC CREATOR\IMPORT\KEIL\PK51\9.51\C51\LIB\C51L.LIB (?C?IMUL)
         COMMENT TYPE 1: A51 / ASM51 Assembler
  C:\PROGRAM FILES (X86)\CYPRESS\PSOC CREATOR\4.1\PSOC CREATOR\IMPORT\KEIL\PK51\9.51\C51\LIB\C51L.LIB (?C?ISTPTR)
         COMMENT TYPE 1: A51 / ASM51 Assembler
  C:\PROGRAM FILES (X86)\CYPRESS\PSOC CREATOR\4.1\PSOC CREATOR\IMPORT\KEIL\PK51\9.51\C51\LIB\C51L.LIB (?C?LMUL)
         COMMENT TYPE 1: A51 / ASM51 Assembler
  C:\PROGRAM FILES (X86)\CYPRESS\PSOC CREATOR\4.1\PSOC CREATOR\IMPORT\KEIL\PK51\9.51\C51\LIB\C51L.LIB (?C?ULDIV)
         COMMENT TYPE 1: A51 / ASM51 Assembler
  C:\PROGRAM FILES (X86)\CYPRESS\PSOC CREATOR\4.1\PSOC CREATOR\IMPORT\KEIL\PK51\9.51\C51\LIB\C51L.LIB (?C?SLDIV)
         COMMENT TYPE 1: A51 / ASM51 Assembler
  C:\PROGRAM FILES (X86)\CYPRESS\PSOC CREATOR\4.1\PSOC CREATOR\IMPORT\KEIL\PK51\9.51\C51\LIB\C51L.LIB (?C?LNOT)
         COMMENT TYPE 1: A51 / ASM51 Assembler
  C:\PROGRAM FILES (X86)\CYPRESS\PSOC CREATOR\4.1\PSOC CREATOR\IMPORT\KEIL\PK51\9.51\C51\LIB\C51L.LIB (?C?LNEG)
         COMMENT TYPE 1: A51 / ASM51 Assembler
  C:\PROGRAM FILES (X86)\CYPRESS\PSOC CREATOR\4.1\PSOC CREATOR\IMPORT\KEIL\PK51\9.51\C51\LIB\C51L.LIB (?C?SLCMP)
         COMMENT TYPE 1: A51 / ASM51 Assembler
  C:\PROGRAM FILES (X86)\CYPRESS\PSOC CREATOR\4.1\PSOC CREATOR\IMPORT\KEIL\PK51\9.51\C51\LIB\C51L.LIB (?C?ULCMP)
         COMMENT TYPE 1: A51 / ASM51 Assembler
  C:\PROGRAM FILES (X86)\CYPRESS\PSOC CREATOR\4.1\PSOC CREATOR\IMPORT\KEIL\PK51\9.51\C51\LIB\C51L.LIB (?C?ULSHR)
         COMMENT TYPE 1: A51 / ASM51 Assembler
  C:\PROGRAM FILES (X86)\CYPRESS\PSOC CREATOR\4.1\PSOC CREATOR\IMPORT\KEIL\PK51\9.51\C51\LIB\C51L.LIB (?C?SLSHR)
         COMMENT TYPE 1: A51 / ASM51 Assembler
  C:\PROGRAM FILES (X86)\CYPRESS\PSOC CREATOR\4.1\PSOC CREATOR\IMPORT\KEIL\PK51\9.51\C51\LIB\C51L.LIB (?C?LSHL)
         COMMENT TYPE 1: A51 / ASM51 Assembler
  C:\PROGRAM FILES (X86)\CYPRESS\PSOC CREATOR\4.1\PSOC CREATOR\IMPORT\KEIL\PK51\9.51\C51\LIB\C51L.LIB (?C?LLDPTR)
         COMMENT TYPE 1: A51 / ASM51 Assembler
  C:\PROGRAM FILES (X86)\CYPRESS\PSOC CREATOR\4.1\PSOC CREATOR\IMPORT\KEIL\PK51\9.51\C51\LIB\C51L.LIB (?C?LSTPTR)
         COMMENT TYPE 1: A51 / ASM51 Assembler
  C:\PROGRAM FILES (X86)\CYPRESS\PSOC CREATOR\4.1\PSOC CREATOR\IMPORT\KEIL\PK51\9.51\C51\LIB\C51L.LIB (?C?LLDCODE)
         COMMENT TYPE 1: A51 / ASM51 Assembler
  C:\PROGRAM FILES (X86)\CYPRESS\PSOC CREATOR\4.1\PSOC CREATOR\IMPORT\KEIL\PK51\9.51\C51\LIB\C51L.LIB (?C?LLDXDATA0)
         COMMENT TYPE 1: A51 / ASM51 Assembler
  C:\PROGRAM FILES (X86)\CYPRESS\PSOC CREATOR\4.1\PSOC CREATOR\IMPORT\KEIL\PK51\9.51\C51\LIB\C51L.LIB (?C?LLDCODE0)
         COMMENT TYPE 1: A51 / ASM51 Assembler
  C:\PROGRAM FILES (X86)\CYPRESS\PSOC CREATOR\4.1\PSOC CREATOR\IMPORT\KEIL\PK51\9.51\C51\LIB\C51L.LIB (?C?LSTXDATA)
         COMMENT TYPE 1: A51 / ASM51 Assembler
  C:\PROGRAM FILES (X86)\CYPRESS\PSOC CREATOR\4.1\PSOC CREATOR\IMPORT\KEIL\PK51\9.51\C51\LIB\C51L.LIB (?C?LSTKXDATA)
         COMMENT TYPE 1: A51 / ASM51 Assembler
  C:\PROGRAM FILES (X86)\CYPRESS\PSOC CREATOR\4.1\PSOC CREATOR\IMPORT\KEIL\PK51\9.51\C51\LIB\C51L.LIB (?C?PLDIXDATA)
         COMMENT TYPE 1: A51 / ASM51 Assembler
  C:\PROGRAM FILES (X86)\CYPRESS\PSOC CREATOR\4.1\PSOC CREATOR\IMPORT\KEIL\PK51\9.51\C51\LIB\C51L.LIB (?C?PSTXDATA)
LX51 LINKER/LOCATER V4.64.0.0                                                         04/04/2018  09:18:43  PAGE 4


         COMMENT TYPE 1: A51 / ASM51 Assembler
  C:\PROGRAM FILES (X86)\CYPRESS\PSOC CREATOR\4.1\PSOC CREATOR\IMPORT\KEIL\PK51\9.51\C51\LIB\C51L.LIB (?C?CCASE)
         COMMENT TYPE 1: A51 / ASM51 Assembler
  C:\PROGRAM FILES (X86)\CYPRESS\PSOC CREATOR\4.1\PSOC CREATOR\IMPORT\KEIL\PK51\9.51\C51\LIB\C51L.LIB (?C_XBP)
         COMMENT TYPE 1: A51 / ASM51 Assembler
  C:\PROGRAM FILES (X86)\CYPRESS\PSOC CREATOR\4.1\PSOC CREATOR\IMPORT\KEIL\PK51\9.51\C51\LIB\C51L.LIB (?C?ADDXBP)
         COMMENT TYPE 1: A51 / ASM51 Assembler
  C:\PROGRAM FILES (X86)\CYPRESS\PSOC CREATOR\4.1\PSOC CREATOR\IMPORT\KEIL\PK51\9.51\C51\LIB\C51L.LIB (?C?LIMUL)
         COMMENT TYPE 1: A51 / ASM51 Assembler
  C:\PROGRAM FILES (X86)\CYPRESS\PSOC CREATOR\4.1\PSOC CREATOR\IMPORT\KEIL\PK51\9.51\C51\LIB\C51L.LIB (PUTCHAR)
         COMMENT TYPE 1: A51 / ASM51 Assembler
  C:\PROGRAM FILES (X86)\CYPRESS\PSOC CREATOR\4.1\PSOC CREATOR\IMPORT\KEIL\PK51\9.51\C51\LIB\C51L.LIB (ABS)
         COMMENT TYPE 1: A51 / ASM51 Assembler
  C:\PROGRAM FILES (X86)\CYPRESS\PSOC CREATOR\4.1\PSOC CREATOR\IMPORT\KEIL\PK51\9.51\C51\LIB\C51L.LIB (STRCAT)
         COMMENT TYPE 1: C51 Compiler
  C:\PROGRAM FILES (X86)\CYPRESS\PSOC CREATOR\4.1\PSOC CREATOR\IMPORT\KEIL\PK51\9.51\C51\LIB\C51L.LIB (STRLEN)
         COMMENT TYPE 1: A51 / ASM51 Assembler
  C:\PROGRAM FILES (X86)\CYPRESS\PSOC CREATOR\4.1\PSOC CREATOR\IMPORT\KEIL\PK51\9.51\C51\LIB\C51L.LIB (?C?COPYAMD)
         COMMENT TYPE 1: A51 / ASM51 Assembler
  C:\PROGRAM FILES (X86)\CYPRESS\PSOC CREATOR\4.1\PSOC CREATOR\IMPORT\KEIL\PK51\9.51\C51\LIB\C51L.LIB (?C?STRCPYAMD)
         COMMENT TYPE 1: A51 / ASM51 Assembler
  C:\PROGRAM FILES (X86)\CYPRESS\PSOC CREATOR\4.1\PSOC CREATOR\IMPORT\KEIL\PK51\9.51\C51\LIB\C51L.LIB (?C?IILDX)
         COMMENT TYPE 1: A51 / ASM51 Assembler
  C:\PROGRAM FILES (X86)\CYPRESS\PSOC CREATOR\4.1\PSOC CREATOR\IMPORT\KEIL\PK51\9.51\C51\LIB\C51L.LIB (?C?ILDIX)
         COMMENT TYPE 1: A51 / ASM51 Assembler
  C:\PROGRAM FILES (X86)\CYPRESS\PSOC CREATOR\4.1\PSOC CREATOR\IMPORT\KEIL\PK51\9.51\C51\LIB\C51L.LIB (?C?LLDIDATA)
         COMMENT TYPE 1: A51 / ASM51 Assembler
  C:\PROGRAM FILES (X86)\CYPRESS\PSOC CREATOR\4.1\PSOC CREATOR\IMPORT\KEIL\PK51\9.51\C51\LIB\C51L.LIB (?C?LLDXDATA)
         COMMENT TYPE 1: A51 / ASM51 Assembler
  C:\PROGRAM FILES (X86)\CYPRESS\PSOC CREATOR\4.1\PSOC CREATOR\IMPORT\KEIL\PK51\9.51\C51\LIB\C51L.LIB (?C?LLDPDATA)
         COMMENT TYPE 1: A51 / ASM51 Assembler
  C:\PROGRAM FILES (X86)\CYPRESS\PSOC CREATOR\4.1\PSOC CREATOR\IMPORT\KEIL\PK51\9.51\C51\LIB\C51L.LIB (?C?LSTIDATA)
         COMMENT TYPE 1: A51 / ASM51 Assembler
  C:\PROGRAM FILES (X86)\CYPRESS\PSOC CREATOR\4.1\PSOC CREATOR\IMPORT\KEIL\PK51\9.51\C51\LIB\C51L.LIB (?C?LSTPDATA)
         COMMENT TYPE 1: A51 / ASM51 Assembler


ACTIVE MEMORY CLASSES OF MODULE:  .\DP8051_Keil_951\Release\hand_firmware_micro.omf (COMMAND_PROCESSING)

BASE        START       END         USED      MEMORY CLASS
==========================================================
X:000000H   X:000000H   X:001FFFH   001333H   XDATA
C:000000H   C:002600H   C:00FFBFH   00CD9AH   CODE
C:000000H   C:002600H   C:00FFBFH   0007A3H   CONST
I:000000H   I:000000H   I:00007FH   000060H   DATA
I:000020H.0 I:000020H.0 I:00002FH.7 000002H.1 BIT
I:000000H   I:000000H   I:0000FFH   000004H   IDATA


MEMORY MAP OF MODULE:  .\DP8051_Keil_951\Release\hand_firmware_micro.omf (COMMAND_PROCESSING)


START     STOP      LENGTH    ALIGN  RELOC    MEMORY CLASS   SEGMENT NAME
=========================================================================

* * * * * * * * * * *   D A T A   M E M O R Y   * * * * * * * * * * * * *
000000H   000007H   000008H   ---    AT..     DATA           "REG BANK 0"
000008H   00000FH   000008H   BYTE   UNIT     DATA           ?DT?INTERRUPTIONS
000010H   000011H   000002H   BYTE   UNIT     DATA           ?DT?COMMAND_PROCESSING
000012H   000013H   000002H   BYTE   UNIT     DATA           ?C?LIB_DATA
000014H   000016H   000003H   BYTE   UNIT     IDATA          _IDATA_GROUP_
000017H.0 00001FH.7 000009H.0 ---    ---      **GAP**
000020H.0 000021H.1 000001H.2 BIT    UNIT     BIT            _BIT_GROUP_
000021H.2 000021H.5 000000H.4 BIT    UNIT     BIT            ?BI?GLOBALS
000021H.6 000022H.0 000000H.3 BIT    UNIT     BIT            ?BI?INTERRUPTIONS
LX51 LINKER/LOCATER V4.64.0.0                                                         04/04/2018  09:18:43  PAGE 5


000022H.1 000022H   000000H.7 ---    ---      **GAP**
000023H   00006EH   00004CH   BYTE   UNIT     DATA           _DATA_GROUP_
00006FH   00006FH   000001H   BYTE   UNIT     IDATA          ?STACK

* * * * * * * * * * *   C O D E   M E M O R Y   * * * * * * * * * * * * *
002600H   002619H   00001AH   ---    OFFS..   CODE           ?CO?KEILSTART?3
00261AH   0043FAH   001DE1H   BYTE   UNIT     CODE           ?PR?_GET_PARAM_LIST?COMMAND_PROCESSING
0043FBH   005FE2H   001BE8H   BYTE   UNIT     CODE           ?CO?COMMAND_PROCESSING
005FE3H   0078EFH   00190DH   BYTE   UNIT     CODE           ?PR?_INFOPREPARE?COMMAND_PROCESSING
0078F0H   008929H   00103AH   BYTE   UNIT     CODE           ?PR?MOTOR_CONTROL?INTERRUPTIONS
00892AH   0094A4H   000B7BH   BYTE   UNIT     CODE           ?C?LIB_CODE
0094A5H   009D16H   000872H   BYTE   UNIT     CODE           ?PR?_ENCODER_READING?INTERRUPTIONS
009D17H   00A3C0H   0006AAH   BYTE   UNIT     CODE           ?PR?ANALOG_READ_END?INTERRUPTIONS
00A3C1H   00A8D9H   000519H   BYTE   UNIT     CODE           ?PR?CHECK_REST_POSITION?UTILS
00A8DAH   00AD5CH   000483H   BYTE   UNIT     CODE           ?PR?PRINTF?PRINTF
00AD5DH   00B064H   000308H   BYTE   UNIT     CODE           ?PR?CMD_STORE_PARAMS?COMMAND_PROCESSING
00B065H   00B2C0H   00025CH   BYTE   UNIT     CODE           ?PR?MEMINIT?COMMAND_PROCESSING
00B2C1H   00B4E9H   000229H   BYTE   UNIT     CODE           ?PR?MAIN?MAIN
00B4EAH   00B69DH   0001B4H   BYTE   UNIT     CODE           ?PR?CMD_SET_INPUTS?COMMAND_PROCESSING
00B69EH   00B845H   0001A8H   BYTE   UNIT     CODE           ?PR?COMMPROCESS?COMMAND_PROCESSING
00B846H   00B9E7H   0001A2H   BYTE   UNIT     CODE           ?PR?_CURR_ESTIM?UTILS
00B9E8H   00BB88H   0001A1H   BYTE   UNIT     CODE           ?PR?_ADC_GAINCOMPENSATION?ADC
00BB89H   00BD21H   000199H   BYTE   UNIT     CODE           ?PR?CLOCKSETUP?CYFITTER_CFG
00BD22H   00BEA7H   000186H   BYTE   UNIT     CODE           ?PR?DRIVE_FORCE_FB?COMMAND_PROCESSING
00BEA8H   00C00DH   000166H   BYTE   UNIT     CODE           ?PR?_POW?POW
00C00EH   00C159H   00014CH   BYTE   UNIT     CODE           ?PR?FUNCTION_SCHEDULER?INTERRUPTIONS
00C15AH   00C28AH   000131H   BYTE   UNIT     CODE           ?PR?_ADC_EXT_CP_CLK_SETDIVIDERREGISTER?ADC_EXT_CP_CLK
00C28BH   00C3BAH   000130H   BYTE   UNIT     CODE           ?PR?CALIBRATION?UTILS
00C3BBH   00C4EAH   000130H   BYTE   UNIT     CODE           ?PR?_CLOCK_UART_SETDIVIDERREGISTER?CLOCK_UART
00C4EBH   00C619H   00012FH   BYTE   UNIT     CODE           ?PR?INTERRUPT_MANAGER?INTERRUPTIONS
00C61AH   00C748H   00012FH   BYTE   UNIT     CODE           ?PR?_ADC_THEACLK_SETDIVIDERREGISTER?ADC_THEACLK
00C749H   00C871H   000129H   BYTE   UNIT     CODE           ?PR?LOG?LOG
00C872H   00C991H   000120H   BYTE   UNIT     CODE           ?C_C51STARTUP
00C992H   00CAAAH   000119H   BYTE   UNIT     CODE           ?PR?CYFITTER_CFG?CYFITTER_CFG
00CAABH   00CBADH   000103H   BYTE   UNIT     CODE           ?C_INITSEG
00CBAEH   00CC96H   0000E9H   BYTE   UNIT     CODE           ?PR?CFG_DMA_INIT?CYFITTER_CFG
00CC97H   00CD75H   0000DFH   BYTE   UNIT     CODE           ?PR?_EEPROM_WRITE?EEPROM
00CD76H   00CE50H   0000DBH   BYTE   UNIT     CODE           ?PR?_CALC_TURNS_FCN?UTILS
00CE51H   00CF1CH   0000CCH   BYTE   UNIT     CODE           ?PR?COMMREADMEASFROMSH?COMMAND_PROCESSING
00CF1DH   00CFD4H   0000B8H   BYTE   UNIT     CODE           ?PR?_MEMSTORE?COMMAND_PROCESSING
00CFD5H   00D089H   0000B5H   BYTE   UNIT     CODE           ?PR?_FILTER_CH1?UTILS
00D08AH   00D13EH   0000B5H   BYTE   UNIT     CODE           ?PR?_FILTER_CH2?UTILS
00D13FH   00D1F1H   0000B3H   BYTE   UNIT     CODE           ?PR?_FILTER_CURR_DIFF?UTILS
00D1F2H   00D2A2H   0000B1H   BYTE   UNIT     CODE           ?PR?ADC_INIT?ADC
00D2A3H   00D353H   0000B1H   BYTE   UNIT     CODE           ?PR?UART_RS485_RXISR?UART_RS485_INT
00D354H   00D401H   0000AEH   BYTE   UNIT     CODE           ?PR?_ADC_INITCONFIG?ADC
00D402H   00D4A1H   0000A0H   BYTE   UNIT     CODE           ?PR?DRIVE_SH?COMMAND_PROCESSING
00D4A2H   00D53CH   00009BH   BYTE   UNIT     CODE           ?PR?CMD_GET_CURRENTS?COMMAND_PROCESSING
00D53DH   00D5D6H   00009AH   BYTE   UNIT     CODE           ?PR?EXP?EXP
00D5D7H   00D663H   00008DH   BYTE   UNIT     CODE           ?PR?_COMMWRITE_OLD_ID?COMMAND_PROCESSING
00D664H   00D6F0H   00008DH   BYTE   UNIT     CODE           ?PR?_COMMWRITE?COMMAND_PROCESSING
00D6F1H   00D778H   000088H   BYTE   UNIT     CODE           ?PR?ADC_ENABLE?ADC
00D779H   00D800H   000088H   BYTE   UNIT     CODE           ?PR?_?CYDELAY?CYLIB
00D801H   00D887H   000087H   BYTE   UNIT     CODE           ?PR?_CYDMATDSETCONFIGURATION?CYDMAC
00D888H   00D90AH   000083H   BYTE   UNIT     CODE           ?PR?SETZEROS?COMMAND_PROCESSING
00D90BH   00D98DH   000083H   BYTE   UNIT     CODE           ?PR?_COMMWRITEID?COMMAND_PROCESSING
00D98EH   00DA10H   000083H   BYTE   UNIT     CODE           ?PR?_FILTER_VEL_1?UTILS
00DA11H   00DA93H   000083H   BYTE   UNIT     CODE           ?PR?_FILTER_VEL_2?UTILS
00DA94H   00DB16H   000083H   BYTE   UNIT     CODE           ?PR?_FILTER_VEL_3?UTILS
00DB17H   00DB99H   000083H   BYTE   UNIT     CODE           ?PR?_FILTER_ACC_1?UTILS
00DB9AH   00DC1CH   000083H   BYTE   UNIT     CODE           ?PR?_FILTER_ACC_2?UTILS
00DC1DH   00DC9FH   000083H   BYTE   UNIT     CODE           ?PR?_FILTER_ACC_3?UTILS
00DCA0H   00DD20H   000081H   BYTE   UNIT     CODE           ?PR?_MY_MOD?UTILS
00DD21H   00DD9DH   00007DH   BYTE   UNIT     CODE           ?PR?_FILTER_VOLTAGE?UTILS
00DD9EH   00DE16H   000079H   BYTE   UNIT     CODE           ?PR?_CYDMACHSETCONFIGURATION?CYDMAC
LX51 LINKER/LOCATER V4.64.0.0                                                         04/04/2018  09:18:43  PAGE 6


00DE17H   00DE8EH   000078H   BYTE   UNIT     CODE           ?PR?_CYDMACHSETEXTENDEDADDRESS?CYDMAC
00DE8FH   00DF06H   000078H   BYTE   UNIT     CODE           ?PR?_CYDMATDSETADDRESS?CYDMAC
00DF07H   00DF7DH   000077H   BYTE   UNIT     CODE           ?PR?DRIVE_PROPRIO_FB?COMMAND_PROCESSING
00DF7EH   00DFF3H   000076H   BYTE   UNIT     CODE           ?PR?PWM_LIMIT_SEARCH?INTERRUPTIONS
00DFF4H   00E068H   000075H   BYTE   UNIT     CODE           ?PR?_FILTER_I1?UTILS
00E069H   00E0DCH   000074H   BYTE   UNIT     CODE           ?PR?OVERCURRENT_CONTROL?INTERRUPTIONS
00E0DDH   00E14FH   000073H   BYTE   UNIT     CODE           ?PR?_CYSPCLOADROW?CYSPC
00E150H   00E1BBH   00006CH   BYTE   UNIT     CODE           ?PR?CMD_GET_MEASUREMENTS?COMMAND_PROCESSING
00E1BCH   00E226H   00006BH   BYTE   UNIT     CODE           ?PR?_CHECK_ENC_DATA?UTILS
00E227H   00E291H   00006BH   BYTE   UNIT     CODE           ?PR?_STRCAT?STRCAT
00E292H   00E2F2H   000061H   BYTE   UNIT     CODE           ?PR?CMD_GET_INPUTS?COMMAND_PROCESSING
00E2F3H   00E352H   000060H   BYTE   UNIT     CODE           ?PR?_CYSPCREADDATA?CYSPC
00E353H   00E3ADH   00005BH   BYTE   UNIT     CODE           ?PR?UART_RS485_GETCHAR?UART_RS485
00E3AEH   00E405H   000058H   BYTE   UNIT     CODE           ?PR?DEACTIVATE_SLAVES?COMMAND_PROCESSING
00E406H   00E45BH   000056H   BYTE   UNIT     CODE           ?PR?CYSETTEMPINT?CYFLASH
00E45CH   00E4AFH   000054H   BYTE   UNIT     CODE           ?PR?_CYINTSETVECTOR?CYLIB
00E4B0H   00E503H   000054H   BYTE   UNIT     CODE           ?PR?_CYSPCWRITEROW?CYSPC
00E504H   00E553H   000050H   BYTE   UNIT     CODE           ?PR?CYFLASHGETSPCALGORITHM?CYFLASH
00E554H   00E5A2H   00004FH   BYTE   UNIT     CODE           ?PR?UART_RS485_GETRXBUFFERSIZE?UART_RS485
00E5A3H   00E5EFH   00004DH   BYTE   UNIT     CODE           ?PR?MEMRECALL?COMMAND_PROCESSING
00E5F0H   00E63AH   00004BH   BYTE   UNIT     CODE           ?PR?_CYDMACHENABLE?CYDMAC
00E63BH   00E684H   00004AH   BYTE   UNIT     CODE           ?PR?_DMA_DMAINITIALIZE?DMA_DMA
00E685H   00E6CDH   000049H   BYTE   UNIT     CODE           ?PR?CMD_GET_EMG?COMMAND_PROCESSING
00E6CEH   00E714H   000047H   BYTE   UNIT     CODE           ?PR?MEMRESTORE?COMMAND_PROCESSING
00E715H   00E758H   000044H   BYTE   UNIT     CODE           ?C?LDIV
00E759H   00E79BH   000043H   BYTE   UNIT     CODE           ?PR?CMD_ACTIVATE?COMMAND_PROCESSING
00E79CH   00E7DCH   000041H   BYTE   UNIT     CODE           ?PR?CMD_SET_WATCHDOG?COMMAND_PROCESSING
00E7DDH   00E81CH   000040H   BYTE   UNIT     CODE           ?PR?_CYDMACHPRIORITY?CYDMAC
00E81DH   00E85AH   00003EH   BYTE   UNIT     CODE           ?PR?CYDMATDALLOCATE?CYDMAC
00E85BH   00E897H   00003DH   BYTE   UNIT     CODE           ?PR?_ADC_SETDSMREF0REG?ADC
00E898H   00E8D3H   00003CH   BYTE   UNIT     CODE           ?PR?PACER_TIMER_INIT?PACER_TIMER
00E8D4H   00E90EH   00003BH   BYTE   UNIT     CODE           ?PR?_INFOGET?COMMAND_PROCESSING
00E90FH   00E949H   00003BH   BYTE   UNIT     CODE           ?PR?ANALOGSETDEFAULT?CYFITTER_CFG
00E94AH   00E981H   000038H   BYTE   UNIT     CODE           ?PR?WATCHDOG_COUNTER_INIT?WATCHDOG_COUNTER
00E982H   00E9B7H   000036H   BYTE   UNIT     CODE           ?PR?CYDMACCONFIGURE?CYDMAC
00E9B8H   00E9ECH   000035H   BYTE   UNIT     CODE           ?PR?COUNTER_ENC_INIT?COUNTER_ENC
00E9EDH   00E9FFH   000013H   BYTE   UNIT     CODE           ?PR?PWM_MOTORS_START?PWM_MOTORS
00EA00H   00EA3AH   00003BH   PAGE   UNIT     CODE           ?PR?CYDELAYCYCLES?CYBOOTASMKEIL
00EA3BH   00EA6EH   000034H   BYTE   UNIT     CODE           ?PR?_UART_RS485_PUTSTRING?UART_RS485
00EA6FH   00EAA2H   000034H   BYTE   UNIT     CODE           ?PR?_CYCONFIGCPY?CYMEM
00EAA3H   00EAD5H   000033H   BYTE   UNIT     CODE           ?PR?UART_RS485_INIT?UART_RS485
00EAD6H   00EB07H   000032H   BYTE   UNIT     CODE           ?PR?_LCRCHECKSUM?COMMAND_PROCESSING
00EB08H   00EB38H   000031H   BYTE   UNIT     CODE           ?PR?_ADC_AMUX_UNSET?CYFITTER_CFG
00EB39H   00EB69H   000031H   BYTE   UNIT     CODE           ?PR?CYEEPROM_START?CYFLASH
00EB6AH   00EB99H   000030H   BYTE   UNIT     CODE           ?PR?_ADC_AMUX_SET?CYFITTER_CFG
00EB9AH   00EBC9H   000030H   BYTE   UNIT     CODE           ?PR?CYINTINITVECTORS?CYLIB
00EBCAH   00EBF8H   00002FH   BYTE   UNIT     CODE           ?PR?UART_RS485_CLEARRXBUFFER?UART_RS485
00EBF9H   00EC26H   00002EH   BYTE   UNIT     CODE           ?PR?_CYSPCGETTEMP?CYSPC
00EC27H   00EC27H   000001H   BYTE   UNIT     CODE           ?PR?ISR_RS485_RX_INTERRUPT?ISR_RS485_RX
00EC28H   00EC54H   00002DH   DWORD  UNIT     CODE           ?PR?CYDELAYUS?CYBOOTASMKEIL
00EC55H   00EC80H   00002CH   BYTE   UNIT     CODE           ?PR?MY_TIMER_INIT?MY_TIMER
00EC81H   00ECABH   00002BH   BYTE   UNIT     CODE           ?PR?CMD_GET_ACTIVATE?COMMAND_PROCESSING
00ECACH   00ECD2H   000027H   BYTE   UNIT     CODE           ?PR?PUTCHAR?PUTCHAR
00ECD3H   00ECF8H   000026H   BYTE   UNIT     CODE           ?PR?PWM_MOTORS_INIT?PWM_MOTORS
00ECF9H   00ED1EH   000026H   BYTE   UNIT     CODE           ?PR?CYCONFIGCPYCODE?CYMEM
00ED1FH   00ED40H   000022H   BYTE   UNIT     CODE           ?PR?UART_RS485_ENABLE?UART_RS485
00ED41H   00ED62H   000022H   BYTE   UNIT     CODE           ?PR?UART_RS485_STOP?UART_RS485
00ED63H   00ED83H   000021H   BYTE   UNIT     CODE           ?PR?LED_BLINK_INIT?LED_BLINK
00ED84H   00EDA4H   000021H   BYTE   UNIT     CODE           ?PR?ADC_AMUX_START?ADC_AMUX
00EDA5H   00EDC4H   000020H   BYTE   UNIT     CODE           ?PR?CMD_SET_BAUDRATE?COMMAND_PROCESSING
00EDC5H   00EDE3H   00001FH   BYTE   UNIT     CODE           ?PR?_ISR_RS485_RX_STARTEX?ISR_RS485_RX
00EDE4H   00EE02H   00001FH   BYTE   UNIT     CODE           ?PR?_ISR_WATCHDOG_STARTEX?ISR_WATCHDOG
00EE03H   00EE21H   00001FH   BYTE   UNIT     CODE           ?PR?CYSPCLOCK?CYSPC
00EE22H   00EE3FH   00001EH   BYTE   UNIT     CODE           ?PR?_CYDMACHSETINITIALTD?CYDMAC
00EE40H   00EE5BH   00001CH   BYTE   UNIT     CODE           ?PR?_WATCHDOG_COUNTER_WRITECOUNTER?WATCHDOG_COUNTER
LX51 LINKER/LOCATER V4.64.0.0                                                         04/04/2018  09:18:43  PAGE 7


00EE5CH   00EE76H   00001BH   BYTE   UNIT     CODE           ?PR?CYSPCGETALGORITHM?CYSPC
00EE77H   00EE8FH   000019H   BYTE   UNIT     CODE           ?PR?ADC_START?ADC
00EE90H   00EEA8H   000019H   BYTE   UNIT     CODE           ?PR?_CYINTSETPRIORITY?CYLIB
00EEA9H   00EEC1H   000019H   BYTE   UNIT     CODE           ?PR?_ADC_AMUX_SELECT?ADC_AMUX
00EEC2H   00EED9H   000018H   BYTE   UNIT     CODE           ?PR?CYSETTEMP?CYFLASH
00EEDAH   00EEF1H   000018H   BYTE   UNIT     CODE           ?PR?CYEXITCRITICALSECTION?CYBOOTASMKEIL
00EEF2H   00EF07H   000016H   BYTE   UNIT     CODE           ?PR?PACER_TIMER_ENABLE?PACER_TIMER
00EF08H   00EF1DH   000016H   BYTE   UNIT     CODE           ?PR?WATCHDOG_COUNTER_ENABLE?WATCHDOG_COUNTER
00EF1EH   00EF32H   000015H   BYTE   UNIT     CODE           ?PR?_SENDACKNOWLEDGMENT?COMMAND_PROCESSING
00EF33H   00EF47H   000015H   BYTE   UNIT     CODE           ?PR?CYENTERCRITICALSECTION?CYBOOTASMKEIL
00EF48H   00EF5CH   000015H   BYTE   UNIT     CODE           ?PR?CYSPCSTART?CYSPC
00EF5DH   00EF71H   000015H   BYTE   UNIT     CODE           ?PR?_STRLEN?STRLEN
00EF72H   00EF85H   000014H   BYTE   UNIT     CODE           ?PR?CMD_PING?COMMAND_PROCESSING
00EF86H   00EF99H   000014H   BYTE   UNIT     CODE           ?PR?UART_RS485_READRXSTATUS?UART_RS485
00EF9AH   00EFACH   000013H   BYTE   UNIT     CODE           ?PR?PACER_TIMER_START?PACER_TIMER
00EFADH   00EFBFH   000013H   BYTE   UNIT     CODE           ?PR?UART_RS485_START?UART_RS485
00EFC0H   00EFD2H   000013H   BYTE   UNIT     CODE           ?PR?COUNTER_ENC_START?COUNTER_ENC
00EFD3H   00EFE5H   000013H   BYTE   UNIT     CODE           ?PR?SHIFTREG_ENC_3_START?SHIFTREG_ENC_3
00EFE6H   00EFF8H   000013H   BYTE   UNIT     CODE           ?PR?SHIFTREG_ENC_2_START?SHIFTREG_ENC_2
00EFF9H   00F00BH   000013H   BYTE   UNIT     CODE           ?PR?MY_TIMER_START?MY_TIMER
00F00CH   00F01EH   000013H   BYTE   UNIT     CODE           ?PR?SHIFTREG_ENC_1_START?SHIFTREG_ENC_1
00F01FH   00F031H   000013H   BYTE   UNIT     CODE           ?PR?WATCHDOG_COUNTER_START?WATCHDOG_COUNTER
00F032H   00F044H   000013H   BYTE   UNIT     CODE           ?PR?LED_BLINK_START?LED_BLINK
00F045H   00F057H   000013H   BYTE   UNIT     CODE           ?PR?CYREAD24?CYMEM
00F058H   00F069H   000012H   BYTE   UNIT     CODE           ?PR?UART_RS485_CLEARTXBUFFER?UART_RS485
00F06AH   00F07BH   000012H   BYTE   UNIT     CODE           ?PR?CYWRITE24?CYMEM
00F07CH   00F08CH   000011H   BYTE   UNIT     CODE           ?PR?_SHIFTREG_ENC_3_SETINTMODE?SHIFTREG_ENC_3
00F08DH   00F09DH   000011H   BYTE   UNIT     CODE           ?PR?_SHIFTREG_ENC_2_SETINTMODE?SHIFTREG_ENC_2
00F09EH   00F0AEH   000011H   BYTE   UNIT     CODE           ?PR?_SHIFTREG_ENC_1_SETINTMODE?SHIFTREG_ENC_1
00F0AFH   00F0BDH   00000FH   BYTE   UNIT     CODE           ?PR?MY_TIMER_READCOUNTER?MY_TIMER
00F0BEH   00F0CCH   00000FH   BYTE   UNIT     CODE           ?PR?CYREAD16?CYMEM
00F0CDH   00F0DBH   00000FH   BYTE   UNIT     CODE           ?PR?CYWRITE16?CYMEM
00F0DCH   00F0E9H   00000EH   BYTE   UNIT     CODE           ?PR?_ISR_RS485_RX_SETVECTOR?ISR_RS485_RX
00F0EAH   00F0F7H   00000EH   BYTE   UNIT     CODE           ?PR?_PACER_TIMER_WRITEPERIOD?PACER_TIMER
00F0F8H   00F105H   00000EH   BYTE   UNIT     CODE           ?PR?_PACER_TIMER_WRITECOUNTER?PACER_TIMER
00F106H   00F113H   00000EH   BYTE   UNIT     CODE           ?PR?SHIFTREG_ENC_3_ENABLEINT?SHIFTREG_ENC_3
00F114H   00F121H   00000EH   BYTE   UNIT     CODE           ?PR?SHIFTREG_ENC_2_ENABLEINT?SHIFTREG_ENC_2
00F122H   00F12FH   00000EH   BYTE   UNIT     CODE           ?PR?SHIFTREG_ENC_1_ENABLEINT?SHIFTREG_ENC_1
00F130H   00F13DH   00000EH   BYTE   UNIT     CODE           ?PR?_ISR_WATCHDOG_SETVECTOR?ISR_WATCHDOG
00F13EH   00F14BH   00000EH   BYTE   UNIT     CODE           ?PR?_WATCHDOG_COUNTER_WRITEPERIOD?WATCHDOG_COUNTER
00F14CH   00F158H   00000DH   BYTE   UNIT     CODE           ?PR?_UART_RS485_PUTCHAR?UART_RS485
00F159H   00F165H   00000DH   BYTE   UNIT     CODE           ?PR?COUNTER_ENC_CLEARFIFO?COUNTER_ENC
00F166H   00F172H   00000DH   BYTE   UNIT     CODE           ?PR?MY_TIMER_CLEARFIFO?MY_TIMER
00F173H   00F17FH   00000DH   BYTE   UNIT     CODE           ?PR?_ADC_EXT_CP_CLK_SETMODEREGISTER?ADC_EXT_CP_CLK
00F180H   00F18CH   00000DH   BYTE   UNIT     CODE           ?PR?_ADC_THEACLK_SETMODEREGISTER?ADC_THEACLK
00F18DH   00F198H   00000CH   BYTE   UNIT     CODE           ?PR?CYREAD8?CYMEM
00F199H   00F1A4H   00000CH   BYTE   UNIT     CODE           ?PR?CYWRITE8?CYMEM
00F1A5H   00F1B0H   00000CH   BYTE   UNIT     CODE           ?PR?CYSPCUNLOCK?CYSPC
00F1B1H   00F1BCH   00000CH   BYTE   UNIT     CODE           ?PR?_ABS?ABS
00F1BDH   00F1C7H   00000BH   BYTE   UNIT     CODE           ?PR?SHIFTREG_ENC_3_ENABLE?SHIFTREG_ENC_3
00F1C8H   00F1D2H   00000BH   BYTE   UNIT     CODE           ?PR?SHIFTREG_ENC_2_ENABLE?SHIFTREG_ENC_2
00F1D3H   00F1DDH   00000BH   BYTE   UNIT     CODE           ?PR?SHIFTREG_ENC_1_ENABLE?SHIFTREG_ENC_1
00F1DEH   00F1E7H   00000AH   BYTE   UNIT     CODE           ?PR?CLOCK_UART_GETDIVIDERREGISTER?CLOCK_UART
00F1E8H   00F1F1H   00000AH   BYTE   UNIT     CODE           ?PR?_ISR_RS485_RX_SETPRIORITY?ISR_RS485_RX
00F1F2H   00F1FBH   00000AH   BYTE   UNIT     CODE           ?PR?SHIFTREG_ENC_3_READDATA?SHIFTREG_ENC_3
00F1FCH   00F205H   00000AH   BYTE   UNIT     CODE           ?PR?SHIFTREG_ENC_2_READDATA?SHIFTREG_ENC_2
00F206H   00F20FH   00000AH   BYTE   UNIT     CODE           ?PR?BOOTLOADABLE_LOAD?BOOTLOADABLE
00F210H   00F219H   00000AH   BYTE   UNIT     CODE           ?PR?_MY_TIMER_WRITEPERIOD?MY_TIMER
00F21AH   00F223H   00000AH   BYTE   UNIT     CODE           ?PR?MY_TIMER_READCAPTURE?MY_TIMER
00F224H   00F22DH   00000AH   BYTE   UNIT     CODE           ?PR?_MY_TIMER_WRITECOUNTER?MY_TIMER
00F22EH   00F237H   00000AH   BYTE   UNIT     CODE           ?PR?SHIFTREG_ENC_1_READDATA?SHIFTREG_ENC_1
00F238H   00F241H   00000AH   BYTE   UNIT     CODE           ?PR?_ISR_WATCHDOG_SETPRIORITY?ISR_WATCHDOG
00F242H   00F24BH   00000AH   BYTE   UNIT     CODE           ?PR?ADC_EXT_CP_CLK_GETDIVIDERREGISTER?ADC_EXT_CP_CLK
00F24CH   00F255H   00000AH   BYTE   UNIT     CODE           ?PR?ADC_THEACLK_GETDIVIDERREGISTER?ADC_THEACLK
00F256H   00F25DH   000008H   BYTE   UNIT     CODE           ?PR?CLOCK_UART_GETSOURCEREGISTER?CLOCK_UART
LX51 LINKER/LOCATER V4.64.0.0                                                         04/04/2018  09:18:43  PAGE 8


00F25EH   00F265H   000008H   BYTE   UNIT     CODE           ?PR?PWM_MOTORS_ENABLE?PWM_MOTORS
00F266H   00F26DH   000008H   BYTE   UNIT     CODE           ?PR?COUNTER_ENC_ENABLE?COUNTER_ENC
00F26EH   00F275H   000008H   BYTE   UNIT     CODE           ?PR?MY_TIMER_ENABLE?MY_TIMER
00F276H   00F27DH   000008H   BYTE   UNIT     CODE           ?PR?CYSOFTWARERESET?CYLIB
00F27EH   00F285H   000008H   BYTE   UNIT     CODE           ?PR?LED_BLINK_ENABLE?LED_BLINK
00F286H   00F28DH   000008H   BYTE   UNIT     CODE           ?PR?ADC_EXT_CP_CLK_GETSOURCEREGISTER?ADC_EXT_CP_CLK
00F28EH   00F295H   000008H   BYTE   UNIT     CODE           ?PR?ADC_THEACLK_GETSOURCEREGISTER?ADC_THEACLK
00F296H   00F29CH   000007H   BYTE   UNIT     CODE           ?PR?ISR_RS485_RX_ENABLE?ISR_RS485_RX
00F29DH   00F2A3H   000007H   BYTE   UNIT     CODE           ?PR?ISR_RS485_RX_DISABLE?ISR_RS485_RX
00F2A4H   00F2AAH   000007H   BYTE   UNIT     CODE           ?PR?EEPROM_ENABLE?EEPROM
00F2ABH   00F2B1H   000007H   BYTE   UNIT     CODE           ?PR?ISR_WATCHDOG_ENABLE?ISR_WATCHDOG
00F2B2H   00F2B8H   000007H   BYTE   UNIT     CODE           ?PR?ISR_WATCHDOG_DISABLE?ISR_WATCHDOG
00F2B9H   00F2BEH   000006H   BYTE   UNIT     CODE           ?PR?_PWM_MOTORS_WRITECOUNTER?PWM_MOTORS
00F2BFH   00F2C4H   000006H   BYTE   UNIT     CODE           ?PR?_PWM_MOTORS_WRITEPERIOD?PWM_MOTORS
00F2C5H   00F2CAH   000006H   BYTE   UNIT     CODE           ?PR?_PWM_MOTORS_WRITECOMPARE1?PWM_MOTORS
00F2CBH   00F2D0H   000006H   BYTE   UNIT     CODE           ?PR?_PWM_MOTORS_WRITECOMPARE2?PWM_MOTORS
00F2D1H   00F2D6H   000006H   BYTE   UNIT     CODE           ?PR?_PACER_TIMER_SETINTERRUPTMODE?PACER_TIMER
00F2D7H   00F2DCH   000006H   BYTE   UNIT     CODE           ?PR?UART_RS485_READTXSTATUS?UART_RS485
00F2DDH   00F2E2H   000006H   BYTE   UNIT     CODE           ?PR?_MOTOR_DIR_WRITE?MOTOR_DIR
00F2E3H   00F2E8H   000006H   BYTE   UNIT     CODE           ?PR?_COUNTER_ENC_SETINTERRUPTMODE?COUNTER_ENC
00F2E9H   00F2EEH   000006H   BYTE   UNIT     CODE           ?PR?COUNTER_ENC_READSTATUSREGISTER?COUNTER_ENC
00F2EFH   00F2F4H   000006H   BYTE   UNIT     CODE           ?PR?_COUNTER_ENC_WRITECOUNTER?COUNTER_ENC
00F2F5H   00F2FAH   000006H   BYTE   UNIT     CODE           ?PR?COUNTER_ENC_READCAPTURE?COUNTER_ENC
00F2FBH   00F300H   000006H   BYTE   UNIT     CODE           ?PR?_COUNTER_ENC_WRITEPERIOD?COUNTER_ENC
00F301H   00F306H   000006H   BYTE   UNIT     CODE           ?PR?_COUNTER_ENC_WRITECOMPARE?COUNTER_ENC
00F307H   00F30CH   000006H   BYTE   UNIT     CODE           ?PR?SHIFTREG_ENC_3_INIT?SHIFTREG_ENC_3
00F30DH   00F312H   000006H   BYTE   UNIT     CODE           ?PR?SHIFTREG_ENC_2_INIT?SHIFTREG_ENC_2
00F313H   00F318H   000006H   BYTE   UNIT     CODE           ?PR?_RS485_CTS_WRITE?RS485_CTS
00F319H   00F31EH   000006H   BYTE   UNIT     CODE           ?PR?_MOTOR_ON_OFF_WRITE?MOTOR_ON_OFF
00F31FH   00F324H   000006H   BYTE   UNIT     CODE           ?PR?_FTDI_ENABLE_REG_WRITE?FTDI_ENABLE_REG
00F325H   00F32AH   000006H   BYTE   UNIT     CODE           ?PR?_RESET_FF_WRITE?RESET_FF
00F32BH   00F330H   000006H   BYTE   UNIT     CODE           ?PR?FF_STATUS_READ?FF_STATUS
00F331H   00F336H   000006H   BYTE   UNIT     CODE           ?PR?_MY_TIMER_SETINTERRUPTMODE?MY_TIMER
00F337H   00F33CH   000006H   BYTE   UNIT     CODE           ?PR?MY_TIMER_READSTATUSREGISTER?MY_TIMER
00F33DH   00F342H   000006H   BYTE   UNIT     CODE           ?PR?SHIFTREG_ENC_1_INIT?SHIFTREG_ENC_1
00F343H   00F348H   000006H   BYTE   UNIT     CODE           ?PR?_RESET_COUNTERS_WRITE?RESET_COUNTERS
00F349H   00F34EH   000006H   BYTE   UNIT     CODE           ?PR?ADC_STATUS_READ?ADC_STATUS
00F34FH   00F354H   000006H   BYTE   UNIT     CODE           ?PR?_ADC_SOC_WRITE?ADC_SOC
00F355H   00F35AH   000006H   BYTE   UNIT     CODE           ?PR?_WATCHDOG_COUNTER_SETINTERRUPTMODE?WATCHDOG_COUNTER
00F35BH   00F360H   000006H   BYTE   UNIT     CODE           ?PR?_WATCHDOG_ENABLER_WRITE?WATCHDOG_ENABLER
00F361H   00F366H   000006H   BYTE   UNIT     CODE           ?PR?_WATCHDOG_REFRESH_WRITE?WATCHDOG_REFRESH
00F367H   00F36CH   000006H   BYTE   UNIT     CODE           ?PR?_LED_BLINK_WRITECOUNTER?LED_BLINK
00F36DH   00F372H   000006H   BYTE   UNIT     CODE           ?PR?_LED_BLINK_WRITEPERIOD?LED_BLINK
00F373H   00F378H   000006H   BYTE   UNIT     CODE           ?PR?_LED_BLINK_WRITECOMPARE?LED_BLINK
00F379H   00F37EH   000006H   BYTE   UNIT     CODE           ?PR?_LED_CTRL_WRITE?LED_CTRL
00F37FH   00F384H   000006H   BYTE   UNIT     CODE           ?PR?_LED_BLINK_EN_WRITE?LED_BLINK_EN
00F385H   00F388H   000004H   BYTE   UNIT     CODE           ?PR?EEPROM_START?EEPROM
00F389H   00F38BH   000003H   BYTE   UNIT     CODE           ?PR?ISR_WATCHDOG_HANDLER?INTERRUPTIONS
00F38CH   00F38EH   000003H   BYTE   UNIT     CODE           ?PR?ISR_RS485_RX_EXINTERRUPT?INTERRUPTIONS
00F38FH   00F391H   000003H   BYTE   UNIT     CODE           ?PR?_CYCLOCKSTARTUPERROR?CYFITTER_CFG
00F392H   00F394H   000003H   BYTE   UNIT     CODE           ?PR?INTDEFAULTHANDLER?CYLIB
00F395H   00F395H   000001H   BYTE   UNIT     CODE           ?PR?ISR_WATCHDOG_INTERRUPT?ISR_WATCHDOG
00F396H   00F396H   000001H   BYTE   UNIT     CODE           ?PR?ADC_ISR1?ADC_INT
00F397H   00F397H   000001H   BYTE   UNIT     CODE           ?PR?ADC_ISR2?ADC_INT
00F398H   00F398H   000001H   BYTE   UNIT     CODE           ?PR?ADC_ISR3?ADC_INT
00F399H   00F399H   000001H   BYTE   UNIT     CODE           ?PR?ADC_ISR4?ADC_INT
00F39AH   00FB3CH   0007A3H   BYTE   UNIT     CONST          ?CO?CYFITTER_CFG

* * * * * * * * * * *  X D A T A   M E M O R Y  * * * * * * * * * * * * *
000000H   000E11H   000E12H   BYTE   UNIT     XDATA          _XDATA_GROUP_
000E12H   0010FFH   0002EEH   BYTE   UNIT     XDATA          ?XD?GLOBALS
001100H   00120BH   00010CH   BYTE   UNIT     XDATA          ?XD?INTERRUPTIONS
00120CH   00128CH   000081H   BYTE   UNIT     XDATA          ?XD?UTILS
00128DH   0012CFH   000043H   BYTE   UNIT     XDATA          ?XD?CYPM
0012D0H   0012F6H   000027H   BYTE   UNIT     XDATA          ?XD?UART_RS485
LX51 LINKER/LOCATER V4.64.0.0                                                         04/04/2018  09:18:43  PAGE 9


0012F7H   001306H   000010H   BYTE   UNIT     XDATA          ?XD?ADC
001307H   001315H   00000FH   BYTE   UNIT     XDATA          ?XD?CYLIB
001316H   00131BH   000006H   BYTE   UNIT     XDATA          ?XD?CYDMAC
00131CH   001320H   000005H   BYTE   UNIT     XDATA          ?XD?CYFLASH
001321H   001324H   000004H   BYTE   UNIT     XDATA          ?XD?CYFITTER_CFG
001325H   001326H   000002H   BYTE   UNIT     XDATA          ?XD?COMMAND_PROCESSING
001327H   001327H   000001H   BYTE   UNIT     XDATA          ?XD?PWM_MOTORS
001328H   001328H   000001H   BYTE   UNIT     XDATA          ?XD?PACER_TIMER
001329H   001329H   000001H   BYTE   UNIT     XDATA          ?XD?COUNTER_ENC
00132AH   00132AH   000001H   BYTE   UNIT     XDATA          ?XD?SHIFTREG_ENC_3
00132BH   00132BH   000001H   BYTE   UNIT     XDATA          ?XD?SHIFTREG_ENC_2
00132CH   00132CH   000001H   BYTE   UNIT     XDATA          ?XD?MY_TIMER
00132DH   00132DH   000001H   BYTE   UNIT     XDATA          ?XD?SHIFTREG_ENC_1
00132EH   00132EH   000001H   BYTE   UNIT     XDATA          ?XD?DMA_DMA
00132FH   00132FH   000001H   BYTE   UNIT     XDATA          ?XD?WATCHDOG_COUNTER
001330H   001330H   000001H   BYTE   UNIT     XDATA          ?XD?LED_BLINK
001331H   001331H   000001H   BYTE   UNIT     XDATA          ?XD?ADC_AMUX
001332H   001332H   000001H   BYTE   UNIT     XDATA          ?XD?CYSPC

* * * * * * * * *   R E M O V E D     S E G M E N T S   * * * * * * * *
   *DEL*:           000013H   BYTE   UNIT     CODE           ?PR?INFOSEND?COMMAND_PROCESSING
   *DEL*:           0005DCH   BYTE   UNIT     XDATA          ?XD?INFOSEND?COMMAND_PROCESSING
   *DEL*:           0000E6H   BYTE   UNIT     CODE           ?PR?CMD_GET_CURR_AND_MEAS?COMMAND_PROCESSING
   *DEL*:           00000CH   BYTE   UNIT     XDATA          ?XD?CMD_GET_CURR_AND_MEAS?COMMAND_PROCESSING
   *DEL*:           000001H   BYTE   UNIT     DATA           ?DT?CMD_GET_CURR_AND_MEAS?COMMAND_PROCESSING
   *DEL*:           000075H   BYTE   UNIT     CODE           ?PR?_FILTER_V?UTILS
   *DEL*:           000054H   BYTE   UNIT     CODE           ?PR?_MY_ROUND?UTILS
   *DEL*:           000004H   BYTE   UNIT     XDATA          ?XD?_MY_ROUND?UTILS
   *DEL*:           00001AH   BYTE   UNIT     CODE           ?PR?_SETANALOGROUTINGPUMPS?CYFITTER_CFG
   *DEL*:           00000FH   BYTE   UNIT     CODE           ?PR?CLOCK_UART_START?CLOCK_UART
   *DEL*:           00000FH   BYTE   UNIT     CODE           ?PR?CLOCK_UART_STOP?CLOCK_UART
   *DEL*:           00006DH   BYTE   UNIT     CODE           ?PR?CLOCK_UART_STOPBLOCK?CLOCK_UART
   *DEL*:           000002H   BYTE   UNIT     XDATA          ?XD?CLOCK_UART_STOPBLOCK?CLOCK_UART
   *DEL*:           000013H   BYTE   UNIT     CODE           ?PR?_CLOCK_UART_STANDBYPOWER?CLOCK_UART
   *DEL*:           00000DH   BYTE   UNIT     CODE           ?PR?_CLOCK_UART_SETMODEREGISTER?CLOCK_UART
   *DEL*:           00000EH   BYTE   UNIT     CODE           ?PR?_CLOCK_UART_CLEARMODEREGISTER?CLOCK_UART
   *DEL*:           000008H   BYTE   UNIT     CODE           ?PR?CLOCK_UART_GETMODEREGISTER?CLOCK_UART
   *DEL*:           000062H   BYTE   UNIT     CODE           ?PR?_CLOCK_UART_SETSOURCEREGISTER?CLOCK_UART
   *DEL*:           000003H   BYTE   UNIT     XDATA          ?XD?_CLOCK_UART_SETSOURCEREGISTER?CLOCK_UART
   *DEL*:           000013H   BYTE   UNIT     CODE           ?PR?ISR_RS485_RX_START?ISR_RS485_RX
   *DEL*:           000004H   BYTE   UNIT     CODE           ?PR?ISR_RS485_RX_STOP?ISR_RS485_RX
   *DEL*:           00000AH   BYTE   UNIT     CODE           ?PR?ISR_RS485_RX_GETVECTOR?ISR_RS485_RX
   *DEL*:           00000BH   BYTE   UNIT     CODE           ?PR?ISR_RS485_RX_GETPRIORITY?ISR_RS485_RX
   *DEL*:           00000EH   BYTE   UNIT     CODE           ?PR?ISR_RS485_RX_GETSTATE?ISR_RS485_RX
   *DEL*:           000007H   BYTE   UNIT     CODE           ?PR?ISR_RS485_RX_SETPENDING?ISR_RS485_RX
   *DEL*:           000007H   BYTE   UNIT     CODE           ?PR?ISR_RS485_RX_CLEARPENDING?ISR_RS485_RX
   *DEL*:           000008H   BYTE   UNIT     CODE           ?PR?PWM_MOTORS_STOP?PWM_MOTORS
   *DEL*:           00000BH   BYTE   UNIT     CODE           ?PR?PWM_MOTORS_READCOUNTER?PWM_MOTORS
   *DEL*:           000006H   BYTE   UNIT     CODE           ?PR?PWM_MOTORS_READCONTROLREGISTER?PWM_MOTORS
   *DEL*:           000006H   BYTE   UNIT     CODE           ?PR?_PWM_MOTORS_WRITECONTROLREGISTER?PWM_MOTORS
   *DEL*:           000006H   BYTE   UNIT     CODE           ?PR?PWM_MOTORS_READCAPTURE?PWM_MOTORS
   *DEL*:           000006H   BYTE   UNIT     CODE           ?PR?PWM_MOTORS_READCOMPARE1?PWM_MOTORS
   *DEL*:           000006H   BYTE   UNIT     CODE           ?PR?PWM_MOTORS_READCOMPARE2?PWM_MOTORS
   *DEL*:           000006H   BYTE   UNIT     CODE           ?PR?PWM_MOTORS_READPERIOD?PWM_MOTORS
   *DEL*:           000016H   BYTE   UNIT     CODE           ?PR?PACER_TIMER_STOP?PACER_TIMER
   *DEL*:           00000AH   BYTE   UNIT     CODE           ?PR?PACER_TIMER_SOFTWARECAPTURE?PACER_TIMER
   *DEL*:           000006H   BYTE   UNIT     CODE           ?PR?PACER_TIMER_READSTATUSREGISTER?PACER_TIMER
   *DEL*:           000006H   BYTE   UNIT     CODE           ?PR?PACER_TIMER_READCONTROLREGISTER?PACER_TIMER
   *DEL*:           000006H   BYTE   UNIT     CODE           ?PR?_PACER_TIMER_WRITECONTROLREGISTER?PACER_TIMER
   *DEL*:           00000AH   BYTE   UNIT     CODE           ?PR?PACER_TIMER_READPERIOD?PACER_TIMER
   *DEL*:           00000AH   BYTE   UNIT     CODE           ?PR?PACER_TIMER_READCAPTURE?PACER_TIMER
   *DEL*:           000013H   BYTE   UNIT     CODE           ?PR?PACER_TIMER_READCOUNTER?PACER_TIMER
   *DEL*:           000003H   BYTE   UNIT     CODE           ?PR?UART_RS485_READCONTROLREGISTER?UART_RS485
   *DEL*:           000006H   BYTE   UNIT     CODE           ?PR?_UART_RS485_WRITECONTROLREGISTER?UART_RS485
   *DEL*:           000001H   BYTE   UNIT     XDATA          ?XD?_UART_RS485_WRITECONTROLREGISTER?UART_RS485
LX51 LINKER/LOCATER V4.64.0.0                                                         04/04/2018  09:18:43  PAGE 10


   *DEL*:           000006H   BYTE   UNIT     CODE           ?PR?_UART_RS485_SETRXINTERRUPTMODE?UART_RS485
   *DEL*:           00004AH   BYTE   UNIT     CODE           ?PR?UART_RS485_READRXDATA?UART_RS485
   *DEL*:           00001FH   BYTE   UNIT     CODE           ?PR?UART_RS485_GETBYTE?UART_RS485
   *DEL*:           000006H   BYTE   UNIT     CODE           ?PR?_UART_RS485_SETRXADDRESSMODE?UART_RS485
   *DEL*:           000001H   BYTE   UNIT     XDATA          ?XD?_UART_RS485_SETRXADDRESSMODE?UART_RS485
   *DEL*:           000006H   BYTE   UNIT     CODE           ?PR?_UART_RS485_SETRXADDRESS1?UART_RS485
   *DEL*:           000006H   BYTE   UNIT     CODE           ?PR?_UART_RS485_SETRXADDRESS2?UART_RS485
   *DEL*:           000006H   BYTE   UNIT     CODE           ?PR?_UART_RS485_SETTXINTERRUPTMODE?UART_RS485
   *DEL*:           00000CH   BYTE   UNIT     CODE           ?PR?_UART_RS485_WRITETXDATA?UART_RS485
   *DEL*:           000032H   BYTE   UNIT     CODE           ?PR?_UART_RS485_PUTARRAY?UART_RS485
   *DEL*:           000003H   BYTE   UNIT     XDATA          ?XD?_UART_RS485_PUTARRAY?UART_RS485
   *DEL*:           000014H   BYTE   UNIT     CODE           ?PR?_UART_RS485_PUTCRLF?UART_RS485
   *DEL*:           000017H   BYTE   UNIT     CODE           ?PR?UART_RS485_GETTXBUFFERSIZE?UART_RS485
   *DEL*:           000059H   BYTE   UNIT     CODE           ?PR?_UART_RS485_SENDBREAK?UART_RS485
   *DEL*:           000001H   BYTE   UNIT     XDATA          ?XD?_UART_RS485_SENDBREAK?UART_RS485
   *DEL*:           000006H   BYTE   UNIT     CODE           ?PR?_UART_RS485_SETTXADDRESSMODE?UART_RS485
   *DEL*:           000001H   BYTE   UNIT     XDATA          ?XD?_UART_RS485_SETTXADDRESSMODE?UART_RS485
   *DEL*:           000006H   BYTE   UNIT     CODE           ?PR?MOTOR_DIR_READ?MOTOR_DIR
   *DEL*:           000008H   BYTE   UNIT     CODE           ?PR?COUNTER_ENC_STOP?COUNTER_ENC
   *DEL*:           000006H   BYTE   UNIT     CODE           ?PR?COUNTER_ENC_READCONTROLREGISTER?COUNTER_ENC
   *DEL*:           000006H   BYTE   UNIT     CODE           ?PR?_COUNTER_ENC_WRITECONTROLREGISTER?COUNTER_ENC
   *DEL*:           00000BH   BYTE   UNIT     CODE           ?PR?COUNTER_ENC_READCOUNTER?COUNTER_ENC
   *DEL*:           000006H   BYTE   UNIT     CODE           ?PR?COUNTER_ENC_READPERIOD?COUNTER_ENC
   *DEL*:           000006H   BYTE   UNIT     CODE           ?PR?COUNTER_ENC_READCOMPARE?COUNTER_ENC
   *DEL*:           00000BH   BYTE   UNIT     CODE           ?PR?SHIFTREG_ENC_3_STOP?SHIFTREG_ENC_3
   *DEL*:           00000EH   BYTE   UNIT     CODE           ?PR?SHIFTREG_ENC_3_DISABLEINT?SHIFTREG_ENC_3
   *DEL*:           000036H   BYTE   UNIT     CODE           ?PR?_SHIFTREG_ENC_3_GETFIFOSTATUS?SHIFTREG_ENC_3
   *DEL*:           000008H   BYTE   UNIT     CODE           ?PR?SHIFTREG_ENC_3_GETINTSTATUS?SHIFTREG_ENC_3
   *DEL*:           00000AH   BYTE   UNIT     CODE           ?PR?_SHIFTREG_ENC_3_WRITEREGVALUE?SHIFTREG_ENC_3
   *DEL*:           000053H   BYTE   UNIT     CODE           ?PR?SHIFTREG_ENC_3_READREGVALUE?SHIFTREG_ENC_3
   *DEL*:           000004H   BYTE   UNIT     XDATA          ?XD?SHIFTREG_ENC_3_READREGVALUE?SHIFTREG_ENC_3
   *DEL*:           00000BH   BYTE   UNIT     CODE           ?PR?SHIFTREG_ENC_2_STOP?SHIFTREG_ENC_2
   *DEL*:           00000EH   BYTE   UNIT     CODE           ?PR?SHIFTREG_ENC_2_DISABLEINT?SHIFTREG_ENC_2
   *DEL*:           000036H   BYTE   UNIT     CODE           ?PR?_SHIFTREG_ENC_2_GETFIFOSTATUS?SHIFTREG_ENC_2
   *DEL*:           000008H   BYTE   UNIT     CODE           ?PR?SHIFTREG_ENC_2_GETINTSTATUS?SHIFTREG_ENC_2
   *DEL*:           00000AH   BYTE   UNIT     CODE           ?PR?_SHIFTREG_ENC_2_WRITEREGVALUE?SHIFTREG_ENC_2
   *DEL*:           000053H   BYTE   UNIT     CODE           ?PR?SHIFTREG_ENC_2_READREGVALUE?SHIFTREG_ENC_2
   *DEL*:           000004H   BYTE   UNIT     XDATA          ?XD?SHIFTREG_ENC_2_READREGVALUE?SHIFTREG_ENC_2
   *DEL*:           000004H   BYTE   UNIT     CODE           ?PR?EEPROM_STOP?EEPROM
   *DEL*:           000124H   BYTE   UNIT     CODE           ?PR?_EEPROM_WRITEBYTE?EEPROM
   *DEL*:           000008H   BYTE   UNIT     XDATA          ?XD?_EEPROM_WRITEBYTE?EEPROM
   *DEL*:           00003AH   BYTE   UNIT     CODE           ?PR?_EEPROM_READBYTE?EEPROM
   *DEL*:           000004H   BYTE   UNIT     XDATA          ?XD?_EEPROM_READBYTE?EEPROM
   *DEL*:           000004H   BYTE   UNIT     CODE           ?PR?EEPROM_UPDATETEMPERATURE?EEPROM
   *DEL*:           00006FH   BYTE   UNIT     CODE           ?PR?_EEPROM_ERASESECTOR?EEPROM
   *DEL*:           000002H   BYTE   UNIT     XDATA          ?XD?_EEPROM_ERASESECTOR?EEPROM
   *DEL*:           0000B9H   BYTE   UNIT     CODE           ?PR?_EEPROM_STARTWRITE?EEPROM
   *DEL*:           000005H   BYTE   UNIT     XDATA          ?XD?_EEPROM_STARTWRITE?EEPROM
   *DEL*:           000046H   BYTE   UNIT     CODE           ?PR?_EEPROM_STARTERASE?EEPROM
   *DEL*:           000002H   BYTE   UNIT     XDATA          ?XD?_EEPROM_STARTERASE?EEPROM
   *DEL*:           00003BH   BYTE   UNIT     CODE           ?PR?EEPROM_QUERY?EEPROM
   *DEL*:           000001H   BYTE   UNIT     XDATA          ?XD?EEPROM_QUERY?EEPROM
   *DEL*:           0000E5H   BYTE   UNIT     CODE           ?PR?_EEPROM_BYTEWRITEPOS?EEPROM
   *DEL*:           000004H   BYTE   UNIT     XDATA          ?XD?_EEPROM_BYTEWRITEPOS?EEPROM
   *DEL*:           000088H   BYTE   UNIT     CODE           ?PR?ADC_STOP?ADC
   *DEL*:           000001H   BYTE   UNIT     XDATA          ?XD?ADC_STOP?ADC
   *DEL*:           000012H   BYTE   UNIT     CODE           ?PR?_ADC_SETBUFFERGAIN?ADC
   *DEL*:           00000EH   BYTE   UNIT     CODE           ?PR?_ADC_SETCOHERENCY?ADC
   *DEL*:           0000F2H   BYTE   UNIT     CODE           ?PR?_ADC_SETGCOR?ADC
   *DEL*:           00000BH   BYTE   UNIT     XDATA          ?XD?_ADC_SETGCOR?ADC
   *DEL*:           000039H   BYTE   UNIT     CODE           ?PR?ADC_READGCOR?ADC
   *DEL*:           000001H   BYTE   UNIT     XDATA          ?XD?ADC_READGCOR?ADC
   *DEL*:           000008H   BYTE   UNIT     CODE           ?PR?ADC_STARTCONVERT?ADC
   *DEL*:           000008H   BYTE   UNIT     CODE           ?PR?ADC_STOPCONVERT?ADC
   *DEL*:           00001FH   BYTE   UNIT     CODE           ?PR?_ADC_ISENDCONVERSION?ADC
LX51 LINKER/LOCATER V4.64.0.0                                                         04/04/2018  09:18:43  PAGE 11


   *DEL*:           00002CH   BYTE   UNIT     CODE           ?PR?ADC_GETRESULT8?ADC
   *DEL*:           000060H   BYTE   UNIT     CODE           ?PR?ADC_GETRESULT16?ADC
   *DEL*:           000003H   BYTE   UNIT     XDATA          ?XD?ADC_GETRESULT16?ADC
   *DEL*:           0001B4H   BYTE   UNIT     CODE           ?PR?ADC_GETRESULT32?ADC
   *DEL*:           000007H   BYTE   UNIT     XDATA          ?XD?ADC_GETRESULT32?ADC
   *DEL*:           000007H   BYTE   UNIT     CODE           ?PR?_ADC_SETOFFSET?ADC
   *DEL*:           000007H   BYTE   UNIT     CODE           ?PR?_ADC_SETGAIN?ADC
   *DEL*:           00005FH   BYTE   UNIT     CODE           ?PR?_ADC_COUNTSTO_MVOLTS?ADC
   *DEL*:           000004H   BYTE   UNIT     XDATA          ?XD?_ADC_COUNTSTO_MVOLTS?ADC
   *DEL*:           00006DH   BYTE   UNIT     CODE           ?PR?_ADC_COUNTSTO_VOLTS?ADC
   *DEL*:           000004H   BYTE   UNIT     XDATA          ?XD?_ADC_COUNTSTO_VOLTS?ADC
   *DEL*:           000137H   BYTE   UNIT     CODE           ?PR?_ADC_COUNTSTO_UVOLTS?ADC
   *DEL*:           00000DH   BYTE   UNIT     XDATA          ?XD?_ADC_COUNTSTO_UVOLTS?ADC
   *DEL*:           000072H   BYTE   UNIT     CODE           ?PR?_ADC_SELECTCONFIGURATION?ADC
   *DEL*:           000002H   BYTE   UNIT     XDATA          ?XD?_ADC_SELECTCONFIGURATION?ADC
   *DEL*:           000016H   BYTE   UNIT     CODE           ?PR?ADC_READ8?ADC
   *DEL*:           000016H   BYTE   UNIT     CODE           ?PR?ADC_READ16?ADC
   *DEL*:           000016H   BYTE   UNIT     CODE           ?PR?ADC_READ32?ADC
   *DEL*:           000006H   BYTE   UNIT     CODE           ?PR?RS485_CTS_READ?RS485_CTS
   *DEL*:           0000FBH   BYTE   UNIT     CODE           ?PR?_BOOTLOADABLE_SETFLASHBYTE?BOOTLOADABLE
   *DEL*:           000110H   BYTE   UNIT     XDATA          ?XD?_BOOTLOADABLE_SETFLASHBYTE?BOOTLOADABLE
   *DEL*:           000006H   BYTE   UNIT     CODE           ?PR?MOTOR_ON_OFF_READ?MOTOR_ON_OFF
   *DEL*:           000006H   BYTE   UNIT     CODE           ?PR?FTDI_ENABLE_REG_READ?FTDI_ENABLE_REG
   *DEL*:           000006H   BYTE   UNIT     CODE           ?PR?RESET_FF_READ?RESET_FF
   *DEL*:           00000EH   BYTE   UNIT     CODE           ?PR?FF_STATUS_INTERRUPTENABLE?FF_STATUS
   *DEL*:           00000EH   BYTE   UNIT     CODE           ?PR?FF_STATUS_INTERRUPTDISABLE?FF_STATUS
   *DEL*:           000009H   BYTE   UNIT     CODE           ?PR?_FF_STATUS_WRITEMASK?FF_STATUS
   *DEL*:           000006H   BYTE   UNIT     CODE           ?PR?FF_STATUS_READMASK?FF_STATUS
   *DEL*:           000008H   BYTE   UNIT     CODE           ?PR?MY_TIMER_STOP?MY_TIMER
   *DEL*:           000006H   BYTE   UNIT     CODE           ?PR?MY_TIMER_SOFTWARECAPTURE?MY_TIMER
   *DEL*:           000006H   BYTE   UNIT     CODE           ?PR?MY_TIMER_READCONTROLREGISTER?MY_TIMER
   *DEL*:           000006H   BYTE   UNIT     CODE           ?PR?_MY_TIMER_WRITECONTROLREGISTER?MY_TIMER
   *DEL*:           00000AH   BYTE   UNIT     CODE           ?PR?MY_TIMER_READPERIOD?MY_TIMER
   *DEL*:           00000BH   BYTE   UNIT     CODE           ?PR?SHIFTREG_ENC_1_STOP?SHIFTREG_ENC_1
   *DEL*:           00000EH   BYTE   UNIT     CODE           ?PR?SHIFTREG_ENC_1_DISABLEINT?SHIFTREG_ENC_1
   *DEL*:           000036H   BYTE   UNIT     CODE           ?PR?_SHIFTREG_ENC_1_GETFIFOSTATUS?SHIFTREG_ENC_1
   *DEL*:           000008H   BYTE   UNIT     CODE           ?PR?SHIFTREG_ENC_1_GETINTSTATUS?SHIFTREG_ENC_1
   *DEL*:           00000AH   BYTE   UNIT     CODE           ?PR?_SHIFTREG_ENC_1_WRITEREGVALUE?SHIFTREG_ENC_1
   *DEL*:           000053H   BYTE   UNIT     CODE           ?PR?SHIFTREG_ENC_1_READREGVALUE?SHIFTREG_ENC_1
   *DEL*:           000004H   BYTE   UNIT     XDATA          ?XD?SHIFTREG_ENC_1_READREGVALUE?SHIFTREG_ENC_1
   *DEL*:           000006H   BYTE   UNIT     CODE           ?PR?RESET_COUNTERS_READ?RESET_COUNTERS
   *DEL*:           00000EH   BYTE   UNIT     CODE           ?PR?ADC_STATUS_INTERRUPTENABLE?ADC_STATUS
   *DEL*:           00000EH   BYTE   UNIT     CODE           ?PR?ADC_STATUS_INTERRUPTDISABLE?ADC_STATUS
   *DEL*:           000009H   BYTE   UNIT     CODE           ?PR?_ADC_STATUS_WRITEMASK?ADC_STATUS
   *DEL*:           000006H   BYTE   UNIT     CODE           ?PR?ADC_STATUS_READMASK?ADC_STATUS
   *DEL*:           000009H   BYTE   UNIT     CODE           ?PR?DMA_DMARELEASE?DMA_DMA
   *DEL*:           000006H   BYTE   UNIT     CODE           ?PR?ADC_SOC_READ?ADC_SOC
   *DEL*:           000013H   BYTE   UNIT     CODE           ?PR?ISR_WATCHDOG_START?ISR_WATCHDOG
   *DEL*:           000004H   BYTE   UNIT     CODE           ?PR?ISR_WATCHDOG_STOP?ISR_WATCHDOG
   *DEL*:           00000AH   BYTE   UNIT     CODE           ?PR?ISR_WATCHDOG_GETVECTOR?ISR_WATCHDOG
   *DEL*:           00000BH   BYTE   UNIT     CODE           ?PR?ISR_WATCHDOG_GETPRIORITY?ISR_WATCHDOG
   *DEL*:           00000EH   BYTE   UNIT     CODE           ?PR?ISR_WATCHDOG_GETSTATE?ISR_WATCHDOG
   *DEL*:           000007H   BYTE   UNIT     CODE           ?PR?ISR_WATCHDOG_SETPENDING?ISR_WATCHDOG
   *DEL*:           000007H   BYTE   UNIT     CODE           ?PR?ISR_WATCHDOG_CLEARPENDING?ISR_WATCHDOG
   *DEL*:           000016H   BYTE   UNIT     CODE           ?PR?WATCHDOG_COUNTER_STOP?WATCHDOG_COUNTER
   *DEL*:           000006H   BYTE   UNIT     CODE           ?PR?WATCHDOG_COUNTER_READSTATUSREGISTER?WATCHDOG_COUNTER
   *DEL*:           000006H   BYTE   UNIT     CODE           ?PR?WATCHDOG_COUNTER_READCONTROLREGISTER?WATCHDOG_COUNTER
   *DEL*:           000006H   BYTE   UNIT     CODE           ?PR?_WATCHDOG_COUNTER_WRITECONTROLREGISTER?WATCHDOG_COUNTE
                                                             -R
   *DEL*:           000013H   BYTE   UNIT     CODE           ?PR?WATCHDOG_COUNTER_READCOUNTER?WATCHDOG_COUNTER
   *DEL*:           00000AH   BYTE   UNIT     CODE           ?PR?WATCHDOG_COUNTER_READCAPTURE?WATCHDOG_COUNTER
   *DEL*:           00000AH   BYTE   UNIT     CODE           ?PR?WATCHDOG_COUNTER_READPERIOD?WATCHDOG_COUNTER
   *DEL*:           000006H   BYTE   UNIT     CODE           ?PR?WATCHDOG_ENABLER_READ?WATCHDOG_ENABLER
   *DEL*:           000006H   BYTE   UNIT     CODE           ?PR?WATCHDOG_REFRESH_READ?WATCHDOG_REFRESH
   *DEL*:           000012H   BYTE   UNIT     CODE           ?PR?CYDMACERROR?CYDMAC
LX51 LINKER/LOCATER V4.64.0.0                                                         04/04/2018  09:18:43  PAGE 12


   *DEL*:           000010H   BYTE   UNIT     CODE           ?PR?_CYDMACCLEARERROR?CYDMAC
   *DEL*:           00000AH   BYTE   UNIT     CODE           ?PR?CYDMACERRORADDRESS?CYDMAC
   *DEL*:           0000BEH   BYTE   UNIT     CODE           ?PR?CYDMACHALLOC?CYDMAC
   *DEL*:           000006H   BYTE   UNIT     XDATA          ?XD?CYDMACHALLOC?CYDMAC
   *DEL*:           000064H   BYTE   UNIT     CODE           ?PR?_CYDMACHFREE?CYDMAC
   *DEL*:           000003H   BYTE   UNIT     XDATA          ?XD?_CYDMACHFREE?CYDMAC
   *DEL*:           000033H   BYTE   UNIT     CODE           ?PR?_CYDMACHDISABLE?CYDMAC
   *DEL*:           000033H   BYTE   UNIT     CODE           ?PR?_CYDMACLEARPENDINGDRQ?CYDMAC
   *DEL*:           000025H   BYTE   UNIT     CODE           ?PR?_CYDMACHSETREQUEST?CYDMAC
   *DEL*:           000024H   BYTE   UNIT     CODE           ?PR?_CYDMACHGETREQUEST?CYDMAC
   *DEL*:           000072H   BYTE   UNIT     CODE           ?PR?_CYDMACHSTATUS?CYDMAC
   *DEL*:           000007H   BYTE   UNIT     XDATA          ?XD?_CYDMACHSTATUS?CYDMAC
   *DEL*:           00003EH   BYTE   UNIT     CODE           ?PR?_CYDMATDFREE?CYDMAC
   *DEL*:           000002H   BYTE   UNIT     XDATA          ?XD?_CYDMATDFREE?CYDMAC
   *DEL*:           000009H   BYTE   UNIT     CODE           ?PR?CYDMATDFREECOUNT?CYDMAC
   *DEL*:           0000C9H   BYTE   UNIT     CODE           ?PR?_CYDMATDGETCONFIGURATION?CYDMAC
   *DEL*:           00000DH   BYTE   UNIT     XDATA          ?XD?_CYDMATDGETCONFIGURATION?CYDMAC
   *DEL*:           0000A6H   BYTE   UNIT     CODE           ?PR?_CYDMATDGETADDRESS?CYDMAC
   *DEL*:           00000AH   BYTE   UNIT     XDATA          ?XD?_CYDMATDGETADDRESS?CYDMAC
   *DEL*:           000038H   BYTE   UNIT     CODE           ?PR?_CYDMACHROUNDROBIN?CYDMAC
   *DEL*:           000031H   BYTE   UNIT     CODE           ?PR?CYFLASH_START?CYFLASH
   *DEL*:           000015H   BYTE   UNIT     CODE           ?PR?CYFLASH_STOP?CYFLASH
   *DEL*:           00007DH   BYTE   UNIT     CODE           ?PR?_CYSETFLASHEEBUFFER?CYFLASH
   *DEL*:           000004H   BYTE   UNIT     XDATA          ?XD?_CYSETFLASHEEBUFFER?CYFLASH
   *DEL*:           000034H   BYTE   UNIT     CODE           ?PR?_CYWRITEROWDATA?CYFLASH
   *DEL*:           000003H   BYTE   UNIT     XDATA          ?XD?_CYWRITEROWDATA?CYFLASH
   *DEL*:           000190H   BYTE   UNIT     CODE           ?PR?_CYWRITEROWFULL?CYFLASH
   *DEL*:           000009H   BYTE   UNIT     XDATA          ?XD?_CYWRITEROWFULL?CYFLASH
   *DEL*:           000044H   BYTE   UNIT     CODE           ?PR?_CYFLASH_SETWAITCYCLES?CYFLASH
   *DEL*:           000001H   BYTE   UNIT     XDATA          ?XD?_CYFLASH_SETWAITCYCLES?CYFLASH
   *DEL*:           000015H   BYTE   UNIT     CODE           ?PR?CYEEPROM_STOP?CYFLASH
   *DEL*:           000010H   BYTE   UNIT     CODE           ?PR?CYEEPROM_READRESERVE?CYFLASH
   *DEL*:           000008H   BYTE   UNIT     CODE           ?PR?CYEEPROM_READRELEASE?CYFLASH
   *DEL*:           00006EH   BYTE   UNIT     CODE           ?PR?_CYPLL_OUT_START?CYLIB
   *DEL*:           000004H   BYTE   UNIT     XDATA          ?XD?_CYPLL_OUT_START?CYLIB
   *DEL*:           000008H   BYTE   UNIT     CODE           ?PR?CYPLL_OUT_STOP?CYLIB
   *DEL*:           000036H   BYTE   UNIT     CODE           ?PR?_CYPLL_OUT_SETPQ?CYLIB
   *DEL*:           000010H   BYTE   UNIT     CODE           ?PR?_CYPLL_OUT_SETSOURCE?CYLIB
   *DEL*:           000053H   BYTE   UNIT     CODE           ?PR?_CYIMO_START?CYLIB
   *DEL*:           000003H   BYTE   UNIT     XDATA          ?XD?_CYIMO_START?CYLIB
   *DEL*:           00000FH   BYTE   UNIT     CODE           ?PR?CYIMO_STOP?CYLIB
   *DEL*:           000027H   BYTE   UNIT     CODE           ?PR?CYUSB_POWERONCHECK?CYLIB
   *DEL*:           0000B6H   BYTE   UNIT     CODE           ?PR?_CYIMO_SETTRIMVALUE?CYLIB
   *DEL*:           000001H   BYTE   UNIT     XDATA          ?XD?_CYIMO_SETTRIMVALUE?CYLIB
   *DEL*:           000118H   BYTE   UNIT     CODE           ?PR?_CYIMO_SETFREQ?CYLIB
   *DEL*:           000003H   BYTE   UNIT     XDATA          ?XD?_CYIMO_SETFREQ?CYLIB
   *DEL*:           00002FH   BYTE   UNIT     CODE           ?PR?_CYIMO_SETSOURCE?CYLIB
   *DEL*:           000008H   BYTE   UNIT     CODE           ?PR?CYIMO_ENABLEDOUBLER?CYLIB
   *DEL*:           000008H   BYTE   UNIT     CODE           ?PR?CYIMO_DISABLEDOUBLER?CYLIB
   *DEL*:           00000DH   BYTE   UNIT     CODE           ?PR?_CYMASTERCLK_SETSOURCE?CYLIB
   *DEL*:           000006H   BYTE   UNIT     CODE           ?PR?_CYMASTERCLK_SETDIVIDER?CYLIB
   *DEL*:           000023H   BYTE   UNIT     CODE           ?PR?_CYBUSCLK_INTERNAL_SETDIVIDER?CYLIB
   *DEL*:           00007AH   BYTE   UNIT     CODE           ?PR?_CYBUSCLK_SETDIVIDER?CYLIB
   *DEL*:           000002H   BYTE   UNIT     XDATA          ?XD?_CYBUSCLK_SETDIVIDER?CYLIB
   *DEL*:           00000EH   BYTE   UNIT     CODE           ?PR?_CYCPUCLK_SETDIVIDER?CYLIB
   *DEL*:           00000DH   BYTE   UNIT     CODE           ?PR?_CYUSBCLK_SETSOURCE?CYLIB
   *DEL*:           000008H   BYTE   UNIT     CODE           ?PR?CYILO_START1K?CYLIB
   *DEL*:           000008H   BYTE   UNIT     CODE           ?PR?CYILO_STOP1K?CYLIB
   *DEL*:           000008H   BYTE   UNIT     CODE           ?PR?CYILO_START100K?CYLIB
   *DEL*:           000008H   BYTE   UNIT     CODE           ?PR?CYILO_STOP100K?CYLIB
   *DEL*:           000008H   BYTE   UNIT     CODE           ?PR?CYILO_ENABLE33K?CYLIB
   *DEL*:           000008H   BYTE   UNIT     CODE           ?PR?CYILO_DISABLE33K?CYLIB
   *DEL*:           000011H   BYTE   UNIT     CODE           ?PR?_CYILO_SETSOURCE?CYLIB
   *DEL*:           000029H   BYTE   UNIT     CODE           ?PR?_CYILO_SETPOWERMODE?CYLIB
   *DEL*:           00005EH   BYTE   UNIT     CODE           ?PR?CYXTAL_32KHZ_START?CYLIB
LX51 LINKER/LOCATER V4.64.0.0                                                         04/04/2018  09:18:43  PAGE 13


   *DEL*:           000002H   BYTE   UNIT     XDATA          ?XD?CYXTAL_32KHZ_START?CYLIB
   *DEL*:           000020H   BYTE   UNIT     CODE           ?PR?CYXTAL_32KHZ_STOP?CYLIB
   *DEL*:           000008H   BYTE   UNIT     CODE           ?PR?CYXTAL_32KHZ_READSTATUS?CYLIB
   *DEL*:           000066H   BYTE   UNIT     CODE           ?PR?_CYXTAL_32KHZ_SETPOWERMODE?CYLIB
   *DEL*:           000001H   BYTE   UNIT     XDATA          ?XD?_CYXTAL_32KHZ_SETPOWERMODE?CYLIB
   *DEL*:           0000A0H   BYTE   UNIT     CODE           ?PR?_CYXTAL_START?CYLIB
   *DEL*:           000006H   BYTE   UNIT     XDATA          ?XD?_CYXTAL_START?CYLIB
   *DEL*:           000008H   BYTE   UNIT     CODE           ?PR?CYXTAL_STOP?CYLIB
   *DEL*:           000008H   BYTE   UNIT     CODE           ?PR?CYXTAL_ENABLEERRSTATUS?CYLIB
   *DEL*:           000008H   BYTE   UNIT     CODE           ?PR?CYXTAL_DISABLEERRSTATUS?CYLIB
   *DEL*:           00000FH   BYTE   UNIT     CODE           ?PR?CYXTAL_READSTATUS?CYLIB
   *DEL*:           000008H   BYTE   UNIT     CODE           ?PR?CYXTAL_ENABLEFAULTRECOVERY?CYLIB
   *DEL*:           000008H   BYTE   UNIT     CODE           ?PR?CYXTAL_DISABLEFAULTRECOVERY?CYLIB
   *DEL*:           00000DH   BYTE   UNIT     CODE           ?PR?_CYXTAL_SETSTARTUP?CYLIB
   *DEL*:           00000DH   BYTE   UNIT     CODE           ?PR?_CYXTAL_SETFBVOLTAGE?CYLIB
   *DEL*:           00000EH   BYTE   UNIT     CODE           ?PR?_CYXTAL_SETWDVOLTAGE?CYLIB
   *DEL*:           000015H   BYTE   UNIT     CODE           ?PR?_?CYHALT?CYLIB
   *DEL*:           0000B8H   BYTE   UNIT     CODE           ?PR?_?CYDELAYFREQ?CYLIB
   *DEL*:           000026H   BYTE   UNIT     CODE           ?PR?_CYWDTSTART?CYLIB
   *DEL*:           000007H   BYTE   UNIT     CODE           ?PR?CYWDTCLEAR?CYLIB
   *DEL*:           000084H   BYTE   UNIT     CODE           ?PR?_CYVDLVDIGITENABLE?CYLIB
   *DEL*:           000007H   BYTE   UNIT     XDATA          ?XD?_CYVDLVDIGITENABLE?CYLIB
   *DEL*:           000083H   BYTE   UNIT     CODE           ?PR?_CYVDLVANALOGENABLE?CYLIB
   *DEL*:           000007H   BYTE   UNIT     XDATA          ?XD?_CYVDLVANALOGENABLE?CYLIB
   *DEL*:           00001DH   BYTE   UNIT     CODE           ?PR?CYVDLVDIGITDISABLE?CYLIB
   *DEL*:           000018H   BYTE   UNIT     CODE           ?PR?CYVDLVANALOGDISABLE?CYLIB
   *DEL*:           000056H   BYTE   UNIT     CODE           ?PR?CYVDHVANALOGENABLE?CYLIB
   *DEL*:           000005H   BYTE   UNIT     XDATA          ?XD?CYVDHVANALOGENABLE?CYLIB
   *DEL*:           000011H   BYTE   UNIT     CODE           ?PR?CYVDHVANALOGDISABLE?CYLIB
   *DEL*:           000039H   BYTE   UNIT     CODE           ?PR?_CYVDSTICKYSTATUS?CYLIB
   *DEL*:           000002H   BYTE   UNIT     XDATA          ?XD?_CYVDSTICKYSTATUS?CYLIB
   *DEL*:           000018H   BYTE   UNIT     CODE           ?PR?CYVDREALTIMESTATUS?CYLIB
   *DEL*:           000001H   BYTE   UNIT     XDATA          ?XD?CYVDREALTIMESTATUS?CYLIB
   *DEL*:           0000D0H   BYTE   UNIT     CODE           ?PR?CYDISABLEINTS?CYLIB
   *DEL*:           000005H   BYTE   UNIT     XDATA          ?XD?CYDISABLEINTS?CYLIB
   *DEL*:           000067H   BYTE   UNIT     CODE           ?PR?_CYENABLEINTS?CYLIB
   *DEL*:           000004H   BYTE   UNIT     XDATA          ?XD?_CYENABLEINTS?CYLIB
   *DEL*:           000018H   BYTE   UNIT     CODE           ?PR?_CYINTGETVECTOR?CYLIB
   *DEL*:           000014H   BYTE   UNIT     CODE           ?PR?_CYINTGETPRIORITY?CYLIB
   *DEL*:           000036H   BYTE   UNIT     CODE           ?PR?_CYINTGETSTATE?CYLIB
   *DEL*:           000248H   BYTE   UNIT     CODE           ?PR?_CYGETUNIQUEID?CYLIB
   *DEL*:           000003H   BYTE   UNIT     XDATA          ?XD?_CYGETUNIQUEID?CYLIB
   *DEL*:           000008H   BYTE   UNIT     CODE           ?PR?LED_BLINK_STOP?LED_BLINK
   *DEL*:           00000BH   BYTE   UNIT     CODE           ?PR?LED_BLINK_READCOUNTER?LED_BLINK
   *DEL*:           000006H   BYTE   UNIT     CODE           ?PR?LED_BLINK_READCONTROLREGISTER?LED_BLINK
   *DEL*:           000006H   BYTE   UNIT     CODE           ?PR?_LED_BLINK_WRITECONTROLREGISTER?LED_BLINK
   *DEL*:           000006H   BYTE   UNIT     CODE           ?PR?LED_BLINK_READCAPTURE?LED_BLINK
   *DEL*:           000006H   BYTE   UNIT     CODE           ?PR?LED_BLINK_READCOMPARE?LED_BLINK
   *DEL*:           000006H   BYTE   UNIT     CODE           ?PR?LED_BLINK_READPERIOD?LED_BLINK
   *DEL*:           000006H   BYTE   UNIT     CODE           ?PR?LED_CTRL_READ?LED_CTRL
   *DEL*:           000006H   BYTE   UNIT     CODE           ?PR?LED_BLINK_EN_READ?LED_BLINK_EN
   *DEL*:           000004H   BYTE   UNIT     CODE           ?PR?_CyDelay?CYBOOTASMKEIL
   *DEL*:           000019H   BYTE   UNIT     CODE           ?PR?CYMEMZERO?CYMEM
   *DEL*:           00002DH   BYTE   UNIT     CODE           ?PR?CFG_WRITE_BYTES?CYMEM
   *DEL*:           00002EH   BYTE   UNIT     CODE           ?PR?CY_WRITE_BYTES_CODE?CYMEM
   *DEL*:           000015H   BYTE   UNIT     CODE           ?PR?CYREAD32?CYMEM
   *DEL*:           000015H   BYTE   UNIT     CODE           ?PR?CYWRITE32?CYMEM
   *DEL*:           000021H   BYTE   UNIT     CODE           ?PR?_ADC_AMUX_FASTSELECT?ADC_AMUX
   *DEL*:           000001H   BYTE   UNIT     XDATA          ?XD?_ADC_AMUX_FASTSELECT?ADC_AMUX
   *DEL*:           00000FH   BYTE   UNIT     CODE           ?PR?ADC_EXT_CP_CLK_START?ADC_EXT_CP_CLK
   *DEL*:           00000FH   BYTE   UNIT     CODE           ?PR?ADC_EXT_CP_CLK_STOP?ADC_EXT_CP_CLK
   *DEL*:           00006EH   BYTE   UNIT     CODE           ?PR?ADC_EXT_CP_CLK_STOPBLOCK?ADC_EXT_CP_CLK
   *DEL*:           000002H   BYTE   UNIT     XDATA          ?XD?ADC_EXT_CP_CLK_STOPBLOCK?ADC_EXT_CP_CLK
   *DEL*:           000013H   BYTE   UNIT     CODE           ?PR?_ADC_EXT_CP_CLK_STANDBYPOWER?ADC_EXT_CP_CLK
   *DEL*:           00000EH   BYTE   UNIT     CODE           ?PR?_ADC_EXT_CP_CLK_CLEARMODEREGISTER?ADC_EXT_CP_CLK
LX51 LINKER/LOCATER V4.64.0.0                                                         04/04/2018  09:18:43  PAGE 14


   *DEL*:           000008H   BYTE   UNIT     CODE           ?PR?ADC_EXT_CP_CLK_GETMODEREGISTER?ADC_EXT_CP_CLK
   *DEL*:           000062H   BYTE   UNIT     CODE           ?PR?_ADC_EXT_CP_CLK_SETSOURCEREGISTER?ADC_EXT_CP_CLK
   *DEL*:           000003H   BYTE   UNIT     XDATA          ?XD?_ADC_EXT_CP_CLK_SETSOURCEREGISTER?ADC_EXT_CP_CLK
   *DEL*:           00000FH   BYTE   UNIT     CODE           ?PR?ADC_THEACLK_START?ADC_THEACLK
   *DEL*:           00000FH   BYTE   UNIT     CODE           ?PR?ADC_THEACLK_STOP?ADC_THEACLK
   *DEL*:           00006CH   BYTE   UNIT     CODE           ?PR?ADC_THEACLK_STOPBLOCK?ADC_THEACLK
   *DEL*:           000002H   BYTE   UNIT     XDATA          ?XD?ADC_THEACLK_STOPBLOCK?ADC_THEACLK
   *DEL*:           000013H   BYTE   UNIT     CODE           ?PR?_ADC_THEACLK_STANDBYPOWER?ADC_THEACLK
   *DEL*:           00000EH   BYTE   UNIT     CODE           ?PR?_ADC_THEACLK_CLEARMODEREGISTER?ADC_THEACLK
   *DEL*:           000008H   BYTE   UNIT     CODE           ?PR?ADC_THEACLK_GETMODEREGISTER?ADC_THEACLK
   *DEL*:           000062H   BYTE   UNIT     CODE           ?PR?_ADC_THEACLK_SETSOURCEREGISTER?ADC_THEACLK
   *DEL*:           000003H   BYTE   UNIT     XDATA          ?XD?_ADC_THEACLK_SETSOURCEREGISTER?ADC_THEACLK
   *DEL*:           000008H   BYTE   UNIT     CODE           ?PR?_ADC_THEACLK_SETPHASEREGISTER?ADC_THEACLK
   *DEL*:           000008H   BYTE   UNIT     CODE           ?PR?ADC_THEACLK_GETPHASEREGISTER?ADC_THEACLK
   *DEL*:           0001A9H   BYTE   UNIT     CODE           ?PR?CYPMSAVECLOCKS?CYPM
   *DEL*:           00024CH   BYTE   UNIT     CODE           ?PR?CYPMRESTORECLOCKS?CYPM
   *DEL*:           000003H   BYTE   UNIT     XDATA          ?XD?CYPMRESTORECLOCKS?CYPM
   *DEL*:           0000E0H   BYTE   UNIT     CODE           ?PR?_CYPMALTACT?CYPM
   *DEL*:           000004H   BYTE   UNIT     XDATA          ?XD?_CYPMALTACT?CYPM
   *DEL*:           000160H   BYTE   UNIT     CODE           ?PR?_CYPMSLEEP?CYPM
   *DEL*:           000004H   BYTE   UNIT     XDATA          ?XD?_CYPMSLEEP?CYPM
   *DEL*:           000008H   BYTE   UNIT     CODE           ?PR?CYPMHIBERNATE?CYPM
   *DEL*:           0000D6H   BYTE   UNIT     CODE           ?PR?_CYPMHIBERNATEEX?CYPM
   *DEL*:           000003H   BYTE   UNIT     XDATA          ?XD?_CYPMHIBERNATEEX?CYPM
   *DEL*:           000039H   BYTE   UNIT     CODE           ?PR?_CYPMREADSTATUS?CYPM
   *DEL*:           000002H   BYTE   UNIT     XDATA          ?XD?_CYPMREADSTATUS?CYPM
   *DEL*:           000076H   BYTE   UNIT     CODE           ?PR?CYPMHIBSAVESET?CYPM
   *DEL*:           000040H   BYTE   UNIT     CODE           ?PR?CYPMHIBRESTORE?CYPM
   *DEL*:           000049H   BYTE   UNIT     CODE           ?PR?_CYPMCTWSETINTERVAL?CYPM
   *DEL*:           000001H   BYTE   UNIT     XDATA          ?XD?_CYPMCTWSETINTERVAL?CYPM
   *DEL*:           000017H   BYTE   UNIT     CODE           ?PR?CYPMOPPSSET?CYPM
   *DEL*:           00004DH   BYTE   UNIT     CODE           ?PR?_CYPMFTWSETINTERVAL?CYPM
   *DEL*:           000001H   BYTE   UNIT     XDATA          ?XD?_CYPMFTWSETINTERVAL?CYPM
   *DEL*:           00018CH   BYTE   UNIT     CODE           ?PR?CYPMHIBSLPSAVESET?CYPM
   *DEL*:           00010DH   BYTE   UNIT     CODE           ?PR?CYPMHIBSLPRESTORE?CYPM
   *DEL*:           000082H   BYTE   UNIT     CODE           ?PR?CYPMHVILVISAVEDISABLE?CYPM
   *DEL*:           000033H   BYTE   UNIT     CODE           ?PR?CYPMHVILVIRESTORE?CYPM
   *DEL*:           00000EH   BYTE   UNIT     CONST          ?CO?CYPM
   *DEL*:           000015H   BYTE   UNIT     CODE           ?PR?CYSPCSTOP?CYSPC
   *DEL*:           0000A7H   BYTE   UNIT     CODE           ?PR?_CYSPCLOADMULTIBYTE?CYSPC
   *DEL*:           000007H   BYTE   UNIT     XDATA          ?XD?_CYSPCLOADMULTIBYTE?CYSPC
   *DEL*:           000143H   BYTE   UNIT     CODE           ?PR?_CYSPCLOADROWFULL?CYSPC
   *DEL*:           00000FH   BYTE   UNIT     XDATA          ?XD?_CYSPCLOADROWFULL?CYSPC
   *DEL*:           000030H   BYTE   UNIT     CODE           ?PR?_CYSPCERASESECTOR?CYSPC



OVERLAY MAP OF MODULE:   .\DP8051_Keil_951\Release\hand_firmware_micro.omf (COMMAND_PROCESSING)


FUNCTION/MODULE                                BIT_GROUP   DATA_GROUP   IDATA_GROUP  XDATA_GROUP
--> CALLED FUNCTION/MODULE                    START  STOP  START  STOP  START  STOP  START  STOP
================================================================================================
ISR_WATCHDOG_HANDLER/INTERRUPTIONS            ----- -----  ----- -----  ----- -----  ----- -----

*** NEW ROOT ********************************

ISR_RS485_RX_EXINTERRUPT/INTERRUPTIONS        ----- -----  ----- -----  ----- -----  ----- -----

*** NEW ROOT ********************************

ISR_RS485_RX_INTERRUPT/ISR_RS485_RX           ----- -----  ----- -----  ----- -----  ----- -----

*** NEW ROOT ********************************

LX51 LINKER/LOCATER V4.64.0.0                                                         04/04/2018  09:18:43  PAGE 15


ISR_WATCHDOG_INTERRUPT/ISR_WATCHDOG           ----- -----  ----- -----  ----- -----  ----- -----

*** NEW ROOT ********************************

INTDEFAULTHANDLER/CYLIB                       ----- -----  ----- -----  ----- -----  ----- -----

*** NEW ROOT ********************************

?C_C51STARTUP                                 ----- -----  ----- -----  ----- -----  ----- -----
  +--> ?CO?KEILSTART?3
  +--> CYINTINITVECTORS/CYLIB
  +--> CYFITTER_CFG/CYFITTER_CFG
  +--> CYDMACCONFIGURE/CYDMAC
  +--> MAIN/MAIN
  +--> ?C_INITSEG

?CO?KEILSTART?3                               ----- -----  ----- -----  ----- -----  ----- -----

CYINTINITVECTORS/CYLIB                        ----- -----  ----- -----  ----- -----  0000H 0000H
  +--> CYWRITE16/CYMEM

CYWRITE16/CYMEM                               ----- -----  ----- -----  ----- -----  ----- -----

CYFITTER_CFG/CYFITTER_CFG                     ----- -----  ----- -----  ----- -----  ----- -----
  +--> CYREAD8/CYMEM
  +--> CYWRITE8/CYMEM
  +--> CFG_DMA_INIT/CYFITTER_CFG
  +--> ?CO?CYFITTER_CFG
  +--> CYCONFIGCPYCODE/CYMEM
  +--> _CYCONFIGCPY/CYMEM
  +--> CLOCKSETUP/CYFITTER_CFG
  +--> ANALOGSETDEFAULT/CYFITTER_CFG

CYREAD8/CYMEM                                 ----- -----  ----- -----  ----- -----  ----- -----

CYWRITE8/CYMEM                                ----- -----  ----- -----  ----- -----  ----- -----

CFG_DMA_INIT/CYFITTER_CFG                     ----- -----  ----- -----  ----- -----  ----- -----
  +--> CYWRITE16/CYMEM
  +--> ?CO?CYFITTER_CFG
  +--> _CYCONFIGCPY/CYMEM

?CO?CYFITTER_CFG                              ----- -----  ----- -----  ----- -----  ----- -----

_CYCONFIGCPY/CYMEM                            ----- -----  ----- -----  ----- -----  0005H 000CH

CYCONFIGCPYCODE/CYMEM                         ----- -----  ----- -----  ----- -----  ----- -----

CLOCKSETUP/CYFITTER_CFG                       ----- -----  ----- -----  ----- -----  0000H 0004H
  +--> CYWRITE16/CYMEM
  +--> _CYCONFIGCPY/CYMEM
  +--> CYREAD8/CYMEM
  +--> CYDELAYCYCLES/CYBOOTASMKEIL
  +--> _CYCLOCKSTARTUPERROR/CYFITTER_CFG

CYDELAYCYCLES/CYBOOTASMKEIL                   ----- -----  ----- -----  ----- -----  ----- -----

_CYCLOCKSTARTUPERROR/CYFITTER_CFG             ----- -----  ----- -----  ----- -----  ----- -----

ANALOGSETDEFAULT/CYFITTER_CFG                 ----- -----  ----- -----  ----- -----  ----- -----
  +--> CYREAD8/CYMEM

CYDMACCONFIGURE/CYDMAC                        ----- -----  ----- -----  ----- -----  ----- -----

MAIN/MAIN                                     ----- -----  ----- -----  ----- -----  0000H 0001H
LX51 LINKER/LOCATER V4.64.0.0                                                         04/04/2018  09:18:43  PAGE 16


  +--> EEPROM_START/EEPROM
  +--> MEMRECALL/COMMAND_PROCESSING
  +--> _?CYDELAY/CYLIB
  +--> _FTDI_ENABLE_REG_WRITE/FTDI_ENABLE_REG
  +--> _LED_CTRL_WRITE/LED_CTRL
  +--> _LED_BLINK_EN_WRITE/LED_BLINK_EN
  +--> LED_BLINK_START/LED_BLINK
  +--> _LED_BLINK_WRITECOMPARE/LED_BLINK
  +--> UART_RS485_STOP/UART_RS485
  +--> UART_RS485_START/UART_RS485
  +--> UART_RS485_INIT/UART_RS485
  +--> UART_RS485_CLEARRXBUFFER/UART_RS485
  +--> UART_RS485_CLEARTXBUFFER/UART_RS485
  +--> _ISR_RS485_RX_STARTEX/ISR_RS485_RX
  +--> WATCHDOG_COUNTER_START/WATCHDOG_COUNTER
  +--> _ISR_WATCHDOG_STARTEX/ISR_WATCHDOG
  +--> PWM_MOTORS_START/PWM_MOTORS
  +--> _PWM_MOTORS_WRITECOMPARE1/PWM_MOTORS
  +--> _PWM_MOTORS_WRITECOMPARE2/PWM_MOTORS
  +--> _MOTOR_DIR_WRITE/MOTOR_DIR
  +--> _MOTOR_ON_OFF_WRITE/MOTOR_ON_OFF
  +--> COUNTER_ENC_START/COUNTER_ENC
  +--> SHIFTREG_ENC_1_START/SHIFTREG_ENC_1
  +--> SHIFTREG_ENC_2_START/SHIFTREG_ENC_2
  +--> SHIFTREG_ENC_3_START/SHIFTREG_ENC_3
  +--> ADC_START/ADC
  +--> _ADC_SOC_WRITE/ADC_SOC
  +--> _DMA_DMAINITIALIZE/DMA_DMA
  +--> CYDMATDALLOCATE/CYDMAC
  +--> _CYDMATDSETCONFIGURATION/CYDMAC
  +--> _CYDMATDSETADDRESS/CYDMAC
  +--> _CYDMACHSETINITIALTD/CYDMAC
  +--> _CYDMACHENABLE/CYDMAC
  +--> _RS485_CTS_WRITE/RS485_CTS
  +--> MY_TIMER_START/MY_TIMER
  +--> PACER_TIMER_START/PACER_TIMER
  +--> _RESET_COUNTERS_WRITE/RESET_COUNTERS
  +--> _RESET_FF_WRITE/RESET_FF
  +--> FUNCTION_SCHEDULER/INTERRUPTIONS
  +--> FF_STATUS_READ/FF_STATUS
  +--> _WATCHDOG_REFRESH_WRITE/WATCHDOG_REFRESH
  +--> INTERRUPT_MANAGER/INTERRUPTIONS
  +--> UART_RS485_READRXSTATUS/UART_RS485

EEPROM_START/EEPROM                           ----- -----  ----- -----  ----- -----  ----- -----
  +--> EEPROM_ENABLE/EEPROM

EEPROM_ENABLE/EEPROM                          ----- -----  ----- -----  ----- -----  ----- -----
  +--> CYSETTEMP/CYFLASH
  +--> CYEEPROM_START/CYFLASH

CYSETTEMP/CYFLASH                             ----- -----  ----- -----  ----- -----  0037H 0037H
  +--> CYFLASHGETSPCALGORITHM/CYFLASH
  +--> CYSETTEMPINT/CYFLASH

CYFLASHGETSPCALGORITHM/CYFLASH                ----- -----  ----- -----  ----- -----  0038H 0038H
  +--> CYSPCSTART/CYSPC
  +--> CYSPCLOCK/CYSPC
  +--> CYSPCGETALGORITHM/CYSPC
  +--> CYDELAYUS/CYBOOTASMKEIL
  +--> CYSPCUNLOCK/CYSPC

CYSPCSTART/CYSPC                              ----- -----  ----- -----  ----- -----  ----- -----
  +--> CYENTERCRITICALSECTION/CYBOOTASMKEIL
  +--> CYEXITCRITICALSECTION/CYBOOTASMKEIL
LX51 LINKER/LOCATER V4.64.0.0                                                         04/04/2018  09:18:43  PAGE 17



CYENTERCRITICALSECTION/CYBOOTASMKEIL          ----- -----  ----- -----  ----- -----  ----- -----

CYEXITCRITICALSECTION/CYBOOTASMKEIL           ----- -----  ----- -----  ----- -----  ----- -----

CYSPCLOCK/CYSPC                               ----- -----  ----- -----  ----- -----  003CH 003CH
  +--> CYENTERCRITICALSECTION/CYBOOTASMKEIL
  +--> CYEXITCRITICALSECTION/CYBOOTASMKEIL

CYSPCGETALGORITHM/CYSPC                       ----- -----  ----- -----  ----- -----  ----- -----

CYDELAYUS/CYBOOTASMKEIL                       ----- -----  ----- -----  ----- -----  ----- -----
  +--> CYDELAYCYCLES/CYBOOTASMKEIL

CYSPCUNLOCK/CYSPC                             ----- -----  ----- -----  ----- -----  ----- -----
  +--> CYENTERCRITICALSECTION/CYBOOTASMKEIL
  +--> CYEXITCRITICALSECTION/CYBOOTASMKEIL

CYSETTEMPINT/CYFLASH                          ----- -----  ----- -----  ----- -----  0038H 0038H
  +--> CYSPCSTART/CYSPC
  +--> CYSPCLOCK/CYSPC
  +--> _CYSPCGETTEMP/CYSPC
  +--> _CYSPCREADDATA/CYSPC
  +--> CYDELAYUS/CYBOOTASMKEIL
  +--> CYSPCUNLOCK/CYSPC

_CYSPCGETTEMP/CYSPC                           ----- -----  ----- -----  ----- -----  ----- -----

_CYSPCREADDATA/CYSPC                          ----- -----  ----- -----  ----- -----  0039H 003DH
  +--> CYDELAYUS/CYBOOTASMKEIL

CYEEPROM_START/CYFLASH                        ----- -----  ----- -----  ----- -----  ----- -----
  +--> CYENTERCRITICALSECTION/CYBOOTASMKEIL
  +--> CYEXITCRITICALSECTION/CYBOOTASMKEIL

MEMRECALL/COMMAND_PROCESSING                  ----- -----  ----- -----  ----- -----  ----- -----
  +--> MEMRESTORE/COMMAND_PROCESSING

MEMRESTORE/COMMAND_PROCESSING                 ----- -----  ----- -----  ----- -----  ----- -----
  +--> MEMINIT/COMMAND_PROCESSING
  +--> _MEMSTORE/COMMAND_PROCESSING

MEMINIT/COMMAND_PROCESSING                    ----- -----  ----- -----  ----- -----  ----- -----
  +--> _MEMSTORE/COMMAND_PROCESSING

_MEMSTORE/COMMAND_PROCESSING                  ----- -----  ----- -----  ----- -----  0030H 0036H
  +--> ISR_RS485_RX_DISABLE/ISR_RS485_RX
  +--> _PWM_MOTORS_WRITECOMPARE1/PWM_MOTORS
  +--> _PWM_MOTORS_WRITECOMPARE2/PWM_MOTORS
  +--> CYSETTEMP/CYFLASH
  +--> _EEPROM_WRITE/EEPROM
  +--> ISR_RS485_RX_ENABLE/ISR_RS485_RX

ISR_RS485_RX_DISABLE/ISR_RS485_RX             ----- -----  ----- -----  ----- -----  ----- -----

_PWM_MOTORS_WRITECOMPARE1/PWM_MOTORS          ----- -----  ----- -----  ----- -----  ----- -----

_PWM_MOTORS_WRITECOMPARE2/PWM_MOTORS          ----- -----  ----- -----  ----- -----  ----- -----

_EEPROM_WRITE/EEPROM                          ----- -----  ----- -----  ----- -----  0037H 003BH
  +--> CYSPCSTART/CYSPC
  +--> CYSPCLOCK/CYSPC
  +--> _CYSPCLOADROW/CYSPC
  +--> _CYSPCWRITEROW/CYSPC
  +--> CYSPCUNLOCK/CYSPC
LX51 LINKER/LOCATER V4.64.0.0                                                         04/04/2018  09:18:43  PAGE 18



_CYSPCLOADROW/CYSPC                           ----- -----  ----- -----  ----- -----  003CH 0042H

_CYSPCWRITEROW/CYSPC                          ----- -----  ----- -----  ----- -----  003CH 0040H

ISR_RS485_RX_ENABLE/ISR_RS485_RX              ----- -----  ----- -----  ----- -----  ----- -----

_?CYDELAY/CYLIB                               ----- -----  ----- -----  ----- -----  ----- -----
  +--> CYDELAYCYCLES/CYBOOTASMKEIL

_FTDI_ENABLE_REG_WRITE/FTDI_ENABLE_REG        ----- -----  ----- -----  ----- -----  ----- -----

_LED_CTRL_WRITE/LED_CTRL                      ----- -----  ----- -----  ----- -----  ----- -----

_LED_BLINK_EN_WRITE/LED_BLINK_EN              ----- -----  ----- -----  ----- -----  ----- -----

LED_BLINK_START/LED_BLINK                     ----- -----  ----- -----  ----- -----  ----- -----
  +--> LED_BLINK_INIT/LED_BLINK
  +--> LED_BLINK_ENABLE/LED_BLINK

LED_BLINK_INIT/LED_BLINK                      ----- -----  ----- -----  ----- -----  ----- -----
  +--> _LED_BLINK_WRITECOUNTER/LED_BLINK
  +--> _LED_BLINK_WRITEPERIOD/LED_BLINK
  +--> _LED_BLINK_WRITECOMPARE/LED_BLINK

_LED_BLINK_WRITECOUNTER/LED_BLINK             ----- -----  ----- -----  ----- -----  ----- -----

_LED_BLINK_WRITEPERIOD/LED_BLINK              ----- -----  ----- -----  ----- -----  ----- -----

_LED_BLINK_WRITECOMPARE/LED_BLINK             ----- -----  ----- -----  ----- -----  ----- -----

LED_BLINK_ENABLE/LED_BLINK                    ----- -----  ----- -----  ----- -----  ----- -----

UART_RS485_STOP/UART_RS485                    ----- -----  ----- -----  ----- -----  ----- -----
  +--> CYENTERCRITICALSECTION/CYBOOTASMKEIL
  +--> CYEXITCRITICALSECTION/CYBOOTASMKEIL

UART_RS485_START/UART_RS485                   ----- -----  ----- -----  ----- -----  ----- -----
  +--> UART_RS485_INIT/UART_RS485
  +--> UART_RS485_ENABLE/UART_RS485

UART_RS485_INIT/UART_RS485                    ----- -----  ----- -----  ----- -----  ----- -----
  +--> _CYINTSETVECTOR/CYLIB
  +--> _CYINTSETPRIORITY/CYLIB

_CYINTSETVECTOR/CYLIB                         ----- -----  ----- -----  ----- -----  0002H 0006H
  +--> CYREAD16/CYMEM
  +--> CYWRITE16/CYMEM

CYREAD16/CYMEM                                ----- -----  ----- -----  ----- -----  ----- -----

_CYINTSETPRIORITY/CYLIB                       ----- -----  ----- -----  ----- -----  ----- -----

UART_RS485_ENABLE/UART_RS485                  ----- -----  ----- -----  ----- -----  ----- -----
  +--> CYENTERCRITICALSECTION/CYBOOTASMKEIL
  +--> CYEXITCRITICALSECTION/CYBOOTASMKEIL

UART_RS485_CLEARRXBUFFER/UART_RS485           ----- -----  ----- -----  ----- -----  ----- -----
  +--> CYENTERCRITICALSECTION/CYBOOTASMKEIL
  +--> CYEXITCRITICALSECTION/CYBOOTASMKEIL

UART_RS485_CLEARTXBUFFER/UART_RS485           ----- -----  ----- -----  ----- -----  ----- -----
  +--> CYENTERCRITICALSECTION/CYBOOTASMKEIL
  +--> CYEXITCRITICALSECTION/CYBOOTASMKEIL

LX51 LINKER/LOCATER V4.64.0.0                                                         04/04/2018  09:18:43  PAGE 19


_ISR_RS485_RX_STARTEX/ISR_RS485_RX            ----- -----  ----- -----  ----- -----  0002H 0003H
  +--> ISR_RS485_RX_DISABLE/ISR_RS485_RX
  +--> _ISR_RS485_RX_SETVECTOR/ISR_RS485_RX
  +--> _ISR_RS485_RX_SETPRIORITY/ISR_RS485_RX
  +--> ISR_RS485_RX_ENABLE/ISR_RS485_RX

_ISR_RS485_RX_SETVECTOR/ISR_RS485_RX          ----- -----  ----- -----  ----- -----  ----- -----
  +--> CYWRITE16/CYMEM

_ISR_RS485_RX_SETPRIORITY/ISR_RS485_RX        ----- -----  ----- -----  ----- -----  ----- -----

WATCHDOG_COUNTER_START/WATCHDOG_COUNTER       ----- -----  ----- -----  ----- -----  ----- -----
  +--> WATCHDOG_COUNTER_INIT/WATCHDOG_COUNTER
  +--> WATCHDOG_COUNTER_ENABLE/WATCHDOG_COUNTER

WATCHDOG_COUNTER_INIT/WATCHDOG_COUNTER        ----- -----  ----- -----  ----- -----  ----- -----
  +--> _WATCHDOG_COUNTER_WRITEPERIOD/WATCHDOG_COUNTER
  +--> _WATCHDOG_COUNTER_WRITECOUNTER/WATCHDOG_COUNTER
  +--> _WATCHDOG_COUNTER_SETINTERRUPTMODE/WATCHDOG_COUNTER

_WATCHDOG_COUNTER_WRITEPERIOD/WATCHDOG_C+     ----- -----  ----- -----  ----- -----  ----- -----
... OUNTER
  +--> CYWRITE16/CYMEM

_WATCHDOG_COUNTER_WRITECOUNTER/WATCHDOG_+     ----- -----  ----- -----  ----- -----  ----- -----
... COUNTER
  +--> CYWRITE16/CYMEM

_WATCHDOG_COUNTER_SETINTERRUPTMODE/WATCH+     ----- -----  ----- -----  ----- -----  ----- -----
... DOG_COUNTER

WATCHDOG_COUNTER_ENABLE/WATCHDOG_COUNTER      ----- -----  ----- -----  ----- -----  ----- -----

_ISR_WATCHDOG_STARTEX/ISR_WATCHDOG            ----- -----  ----- -----  ----- -----  0002H 0003H
  +--> ISR_WATCHDOG_DISABLE/ISR_WATCHDOG
  +--> _ISR_WATCHDOG_SETVECTOR/ISR_WATCHDOG
  +--> _ISR_WATCHDOG_SETPRIORITY/ISR_WATCHDOG
  +--> ISR_WATCHDOG_ENABLE/ISR_WATCHDOG

ISR_WATCHDOG_DISABLE/ISR_WATCHDOG             ----- -----  ----- -----  ----- -----  ----- -----

_ISR_WATCHDOG_SETVECTOR/ISR_WATCHDOG          ----- -----  ----- -----  ----- -----  ----- -----
  +--> CYWRITE16/CYMEM

_ISR_WATCHDOG_SETPRIORITY/ISR_WATCHDOG        ----- -----  ----- -----  ----- -----  ----- -----

ISR_WATCHDOG_ENABLE/ISR_WATCHDOG              ----- -----  ----- -----  ----- -----  ----- -----

PWM_MOTORS_START/PWM_MOTORS                   ----- -----  ----- -----  ----- -----  ----- -----
  +--> PWM_MOTORS_INIT/PWM_MOTORS
  +--> PWM_MOTORS_ENABLE/PWM_MOTORS

PWM_MOTORS_INIT/PWM_MOTORS                    ----- -----  ----- -----  ----- -----  ----- -----
  +--> _PWM_MOTORS_WRITECOUNTER/PWM_MOTORS
  +--> _PWM_MOTORS_WRITEPERIOD/PWM_MOTORS
  +--> _PWM_MOTORS_WRITECOMPARE1/PWM_MOTORS
  +--> _PWM_MOTORS_WRITECOMPARE2/PWM_MOTORS

_PWM_MOTORS_WRITECOUNTER/PWM_MOTORS           ----- -----  ----- -----  ----- -----  ----- -----

_PWM_MOTORS_WRITEPERIOD/PWM_MOTORS            ----- -----  ----- -----  ----- -----  ----- -----

PWM_MOTORS_ENABLE/PWM_MOTORS                  ----- -----  ----- -----  ----- -----  ----- -----

_MOTOR_DIR_WRITE/MOTOR_DIR                    ----- -----  ----- -----  ----- -----  ----- -----
LX51 LINKER/LOCATER V4.64.0.0                                                         04/04/2018  09:18:43  PAGE 20



_MOTOR_ON_OFF_WRITE/MOTOR_ON_OFF              ----- -----  ----- -----  ----- -----  ----- -----

COUNTER_ENC_START/COUNTER_ENC                 ----- -----  ----- -----  ----- -----  ----- -----
  +--> COUNTER_ENC_INIT/COUNTER_ENC
  +--> COUNTER_ENC_ENABLE/COUNTER_ENC

COUNTER_ENC_INIT/COUNTER_ENC                  ----- -----  ----- -----  ----- -----  ----- -----
  +--> COUNTER_ENC_CLEARFIFO/COUNTER_ENC
  +--> _COUNTER_ENC_WRITEPERIOD/COUNTER_ENC
  +--> _COUNTER_ENC_WRITECOUNTER/COUNTER_ENC
  +--> _COUNTER_ENC_SETINTERRUPTMODE/COUNTER_ENC
  +--> COUNTER_ENC_READSTATUSREGISTER/COUNTER_ENC
  +--> _COUNTER_ENC_WRITECOMPARE/COUNTER_ENC
  +--> CYENTERCRITICALSECTION/CYBOOTASMKEIL
  +--> CYEXITCRITICALSECTION/CYBOOTASMKEIL

COUNTER_ENC_CLEARFIFO/COUNTER_ENC             ----- -----  ----- -----  ----- -----  ----- -----
  +--> COUNTER_ENC_READSTATUSREGISTER/COUNTER_ENC
  +--> COUNTER_ENC_READCAPTURE/COUNTER_ENC

COUNTER_ENC_READSTATUSREGISTER/COUNTER_E+     ----- -----  ----- -----  ----- -----  ----- -----
... NC

COUNTER_ENC_READCAPTURE/COUNTER_ENC           ----- -----  ----- -----  ----- -----  ----- -----

_COUNTER_ENC_WRITEPERIOD/COUNTER_ENC          ----- -----  ----- -----  ----- -----  ----- -----

_COUNTER_ENC_WRITECOUNTER/COUNTER_ENC         ----- -----  ----- -----  ----- -----  ----- -----

_COUNTER_ENC_SETINTERRUPTMODE/COUNTER_EN+     ----- -----  ----- -----  ----- -----  ----- -----
... C

_COUNTER_ENC_WRITECOMPARE/COUNTER_ENC         ----- -----  ----- -----  ----- -----  ----- -----

COUNTER_ENC_ENABLE/COUNTER_ENC                ----- -----  ----- -----  ----- -----  ----- -----

SHIFTREG_ENC_1_START/SHIFTREG_ENC_1           ----- -----  ----- -----  ----- -----  ----- -----
  +--> SHIFTREG_ENC_1_INIT/SHIFTREG_ENC_1
  +--> SHIFTREG_ENC_1_ENABLE/SHIFTREG_ENC_1

SHIFTREG_ENC_1_INIT/SHIFTREG_ENC_1            ----- -----  ----- -----  ----- -----  ----- -----
  +--> _SHIFTREG_ENC_1_SETINTMODE/SHIFTREG_ENC_1

_SHIFTREG_ENC_1_SETINTMODE/SHIFTREG_ENC_+     ----- -----  ----- -----  ----- -----  ----- -----
... 1

SHIFTREG_ENC_1_ENABLE/SHIFTREG_ENC_1          ----- -----  ----- -----  ----- -----  ----- -----
  +--> SHIFTREG_ENC_1_ENABLEINT/SHIFTREG_ENC_1

SHIFTREG_ENC_1_ENABLEINT/SHIFTREG_ENC_1       ----- -----  ----- -----  ----- -----  ----- -----
  +--> CYENTERCRITICALSECTION/CYBOOTASMKEIL
  +--> CYEXITCRITICALSECTION/CYBOOTASMKEIL

SHIFTREG_ENC_2_START/SHIFTREG_ENC_2           ----- -----  ----- -----  ----- -----  ----- -----
  +--> SHIFTREG_ENC_2_INIT/SHIFTREG_ENC_2
  +--> SHIFTREG_ENC_2_ENABLE/SHIFTREG_ENC_2

SHIFTREG_ENC_2_INIT/SHIFTREG_ENC_2            ----- -----  ----- -----  ----- -----  ----- -----
  +--> _SHIFTREG_ENC_2_SETINTMODE/SHIFTREG_ENC_2

_SHIFTREG_ENC_2_SETINTMODE/SHIFTREG_ENC_+     ----- -----  ----- -----  ----- -----  ----- -----
... 2

SHIFTREG_ENC_2_ENABLE/SHIFTREG_ENC_2          ----- -----  ----- -----  ----- -----  ----- -----
LX51 LINKER/LOCATER V4.64.0.0                                                         04/04/2018  09:18:43  PAGE 21


  +--> SHIFTREG_ENC_2_ENABLEINT/SHIFTREG_ENC_2

SHIFTREG_ENC_2_ENABLEINT/SHIFTREG_ENC_2       ----- -----  ----- -----  ----- -----  ----- -----
  +--> CYENTERCRITICALSECTION/CYBOOTASMKEIL
  +--> CYEXITCRITICALSECTION/CYBOOTASMKEIL

SHIFTREG_ENC_3_START/SHIFTREG_ENC_3           ----- -----  ----- -----  ----- -----  ----- -----
  +--> SHIFTREG_ENC_3_INIT/SHIFTREG_ENC_3
  +--> SHIFTREG_ENC_3_ENABLE/SHIFTREG_ENC_3

SHIFTREG_ENC_3_INIT/SHIFTREG_ENC_3            ----- -----  ----- -----  ----- -----  ----- -----
  +--> _SHIFTREG_ENC_3_SETINTMODE/SHIFTREG_ENC_3

_SHIFTREG_ENC_3_SETINTMODE/SHIFTREG_ENC_+     ----- -----  ----- -----  ----- -----  ----- -----
... 3

SHIFTREG_ENC_3_ENABLE/SHIFTREG_ENC_3          ----- -----  ----- -----  ----- -----  ----- -----
  +--> SHIFTREG_ENC_3_ENABLEINT/SHIFTREG_ENC_3

SHIFTREG_ENC_3_ENABLEINT/SHIFTREG_ENC_3       ----- -----  ----- -----  ----- -----  ----- -----
  +--> CYENTERCRITICALSECTION/CYBOOTASMKEIL
  +--> CYEXITCRITICALSECTION/CYBOOTASMKEIL

ADC_START/ADC                                 ----- -----  ----- -----  ----- -----  ----- -----
  +--> ADC_INIT/ADC
  +--> ADC_ENABLE/ADC

ADC_INIT/ADC                                  ----- -----  ----- -----  ----- -----  ----- -----
  +--> _ADC_EXT_CP_CLK_SETMODEREGISTER/ADC_EXT_CP_CLK
  +--> _ADC_THEACLK_SETMODEREGISTER/ADC_THEACLK
  +--> _CYINTSETPRIORITY/CYLIB
  +--> _ADC_GAINCOMPENSATION/ADC
  +--> CYWRITE16/CYMEM
  +--> _ADC_INITCONFIG/ADC

_ADC_EXT_CP_CLK_SETMODEREGISTER/ADC_EXT_+     ----- -----  ----- -----  ----- -----  ----- -----
... CP_CLK

_ADC_THEACLK_SETMODEREGISTER/ADC_THEACLK      ----- -----  ----- -----  ----- -----  ----- -----

_ADC_GAINCOMPENSATION/ADC                     ----- -----  ----- -----  ----- -----  0002H 0009H
  +--> CYREAD8/CYMEM

_ADC_INITCONFIG/ADC                           ----- -----  ----- -----  ----- -----  ----- -----
  +--> _ADC_SETDSMREF0REG/ADC
  +--> _ADC_AMUX_SELECT/ADC_AMUX
  +--> _ADC_EXT_CP_CLK_SETDIVIDERREGISTER/ADC_EXT_CP_CLK
  +--> _ADC_THEACLK_SETDIVIDERREGISTER/ADC_THEACLK
  +--> _CYINTSETVECTOR/CYLIB

_ADC_SETDSMREF0REG/ADC                        ----- -----  ----- -----  ----- -----  0002H 0003H
  +--> CYENTERCRITICALSECTION/CYBOOTASMKEIL
  +--> CYDELAYUS/CYBOOTASMKEIL
  +--> CYEXITCRITICALSECTION/CYBOOTASMKEIL

_ADC_AMUX_SELECT/ADC_AMUX                     ----- -----  ----- -----  ----- -----  0002H 0002H
  +--> ADC_AMUX_START/ADC_AMUX
  +--> _ADC_AMUX_SET/CYFITTER_CFG

ADC_AMUX_START/ADC_AMUX                       ----- -----  ----- -----  ----- -----  0003H 0003H
  +--> _ADC_AMUX_UNSET/CYFITTER_CFG

_ADC_AMUX_UNSET/CYFITTER_CFG                  ----- -----  ----- -----  ----- -----  ----- -----
  +--> ?CO?CYFITTER_CFG

LX51 LINKER/LOCATER V4.64.0.0                                                         04/04/2018  09:18:43  PAGE 22


_ADC_AMUX_SET/CYFITTER_CFG                    ----- -----  ----- -----  ----- -----  ----- -----
  +--> ?CO?CYFITTER_CFG

_ADC_EXT_CP_CLK_SETDIVIDERREGISTER/ADC_E+     ----- -----  ----- -----  ----- -----  0002H 0008H
... XT_CP_CLK
  +--> ADC_EXT_CP_CLK_GETSOURCEREGISTER/ADC_EXT_CP_CLK
  +--> ADC_EXT_CP_CLK_GETDIVIDERREGISTER/ADC_EXT_CP_CLK
  +--> CYWRITE16/CYMEM

ADC_EXT_CP_CLK_GETSOURCEREGISTER/ADC_EXT+     ----- -----  ----- -----  ----- -----  ----- -----
... _CP_CLK

ADC_EXT_CP_CLK_GETDIVIDERREGISTER/ADC_EX+     ----- -----  ----- -----  ----- -----  ----- -----
... T_CP_CLK
  +--> CYREAD16/CYMEM

_ADC_THEACLK_SETDIVIDERREGISTER/ADC_THEA+     ----- -----  ----- -----  ----- -----  0002H 0008H
... CLK
  +--> ADC_THEACLK_GETSOURCEREGISTER/ADC_THEACLK
  +--> ADC_THEACLK_GETDIVIDERREGISTER/ADC_THEACLK
  +--> CYWRITE16/CYMEM

ADC_THEACLK_GETSOURCEREGISTER/ADC_THEACL+     ----- -----  ----- -----  ----- -----  ----- -----
... K

ADC_THEACLK_GETDIVIDERREGISTER/ADC_THEAC+     ----- -----  ----- -----  ----- -----  ----- -----
... LK
  +--> CYREAD16/CYMEM

ADC_ENABLE/ADC                                ----- -----  ----- -----  ----- -----  0002H 0003H
  +--> CYENTERCRITICALSECTION/CYBOOTASMKEIL
  +--> CYDELAYUS/CYBOOTASMKEIL
  +--> CYEXITCRITICALSECTION/CYBOOTASMKEIL

_ADC_SOC_WRITE/ADC_SOC                        ----- -----  ----- -----  ----- -----  ----- -----

_DMA_DMAINITIALIZE/DMA_DMA                    ----- -----  ----- -----  ----- -----  0002H 0007H
  +--> _CYDMACHSETCONFIGURATION/CYDMAC
  +--> _CYDMACHSETEXTENDEDADDRESS/CYDMAC
  +--> _CYDMACHPRIORITY/CYDMAC

_CYDMACHSETCONFIGURATION/CYDMAC               ----- -----  ----- -----  ----- -----  0008H 000DH

_CYDMACHSETEXTENDEDADDRESS/CYDMAC             ----- -----  ----- -----  ----- -----  0008H 000FH
  +--> CYWRITE16/CYMEM

_CYDMACHPRIORITY/CYDMAC                       ----- -----  ----- -----  ----- -----  ----- -----

CYDMATDALLOCATE/CYDMAC                        ----- -----  ----- -----  ----- -----  0002H 0002H
  +--> CYENTERCRITICALSECTION/CYBOOTASMKEIL
  +--> CYEXITCRITICALSECTION/CYBOOTASMKEIL

_CYDMATDSETCONFIGURATION/CYDMAC               ----- -----  ----- -----  ----- -----  0002H 0009H
  +--> CYWRITE16/CYMEM

_CYDMATDSETADDRESS/CYDMAC                     ----- -----  ----- -----  ----- -----  0002H 0009H
  +--> CYWRITE16/CYMEM

_CYDMACHSETINITIALTD/CYDMAC                   ----- -----  ----- -----  ----- -----  ----- -----

_CYDMACHENABLE/CYDMAC                         ----- -----  ----- -----  ----- -----  ----- -----

_RS485_CTS_WRITE/RS485_CTS                    ----- -----  ----- -----  ----- -----  ----- -----

MY_TIMER_START/MY_TIMER                       ----- -----  ----- -----  ----- -----  ----- -----
LX51 LINKER/LOCATER V4.64.0.0                                                         04/04/2018  09:18:43  PAGE 23


  +--> MY_TIMER_INIT/MY_TIMER
  +--> MY_TIMER_ENABLE/MY_TIMER

MY_TIMER_INIT/MY_TIMER                        ----- -----  ----- -----  ----- -----  ----- -----
  +--> _MY_TIMER_WRITEPERIOD/MY_TIMER
  +--> _MY_TIMER_WRITECOUNTER/MY_TIMER
  +--> CYENTERCRITICALSECTION/CYBOOTASMKEIL
  +--> CYEXITCRITICALSECTION/CYBOOTASMKEIL
  +--> MY_TIMER_CLEARFIFO/MY_TIMER
  +--> _MY_TIMER_SETINTERRUPTMODE/MY_TIMER

_MY_TIMER_WRITEPERIOD/MY_TIMER                ----- -----  ----- -----  ----- -----  ----- -----
  +--> CYWRITE24/CYMEM

CYWRITE24/CYMEM                               ----- -----  ----- -----  ----- -----  ----- -----

_MY_TIMER_WRITECOUNTER/MY_TIMER               ----- -----  ----- -----  ----- -----  ----- -----
  +--> CYWRITE24/CYMEM

MY_TIMER_CLEARFIFO/MY_TIMER                   ----- -----  ----- -----  ----- -----  ----- -----
  +--> MY_TIMER_READSTATUSREGISTER/MY_TIMER
  +--> MY_TIMER_READCAPTURE/MY_TIMER

MY_TIMER_READSTATUSREGISTER/MY_TIMER          ----- -----  ----- -----  ----- -----  ----- -----

MY_TIMER_READCAPTURE/MY_TIMER                 ----- -----  ----- -----  ----- -----  ----- -----
  +--> CYREAD24/CYMEM

CYREAD24/CYMEM                                ----- -----  ----- -----  ----- -----  ----- -----

_MY_TIMER_SETINTERRUPTMODE/MY_TIMER           ----- -----  ----- -----  ----- -----  ----- -----

MY_TIMER_ENABLE/MY_TIMER                      ----- -----  ----- -----  ----- -----  ----- -----

PACER_TIMER_START/PACER_TIMER                 ----- -----  ----- -----  ----- -----  ----- -----
  +--> PACER_TIMER_INIT/PACER_TIMER
  +--> PACER_TIMER_ENABLE/PACER_TIMER

PACER_TIMER_INIT/PACER_TIMER                  ----- -----  ----- -----  ----- -----  ----- -----
  +--> _PACER_TIMER_WRITEPERIOD/PACER_TIMER
  +--> _PACER_TIMER_WRITECOUNTER/PACER_TIMER
  +--> _PACER_TIMER_SETINTERRUPTMODE/PACER_TIMER

_PACER_TIMER_WRITEPERIOD/PACER_TIMER          ----- -----  ----- -----  ----- -----  ----- -----
  +--> CYWRITE16/CYMEM

_PACER_TIMER_WRITECOUNTER/PACER_TIMER         ----- -----  ----- -----  ----- -----  ----- -----
  +--> CYWRITE16/CYMEM

_PACER_TIMER_SETINTERRUPTMODE/PACER_TIME+     ----- -----  ----- -----  ----- -----  ----- -----
... R

PACER_TIMER_ENABLE/PACER_TIMER                ----- -----  ----- -----  ----- -----  ----- -----

_RESET_COUNTERS_WRITE/RESET_COUNTERS          ----- -----  ----- -----  ----- -----  ----- -----

_RESET_FF_WRITE/RESET_FF                      ----- -----  ----- -----  ----- -----  ----- -----

FUNCTION_SCHEDULER/INTERRUPTIONS              ----- -----  ----- -----  ----- -----  ----- -----
  +--> MY_TIMER_READCOUNTER/MY_TIMER
  +--> _ADC_SOC_WRITE/ADC_SOC
  +--> INTERRUPT_MANAGER/INTERRUPTIONS
  +--> _ENCODER_READING/INTERRUPTIONS
  +--> MOTOR_CONTROL/INTERRUPTIONS
  +--> ANALOG_READ_END/INTERRUPTIONS
LX51 LINKER/LOCATER V4.64.0.0                                                         04/04/2018  09:18:43  PAGE 24


  +--> OVERCURRENT_CONTROL/INTERRUPTIONS
  +--> DRIVE_FORCE_FB/COMMAND_PROCESSING
  +--> DRIVE_PROPRIO_FB/COMMAND_PROCESSING
  +--> COMMREADMEASFROMSH/COMMAND_PROCESSING
  +--> CHECK_REST_POSITION/UTILS
  +--> DRIVE_SH/COMMAND_PROCESSING
  +--> CALIBRATION/UTILS
  +--> _MY_TIMER_WRITECOUNTER/MY_TIMER

MY_TIMER_READCOUNTER/MY_TIMER                 ----- -----  ----- -----  ----- -----  ----- -----
  +--> CYREAD24/CYMEM

INTERRUPT_MANAGER/INTERRUPTIONS               20H.0 20H.0  0029H 002AH  ----- -----  ----- -----
  +--> UART_RS485_GETRXBUFFERSIZE/UART_RS485
  +--> UART_RS485_GETCHAR/UART_RS485
  +--> _INFOGET/COMMAND_PROCESSING
  +--> COMMPROCESS/COMMAND_PROCESSING
  +--> _RS485_CTS_WRITE/RS485_CTS

UART_RS485_GETRXBUFFERSIZE/UART_RS485         ----- -----  ----- -----  ----- -----  ----- -----

UART_RS485_GETCHAR/UART_RS485                 ----- -----  ----- -----  ----- -----  ----- -----

_INFOGET/COMMAND_PROCESSING                   ----- -----  ----- -----  ----- -----  0020H 06C5H
  +--> ?CO?COMMAND_PROCESSING
  +--> _INFOPREPARE/COMMAND_PROCESSING
  +--> _UART_RS485_PUTSTRING/UART_RS485

?CO?COMMAND_PROCESSING                        ----- -----  ----- -----  ----- -----  ----- -----

_INFOPREPARE/COMMAND_PROCESSING               ----- -----  ----- -----  ----- -----  06C6H 072EH
  +--> ?CO?COMMAND_PROCESSING
  +--> _STRCAT/STRCAT
  +--> PRINTF/PRINTF

_STRCAT/STRCAT                                ----- -----  ----- -----  ----- -----  0E09H 0E11H

PRINTF/PRINTF                                 20H.1 21H.1  002CH 0030H  ----- -----  072FH 075EH
  +--> PUTCHAR/PUTCHAR

PUTCHAR/PUTCHAR                               ----- -----  ----- -----  ----- -----  ----- -----

_UART_RS485_PUTSTRING/UART_RS485              ----- -----  ----- -----  ----- -----  06C6H 06C8H
  +--> _UART_RS485_PUTCHAR/UART_RS485

_UART_RS485_PUTCHAR/UART_RS485                ----- -----  ----- -----  ----- -----  ----- -----

COMMPROCESS/COMMAND_PROCESSING                ----- -----  002BH 002BH  ----- -----  ----- -----
  +--> _LCRCHECKSUM/COMMAND_PROCESSING
  +--> CMD_ACTIVATE/COMMAND_PROCESSING
  +--> CMD_SET_INPUTS/COMMAND_PROCESSING
  +--> CMD_GET_MEASUREMENTS/COMMAND_PROCESSING
  +--> CMD_GET_CURRENTS/COMMAND_PROCESSING
  +--> CMD_GET_EMG/COMMAND_PROCESSING
  +--> CMD_SET_WATCHDOG/COMMAND_PROCESSING
  +--> CMD_GET_ACTIVATE/COMMAND_PROCESSING
  +--> CMD_SET_BAUDRATE/COMMAND_PROCESSING
  +--> CMD_GET_INPUTS/COMMAND_PROCESSING
  +--> _INFOGET/COMMAND_PROCESSING
  +--> SETZEROS/COMMAND_PROCESSING
  +--> _GET_PARAM_LIST/COMMAND_PROCESSING
  +--> CMD_PING/COMMAND_PROCESSING
  +--> CMD_STORE_PARAMS/COMMAND_PROCESSING
  +--> _MEMSTORE/COMMAND_PROCESSING
  +--> _SENDACKNOWLEDGMENT/COMMAND_PROCESSING
LX51 LINKER/LOCATER V4.64.0.0                                                         04/04/2018  09:18:43  PAGE 25


  +--> MEMRESTORE/COMMAND_PROCESSING
  +--> MEMINIT/COMMAND_PROCESSING
  +--> _?CYDELAY/CYLIB
  +--> _FTDI_ENABLE_REG_WRITE/FTDI_ENABLE_REG
  +--> BOOTLOADABLE_LOAD/BOOTLOADABLE

_LCRCHECKSUM/COMMAND_PROCESSING               ----- -----  004BH 004CH  ----- -----  0E09H 0E0BH

CMD_ACTIVATE/COMMAND_PROCESSING               ----- -----  ----- -----  ----- -----  ----- -----
  +--> _MOTOR_ON_OFF_WRITE/MOTOR_ON_OFF

CMD_SET_INPUTS/COMMAND_PROCESSING             ----- -----  ----- -----  ----- -----  ----- -----

CMD_GET_MEASUREMENTS/COMMAND_PROCESSING       ----- -----  002CH 002CH  ----- -----  0020H 0027H
  +--> _LCRCHECKSUM/COMMAND_PROCESSING
  +--> _COMMWRITE/COMMAND_PROCESSING

_COMMWRITE/COMMAND_PROCESSING                 ----- -----  004BH 004CH  ----- -----  0E09H 0E0DH
  +--> _UART_RS485_PUTCHAR/UART_RS485
  +--> UART_RS485_READTXSTATUS/UART_RS485
  +--> _RS485_CTS_WRITE/RS485_CTS

UART_RS485_READTXSTATUS/UART_RS485            ----- -----  ----- -----  ----- -----  ----- -----

CMD_GET_CURRENTS/COMMAND_PROCESSING           ----- -----  ----- -----  ----- -----  0020H 0025H
  +--> _CURR_ESTIM/UTILS
  +--> _FILTER_CURR_DIFF/UTILS
  +--> _LCRCHECKSUM/COMMAND_PROCESSING
  +--> _COMMWRITE/COMMAND_PROCESSING

_CURR_ESTIM/UTILS                             ----- -----  ----- -----  ----- -----  0026H 0031H
  +--> _POW/POW
  +--> _ABS/ABS

_POW/POW                                      ----- -----  ----- -----  ----- -----  0032H 003BH
  +--> LOG/LOG
  +--> EXP/EXP

LOG/LOG                                       20H.1 20H.1  ----- -----  ----- -----  003CH 003FH

EXP/EXP                                       ----- -----  ----- -----  ----- -----  ----- -----

_ABS/ABS                                      ----- -----  ----- -----  ----- -----  ----- -----

_FILTER_CURR_DIFF/UTILS                       ----- -----  ----- -----  ----- -----  0026H 0029H

CMD_GET_EMG/COMMAND_PROCESSING                ----- -----  ----- -----  ----- -----  0020H 0025H
  +--> _LCRCHECKSUM/COMMAND_PROCESSING
  +--> _COMMWRITE/COMMAND_PROCESSING

CMD_SET_WATCHDOG/COMMAND_PROCESSING           ----- -----  ----- -----  ----- -----  ----- -----
  +--> _WATCHDOG_ENABLER_WRITE/WATCHDOG_ENABLER
  +--> _WATCHDOG_COUNTER_WRITEPERIOD/WATCHDOG_COUNTER

_WATCHDOG_ENABLER_WRITE/WATCHDOG_ENABLER      ----- -----  ----- -----  ----- -----  ----- -----

CMD_GET_ACTIVATE/COMMAND_PROCESSING           ----- -----  ----- -----  ----- -----  0020H 0022H
  +--> _LCRCHECKSUM/COMMAND_PROCESSING
  +--> _COMMWRITE/COMMAND_PROCESSING

CMD_SET_BAUDRATE/COMMAND_PROCESSING           ----- -----  ----- -----  ----- -----  ----- -----
  +--> _CLOCK_UART_SETDIVIDERREGISTER/CLOCK_UART

_CLOCK_UART_SETDIVIDERREGISTER/CLOCK_UAR+     ----- -----  ----- -----  ----- -----  0020H 0026H
... T
LX51 LINKER/LOCATER V4.64.0.0                                                         04/04/2018  09:18:43  PAGE 26


  +--> CLOCK_UART_GETSOURCEREGISTER/CLOCK_UART
  +--> CLOCK_UART_GETDIVIDERREGISTER/CLOCK_UART
  +--> CYWRITE16/CYMEM

CLOCK_UART_GETSOURCEREGISTER/CLOCK_UART       ----- -----  ----- -----  ----- -----  ----- -----

CLOCK_UART_GETDIVIDERREGISTER/CLOCK_UART      ----- -----  ----- -----  ----- -----  ----- -----
  +--> CYREAD16/CYMEM

CMD_GET_INPUTS/COMMAND_PROCESSING             ----- -----  ----- -----  ----- -----  0020H 0025H
  +--> _LCRCHECKSUM/COMMAND_PROCESSING
  +--> _COMMWRITE/COMMAND_PROCESSING

SETZEROS/COMMAND_PROCESSING                   ----- -----  002CH 002CH  ----- -----  ----- -----
  +--> _SENDACKNOWLEDGMENT/COMMAND_PROCESSING

_SENDACKNOWLEDGMENT/COMMAND_PROCESSING        ----- -----  ----- -----  ----- -----  0030H 0031H
  +--> _COMMWRITE/COMMAND_PROCESSING

_GET_PARAM_LIST/COMMAND_PROCESSING            ----- -----  002CH 004AH  ----- -----  0020H 0E08H
  +--> ?CO?COMMAND_PROCESSING
  +--> _STRLEN/STRLEN
  +--> _STRCAT/STRCAT
  +--> _LCRCHECKSUM/COMMAND_PROCESSING
  +--> _COMMWRITE/COMMAND_PROCESSING

_STRLEN/STRLEN                                ----- -----  ----- -----  ----- -----  ----- -----

CMD_PING/COMMAND_PROCESSING                   ----- -----  ----- -----  ----- -----  0020H 0021H
  +--> _COMMWRITE/COMMAND_PROCESSING

CMD_STORE_PARAMS/COMMAND_PROCESSING           ----- -----  002CH 002FH  ----- -----  0020H 002FH
  +--> _MEMSTORE/COMMAND_PROCESSING
  +--> _COMMWRITE_OLD_ID/COMMAND_PROCESSING
  +--> _SENDACKNOWLEDGMENT/COMMAND_PROCESSING

_COMMWRITE_OLD_ID/COMMAND_PROCESSING          ----- -----  0030H 0031H  ----- -----  0030H 0035H
  +--> _UART_RS485_PUTCHAR/UART_RS485
  +--> UART_RS485_READTXSTATUS/UART_RS485
  +--> _RS485_CTS_WRITE/RS485_CTS

BOOTLOADABLE_LOAD/BOOTLOADABLE                ----- -----  ----- -----  ----- -----  ----- -----
  +--> CYSOFTWARERESET/CYLIB

CYSOFTWARERESET/CYLIB                         ----- -----  ----- -----  ----- -----  ----- -----

_ENCODER_READING/INTERRUPTIONS                ----- -----  0023H 0023H  ----- -----  0002H 0015H
  +--> SHIFTREG_ENC_1_READDATA/SHIFTREG_ENC_1
  +--> SHIFTREG_ENC_2_READDATA/SHIFTREG_ENC_2
  +--> SHIFTREG_ENC_3_READDATA/SHIFTREG_ENC_3
  +--> _CHECK_ENC_DATA/UTILS
  +--> _ABS/ABS
  +--> _FILTER_VEL_1/UTILS
  +--> _FILTER_VEL_2/UTILS
  +--> _FILTER_VEL_3/UTILS
  +--> _FILTER_ACC_1/UTILS
  +--> _FILTER_ACC_2/UTILS
  +--> _FILTER_ACC_3/UTILS
  +--> _CALC_TURNS_FCN/UTILS
  +--> _MOTOR_ON_OFF_WRITE/MOTOR_ON_OFF

SHIFTREG_ENC_1_READDATA/SHIFTREG_ENC_1        ----- -----  ----- -----  ----- -----  ----- -----
  +--> CYREAD24/CYMEM

SHIFTREG_ENC_2_READDATA/SHIFTREG_ENC_2        ----- -----  ----- -----  ----- -----  ----- -----
LX51 LINKER/LOCATER V4.64.0.0                                                         04/04/2018  09:18:43  PAGE 27


  +--> CYREAD24/CYMEM

SHIFTREG_ENC_3_READDATA/SHIFTREG_ENC_3        ----- -----  ----- -----  ----- -----  ----- -----
  +--> CYREAD24/CYMEM

_CHECK_ENC_DATA/UTILS                         ----- -----  0024H 0024H  0014H 0016H  ----- -----

_FILTER_VEL_1/UTILS                           ----- -----  ----- -----  ----- -----  0016H 0019H

_FILTER_VEL_2/UTILS                           ----- -----  ----- -----  ----- -----  0016H 0019H

_FILTER_VEL_3/UTILS                           ----- -----  ----- -----  ----- -----  0016H 0019H

_FILTER_ACC_1/UTILS                           ----- -----  ----- -----  ----- -----  0016H 0019H

_FILTER_ACC_2/UTILS                           ----- -----  ----- -----  ----- -----  0016H 0019H

_FILTER_ACC_3/UTILS                           ----- -----  ----- -----  ----- -----  0016H 0019H

_CALC_TURNS_FCN/UTILS                         ----- -----  ----- -----  ----- -----  0016H 001DH
  +--> _MY_MOD/UTILS

_MY_MOD/UTILS                                 ----- -----  ----- -----  ----- -----  001EH 0025H

MOTOR_CONTROL/INTERRUPTIONS                   ----- -----  0023H 006EH  ----- -----  ----- -----
  +--> _MOTOR_DIR_WRITE/MOTOR_DIR
  +--> _ABS/ABS
  +--> _PWM_MOTORS_WRITECOMPARE1/PWM_MOTORS

ANALOG_READ_END/INTERRUPTIONS                 ----- -----  0023H 0026H  ----- -----  ----- -----
  +--> ADC_STATUS_READ/ADC_STATUS
  +--> INTERRUPT_MANAGER/INTERRUPTIONS
  +--> _FILTER_VOLTAGE/UTILS
  +--> PWM_LIMIT_SEARCH/INTERRUPTIONS
  +--> _FILTER_I1/UTILS
  +--> _FILTER_CH1/UTILS
  +--> _LED_CTRL_WRITE/LED_CTRL
  +--> _LED_BLINK_EN_WRITE/LED_BLINK_EN
  +--> _FILTER_CH2/UTILS
  +--> _MOTOR_ON_OFF_WRITE/MOTOR_ON_OFF
  +--> DEACTIVATE_SLAVES/COMMAND_PROCESSING

ADC_STATUS_READ/ADC_STATUS                    ----- -----  ----- -----  ----- -----  ----- -----

_FILTER_VOLTAGE/UTILS                         ----- -----  ----- -----  ----- -----  ----- -----

PWM_LIMIT_SEARCH/INTERRUPTIONS                ----- -----  0027H 0027H  ----- -----  ----- -----

_FILTER_I1/UTILS                              ----- -----  ----- -----  ----- -----  ----- -----

_FILTER_CH1/UTILS                             ----- -----  ----- -----  ----- -----  0002H 0005H

_FILTER_CH2/UTILS                             ----- -----  ----- -----  ----- -----  0002H 0005H

DEACTIVATE_SLAVES/COMMAND_PROCESSING          ----- -----  ----- -----  ----- -----  0002H 000CH
  +--> _LCRCHECKSUM/COMMAND_PROCESSING
  +--> _COMMWRITE/COMMAND_PROCESSING

OVERCURRENT_CONTROL/INTERRUPTIONS             ----- -----  ----- -----  ----- -----  ----- -----

DRIVE_FORCE_FB/COMMAND_PROCESSING             ----- -----  0023H 0028H  ----- -----  0002H 0015H
  +--> _COMMWRITEID/COMMAND_PROCESSING
  +--> MY_TIMER_READCOUNTER/MY_TIMER
  +--> INTERRUPT_MANAGER/INTERRUPTIONS
  +--> _LCRCHECKSUM/COMMAND_PROCESSING
LX51 LINKER/LOCATER V4.64.0.0                                                         04/04/2018  09:18:43  PAGE 28



_COMMWRITEID/COMMAND_PROCESSING               ----- -----  ----- -----  ----- -----  0020H 0025H
  +--> _UART_RS485_PUTCHAR/UART_RS485
  +--> UART_RS485_READTXSTATUS/UART_RS485

DRIVE_PROPRIO_FB/COMMAND_PROCESSING           ----- -----  0023H 0028H  ----- -----  0002H 0009H
  +--> COMMREADMEASFROMSH/COMMAND_PROCESSING
  +--> _LCRCHECKSUM/COMMAND_PROCESSING
  +--> _COMMWRITEID/COMMAND_PROCESSING

COMMREADMEASFROMSH/COMMAND_PROCESSING         ----- -----  ----- -----  ----- -----  000AH 001FH
  +--> _COMMWRITEID/COMMAND_PROCESSING
  +--> MY_TIMER_READCOUNTER/MY_TIMER
  +--> INTERRUPT_MANAGER/INTERRUPTIONS

CHECK_REST_POSITION/UTILS                     ----- -----  0023H 0026H  ----- -----  ----- -----

DRIVE_SH/COMMAND_PROCESSING                   ----- -----  ----- -----  ----- -----  0002H 0008H
  +--> _LCRCHECKSUM/COMMAND_PROCESSING
  +--> _COMMWRITEID/COMMAND_PROCESSING

CALIBRATION/UTILS                             ----- -----  ----- -----  ----- -----  ----- -----

FF_STATUS_READ/FF_STATUS                      ----- -----  ----- -----  ----- -----  ----- -----

_WATCHDOG_REFRESH_WRITE/WATCHDOG_REFRESH      ----- -----  ----- -----  ----- -----  ----- -----

UART_RS485_READRXSTATUS/UART_RS485            ----- -----  ----- -----  ----- -----  ----- -----

?C_INITSEG                                    ----- -----  ----- -----  ----- -----  ----- -----

*** NEW ROOT ********************************

UART_RS485_RXISR/UART_RS485_INT               ----- -----  ----- -----  ----- -----  ----- -----

*** NEW ROOT ********************************

ADC_ISR1/ADC_INT                              ----- -----  ----- -----  ----- -----  ----- -----

*** NEW ROOT ********************************

ADC_ISR2/ADC_INT                              ----- -----  ----- -----  ----- -----  ----- -----

*** NEW ROOT ********************************

ADC_ISR3/ADC_INT                              ----- -----  ----- -----  ----- -----  ----- -----

*** NEW ROOT ********************************

ADC_ISR4/ADC_INT                              ----- -----  ----- -----  ----- -----  ----- -----



PUBLIC SYMBOLS OF MODULE:  .\DP8051_Keil_951\Release\hand_firmware_micro.omf (COMMAND_PROCESSING)


      VALUE       CLASS    TYPE      PUBLIC SYMBOL NAME
      =================================================
*DEL*:00000000H   XDATA    BYTE      ?_Bootloadable_SetFlashByte?BYTE
      02000016H   XDATA    BYTE      ?_calc_turns_fcn?BYTE
      02000030H   XDATA    BYTE      ?_commWrite_old_id?BYTE
      02000020H   XDATA    BYTE      ?_commWriteID?BYTE
      02000026H   XDATA    BYTE      ?_curr_estim?BYTE
      02000005H   XDATA    BYTE      ?_cyconfigcpy?BYTE
      02000008H   XDATA    BYTE      ?_CyDmaChSetConfiguration?BYTE
LX51 LINKER/LOCATER V4.64.0.0                                                         04/04/2018  09:18:43  PAGE 29


*DEL*:00000000H   XDATA    BYTE      ?_CyDmaChStatus?BYTE
*DEL*:00000000H   XDATA    BYTE      ?_CyDmaTdGetAddress?BYTE
*DEL*:00000000H   XDATA    BYTE      ?_CyDmaTdGetConfiguration?BYTE
      02000002H   XDATA    BYTE      ?_CyDmaTdSetConfiguration?BYTE
*DEL*:00000000H   XDATA    BYTE      ?_CySpcLoadMultiByte?BYTE
      0200003CH   XDATA    BYTE      ?_CySpcLoadRow?BYTE
*DEL*:00000000H   XDATA    BYTE      ?_CySpcLoadRowFull?BYTE
      0200003CH   XDATA    BYTE      ?_CySpcWriteRow?BYTE
*DEL*:00000000H   XDATA    BYTE      ?_CyWriteRowFull?BYTE
      02000002H   XDATA    BYTE      ?_DMA_DmaInitialize?BYTE
      0200001EH   XDATA    BYTE      ?_my_mod?BYTE
      02000032H   XDATA    ---       ?_pow?BYTE
      0200072FH   XDATA    ---       ?_PRINTF?BYTE
      0200072FH   XDATA    ---       ?_SPRINTF?BYTE
      02000E09H   XDATA    ---       ?_strcat?BYTE
      01009235H   CODE     ---       ?C?ADDXBP
      01008C7FH   CODE     ---       ?C?CASTF
      0100920FH   CODE     ---       ?C?CCASE
      01008D00H   CODE     ---       ?C?CHKFLOAT
      01008F43H   CODE     ---       ?C?CLDOPTR
      01008F2AH   CODE     ---       ?C?CLDPTR
      00000000H   NUMBER   ---       ?C?CODESEG
      01009342H   CODE     ---       ?C?COPYAMD
      01008F70H   CODE     ---       ?C?CSTPTR
      01008C4BH   CODE     ---       ?C?FCASTC
      01008C46H   CODE     ---       ?C?FCASTI
      01008C41H   CODE     ---       ?C?FCASTL
      01008EDDH   CODE     ---       ?C?FP2SERIES
      01008931H   CODE     ---       ?C?FPADD
      01008BCAH   CODE     ---       ?C?FPCMP
      01008BC8H   CODE     ---       ?C?FPCMP3
      01008D68H   CODE     ---       ?C?FPCONVERT
      01008B2BH   CODE     ---       ?C?FPDIV
      01008CB6H   CODE     ---       ?C?FPGETOPN2
      01008A22H   CODE     ---       ?C?FPMUL
      01008CEBH   CODE     ---       ?C?FPNANRESULT
      01008D1AH   CODE     ---       ?C?FPNEG
      01008CF5H   CODE     ---       ?C?FPOVERFLOW
      01008CCDH   CODE     ---       ?C?FPRESULT
      01008CE1H   CODE     ---       ?C?FPRESULT2
      01008D2BH   CODE     ---       ?C?FPROUND
      01008EECH   CODE     ---       ?C?FPSERIES
      0100892DH   CODE     ---       ?C?FPSUB
      01008CF2H   CODE     ---       ?C?FPUNDERFLOW
      01008E9DH   CODE     ---       ?C?FTNPWR
      0100943DH   CODE     ---       ?C?IILDX
      01009453H   CODE     ---       ?C?ILDIX
      01008F82H   CODE     ---       ?C?IMUL
      01008F94H   CODE     ---       ?C?ISTPTR
      01009259H   CODE     ---       ?C?LIMUL
      01009186H   CODE     ---       ?C?LLDCODE
      010091A2H   CODE     ---       ?C?LLDCODE0
      01009469H   CODE     ---       ?C?LLDIDATA
      01009481H   CODE     ---       ?C?LLDPDATA
      0100914CH   CODE     ---       ?C?LLDPTR
      01009475H   CODE     ---       ?C?LLDXDATA
      01009196H   CODE     ---       ?C?LLDXDATA0
      01008FB3H   CODE     ---       ?C?LMUL
      010090DDH   CODE     ---       ?C?LNEG
      010090D0H   CODE     ---       ?C?LNOT
      01009139H   CODE     ---       ?C?LSHL
      0100948DH   CODE     ---       ?C?LSTIDATA
      010091BEH   CODE     ---       ?C?LSTKXDATA
      01009499H   CODE     ---       ?C?LSTPDATA
      0100916CH   CODE     ---       ?C?LSTPTR
LX51 LINKER/LOCATER V4.64.0.0                                                         04/04/2018  09:18:43  PAGE 30


      010091B2H   CODE     ---       ?C?LSTXDATA
      010091EFH   CODE     ---       ?C?PLDIXDATA
      01009206H   CODE     ---       ?C?PSTXDATA
      010090EBH   CODE     ---       ?C?SLCMP
      0100E715H   CODE     ---       ?C?SLDIV
      01009125H   CODE     ---       ?C?SLSHR
      01009420H   CODE     ---       ?C?STRCPYAMD
      01009101H   CODE     ---       ?C?ULCMP
      0100903EH   CODE     ---       ?C?ULDIV
      01009112H   CODE     ---       ?C?ULSHR
      00000000H   NUMBER   ---       ?C?XDATASEG
      00000000H   NUMBER   ---       ?C?XPAGE1RST
      00000093H   DATA     BYTE      ?C?XPAGE1SFR
      0100C94DH   CODE     ---       ?C_START
      01002600H   CODE     NEAR LAB  ?C_STARTUP
      00000012H   DATA     ---       ?C_XBP
      0100D779H   CODE     ---       _?CyDelay
*DEL*:00000000H   CODE     ---       _?CyDelayFreq
*DEL*:00000000H   CODE     ---       _?CyHalt
      0100F1B1H   CODE     ---       _ABS
*DEL*:00000000H   CODE     ---       _ADC_AMux_FastSelect
      0100EEA9H   CODE     ---       _ADC_AMux_Select
      0100EB6AH   CODE     ---       _ADC_AMux_Set
      0100EB08H   CODE     ---       _ADC_AMux_Unset
*DEL*:00000000H   CODE     ---       _ADC_CountsTo_mVolts
*DEL*:00000000H   CODE     ---       _ADC_CountsTo_uVolts
*DEL*:00000000H   CODE     ---       _ADC_CountsTo_Volts
*DEL*:00000000H   CODE     ---       _ADC_Ext_CP_Clk_ClearModeRegister
      0100C15AH   CODE     ---       _ADC_Ext_CP_Clk_SetDividerRegister
      0100F173H   CODE     ---       _ADC_Ext_CP_Clk_SetModeRegister
*DEL*:00000000H   CODE     ---       _ADC_Ext_CP_Clk_SetSourceRegister
*DEL*:00000000H   CODE     ---       _ADC_Ext_CP_Clk_StandbyPower
*DEL*:00000000H   CODE     ---       _ADC_IsEndConversion
*DEL*:00000000H   CODE     ---       _ADC_SelectConfiguration
*DEL*:00000000H   CODE     ---       _ADC_SetBufferGain
*DEL*:00000000H   CODE     ---       _ADC_SetCoherency
*DEL*:00000000H   CODE     ---       _ADC_SetGain
*DEL*:00000000H   CODE     ---       _ADC_SetGCOR
*DEL*:00000000H   CODE     ---       _ADC_SetOffset
      0100F34FH   CODE     ---       _ADC_SOC_Write
*DEL*:00000000H   CODE     ---       _ADC_STATUS_WriteMask
*DEL*:00000000H   CODE     ---       _ADC_theACLK_ClearModeRegister
      0100C61AH   CODE     ---       _ADC_theACLK_SetDividerRegister
      0100F180H   CODE     ---       _ADC_theACLK_SetModeRegister
*DEL*:00000000H   CODE     ---       _ADC_theACLK_SetPhaseRegister
*DEL*:00000000H   CODE     ---       _ADC_theACLK_SetSourceRegister
*DEL*:00000000H   CODE     ---       _ADC_theACLK_StandbyPower
*DEL*:00000000H   CODE     ---       _Bootloadable_SetFlashByte
      0100CD76H   CODE     ---       _calc_turns_fcn
*DEL*:00000000H   CODE     NEAR LAB  _cfg_write_bytes
*DEL*:00000000H   CODE     NEAR LAB  _cfg_write_bytes_code
      0100E1BCH   CODE     ---       _check_enc_data
*DEL*:00000000H   CODE     ---       _CLOCK_UART_ClearModeRegister
      0100C3BBH   CODE     ---       _CLOCK_UART_SetDividerRegister
*DEL*:00000000H   CODE     ---       _CLOCK_UART_SetModeRegister
*DEL*:00000000H   CODE     ---       _CLOCK_UART_SetSourceRegister
*DEL*:00000000H   CODE     ---       _CLOCK_UART_StandbyPower
      0100D664H   CODE     ---       _commWrite
      0100D5D7H   CODE     ---       _commWrite_old_id
      0100D90BH   CODE     ---       _commWriteID
      0100F2E3H   CODE     ---       _COUNTER_ENC_SetInterruptMode
      0100F301H   CODE     ---       _COUNTER_ENC_WriteCompare
*DEL*:00000000H   CODE     ---       _COUNTER_ENC_WriteControlRegister
      0100F2EFH   CODE     ---       _COUNTER_ENC_WriteCounter
      0100F2FBH   CODE     ---       _COUNTER_ENC_WritePeriod
LX51 LINKER/LOCATER V4.64.0.0                                                         04/04/2018  09:18:43  PAGE 31


      0100B846H   CODE     ---       _curr_estim
*DEL*:00000000H   CODE     ---       _CyBusClk_SetDivider
      0100EA6FH   CODE     NEAR LAB  _cyconfigcpy
      0100ECF9H   CODE     NEAR LAB  _cyconfigcpycode
*DEL*:00000000H   CODE     ---       _CyCpuClk_SetDivider
*DEL*:00000000H   CODE     NEAR LAB  _CyDelay
      0100EA00H   CODE     NEAR LAB  _CyDelayCycles
      0100EC28H   CODE     NEAR LAB  _CyDelayUs
*DEL*:00000000H   CODE     ---       _CyDmacClearError
*DEL*:00000000H   CODE     ---       _CyDmaChDisable
      0100E5F0H   CODE     ---       _CyDmaChEnable
*DEL*:00000000H   CODE     ---       _CyDmaChFree
*DEL*:00000000H   CODE     ---       _CyDmaChGetRequest
      0100E7DDH   CODE     ---       _CyDmaChPriority
*DEL*:00000000H   CODE     ---       _CyDmaChRoundRobin
      0100DD9EH   CODE     ---       _CyDmaChSetConfiguration
      0100DE17H   CODE     ---       _CyDmaChSetExtendedAddress
      0100EE22H   CODE     ---       _CyDmaChSetInitialTd
*DEL*:00000000H   CODE     ---       _CyDmaChSetRequest
*DEL*:00000000H   CODE     ---       _CyDmaChStatus
*DEL*:00000000H   CODE     ---       _CyDmaClearPendingDrq
*DEL*:00000000H   CODE     ---       _CyDmaTdFree
*DEL*:00000000H   CODE     ---       _CyDmaTdGetAddress
*DEL*:00000000H   CODE     ---       _CyDmaTdGetConfiguration
      0100DE8FH   CODE     ---       _CyDmaTdSetAddress
      0100D801H   CODE     ---       _CyDmaTdSetConfiguration
*DEL*:00000000H   CODE     ---       _CyEnableInts
      0100EEDAH   CODE     NEAR LAB  _CyExitCriticalSection
*DEL*:00000000H   CODE     ---       _CyFlash_SetWaitCycles
*DEL*:00000000H   CODE     ---       _CyGetUniqueId
*DEL*:00000000H   CODE     ---       _CyILO_SetPowerMode
*DEL*:00000000H   CODE     ---       _CyILO_SetSource
*DEL*:00000000H   CODE     ---       _CyIMO_SetFreq
*DEL*:00000000H   CODE     ---       _CyIMO_SetSource
*DEL*:00000000H   CODE     ---       _CyIMO_Start
*DEL*:00000000H   CODE     ---       _CyIntGetPriority
*DEL*:00000000H   CODE     ---       _CyIntGetState
*DEL*:00000000H   CODE     ---       _CyIntGetVector
      0100EE90H   CODE     ---       _CyIntSetPriority
      0100E45CH   CODE     ---       _CyIntSetVector
*DEL*:00000000H   CODE     ---       _CyMasterClk_SetDivider
*DEL*:00000000H   CODE     ---       _CyMasterClk_SetSource
*DEL*:00000000H   CODE     NEAR LAB  _cymemzero
*DEL*:00000000H   CODE     ---       _CyPLL_OUT_SetPQ
*DEL*:00000000H   CODE     ---       _CyPLL_OUT_SetSource
*DEL*:00000000H   CODE     ---       _CyPLL_OUT_Start
*DEL*:00000000H   CODE     ---       _CyPmAltAct
*DEL*:00000000H   CODE     ---       _CyPmCtwSetInterval
*DEL*:00000000H   CODE     ---       _CyPmFtwSetInterval
*DEL*:00000000H   CODE     ---       _CyPmHibernateEx
*DEL*:00000000H   CODE     ---       _CyPmReadStatus
*DEL*:00000000H   CODE     ---       _CyPmSleep
      0100F0BEH   CODE     NEAR LAB  _cyread16
      0100F0C0H   CODE     NEAR LAB  _cyread16_nodpx
      0100F045H   CODE     NEAR LAB  _cyread24
      0100F047H   CODE     NEAR LAB  _cyread24_nodpx
*DEL*:00000000H   CODE     NEAR LAB  _cyread32
*DEL*:00000002H   CODE     NEAR LAB  _cyread32_nodpx
      0100F18DH   CODE     NEAR LAB  _cyread8
      0100F18FH   CODE     NEAR LAB  _cyread8_nodpx
*DEL*:00000000H   CODE     ---       _CySetFlashEEBuffer
*DEL*:00000000H   CODE     ---       _CySpcEraseSector
      0100EBF9H   CODE     ---       _CySpcGetTemp
*DEL*:00000000H   CODE     ---       _CySpcLoadMultiByte
      0100E0DDH   CODE     ---       _CySpcLoadRow
LX51 LINKER/LOCATER V4.64.0.0                                                         04/04/2018  09:18:43  PAGE 32


*DEL*:00000000H   CODE     ---       _CySpcLoadRowFull
      0100E2F3H   CODE     ---       _CySpcReadData
      0100E4B0H   CODE     ---       _CySpcWriteRow
*DEL*:00000000H   CODE     ---       _CyUsbClk_SetSource
*DEL*:00000000H   CODE     ---       _CyVdLvAnalogEnable
*DEL*:00000000H   CODE     ---       _CyVdLvDigitEnable
*DEL*:00000000H   CODE     ---       _CyVdStickyStatus
*DEL*:00000000H   CODE     ---       _CyWdtStart
      0100F0CDH   CODE     NEAR LAB  _cywrite16
      0100F0CFH   CODE     NEAR LAB  _cywrite16_nodpx
      0100F06AH   CODE     NEAR LAB  _cywrite24
      0100F06CH   CODE     NEAR LAB  _cywrite24_nodpx
*DEL*:00000000H   CODE     NEAR LAB  _cywrite32
*DEL*:00000002H   CODE     NEAR LAB  _cywrite32_nodpx
      0100F199H   CODE     NEAR LAB  _cywrite8
      0100F19BH   CODE     NEAR LAB  _cywrite8_nodpx
*DEL*:00000000H   CODE     ---       _CyWriteRowData
*DEL*:00000000H   CODE     ---       _CyWriteRowFull
*DEL*:00000000H   CODE     ---       _CyXTAL_32KHZ_SetPowerMode
*DEL*:00000000H   CODE     ---       _CyXTAL_SetFbVoltage
*DEL*:00000000H   CODE     ---       _CyXTAL_SetStartup
*DEL*:00000000H   CODE     ---       _CyXTAL_SetWdVoltage
*DEL*:00000000H   CODE     ---       _CyXTAL_Start
      0100E63BH   CODE     ---       _DMA_DmaInitialize
      01002604H   CODE     NEAR LAB  _dma_wait
*DEL*:00000000H   CODE     ---       _EEPROM_ByteWritePos
*DEL*:00000000H   CODE     ---       _EEPROM_EraseSector
*DEL*:00000000H   CODE     ---       _EEPROM_ReadByte
*DEL*:00000000H   CODE     ---       _EEPROM_StartErase
*DEL*:00000000H   CODE     ---       _EEPROM_StartWrite
      0100CC97H   CODE     ---       _EEPROM_Write
*DEL*:00000000H   CODE     ---       _EEPROM_WriteByte
      010094A5H   CODE     ---       _encoder_reading
      0100D575H   CODE     ---       _EXP
*DEL*:00000000H   CODE     ---       _FF_STATUS_WriteMask
      0100DB17H   CODE     ---       _filter_acc_1
      0100DB9AH   CODE     ---       _filter_acc_2
      0100DC1DH   CODE     ---       _filter_acc_3
      0100CFD5H   CODE     ---       _filter_ch1
      0100D08AH   CODE     ---       _filter_ch2
      0100D13FH   CODE     ---       _filter_curr_diff
      0100DFF4H   CODE     ---       _filter_i1
*DEL*:00000000H   CODE     ---       _filter_v
      0100D98EH   CODE     ---       _filter_vel_1
      0100DA11H   CODE     ---       _filter_vel_2
      0100DA94H   CODE     ---       _filter_vel_3
      0100DD21H   CODE     ---       _filter_voltage
      0100F31FH   CODE     ---       _FTDI_ENABLE_REG_Write
      0100261AH   CODE     ---       _get_param_list
      0100E8D4H   CODE     ---       _infoGet
      01005FE3H   CODE     ---       _infoPrepare
      0100F1E8H   CODE     ---       _ISR_RS485_RX_SetPriority
      0100F0DCH   CODE     ---       _ISR_RS485_RX_SetVector
      0100EDC5H   CODE     ---       _ISR_RS485_RX_StartEx
      0100F238H   CODE     ---       _ISR_WATCHDOG_SetPriority
      0100F130H   CODE     ---       _ISR_WATCHDOG_SetVector
      0100EDE4H   CODE     ---       _ISR_WATCHDOG_StartEx
      0100EAD6H   CODE     ---       _LCRChecksum
      0100F37FH   CODE     ---       _LED_BLINK_EN_Write
      0100F373H   CODE     ---       _LED_BLINK_WriteCompare
*DEL*:00000000H   CODE     ---       _LED_BLINK_WriteControlRegister
      0100F367H   CODE     ---       _LED_BLINK_WriteCounter
      0100F36DH   CODE     ---       _LED_BLINK_WritePeriod
      0100F379H   CODE     ---       _LED_CTRL_Write
      0100C77DH   CODE     ---       _LOG
LX51 LINKER/LOCATER V4.64.0.0                                                         04/04/2018  09:18:43  PAGE 33


      0100C779H   CODE     ---       _LOG10
      0100CF1DH   CODE     ---       _memStore
      0100F2DDH   CODE     ---       _MOTOR_DIR_Write
      0100F319H   CODE     ---       _MOTOR_ON_OFF_Write
      0100DCA0H   CODE     ---       _my_mod
*DEL*:00000000H   CODE     ---       _my_round
      0100F331H   CODE     ---       _MY_TIMER_SetInterruptMode
*DEL*:00000000H   CODE     ---       _MY_TIMER_WriteControlRegister
      0100F224H   CODE     ---       _MY_TIMER_WriteCounter
      0100F210H   CODE     ---       _MY_TIMER_WritePeriod
      0100F2D1H   CODE     ---       _PACER_TIMER_SetInterruptMode
*DEL*:00000000H   CODE     ---       _PACER_TIMER_WriteControlRegister
      0100F0F8H   CODE     ---       _PACER_TIMER_WriteCounter
      0100F0EAH   CODE     ---       _PACER_TIMER_WritePeriod
      0100BEA8H   CODE     ---       _pow
      0100A945H   CODE     ---       _PRINTF
      0100ECACH   CODE     ---       _PUTCHAR
      0100F2C5H   CODE     ---       _PWM_MOTORS_WriteCompare1
      0100F2CBH   CODE     ---       _PWM_MOTORS_WriteCompare2
*DEL*:00000000H   CODE     ---       _PWM_MOTORS_WriteControlRegister
      0100F2B9H   CODE     ---       _PWM_MOTORS_WriteCounter
      0100F2BFH   CODE     ---       _PWM_MOTORS_WritePeriod
      0100F343H   CODE     ---       _RESET_COUNTERS_Write
      0100F325H   CODE     ---       _RESET_FF_Write
      0100F313H   CODE     ---       _RS485_CTS_Write
      0100EF1EH   CODE     ---       _sendAcknowledgment
*DEL*:00000000H   CODE     ---       _SetAnalogRoutingPumps
*DEL*:00000000H   CODE     ---       _SHIFTREG_ENC_1_GetFIFOStatus
      0100F09EH   CODE     ---       _SHIFTREG_ENC_1_SetIntMode
*DEL*:00000000H   CODE     ---       _SHIFTREG_ENC_1_WriteRegValue
*DEL*:00000000H   CODE     ---       _SHIFTREG_ENC_2_GetFIFOStatus
      0100F08DH   CODE     ---       _SHIFTREG_ENC_2_SetIntMode
*DEL*:00000000H   CODE     ---       _SHIFTREG_ENC_2_WriteRegValue
*DEL*:00000000H   CODE     ---       _SHIFTREG_ENC_3_GetFIFOStatus
      0100F07CH   CODE     ---       _SHIFTREG_ENC_3_SetIntMode
*DEL*:00000000H   CODE     ---       _SHIFTREG_ENC_3_WriteRegValue
      0100A93FH   CODE     ---       _SPRINTF
      0100E227H   CODE     ---       _strcat
      0100EF5DH   CODE     ---       _STRLEN
*DEL*:00000000H   CODE     ---       _UART_RS485_PutArray
      0100F14CH   CODE     ---       _UART_RS485_PutChar
*DEL*:00000000H   CODE     ---       _UART_RS485_PutCRLF
      0100EA3BH   CODE     ---       _UART_RS485_PutString
*DEL*:00000000H   CODE     ---       _UART_RS485_SendBreak
*DEL*:00000000H   CODE     ---       _UART_RS485_SetRxAddress1
*DEL*:00000000H   CODE     ---       _UART_RS485_SetRxAddress2
*DEL*:00000000H   CODE     ---       _UART_RS485_SetRxAddressMode
*DEL*:00000000H   CODE     ---       _UART_RS485_SetRxInterruptMode
*DEL*:00000000H   CODE     ---       _UART_RS485_SetTxAddressMode
*DEL*:00000000H   CODE     ---       _UART_RS485_SetTxInterruptMode
*DEL*:00000000H   CODE     ---       _UART_RS485_WriteControlRegister
*DEL*:00000000H   CODE     ---       _UART_RS485_WriteTxData
      0100F355H   CODE     ---       _WATCHDOG_COUNTER_SetInterruptMode
*DEL*:00000000H   CODE     ---       _WATCHDOG_COUNTER_WriteControlRegister
      0100EE40H   CODE     ---       _WATCHDOG_COUNTER_WriteCounter
      0100F13EH   CODE     ---       _WATCHDOG_COUNTER_WritePeriod
      0100F35BH   CODE     ---       _WATCHDOG_ENABLER_Write
      0100F361H   CODE     ---       _WATCHDOG_REFRESH_Write
*SFR* 000000D0H.6 DATA     BIT       AC
*SFR* 000000E0H   DATA     BYTE      ACC
      0100FB0FH   CONST    ---       ADC_AMux__addrTable
      0100FB13H   CONST    ---       ADC_AMux__maskTable
      0100ED84H   CODE     ---       ADC_AMux_Start
      020010B4H   XDATA    ---       ADC_buf
      020012F7H   XDATA    BYTE      ADC_Config
LX51 LINKER/LOCATER V4.64.0.0                                                         04/04/2018  09:18:43  PAGE 34


      02001302H   XDATA    BYTE      ADC_convDone
      02001303H   XDATA    LONG      ADC_CountsPerVolt
      0100D6F1H   CODE     ---       ADC_Enable
      0100F242H   CODE     ---       ADC_Ext_CP_Clk_GetDividerRegister
*DEL*:00000000H   CODE     ---       ADC_Ext_CP_Clk_GetModeRegister
      0100F286H   CODE     ---       ADC_Ext_CP_Clk_GetSourceRegister
*DEL*:00000000H   CODE     ---       ADC_Ext_CP_Clk_Start
*DEL*:00000000H   CODE     ---       ADC_Ext_CP_Clk_Stop
*DEL*:00000000H   CODE     ---       ADC_Ext_CP_Clk_StopBlock
*DEL*:00000000H   CODE     ---       ADC_GetResult16
*DEL*:00000000H   CODE     ---       ADC_GetResult32
*DEL*:00000000H   CODE     ---       ADC_GetResult8
      0100D1F2H   CODE     ---       ADC_Init
      020012F8H   XDATA    BYTE      ADC_initVar
      0100F396H   CODE     ---       ADC_ISR1
      0100F397H   CODE     ---       ADC_ISR2
      0100F398H   CODE     ---       ADC_ISR3
      0100F399H   CODE     ---       ADC_ISR4
      020012F9H   XDATA    LONG      ADC_Offset
*DEL*:00000000H   CODE     ---       ADC_Read16
*DEL*:00000000H   CODE     ---       ADC_Read32
*DEL*:00000000H   CODE     ---       ADC_Read8
*DEL*:00000000H   CODE     ---       ADC_ReadGCOR
*DEL*:00000000H   CODE     ---       ADC_SOC_Read
      0100EE77H   CODE     ---       ADC_Start
*DEL*:00000000H   CODE     ---       ADC_StartConvert
      020012FEH   XDATA    BYTE      ADC_started
*DEL*:00000000H   CODE     ---       ADC_STATUS_InterruptDisable
*DEL*:00000000H   CODE     ---       ADC_STATUS_InterruptEnable
      0100F349H   CODE     ---       ADC_STATUS_Read
*DEL*:00000000H   CODE     ---       ADC_STATUS_ReadMask
*DEL*:00000000H   CODE     ---       ADC_Stop
      020012FDH   XDATA    BYTE      ADC_stopConversion
*DEL*:00000000H   CODE     ---       ADC_StopConvert
      0100F24CH   CODE     ---       ADC_theACLK_GetDividerRegister
*DEL*:00000000H   CODE     ---       ADC_theACLK_GetModeRegister
*DEL*:00000000H   CODE     ---       ADC_theACLK_GetPhaseRegister
      0100F28EH   CODE     ---       ADC_theACLK_GetSourceRegister
*DEL*:00000000H   CODE     ---       ADC_theACLK_Start
*DEL*:00000000H   CODE     ---       ADC_theACLK_Stop
*DEL*:00000000H   CODE     ---       ADC_theACLK_StopBlock
      01009D17H   CODE     ---       analog_read_end
*SFR* 000000F0H   DATA     BYTE      B
      0100F206H   CODE     ---       Bootloadable_Load
      02000E12H   XDATA    ---       c_mem
      020010FAH   XDATA    ---       calib
      0100C28BH   CODE     ---       calibration
      0100A3C1H   CODE     ---       check_rest_position
      0100F1DEH   CODE     ---       CLOCK_UART_GetDividerRegister
*DEL*:00000000H   CODE     ---       CLOCK_UART_GetModeRegister
      0100F256H   CODE     ---       CLOCK_UART_GetSourceRegister
*DEL*:00000000H   CODE     ---       CLOCK_UART_Start
*DEL*:00000000H   CODE     ---       CLOCK_UART_Stop
*DEL*:00000000H   CODE     ---       CLOCK_UART_StopBlock
      0100E759H   CODE     ---       cmd_activate
      0100EC81H   CODE     ---       cmd_get_activate
*DEL*:00000000H   CODE     ---       cmd_get_curr_and_meas
      0100D4A2H   CODE     ---       cmd_get_currents
      0100E685H   CODE     ---       cmd_get_emg
      0100E292H   CODE     ---       cmd_get_inputs
      0100E150H   CODE     ---       cmd_get_measurements
      0100EF72H   CODE     ---       cmd_ping
      0100EDA5H   CODE     ---       cmd_set_baudrate
      0100B4EAH   CODE     ---       cmd_set_inputs
      0100E79CH   CODE     ---       cmd_set_watchdog
LX51 LINKER/LOCATER V4.64.0.0                                                         04/04/2018  09:18:43  PAGE 35


      0100AD5DH   CODE     ---       cmd_store_params
      0100B69EH   CODE     ---       commProcess
      0100CE51H   CODE     ---       commReadMeasFromSH
      02000ECFH   XDATA    DWORD     count_tension_valid
      0100F159H   CODE     ---       COUNTER_ENC_ClearFIFO
      0100F266H   CODE     ---       COUNTER_ENC_Enable
      0100E9B8H   CODE     ---       COUNTER_ENC_Init
      02001329H   XDATA    BYTE      COUNTER_ENC_initVar
      0100F2F5H   CODE     ---       COUNTER_ENC_ReadCapture
*DEL*:00000000H   CODE     ---       COUNTER_ENC_ReadCompare
*DEL*:00000000H   CODE     ---       COUNTER_ENC_ReadControlRegister
*DEL*:00000000H   CODE     ---       COUNTER_ENC_ReadCounter
*DEL*:00000000H   CODE     ---       COUNTER_ENC_ReadPeriod
      0100F2E9H   CODE     ---       COUNTER_ENC_ReadStatusRegister
      0100EFC0H   CODE     ---       COUNTER_ENC_Start
*DEL*:00000000H   CODE     ---       COUNTER_ENC_Stop
      02000FE1H   XDATA    LONG      curr_pos_res
*SFR* 000000D0H.7 DATA     BIT       CY
      02001312H   XDATA    DWORD     cydelay_32k_ms
      0200130DH   XDATA    DWORD     cydelay_freq_hz
      02001308H   XDATA    DWORD     cydelay_freq_khz
      0200130CH   XDATA    BYTE      cydelay_freq_mhz
*DEL*:00000000H   CODE     ---       CyDisableInts
      0100E982H   CODE     ---       CyDmacConfigure
*DEL*:00000000H   CODE     ---       CyDmacError
*DEL*:00000000H   CODE     ---       CyDmacErrorAddress
*DEL*:00000000H   CODE     ---       CyDmaChAlloc
      0100E81DH   CODE     ---       CyDmaTdAllocate
*DEL*:00000000H   CODE     ---       CyDmaTdFreeCount
*DEL*:00000000H   CODE     ---       CyEEPROM_ReadRelease
*DEL*:00000000H   CODE     ---       CyEEPROM_ReadReserve
      0100EB39H   CODE     ---       CyEEPROM_Start
*DEL*:00000000H   CODE     ---       CyEEPROM_Stop
      0100EF33H   CODE     NEAR LAB  CyEnterCriticalSection
      0100C992H   CODE     ---       cyfitter_cfg
*DEL*:00000000H   CODE     ---       CyFlash_Start
*DEL*:00000000H   CODE     ---       CyFlash_Stop
*DEL*:00000000H   CODE     ---       CyILO_Disable33K
*DEL*:00000000H   CODE     ---       CyILO_Enable33K
*DEL*:00000000H   CODE     ---       CyILO_Start100K
*DEL*:00000000H   CODE     ---       CyILO_Start1K
*DEL*:00000000H   CODE     ---       CyILO_Stop100K
*DEL*:00000000H   CODE     ---       CyILO_Stop1K
*DEL*:00000000H   CODE     ---       CyIMO_DisableDoubler
*DEL*:00000000H   CODE     ---       CyIMO_EnableDoubler
*DEL*:00000000H   CODE     ---       CyIMO_Stop
      0100EB9AH   CODE     ---       CyIntInitVectors
*DEL*:00000000H   CODE     ---       CyPLL_OUT_Stop
*DEL*:00000000H   CODE     ---       CyPmHibernate
*DEL*:00000000H   CODE     ---       CyPmOppsSet
*DEL*:00000000H   CODE     ---       CyPmRestoreClocks
*DEL*:00000000H   CODE     ---       CyPmSaveClocks
      02001311H   XDATA    BYTE      CyResetStatus
      0100EEC2H   CODE     ---       CySetTemp
      0100F276H   CODE     ---       CySoftwareReset
      0100EE5CH   CODE     ---       CySpcGetAlgorithm
      0100EE03H   CODE     ---       CySpcLock
      0100EF48H   CODE     ---       CySpcStart
*DEL*:00000000H   CODE     ---       CySpcStop
      0100F1A5H   CODE     ---       CySpcUnlock
*DEL*:00000000H   CODE     ---       CyVdHvAnalogDisable
*DEL*:00000000H   CODE     ---       CyVdHvAnalogEnable
*DEL*:00000000H   CODE     ---       CyVdLvAnalogDisable
*DEL*:00000000H   CODE     ---       CyVdLvDigitDisable
*DEL*:00000000H   CODE     ---       CyVdRealTimeStatus
LX51 LINKER/LOCATER V4.64.0.0                                                         04/04/2018  09:18:43  PAGE 36


*DEL*:00000000H   CODE     ---       CyWdtClear
*DEL*:00000000H   CODE     ---       CyXTAL_32KHZ_ReadStatus
*DEL*:00000000H   CODE     ---       CyXTAL_32KHZ_Start
*DEL*:00000000H   CODE     ---       CyXTAL_32KHZ_Stop
*DEL*:00000000H   CODE     ---       CyXTAL_DisableErrStatus
*DEL*:00000000H   CODE     ---       CyXTAL_DisableFaultRecovery
*DEL*:00000000H   CODE     ---       CyXTAL_EnableErrStatus
*DEL*:00000000H   CODE     ---       CyXTAL_EnableFaultRecovery
*DEL*:00000000H   CODE     ---       CyXTAL_ReadStatus
*DEL*:00000000H   CODE     ---       CyXTAL_Stop
      0100E3AEH   CODE     ---       deactivate_slaves
      020010F9H   XDATA    BYTE      dev_pwm_limit
      02000FE9H   XDATA    LONG      dev_tension
      020010BDH   XDATA    LONG      dev_tension_f
      0200131FH   XDATA    ---       dieTemperature
      0200132EH   XDATA    BYTE      DMA_DmaHandle
*DEL*:00000000H   CODE     ---       DMA_DmaRelease
*SFR* 00000083H   DATA     BYTE      DPH
*SFR* 00000085H   DATA     BYTE      DPH1
*SFR* 00000082H   DATA     BYTE      DPL
*SFR* 00000084H   DATA     BYTE      DPL1
*SFR* 00000086H   DATA     BYTE      DPS
*SFR* 00000093H   DATA     BYTE      DPX
*SFR* 00000095H   DATA     BYTE      DPX1
      0100BD22H   CODE     ---       drive_force_fb
      0100DF07H   CODE     ---       drive_proprio_fb
      0100D402H   CODE     ---       drive_SH
*SFR* 000000A8H.7 DATA     BIT       EA
      02001325H   XDATA    ---       EEPROM_ADDR
      0100F2A4H   CODE     ---       EEPROM_Enable
*DEL*:00000000H   CODE     ---       EEPROM_Query
      0100F385H   CODE     ---       EEPROM_Start
*DEL*:00000000H   CODE     ---       EEPROM_Stop
*DEL*:00000000H   CODE     ---       EEPROM_UpdateTemperature
*SFR* 000000D0H.5 DATA     BIT       F0
*SFR* 000000D0H.1 DATA     BIT       F1
*DEL*:00000000H   CODE     ---       FF_STATUS_InterruptDisable
*DEL*:00000000H   CODE     ---       FF_STATUS_InterruptEnable
      0100F32BH   CODE     ---       FF_STATUS_Read
*DEL*:00000000H   CODE     ---       FF_STATUS_ReadMask
      02000ECEH   XDATA    BYTE      first_tension_valid
      02000FA8H   XDATA    BYTE      forced_open
*DEL*:00000000H   CODE     ---       FTDI_ENABLE_REG_Read
      0100C00EH   CODE     ---       function_scheduler
      020010C1H   XDATA    ---       g_meas
      02000FA9H   XDATA    ---       g_measOld
      02000EECH   XDATA    ---       g_mem
      02000ED3H   XDATA    ---       g_ref
      0200108BH   XDATA    ---       g_refNew
      02000FEDH   XDATA    ---       g_refOld
      02001006H   XDATA    ---       g_rx
*SFR* 000000A8H   DATA     BYTE      IE
*DEL*:00000000H   CODE     ---       infoSend
      0100F392H   CODE     ---       IntDefaultHandler
      00000021H.4 BIT      BIT       interrupt_flag
      0100C4EBH   CODE     ---       interrupt_manager
*DEL*:00000000H   CODE     ---       ISR_RS485_RX_ClearPending
      0100F29DH   CODE     ---       ISR_RS485_RX_Disable
      0100F296H   CODE     ---       ISR_RS485_RX_Enable
      0100F38CH   CODE     ---       ISR_RS485_RX_ExInterrupt
*DEL*:00000000H   CODE     ---       ISR_RS485_RX_GetPriority
*DEL*:00000000H   CODE     ---       ISR_RS485_RX_GetState
*DEL*:00000000H   CODE     ---       ISR_RS485_RX_GetVector
      0100EC27H   CODE     ---       ISR_RS485_RX_Interrupt
*DEL*:00000000H   CODE     ---       ISR_RS485_RX_SetPending
LX51 LINKER/LOCATER V4.64.0.0                                                         04/04/2018  09:18:43  PAGE 37


*DEL*:00000000H   CODE     ---       ISR_RS485_RX_Start
*DEL*:00000000H   CODE     ---       ISR_RS485_RX_Stop
*DEL*:00000000H   CODE     ---       ISR_WATCHDOG_ClearPending
      0100F2B2H   CODE     ---       ISR_WATCHDOG_Disable
      0100F2ABH   CODE     ---       ISR_WATCHDOG_Enable
*DEL*:00000000H   CODE     ---       ISR_WATCHDOG_GetPriority
*DEL*:00000000H   CODE     ---       ISR_WATCHDOG_GetState
*DEL*:00000000H   CODE     ---       ISR_WATCHDOG_GetVector
      0100F389H   CODE     ---       ISR_WATCHDOG_Handler
      0100F395H   CODE     ---       ISR_WATCHDOG_Interrupt
*DEL*:00000000H   CODE     ---       ISR_WATCHDOG_SetPending
*DEL*:00000000H   CODE     ---       ISR_WATCHDOG_Start
*DEL*:00000000H   CODE     ---       ISR_WATCHDOG_Stop
*DEL*:00000000H   CODE     ---       LED_BLINK_EN_Read
      0100F27EH   CODE     ---       LED_BLINK_Enable
      0100ED63H   CODE     ---       LED_BLINK_Init
      02001330H   XDATA    BYTE      LED_BLINK_initVar
*DEL*:00000000H   CODE     ---       LED_BLINK_ReadCapture
*DEL*:00000000H   CODE     ---       LED_BLINK_ReadCompare
*DEL*:00000000H   CODE     ---       LED_BLINK_ReadControlRegister
*DEL*:00000000H   CODE     ---       LED_BLINK_ReadCounter
*DEL*:00000000H   CODE     ---       LED_BLINK_ReadPeriod
      0100F032H   CODE     ---       LED_BLINK_Start
*DEL*:00000000H   CODE     ---       LED_BLINK_Stop
*DEL*:00000000H   CODE     ---       LED_CTRL_Read
      0100B2C1H   CODE     ---       main
      02000FE0H   XDATA    BYTE      master_mode
      0100B065H   CODE     ---       memInit
      0100E5A3H   CODE     ---       memRecall
      0100E6CEH   CODE     ---       memRestore
      010078F0H   CODE     ---       motor_control
*DEL*:00000000H   CODE     ---       MOTOR_DIR_Read
*DEL*:00000000H   CODE     ---       MOTOR_ON_OFF_Read
*SFR* 000000EAH   DATA     BYTE      MXAX
      0100F166H   CODE     ---       MY_TIMER_ClearFIFO
      0100F26EH   CODE     ---       MY_TIMER_Enable
      0100EC55H   CODE     ---       MY_TIMER_Init
      0200132CH   XDATA    BYTE      MY_TIMER_initVar
      0100F21AH   CODE     ---       MY_TIMER_ReadCapture
*DEL*:00000000H   CODE     ---       MY_TIMER_ReadControlRegister
      0100F0AFH   CODE     ---       MY_TIMER_ReadCounter
*DEL*:00000000H   CODE     ---       MY_TIMER_ReadPeriod
      0100F337H   CODE     ---       MY_TIMER_ReadStatusRegister
*DEL*:00000000H   CODE     ---       MY_TIMER_SoftwareCapture
      0100EFF9H   CODE     ---       MY_TIMER_Start
*DEL*:00000000H   CODE     ---       MY_TIMER_Stop
*SFR* 000000D0H.2 DATA     BIT       OV
      0100E069H   CODE     ---       overcurrent_control
*SFR* 000000D0H   DATA     BIT       P
*SFR* 000000A0H   DATA     BYTE      P2AX
      0100EEF2H   CODE     ---       PACER_TIMER_Enable
      0100E898H   CODE     ---       PACER_TIMER_Init
      02001328H   XDATA    BYTE      PACER_TIMER_initVar
*DEL*:00000000H   CODE     ---       PACER_TIMER_ReadCapture
*DEL*:00000000H   CODE     ---       PACER_TIMER_ReadControlRegister
*DEL*:00000000H   CODE     ---       PACER_TIMER_ReadCounter
*DEL*:00000000H   CODE     ---       PACER_TIMER_ReadPeriod
*DEL*:00000000H   CODE     ---       PACER_TIMER_ReadStatusRegister
*DEL*:00000000H   CODE     ---       PACER_TIMER_SoftwareCapture
      0100EF9AH   CODE     ---       PACER_TIMER_Start
*DEL*:00000000H   CODE     ---       PACER_TIMER_Stop
      020010A8H   XDATA    LONG      pow_tension
*SFR* 000000D0H   DATA     BYTE      PSW
      0100DF7EH   CODE     ---       pwm_limit_search
      0100F25EH   CODE     ---       PWM_MOTORS_Enable
LX51 LINKER/LOCATER V4.64.0.0                                                         04/04/2018  09:18:43  PAGE 38


      0100ECD3H   CODE     ---       PWM_MOTORS_Init
      02001327H   XDATA    BYTE      PWM_MOTORS_initVar
*DEL*:00000000H   CODE     ---       PWM_MOTORS_ReadCapture
*DEL*:00000000H   CODE     ---       PWM_MOTORS_ReadCompare1
*DEL*:00000000H   CODE     ---       PWM_MOTORS_ReadCompare2
*DEL*:00000000H   CODE     ---       PWM_MOTORS_ReadControlRegister
*DEL*:00000000H   CODE     ---       PWM_MOTORS_ReadCounter
*DEL*:00000000H   CODE     ---       PWM_MOTORS_ReadPeriod
      0100E9EDH   CODE     ---       PWM_MOTORS_Start
*DEL*:00000000H   CODE     ---       PWM_MOTORS_Stop
      020010BCH   XDATA    CHAR      pwm_sign
*DEL*:00000000H   CODE     ---       RESET_COUNTERS_Read
*DEL*:00000000H   CODE     ---       RESET_FF_Read
      00000021H.2 BIT      BIT       reset_last_value_flag
      020010F8H   XDATA    BYTE      rest_enabled
      020010A4H   XDATA    LONG      rest_pos_curr_ref
*SFR* 000000D0H.3 DATA     BIT       RS0
*SFR* 000000D0H.4 DATA     BIT       RS1
*DEL*:00000000H   CODE     ---       RS485_CTS_Read
      0100D888H   CODE     ---       setZeros
*SFR* 00000080H   DATA     BYTE      SFRPRT0DR
*SFR* 00000089H   DATA     BYTE      SFRPRT0PS
*SFR* 0000008AH   DATA     BYTE      SFRPRT0SEL
*SFR* 000000E8H   DATA     BYTE      SFRPRT12DR
*SFR* 000000E9H   DATA     BYTE      SFRPRT12PS
*SFR* 000000F2H   DATA     BYTE      SFRPRT12SEL
*SFR* 000000F8H   DATA     BYTE      SFRPRT15DR
*SFR* 000000F9H   DATA     BYTE      SFRPRT15PS
*SFR* 000000FAH   DATA     BYTE      SFRPRT15SEL
*SFR* 00000090H   DATA     BYTE      SFRPRT1DR
*SFR* 00000091H   DATA     BYTE      SFRPRT1PS
*SFR* 000000A2H   DATA     BYTE      SFRPRT1SEL
*SFR* 00000098H   DATA     BYTE      SFRPRT2DR
*SFR* 00000099H   DATA     BYTE      SFRPRT2PS
*SFR* 0000009AH   DATA     BYTE      SFRPRT2SEL
*SFR* 000000B0H   DATA     BYTE      SFRPRT3DR
*SFR* 000000B1H   DATA     BYTE      SFRPRT3PS
*SFR* 000000B2H   DATA     BYTE      SFRPRT3SEL
*SFR* 000000C0H   DATA     BYTE      SFRPRT4DR
*SFR* 000000C1H   DATA     BYTE      SFRPRT4PS
*SFR* 000000C2H   DATA     BYTE      SFRPRT4SEL
*SFR* 000000C8H   DATA     BYTE      SFRPRT5DR
*SFR* 000000C9H   DATA     BYTE      SFRPRT5PS
*SFR* 000000CAH   DATA     BYTE      SFRPRT5SEL
*SFR* 000000D8H   DATA     BYTE      SFRPRT6DR
*SFR* 000000D9H   DATA     BYTE      SFRPRT6PS
*SFR* 000000DAH   DATA     BYTE      SFRPRT6SEL
*DEL*:00000000H   CODE     ---       SHIFTREG_ENC_1_DisableInt
      0100F1D3H   CODE     ---       SHIFTREG_ENC_1_Enable
      0100F122H   CODE     ---       SHIFTREG_ENC_1_EnableInt
*DEL*:00000000H   CODE     ---       SHIFTREG_ENC_1_GetIntStatus
      0100F33DH   CODE     ---       SHIFTREG_ENC_1_Init
      0200132DH   XDATA    BYTE      SHIFTREG_ENC_1_initVar
      0100F22EH   CODE     ---       SHIFTREG_ENC_1_ReadData
*DEL*:00000000H   CODE     ---       SHIFTREG_ENC_1_ReadRegValue
      0100F00CH   CODE     ---       SHIFTREG_ENC_1_Start
*DEL*:00000000H   CODE     ---       SHIFTREG_ENC_1_Stop
*DEL*:00000000H   CODE     ---       SHIFTREG_ENC_2_DisableInt
      0100F1C8H   CODE     ---       SHIFTREG_ENC_2_Enable
      0100F114H   CODE     ---       SHIFTREG_ENC_2_EnableInt
*DEL*:00000000H   CODE     ---       SHIFTREG_ENC_2_GetIntStatus
      0100F30DH   CODE     ---       SHIFTREG_ENC_2_Init
      0200132BH   XDATA    BYTE      SHIFTREG_ENC_2_initVar
      0100F1FCH   CODE     ---       SHIFTREG_ENC_2_ReadData
*DEL*:00000000H   CODE     ---       SHIFTREG_ENC_2_ReadRegValue
LX51 LINKER/LOCATER V4.64.0.0                                                         04/04/2018  09:18:43  PAGE 39


      0100EFE6H   CODE     ---       SHIFTREG_ENC_2_Start
*DEL*:00000000H   CODE     ---       SHIFTREG_ENC_2_Stop
*DEL*:00000000H   CODE     ---       SHIFTREG_ENC_3_DisableInt
      0100F1BDH   CODE     ---       SHIFTREG_ENC_3_Enable
      0100F106H   CODE     ---       SHIFTREG_ENC_3_EnableInt
*DEL*:00000000H   CODE     ---       SHIFTREG_ENC_3_GetIntStatus
      0100F307H   CODE     ---       SHIFTREG_ENC_3_Init
      0200132AH   XDATA    BYTE      SHIFTREG_ENC_3_initVar
      0100F1F2H   CODE     ---       SHIFTREG_ENC_3_ReadData
*DEL*:00000000H   CODE     ---       SHIFTREG_ENC_3_ReadRegValue
      0100EFD3H   CODE     ---       SHIFTREG_ENC_3_Start
*DEL*:00000000H   CODE     ---       SHIFTREG_ENC_3_Stop
*SFR* 00000081H   DATA     BYTE      SP
      02001332H   XDATA    BYTE      SpcLockState
      0100C872H   CODE     NEAR LAB  STARTUP1
      020010B0H   XDATA    FLOAT     tau_feedback
      00000021H.5 BIT      BIT       tension_valid
      02000FE5H   XDATA    DWORD     timer_value
      020010ACH   XDATA    DWORD     timer_value0
      0100EBCAH   CODE     ---       UART_RS485_ClearRxBuffer
      0100F058H   CODE     ---       UART_RS485_ClearTxBuffer
      0100ED1FH   CODE     ---       UART_RS485_Enable
      020012F6H   XDATA    BYTE      UART_RS485_errorStatus
*DEL*:00000000H   CODE     ---       UART_RS485_GetByte
      0100E353H   CODE     ---       UART_RS485_GetChar
      0100E554H   CODE     ---       UART_RS485_GetRxBufferSize
*DEL*:00000000H   CODE     ---       UART_RS485_GetTxBufferSize
      0100EAA3H   CODE     ---       UART_RS485_Init
      020012F4H   XDATA    BYTE      UART_RS485_initVar
*DEL*:00000000H   CODE     ---       UART_RS485_ReadControlRegister
*DEL*:00000000H   CODE     ---       UART_RS485_ReadRxData
      0100EF86H   CODE     ---       UART_RS485_ReadRxStatus
      0100F2D7H   CODE     ---       UART_RS485_ReadTxStatus
      020012D3H   XDATA    ---       UART_RS485_rxBuffer
      020012D1H   XDATA    BYTE      UART_RS485_rxBufferLoopDetect
      020012F5H   XDATA    BYTE      UART_RS485_rxBufferOverflow
      020012D2H   XDATA    BYTE      UART_RS485_rxBufferRead
      020012F3H   XDATA    BYTE      UART_RS485_rxBufferWrite
      0100D2A3H   CODE     ---       UART_RS485_RXISR
      0100EFADH   CODE     ---       UART_RS485_Start
      0100ED41H   CODE     ---       UART_RS485_Stop
      0100EF08H   CODE     ---       WATCHDOG_COUNTER_Enable
      0100E94AH   CODE     ---       WATCHDOG_COUNTER_Init
      0200132FH   XDATA    BYTE      WATCHDOG_COUNTER_initVar
*DEL*:00000000H   CODE     ---       WATCHDOG_COUNTER_ReadCapture
*DEL*:00000000H   CODE     ---       WATCHDOG_COUNTER_ReadControlRegister
*DEL*:00000000H   CODE     ---       WATCHDOG_COUNTER_ReadCounter
*DEL*:00000000H   CODE     ---       WATCHDOG_COUNTER_ReadPeriod
*DEL*:00000000H   CODE     ---       WATCHDOG_COUNTER_ReadStatusRegister
      0100F01FH   CODE     ---       WATCHDOG_COUNTER_Start
*DEL*:00000000H   CODE     ---       WATCHDOG_COUNTER_Stop
*DEL*:00000000H   CODE     ---       WATCHDOG_ENABLER_Read
      00000021H.3 BIT      BIT       watchdog_flag
*DEL*:00000000H   CODE     ---       WATCHDOG_REFRESH_Read



SYMBOL TABLE OF MODULE:  .\DP8051_Keil_951\Release\hand_firmware_micro.omf (COMMAND_PROCESSING)

      VALUE       REP       CLASS    TYPE      SYMBOL NAME
      ====================================================
      ---         MODULE    ---      ---       COMMAND_PROCESSING
      02001325H   PUBLIC    XDATA    ---       EEPROM_ADDR
      0100E685H   PUBLIC    CODE     ---       cmd_get_emg
      0100AD5DH   PUBLIC    CODE     ---       cmd_store_params
LX51 LINKER/LOCATER V4.64.0.0                                                         04/04/2018  09:18:43  PAGE 40


      0100E292H   PUBLIC    CODE     ---       cmd_get_inputs
      0100E79CH   PUBLIC    CODE     ---       cmd_set_watchdog
      0100EF72H   PUBLIC    CODE     ---       cmd_ping
      0100EDA5H   PUBLIC    CODE     ---       cmd_set_baudrate
      0100D4A2H   PUBLIC    CODE     ---       cmd_get_currents
      0100EC81H   PUBLIC    CODE     ---       cmd_get_activate
      0100E759H   PUBLIC    CODE     ---       cmd_activate
      0100B4EAH   PUBLIC    CODE     ---       cmd_set_inputs
      0100E150H   PUBLIC    CODE     ---       cmd_get_measurements
      0100B065H   PUBLIC    CODE     ---       memInit
      0100E6CEH   PUBLIC    CODE     ---       memRestore
      0100E5A3H   PUBLIC    CODE     ---       memRecall
      0100CF1DH   PUBLIC    CODE     ---       _memStore
      0100EF1EH   PUBLIC    CODE     ---       _sendAcknowledgment
      0100EAD6H   PUBLIC    CODE     ---       _LCRChecksum
      0100E3AEH   PUBLIC    CODE     ---       deactivate_slaves
      0100DF07H   PUBLIC    CODE     ---       drive_proprio_fb
      0100BD22H   PUBLIC    CODE     ---       drive_force_fb
      0100D402H   PUBLIC    CODE     ---       drive_SH
      02000020H   PUBLIC    XDATA    BYTE      ?_commWriteID?BYTE
      0100D90BH   PUBLIC    CODE     ---       _commWriteID
      0100CE51H   PUBLIC    CODE     ---       commReadMeasFromSH
      0100D664H   PUBLIC    CODE     ---       _commWrite
      02000030H   PUBLIC    XDATA    BYTE      ?_commWrite_old_id?BYTE
      0100D5D7H   PUBLIC    CODE     ---       _commWrite_old_id
      01005FE3H   PUBLIC    CODE     ---       _infoPrepare
      0100D888H   PUBLIC    CODE     ---       setZeros
      0100261AH   PUBLIC    CODE     ---       _get_param_list
      0100E8D4H   PUBLIC    CODE     ---       _infoGet
      0100B69EH   PUBLIC    CODE     ---       commProcess
      000000CAH   SFRSYM    DATA     BYTE      SFRPRT5SEL
      000000DAH   SFRSYM    DATA     BYTE      SFRPRT6SEL
      000000D0H.6 SFRSYM    DATA     BIT       AC
      000000A8H.7 SFRSYM    DATA     BIT       EA
      000000A8H   SFRSYM    DATA     BYTE      IE
      00000085H   SFRSYM    DATA     BYTE      DPH1
      00000084H   SFRSYM    DATA     BYTE      DPL1
      000000D0H.7 SFRSYM    DATA     BIT       CY
      000000A0H   SFRSYM    DATA     BYTE      P2AX
      00000095H   SFRSYM    DATA     BYTE      DPX1
      00000081H   SFRSYM    DATA     BYTE      SP
      000000D0H.2 SFRSYM    DATA     BIT       OV
      00000080H   SFRSYM    DATA     BYTE      SFRPRT0DR
      00000090H   SFRSYM    DATA     BYTE      SFRPRT1DR
      000000F2H   SFRSYM    DATA     BYTE      SFRPRT12SEL
      00000098H   SFRSYM    DATA     BYTE      SFRPRT2DR
      000000B0H   SFRSYM    DATA     BYTE      SFRPRT3DR
      000000C0H   SFRSYM    DATA     BYTE      SFRPRT4DR
      000000FAH   SFRSYM    DATA     BYTE      SFRPRT15SEL
      000000C8H   SFRSYM    DATA     BYTE      SFRPRT5DR
      000000D8H   SFRSYM    DATA     BYTE      SFRPRT6DR
      00000089H   SFRSYM    DATA     BYTE      SFRPRT0PS
      00000091H   SFRSYM    DATA     BYTE      SFRPRT1PS
      00000099H   SFRSYM    DATA     BYTE      SFRPRT2PS
      000000B1H   SFRSYM    DATA     BYTE      SFRPRT3PS
      000000C1H   SFRSYM    DATA     BYTE      SFRPRT4PS
      000000C9H   SFRSYM    DATA     BYTE      SFRPRT5PS
      000000D9H   SFRSYM    DATA     BYTE      SFRPRT6PS
      000000EAH   SFRSYM    DATA     BYTE      MXAX
      000000F0H   SFRSYM    DATA     BYTE      B
      000000E0H   SFRSYM    DATA     BYTE      ACC
      000000D0H   SFRSYM    DATA     BIT       P
      000000D0H.3 SFRSYM    DATA     BIT       RS0
      000000D0H.4 SFRSYM    DATA     BIT       RS1
      00000083H   SFRSYM    DATA     BYTE      DPH
LX51 LINKER/LOCATER V4.64.0.0                                                         04/04/2018  09:18:43  PAGE 41


      000000E8H   SFRSYM    DATA     BYTE      SFRPRT12DR
      00000082H   SFRSYM    DATA     BYTE      DPL
      000000F8H   SFRSYM    DATA     BYTE      SFRPRT15DR
      00000086H   SFRSYM    DATA     BYTE      DPS
      000000E9H   SFRSYM    DATA     BYTE      SFRPRT12PS
      00000093H   SFRSYM    DATA     BYTE      DPX
      000000F9H   SFRSYM    DATA     BYTE      SFRPRT15PS
      000000D0H.5 SFRSYM    DATA     BIT       F0
      000000D0H.1 SFRSYM    DATA     BIT       F1
      0000008AH   SFRSYM    DATA     BYTE      SFRPRT0SEL
      000000D0H   SFRSYM    DATA     BYTE      PSW
      000000A2H   SFRSYM    DATA     BYTE      SFRPRT1SEL
      0000009AH   SFRSYM    DATA     BYTE      SFRPRT2SEL
      000000B2H   SFRSYM    DATA     BYTE      SFRPRT3SEL
      000000C2H   SFRSYM    DATA     BYTE      SFRPRT4SEL
      01004B5FH   SYMBOL    CODE     ---       _?ix1000
      01005BD5H   SYMBOL    CODE     ---       _?ix1010
      01005203H   SYMBOL    CODE     ---       _?ix1001
      01005CD5H   SYMBOL    CODE     ---       _?ix1020
      01005BE6H   SYMBOL    CODE     ---       _?ix1011
      01005B00H   SYMBOL    CODE     ---       _?ix1002
      01005DF7H   SYMBOL    CODE     ---       _?ix1030
      01005CEEH   SYMBOL    CODE     ---       _?ix1021
      01005C02H   SYMBOL    CODE     ---       _?ix1012
      01005B0FH   SYMBOL    CODE     ---       _?ix1003
      01005FB9H   SYMBOL    CODE     ---       _?ix1040
      01005E1FH   SYMBOL    CODE     ---       _?ix1031
      01005D06H   SYMBOL    CODE     ---       _?ix1022
      01005C1FH   SYMBOL    CODE     ---       _?ix1013
      01005B2BH   SYMBOL    CODE     ---       _?ix1004
      01005E4BH   SYMBOL    CODE     ---       _?ix1032
      01005D1AH   SYMBOL    CODE     ---       _?ix1023
      01005C3AH   SYMBOL    CODE     ---       _?ix1014
      01005B46H   SYMBOL    CODE     ---       _?ix1005
      01005E6BH   SYMBOL    CODE     ---       _?ix1033
      01005D3EH   SYMBOL    CODE     ---       _?ix1024
      01005C4EH   SYMBOL    CODE     ---       _?ix1015
      01005B62H   SYMBOL    CODE     ---       _?ix1006
      01005E8EH   SYMBOL    CODE     ---       _?ix1034
      01005D61H   SYMBOL    CODE     ---       _?ix1025
      01005C73H   SYMBOL    CODE     ---       _?ix1016
      01005B84H   SYMBOL    CODE     ---       _?ix1007
      01005EB3H   SYMBOL    CODE     ---       _?ix1035
      01005D72H   SYMBOL    CODE     ---       _?ix1026
      01005C88H   SYMBOL    CODE     ---       _?ix1017
      01005BABH   SYMBOL    CODE     ---       _?ix1008
      01005EC5H   SYMBOL    CODE     ---       _?ix1036
      01005D87H   SYMBOL    CODE     ---       _?ix1027
      01005C9DH   SYMBOL    CODE     ---       _?ix1018
      01005BBCH   SYMBOL    CODE     ---       _?ix1009
      01005EDBH   SYMBOL    CODE     ---       _?ix1037
      01005DABH   SYMBOL    CODE     ---       _?ix1028
      01005CB1H   SYMBOL    CODE     ---       _?ix1019
      01005EFAH   SYMBOL    CODE     ---       _?ix1038
      01005DCEH   SYMBOL    CODE     ---       _?ix1029
      01005F5DH   SYMBOL    CODE     ---       _?ix1039

      0100B69EH   BLOCK     CODE     ---       LVL=0
      0100B69EH   BLOCK     CODE     NEAR LAB  LVL=1
      0000002BH   SYMBOL    DATA     BYTE      rx_cmd
      ---         BLOCKEND  ---      ---       LVL=1
      0100B69EH   LINE      CODE     ---       #67
      0100B69EH   LINE      CODE     ---       #71
      0100B6A4H   LINE      CODE     ---       #75
      0100B6CFH   LINE      CODE     ---       #77
LX51 LINKER/LOCATER V4.64.0.0                                                         04/04/2018  09:18:43  PAGE 42


      0100B6D5H   LINE      CODE     ---       #79
      0100B6D5H   LINE      CODE     ---       #81
      0100B717H   LINE      CODE     ---       #84
      0100B717H   LINE      CODE     ---       #85
      0100B71AH   LINE      CODE     ---       #86
      0100B71BH   LINE      CODE     ---       #90
      0100B71BH   LINE      CODE     ---       #91
      0100B71EH   LINE      CODE     ---       #92
      0100B71FH   LINE      CODE     ---       #96
      0100B71FH   LINE      CODE     ---       #97
      0100B722H   LINE      CODE     ---       #98
      0100B723H   LINE      CODE     ---       #102
      0100B723H   LINE      CODE     ---       #103
      0100B726H   LINE      CODE     ---       #104
      0100B727H   LINE      CODE     ---       #108
      0100B727H   LINE      CODE     ---       #109
      0100B72AH   LINE      CODE     ---       #110
      0100B72BH   LINE      CODE     ---       #114
      0100B72BH   LINE      CODE     ---       #115
      0100B72EH   LINE      CODE     ---       #116
      0100B72FH   LINE      CODE     ---       #120
      0100B72FH   LINE      CODE     ---       #121
      0100B732H   LINE      CODE     ---       #122
      0100B733H   LINE      CODE     ---       #126
      0100B733H   LINE      CODE     ---       #127
      0100B736H   LINE      CODE     ---       #128
      0100B737H   LINE      CODE     ---       #132
      0100B737H   LINE      CODE     ---       #133
      0100B73AH   LINE      CODE     ---       #134
      0100B73BH   LINE      CODE     ---       #138
      0100B73BH   LINE      CODE     ---       #139
      0100B746H   LINE      CODE     ---       #140
      0100B747H   LINE      CODE     ---       #144
      0100B747H   LINE      CODE     ---       #145
      0100B74AH   LINE      CODE     ---       #146
      0100B74BH   LINE      CODE     ---       #150
      0100B74BH   LINE      CODE     ---       #151
      0100B756H   LINE      CODE     ---       #152
      0100B757H   LINE      CODE     ---       #156
      0100B757H   LINE      CODE     ---       #157
      0100B75AH   LINE      CODE     ---       #158
      0100B75BH   LINE      CODE     ---       #162
      0100B75BH   LINE      CODE     ---       #163
      0100B75EH   LINE      CODE     ---       #164
      0100B75FH   LINE      CODE     ---       #168
      0100B75FH   LINE      CODE     ---       #169
      0100B769H   LINE      CODE     ---       #170
      0100B76FH   LINE      CODE     ---       #172
      0100B774H   LINE      CODE     ---       #173
      0100B775H   LINE      CODE     ---       #177
      0100B775H   LINE      CODE     ---       #178
      0100B77BH   LINE      CODE     ---       #179
      0100B781H   LINE      CODE     ---       #181
      0100B786H   LINE      CODE     ---       #182
      0100B787H   LINE      CODE     ---       #186
      0100B787H   LINE      CODE     ---       #187
      0100B78DH   LINE      CODE     ---       #188
      0100B793H   LINE      CODE     ---       #190
      0100B798H   LINE      CODE     ---       #191
      0100B799H   LINE      CODE     ---       #195
      0100B799H   LINE      CODE     ---       #197
      0100B79EH   LINE      CODE     ---       #198
      0100B7A8H   LINE      CODE     ---       #199
      0100B7ADH   LINE      CODE     ---       #200
      0100B7B7H   LINE      CODE     ---       #201
LX51 LINKER/LOCATER V4.64.0.0                                                         04/04/2018  09:18:43  PAGE 43


      0100B7BAH   LINE      CODE     ---       #202
      0100B7BBH   LINE      CODE     ---       #206
      0100B7BBH   LINE      CODE     ---       #207
      0100B7CAH   LINE      CODE     ---       #208
      0100B7D9H   LINE      CODE     ---       #211
      0100B7E9H   LINE      CODE     ---       #212
      0100B7F0H   LINE      CODE     ---       #213
      0100B7FDH   LINE      CODE     ---       #214
      0100B806H   LINE      CODE     ---       #215
      0100B806H   LINE      CODE     ---       #216
      0100B816H   LINE      CODE     ---       #217
      0100B81DH   LINE      CODE     ---       #218
      0100B82AH   LINE      CODE     ---       #219
      0100B834H   LINE      CODE     ---       #220
      0100B834H   LINE      CODE     ---       #222
      0100B83FH   LINE      CODE     ---       #223
      0100B845H   LINE      CODE     ---       #224
      0100B845H   LINE      CODE     ---       #227
      0100B845H   LINE      CODE     ---       #228
      0100B845H   LINE      CODE     ---       #230
      0100B845H   LINE      CODE     ---       #231
      ---         BLOCKEND  ---      ---       LVL=0

      0100E8D4H   BLOCK     CODE     ---       LVL=0
      02000020H   SYMBOL    XDATA    WORD      info_type
      0100E8DCH   BLOCK     CODE     NEAR LAB  LVL=1
      02000022H   SYMBOL    XDATA    ---       packet_string
      ---         BLOCKEND  ---      ---       LVL=1
      0100E8D4H   LINE      CODE     ---       #249
      0100E8DCH   LINE      CODE     ---       #250
      0100E8EFH   LINE      CODE     ---       #254
      0100E8FCH   LINE      CODE     ---       #255
      0100E8FCH   LINE      CODE     ---       #256
      0100E905H   LINE      CODE     ---       #257
      0100E90EH   LINE      CODE     ---       #258
      0100E90EH   LINE      CODE     ---       #260
      0100E90EH   LINE      CODE     ---       #261
      0100E90EH   LINE      CODE     ---       #262
      0100E90EH   LINE      CODE     ---       #263
      ---         BLOCKEND  ---      ---       LVL=0

      0100261AH   BLOCK     CODE     ---       LVL=0
      02000020H   SYMBOL    XDATA    WORD      index
      01002622H   BLOCK     CODE     NEAR LAB  LVL=1
      02000022H   SYMBOL    XDATA    ---       packet_data
      0200091FH   SYMBOL    XDATA    WORD      packet_lenght
      0000002CH   SYMBOL    DATA     BYTE      i
      0000002DH   SYMBOL    DATA     BYTE      string_lenght
      02000921H   SYMBOL    XDATA    LONG      aux_int
      02000925H   SYMBOL    XDATA    BYTE      aux_uchar
      02000926H   SYMBOL    XDATA    ---       id_str
      02000935H   SYMBOL    XDATA    ---       pos_pid_str
      02000951H   SYMBOL    XDATA    ---       curr_pid_str
      0200096CH   SYMBOL    XDATA    ---       startup_str
      02000988H   SYMBOL    XDATA    ---       input_str
      020009AAH   SYMBOL    XDATA    ---       contr_str
      020009D1H   SYMBOL    XDATA    ---       res_str
      020009E2H   SYMBOL    XDATA    ---       m_off_str
      020009FBH   SYMBOL    XDATA    ---       mult_str
      02000A0CH   SYMBOL    XDATA    ---       pos_lim_flag_str
      02000A28H   SYMBOL    XDATA    ---       pos_lim_str
      02000A45H   SYMBOL    XDATA    ---       max_step_str
      02000A60H   SYMBOL    XDATA    ---       curr_limit_str
      02000A74H   SYMBOL    XDATA    ---       emg_flag_str
      02000A99H   SYMBOL    XDATA    ---       emg_thr_str
LX51 LINKER/LOCATER V4.64.0.0                                                         04/04/2018  09:18:43  PAGE 44


      02000AAEH   SYMBOL    XDATA    ---       emg_max_val_str
      02000AC3H   SYMBOL    XDATA    ---       emg_max_speed_str
      02000AD7H   SYMBOL    XDATA    ---       abs_enc_str
      02000AFBH   SYMBOL    XDATA    ---       handle_ratio_str
      02000B14H   SYMBOL    XDATA    ---       motor_type_str
      02000B2CH   SYMBOL    XDATA    ---       rest_pos_str
      02000B40H   SYMBOL    XDATA    ---       rest_pos_delay_str
      02000B64H   SYMBOL    XDATA    ---       rest_vel_str
      02000B87H   SYMBOL    XDATA    ---       rest_ratio_str
      02000B98H   SYMBOL    XDATA    ---       curr_lookup_str
      02000BADH   SYMBOL    XDATA    ---       myo2_master_str
      02000BD1H   SYMBOL    XDATA    ---       master_mode_force_str
      02000BF4H   SYMBOL    XDATA    ---       master_mode_proprio_str
      02000C1DH   SYMBOL    XDATA    ---       curr_prop_gain_str
      02000C45H   SYMBOL    XDATA    ---       curr_sat_str
      02000C71H   SYMBOL    XDATA    ---       curr_dead_zone_str
      02000C91H   SYMBOL    XDATA    ---       max_slide_str
      02000CB4H   SYMBOL    XDATA    ---       max_SH_pos_str
      02000CD9H   SYMBOL    XDATA    ---       SH_ID_str
      02000CEBH   SYMBOL    XDATA    ---       FF_ID_str
      02000D01H   SYMBOL    XDATA    ---       PF_ID_str
      02000D20H   SYMBOL    XDATA    ---       input_mode_menu
      02000D83H   SYMBOL    XDATA    ---       control_mode_menu
      02000DDFH   SYMBOL    XDATA    ---       yes_no_menu
      0000002EH   SYMBOL    DATA     BYTE      id_str_len
      0000002FH   SYMBOL    DATA     BYTE      pos_pid_str_len
      00000030H   SYMBOL    DATA     BYTE      curr_pid_str_len
      00000031H   SYMBOL    DATA     BYTE      res_str_len
      00000032H   SYMBOL    DATA     BYTE      m_off_str_len
      00000033H   SYMBOL    DATA     BYTE      mult_str_len
      00000034H   SYMBOL    DATA     BYTE      pos_lim_str_len
      00000035H   SYMBOL    DATA     BYTE      max_step_str_len
      00000036H   SYMBOL    DATA     BYTE      curr_limit_str_len
      00000037H   SYMBOL    DATA     BYTE      emg_thr_str_len
      00000038H   SYMBOL    DATA     BYTE      emg_max_val_str_len
      00000039H   SYMBOL    DATA     BYTE      emg_max_speed_str_len
      0000003AH   SYMBOL    DATA     BYTE      handle_ratio_str_len
      0000003BH   SYMBOL    DATA     BYTE      curr_lookup_str_len
      0000003CH   SYMBOL    DATA     BYTE      input_mode_menu_len
      0000003DH   SYMBOL    DATA     BYTE      control_mode_menu_len
      0000003EH   SYMBOL    DATA     BYTE      yes_no_menu_len
      0000003FH   SYMBOL    DATA     BYTE      rest_pos_str_len
      00000040H   SYMBOL    DATA     BYTE      rest_pos_delay_str_len
      00000041H   SYMBOL    DATA     BYTE      rest_vel_str_len
      00000042H   SYMBOL    DATA     BYTE      rest_ratio_str_len
      00000043H   SYMBOL    DATA     BYTE      curr_prop_gain_str_len
      00000044H   SYMBOL    DATA     BYTE      curr_sat_str_len
      00000045H   SYMBOL    DATA     BYTE      curr_dead_zone_str_len
      00000046H   SYMBOL    DATA     BYTE      max_slide_str_len
      00000047H   SYMBOL    DATA     BYTE      max_SH_pos_str_len
      00000048H   SYMBOL    DATA     BYTE      SH_ID_str_len
      00000049H   SYMBOL    DATA     BYTE      FF_ID_str_len
      0000004AH   SYMBOL    DATA     BYTE      PF_ID_str_len
      ---         BLOCKEND  ---      ---       LVL=1
      0100261AH   LINE      CODE     ---       #269
      01002622H   LINE      CODE     ---       #271
      01002635H   LINE      CODE     ---       #272
      0100263FH   LINE      CODE     ---       #281
      01002652H   LINE      CODE     ---       #282
      01002665H   LINE      CODE     ---       #283
      01002678H   LINE      CODE     ---       #284
      0100268BH   LINE      CODE     ---       #285
      0100269EH   LINE      CODE     ---       #286
      010026B1H   LINE      CODE     ---       #287
      010026C4H   LINE      CODE     ---       #288
LX51 LINKER/LOCATER V4.64.0.0                                                         04/04/2018  09:18:43  PAGE 45


      010026D7H   LINE      CODE     ---       #289
      010026EAH   LINE      CODE     ---       #290
      010026FDH   LINE      CODE     ---       #291
      01002710H   LINE      CODE     ---       #292
      01002723H   LINE      CODE     ---       #293
      01002736H   LINE      CODE     ---       #294
      01002749H   LINE      CODE     ---       #295
      0100275CH   LINE      CODE     ---       #296
      0100276FH   LINE      CODE     ---       #297
      01002782H   LINE      CODE     ---       #298
      01002795H   LINE      CODE     ---       #299
      010027A8H   LINE      CODE     ---       #300
      010027BBH   LINE      CODE     ---       #301
      010027CEH   LINE      CODE     ---       #302
      010027E1H   LINE      CODE     ---       #303
      010027F4H   LINE      CODE     ---       #304
      01002807H   LINE      CODE     ---       #305
      0100281AH   LINE      CODE     ---       #307
      0100282DH   LINE      CODE     ---       #308
      01002840H   LINE      CODE     ---       #309
      01002853H   LINE      CODE     ---       #311
      01002866H   LINE      CODE     ---       #312
      01002879H   LINE      CODE     ---       #313
      0100288CH   LINE      CODE     ---       #315
      0100289FH   LINE      CODE     ---       #316
      010028B2H   LINE      CODE     ---       #317
      010028C5H   LINE      CODE     ---       #318
      010028D8H   LINE      CODE     ---       #319
      010028EBH   LINE      CODE     ---       #322
      010028FEH   LINE      CODE     ---       #323
      01002911H   LINE      CODE     ---       #324
      01002924H   LINE      CODE     ---       #327
      0100292FH   LINE      CODE     ---       #328
      0100293AH   LINE      CODE     ---       #329
      01002945H   LINE      CODE     ---       #331
      01002950H   LINE      CODE     ---       #332
      0100295BH   LINE      CODE     ---       #333
      01002966H   LINE      CODE     ---       #335
      01002971H   LINE      CODE     ---       #336
      0100297CH   LINE      CODE     ---       #337
      01002987H   LINE      CODE     ---       #339
      01002992H   LINE      CODE     ---       #340
      0100299DH   LINE      CODE     ---       #341
      010029A8H   LINE      CODE     ---       #343
      010029B3H   LINE      CODE     ---       #344
      010029BEH   LINE      CODE     ---       #345
      010029C9H   LINE      CODE     ---       #346
      010029D4H   LINE      CODE     ---       #347
      010029DFH   LINE      CODE     ---       #348
      010029EAH   LINE      CODE     ---       #349
      010029F5H   LINE      CODE     ---       #350
      01002A00H   LINE      CODE     ---       #351
      01002A0BH   LINE      CODE     ---       #353
      01002A16H   LINE      CODE     ---       #354
      01002A21H   LINE      CODE     ---       #355
      01002A2CH   LINE      CODE     ---       #357
      01002A37H   LINE      CODE     ---       #358
      01002A42H   LINE      CODE     ---       #359
      01002A4DH   LINE      CODE     ---       #360
      01002A58H   LINE      CODE     ---       #361
      01002A63H   LINE      CODE     ---       #363
      01002A69H   LINE      CODE     ---       #364
      01002A6DH   LINE      CODE     ---       #366
      01002AFAH   LINE      CODE     ---       #367
      01002AFAH   LINE      CODE     ---       #370
LX51 LINKER/LOCATER V4.64.0.0                                                         04/04/2018  09:18:43  PAGE 46


      01002B00H   LINE      CODE     ---       #371
      01002B03H   LINE      CODE     ---       #372
      01002B0BH   LINE      CODE     ---       #373
      01002B12H   LINE      CODE     ---       #374
      01002B44H   LINE      CODE     ---       #378
      01002B4AH   LINE      CODE     ---       #379
      01002B4EH   LINE      CODE     ---       #380
      01002B56H   LINE      CODE     ---       #381
      01002B78H   LINE      CODE     ---       #382
      01002B9AH   LINE      CODE     ---       #383
      01002BBCH   LINE      CODE     ---       #384
      01002BBEH   LINE      CODE     ---       #385
      01002BBEH   LINE      CODE     ---       #386
      01002BE0H   LINE      CODE     ---       #387
      01002C02H   LINE      CODE     ---       #388
      01002C24H   LINE      CODE     ---       #389
      01002C24H   LINE      CODE     ---       #391
      01002C2BH   LINE      CODE     ---       #392
      01002C5DH   LINE      CODE     ---       #396
      01002C63H   LINE      CODE     ---       #397
      01002C67H   LINE      CODE     ---       #398
      01002C6FH   LINE      CODE     ---       #399
      01002C91H   LINE      CODE     ---       #400
      01002CB3H   LINE      CODE     ---       #401
      01002CD5H   LINE      CODE     ---       #402
      01002CD7H   LINE      CODE     ---       #403
      01002CD7H   LINE      CODE     ---       #404
      01002CF9H   LINE      CODE     ---       #405
      01002D1BH   LINE      CODE     ---       #406
      01002D3DH   LINE      CODE     ---       #407
      01002D3DH   LINE      CODE     ---       #409
      01002D44H   LINE      CODE     ---       #410
      01002D76H   LINE      CODE     ---       #414
      01002D7BH   LINE      CODE     ---       #415
      01002D7EH   LINE      CODE     ---       #416
      01002D86H   LINE      CODE     ---       #417
      01002D8BH   LINE      CODE     ---       #418
      01002DA2H   LINE      CODE     ---       #419
      01002DA5H   LINE      CODE     ---       #420
      01002DA7H   LINE      CODE     ---       #421
      01002DA7H   LINE      CODE     ---       #422
      01002DBEH   LINE      CODE     ---       #423
      01002DC1H   LINE      CODE     ---       #424
      01002DC1H   LINE      CODE     ---       #425
      01002DC8H   LINE      CODE     ---       #426
      01002DFAH   LINE      CODE     ---       #428
      01002E08H   LINE      CODE     ---       #432
      01002E0DH   LINE      CODE     ---       #433
      01002E10H   LINE      CODE     ---       #434
      01002E18H   LINE      CODE     ---       #435
      01002E34H   LINE      CODE     ---       #436
      01002E34H   LINE      CODE     ---       #437
      01002E4BH   LINE      CODE     ---       #438
      01002E4EH   LINE      CODE     ---       #439
      01002E51H   LINE      CODE     ---       #440
      01002E51H   LINE      CODE     ---       #441
      01002E68H   LINE      CODE     ---       #442
      01002E6BH   LINE      CODE     ---       #443
      01002E6DH   LINE      CODE     ---       #444
      01002E6DH   LINE      CODE     ---       #445
      01002E84H   LINE      CODE     ---       #446
      01002E87H   LINE      CODE     ---       #447
      01002E89H   LINE      CODE     ---       #448
      01002E89H   LINE      CODE     ---       #449
      01002EA0H   LINE      CODE     ---       #450
LX51 LINKER/LOCATER V4.64.0.0                                                         04/04/2018  09:18:43  PAGE 47


      01002EA3H   LINE      CODE     ---       #451
      01002EA5H   LINE      CODE     ---       #452
      01002EA5H   LINE      CODE     ---       #453
      01002EBCH   LINE      CODE     ---       #454
      01002EBFH   LINE      CODE     ---       #455
      01002EC1H   LINE      CODE     ---       #456
      01002EC1H   LINE      CODE     ---       #457
      01002ED8H   LINE      CODE     ---       #458
      01002EDBH   LINE      CODE     ---       #459
      01002EDBH   LINE      CODE     ---       #460
      01002EDBH   LINE      CODE     ---       #461
      01002EE2H   LINE      CODE     ---       #462
      01002F14H   LINE      CODE     ---       #464
      01002F22H   LINE      CODE     ---       #468
      01002F27H   LINE      CODE     ---       #469
      01002F2AH   LINE      CODE     ---       #470
      01002F32H   LINE      CODE     ---       #471
      01002F48H   LINE      CODE     ---       #472
      01002F48H   LINE      CODE     ---       #473
      01002F5FH   LINE      CODE     ---       #474
      01002F62H   LINE      CODE     ---       #475
      01002F64H   LINE      CODE     ---       #476
      01002F64H   LINE      CODE     ---       #477
      01002F7BH   LINE      CODE     ---       #478
      01002F7EH   LINE      CODE     ---       #479
      01002F80H   LINE      CODE     ---       #480
      01002F80H   LINE      CODE     ---       #481
      01002F97H   LINE      CODE     ---       #482
      01002F9AH   LINE      CODE     ---       #483
      01002F9CH   LINE      CODE     ---       #484
      01002F9CH   LINE      CODE     ---       #485
      01002FB3H   LINE      CODE     ---       #486
      01002FB6H   LINE      CODE     ---       #487
      01002FB8H   LINE      CODE     ---       #488
      01002FB8H   LINE      CODE     ---       #489
      01002FCFH   LINE      CODE     ---       #490
      01002FD2H   LINE      CODE     ---       #491
      01002FD2H   LINE      CODE     ---       #492
      01002FD2H   LINE      CODE     ---       #493
      01002FD9H   LINE      CODE     ---       #494
      0100300BH   LINE      CODE     ---       #496
      01003019H   LINE      CODE     ---       #500
      0100301DH   LINE      CODE     ---       #501
      01003020H   LINE      CODE     ---       #502
      0100302AH   LINE      CODE     ---       #503
      01003048H   LINE      CODE     ---       #504
      0100304FH   LINE      CODE     ---       #505
      01003081H   LINE      CODE     ---       #509
      01003087H   LINE      CODE     ---       #510
      01003089H   LINE      CODE     ---       #511
      01003093H   LINE      CODE     ---       #512
      010030D7H   LINE      CODE     ---       #513
      010030DEH   LINE      CODE     ---       #514
      01003110H   LINE      CODE     ---       #518
      01003116H   LINE      CODE     ---       #519
      0100311AH   LINE      CODE     ---       #520
      01003124H   LINE      CODE     ---       #521
      01003155H   LINE      CODE     ---       #522
      0100315CH   LINE      CODE     ---       #523
      0100318EH   LINE      CODE     ---       #527
      01003193H   LINE      CODE     ---       #528
      01003196H   LINE      CODE     ---       #529
      0100319EH   LINE      CODE     ---       #530
      010031A3H   LINE      CODE     ---       #531
      010031BAH   LINE      CODE     ---       #532
LX51 LINKER/LOCATER V4.64.0.0                                                         04/04/2018  09:18:43  PAGE 48


      010031BDH   LINE      CODE     ---       #533
      010031BFH   LINE      CODE     ---       #534
      010031BFH   LINE      CODE     ---       #535
      010031D6H   LINE      CODE     ---       #536
      010031D9H   LINE      CODE     ---       #537
      010031D9H   LINE      CODE     ---       #538
      010031E0H   LINE      CODE     ---       #539
      01003212H   LINE      CODE     ---       #541
      01003220H   LINE      CODE     ---       #545
      01003226H   LINE      CODE     ---       #546
      0100322AH   LINE      CODE     ---       #547
      01003237H   LINE      CODE     ---       #548
      01003275H   LINE      CODE     ---       #549
      010032B3H   LINE      CODE     ---       #550
      010032B8H   LINE      CODE     ---       #551
      010032BFH   LINE      CODE     ---       #552
      010032F1H   LINE      CODE     ---       #556
      010032F7H   LINE      CODE     ---       #557
      010032FBH   LINE      CODE     ---       #558
      0100330FH   LINE      CODE     ---       #559
      01003323H   LINE      CODE     ---       #560
      0100332AH   LINE      CODE     ---       #561
      0100335CH   LINE      CODE     ---       #565
      01003362H   LINE      CODE     ---       #566
      01003366H   LINE      CODE     ---       #567
      01003375H   LINE      CODE     ---       #568
      0100337CH   LINE      CODE     ---       #569
      010033AEH   LINE      CODE     ---       #573
      010033B3H   LINE      CODE     ---       #574
      010033B6H   LINE      CODE     ---       #575
      010033BEH   LINE      CODE     ---       #576
      010033C3H   LINE      CODE     ---       #577
      010033DAH   LINE      CODE     ---       #578
      010033DDH   LINE      CODE     ---       #579
      010033DFH   LINE      CODE     ---       #580
      010033DFH   LINE      CODE     ---       #581
      010033F6H   LINE      CODE     ---       #582
      010033F9H   LINE      CODE     ---       #583
      010033F9H   LINE      CODE     ---       #584
      01003400H   LINE      CODE     ---       #585
      01003432H   LINE      CODE     ---       #587
      01003440H   LINE      CODE     ---       #591
      01003445H   LINE      CODE     ---       #592
      01003449H   LINE      CODE     ---       #593
      01003458H   LINE      CODE     ---       #594
      01003467H   LINE      CODE     ---       #595
      0100346EH   LINE      CODE     ---       #596
      010034A0H   LINE      CODE     ---       #600
      010034A6H   LINE      CODE     ---       #601
      010034AAH   LINE      CODE     ---       #602
      010034BEH   LINE      CODE     ---       #603
      010034D2H   LINE      CODE     ---       #604
      010034D9H   LINE      CODE     ---       #605
      0100350BH   LINE      CODE     ---       #609
      01003511H   LINE      CODE     ---       #610
      01003514H   LINE      CODE     ---       #611
      0100351CH   LINE      CODE     ---       #612
      01003523H   LINE      CODE     ---       #613
      01003555H   LINE      CODE     ---       #617
      0100355AH   LINE      CODE     ---       #618
      0100355DH   LINE      CODE     ---       #619
      01003565H   LINE      CODE     ---       #620
      0100356AH   LINE      CODE     ---       #621
      01003581H   LINE      CODE     ---       #622
      01003584H   LINE      CODE     ---       #623
LX51 LINKER/LOCATER V4.64.0.0                                                         04/04/2018  09:18:43  PAGE 49


      01003586H   LINE      CODE     ---       #624
      01003586H   LINE      CODE     ---       #625
      0100359DH   LINE      CODE     ---       #626
      010035A0H   LINE      CODE     ---       #627
      010035A0H   LINE      CODE     ---       #628
      010035A7H   LINE      CODE     ---       #629
      010035D9H   LINE      CODE     ---       #631
      010035E7H   LINE      CODE     ---       #635
      010035EDH   LINE      CODE     ---       #636
      010035EFH   LINE      CODE     ---       #637
      010035F7H   LINE      CODE     ---       #638
      010035FEH   LINE      CODE     ---       #639
      01003630H   LINE      CODE     ---       #643
      01003635H   LINE      CODE     ---       #644
      01003638H   LINE      CODE     ---       #645
      01003640H   LINE      CODE     ---       #646
      01003645H   LINE      CODE     ---       #647
      0100365CH   LINE      CODE     ---       #648
      0100365FH   LINE      CODE     ---       #649
      01003661H   LINE      CODE     ---       #650
      01003661H   LINE      CODE     ---       #651
      01003678H   LINE      CODE     ---       #652
      0100367BH   LINE      CODE     ---       #653
      0100367BH   LINE      CODE     ---       #654
      01003682H   LINE      CODE     ---       #655
      010036B4H   LINE      CODE     ---       #657
      010036C2H   LINE      CODE     ---       #661
      010036C8H   LINE      CODE     ---       #662
      010036CCH   LINE      CODE     ---       #663
      010036E9H   LINE      CODE     ---       #664
      010036F0H   LINE      CODE     ---       #665
      01003722H   LINE      CODE     ---       #669
      01003728H   LINE      CODE     ---       #670
      0100372CH   LINE      CODE     ---       #671
      01003740H   LINE      CODE     ---       #672
      01003747H   LINE      CODE     ---       #673
      01003779H   LINE      CODE     ---       #677
      0100377FH   LINE      CODE     ---       #678
      01003783H   LINE      CODE     ---       #679
      010037A1H   LINE      CODE     ---       #680
      010037A8H   LINE      CODE     ---       #681
      010037DAH   LINE      CODE     ---       #685
      010037E0H   LINE      CODE     ---       #686
      010037E4H   LINE      CODE     ---       #687
      010037F8H   LINE      CODE     ---       #688
      010037FFH   LINE      CODE     ---       #689
      01003831H   LINE      CODE     ---       #693
      01003837H   LINE      CODE     ---       #694
      0100383AH   LINE      CODE     ---       #695
      01003844H   LINE      CODE     ---       #696
      01003875H   LINE      CODE     ---       #697
      0100387CH   LINE      CODE     ---       #698
      010038AEH   LINE      CODE     ---       #703
      010038B3H   LINE      CODE     ---       #704
      010038B6H   LINE      CODE     ---       #705
      010038BEH   LINE      CODE     ---       #706
      010038C3H   LINE      CODE     ---       #707
      010038DAH   LINE      CODE     ---       #708
      010038DDH   LINE      CODE     ---       #709
      010038DFH   LINE      CODE     ---       #710
      010038DFH   LINE      CODE     ---       #711
      010038F6H   LINE      CODE     ---       #712
      010038F9H   LINE      CODE     ---       #713
      010038F9H   LINE      CODE     ---       #714
      01003900H   LINE      CODE     ---       #715
LX51 LINKER/LOCATER V4.64.0.0                                                         04/04/2018  09:18:43  PAGE 50


      01003932H   LINE      CODE     ---       #717
      01003940H   LINE      CODE     ---       #721
      01003945H   LINE      CODE     ---       #722
      01003948H   LINE      CODE     ---       #723
      01003950H   LINE      CODE     ---       #724
      01003955H   LINE      CODE     ---       #725
      0100396CH   LINE      CODE     ---       #726
      0100396FH   LINE      CODE     ---       #727
      01003971H   LINE      CODE     ---       #728
      01003971H   LINE      CODE     ---       #729
      01003988H   LINE      CODE     ---       #730
      0100398BH   LINE      CODE     ---       #731
      0100398BH   LINE      CODE     ---       #732
      01003992H   LINE      CODE     ---       #733
      010039C4H   LINE      CODE     ---       #735
      010039D2H   LINE      CODE     ---       #739
      010039D7H   LINE      CODE     ---       #740
      010039DAH   LINE      CODE     ---       #741
      010039E2H   LINE      CODE     ---       #742
      010039E7H   LINE      CODE     ---       #743
      010039FEH   LINE      CODE     ---       #744
      01003A01H   LINE      CODE     ---       #745
      01003A03H   LINE      CODE     ---       #746
      01003A03H   LINE      CODE     ---       #747
      01003A1AH   LINE      CODE     ---       #748
      01003A1DH   LINE      CODE     ---       #749
      01003A1DH   LINE      CODE     ---       #750
      01003A24H   LINE      CODE     ---       #751
      01003A56H   LINE      CODE     ---       #753
      01003A64H   LINE      CODE     ---       #757
      01003A6AH   LINE      CODE     ---       #758
      01003A6EH   LINE      CODE     ---       #759
      01003A82H   LINE      CODE     ---       #760
      01003A89H   LINE      CODE     ---       #761
      01003ABBH   LINE      CODE     ---       #765
      01003AC1H   LINE      CODE     ---       #766
      01003AC5H   LINE      CODE     ---       #767
      01003AD4H   LINE      CODE     ---       #768
      01003ADBH   LINE      CODE     ---       #769
      01003B0DH   LINE      CODE     ---       #773
      01003B13H   LINE      CODE     ---       #774
      01003B17H   LINE      CODE     ---       #775
      01003B26H   LINE      CODE     ---       #776
      01003B2DH   LINE      CODE     ---       #777
      01003B5FH   LINE      CODE     ---       #781
      01003B65H   LINE      CODE     ---       #782
      01003B69H   LINE      CODE     ---       #783
      01003B7DH   LINE      CODE     ---       #784
      01003B84H   LINE      CODE     ---       #785
      01003BB6H   LINE      CODE     ---       #789
      01003BBCH   LINE      CODE     ---       #790
      01003BC0H   LINE      CODE     ---       #791
      01003BD4H   LINE      CODE     ---       #792
      01003BDBH   LINE      CODE     ---       #793
      01003C0DH   LINE      CODE     ---       #797
      01003C13H   LINE      CODE     ---       #798
      01003C16H   LINE      CODE     ---       #799
      01003C1EH   LINE      CODE     ---       #800
      01003C25H   LINE      CODE     ---       #801
      01003C57H   LINE      CODE     ---       #805
      01003C5DH   LINE      CODE     ---       #806
      01003C60H   LINE      CODE     ---       #807
      01003C68H   LINE      CODE     ---       #808
      01003C6FH   LINE      CODE     ---       #809
      01003CA1H   LINE      CODE     ---       #813
LX51 LINKER/LOCATER V4.64.0.0                                                         04/04/2018  09:18:43  PAGE 51


      01003CA7H   LINE      CODE     ---       #814
      01003CAAH   LINE      CODE     ---       #815
      01003CB2H   LINE      CODE     ---       #816
      01003CB9H   LINE      CODE     ---       #817
      01003CEBH   LINE      CODE     ---       #821
      01003CF2H   LINE      CODE     ---       #822
      01003D24H   LINE      CODE     ---       #824
      01003D2BH   LINE      CODE     ---       #825
      01003D5DH   LINE      CODE     ---       #827
      01003D64H   LINE      CODE     ---       #828
      01003D96H   LINE      CODE     ---       #830
      01003DBAH   LINE      CODE     ---       #831
      01003DC3H   LINE      CODE     ---       #832
      01003DC4H   LINE      CODE     ---       #835
      01003DC4H   LINE      CODE     ---       #836
      01003DCCH   LINE      CODE     ---       #837
      01003DCDH   LINE      CODE     ---       #840
      01003DCDH   LINE      CODE     ---       #841
      01003DD5H   LINE      CODE     ---       #842
      01003DF6H   LINE      CODE     ---       #843
      01003E17H   LINE      CODE     ---       #844
      01003E38H   LINE      CODE     ---       #845
      01003E39H   LINE      CODE     ---       #846
      01003E39H   LINE      CODE     ---       #847
      01003E5AH   LINE      CODE     ---       #848
      01003E7BH   LINE      CODE     ---       #849
      01003E9CH   LINE      CODE     ---       #850
      01003E9CH   LINE      CODE     ---       #851
      01003E9DH   LINE      CODE     ---       #854
      01003E9DH   LINE      CODE     ---       #855
      01003EA5H   LINE      CODE     ---       #856
      01003EC6H   LINE      CODE     ---       #857
      01003EE7H   LINE      CODE     ---       #858
      01003F08H   LINE      CODE     ---       #859
      01003F09H   LINE      CODE     ---       #860
      01003F09H   LINE      CODE     ---       #861
      01003F2AH   LINE      CODE     ---       #862
      01003F4BH   LINE      CODE     ---       #863
      01003F6CH   LINE      CODE     ---       #864
      01003F6CH   LINE      CODE     ---       #866
      01003F6DH   LINE      CODE     ---       #869
      01003F6DH   LINE      CODE     ---       #870
      01003F73H   LINE      CODE     ---       #871
      01003F7AH   LINE      CODE     ---       #873
      01003F7FH   LINE      CODE     ---       #874
      01003F80H   LINE      CODE     ---       #877
      01003F80H   LINE      CODE     ---       #878
      01003F88H   LINE      CODE     ---       #879
      01003F89H   LINE      CODE     ---       #882
      01003F89H   LINE      CODE     ---       #883
      01003F91H   LINE      CODE     ---       #884
      01003F92H   LINE      CODE     ---       #887
      01003F92H   LINE      CODE     ---       #888
      01003F9FH   LINE      CODE     ---       #889
      01003FB9H   LINE      CODE     ---       #890
      01003FBDH   LINE      CODE     ---       #891
      01003FBDH   LINE      CODE     ---       #894
      01003FBDH   LINE      CODE     ---       #895
      01003FC7H   LINE      CODE     ---       #896
      01003FF1H   LINE      CODE     ---       #897
      01004027H   LINE      CODE     ---       #899
      01004034H   LINE      CODE     ---       #900
      01004038H   LINE      CODE     ---       #901
      0100403AH   LINE      CODE     ---       #902
      0100403BH   LINE      CODE     ---       #905
LX51 LINKER/LOCATER V4.64.0.0                                                         04/04/2018  09:18:43  PAGE 52


      0100403BH   LINE      CODE     ---       #906
      01004048H   LINE      CODE     ---       #907
      01004078H   LINE      CODE     ---       #908
      01004078H   LINE      CODE     ---       #911
      01004078H   LINE      CODE     ---       #912
      01004080H   LINE      CODE     ---       #913
      01004081H   LINE      CODE     ---       #916
      01004081H   LINE      CODE     ---       #917
      0100408EH   LINE      CODE     ---       #918
      010040BAH   LINE      CODE     ---       #919
      010040E6H   LINE      CODE     ---       #921
      0100411CH   LINE      CODE     ---       #922
      01004152H   LINE      CODE     ---       #923
      01004157H   LINE      CODE     ---       #924
      01004157H   LINE      CODE     ---       #927
      01004157H   LINE      CODE     ---       #928
      0100416BH   LINE      CODE     ---       #929
      01004184H   LINE      CODE     ---       #930
      01004198H   LINE      CODE     ---       #932
      010041ACH   LINE      CODE     ---       #933
      010041C8H   LINE      CODE     ---       #934
      010041DCH   LINE      CODE     ---       #936
      010041DDH   LINE      CODE     ---       #939
      010041DDH   LINE      CODE     ---       #940
      010041ECH   LINE      CODE     ---       #941
      010041EDH   LINE      CODE     ---       #944
      010041EDH   LINE      CODE     ---       #945
      010041F5H   LINE      CODE     ---       #946
      010041F6H   LINE      CODE     ---       #949
      010041F6H   LINE      CODE     ---       #950
      01004205H   LINE      CODE     ---       #951
      01004214H   LINE      CODE     ---       #952
      01004215H   LINE      CODE     ---       #955
      01004215H   LINE      CODE     ---       #956
      01004229H   LINE      CODE     ---       #957
      0100423DH   LINE      CODE     ---       #958
      0100423EH   LINE      CODE     ---       #961
      0100423EH   LINE      CODE     ---       #962
      01004246H   LINE      CODE     ---       #963
      01004247H   LINE      CODE     ---       #966
      01004247H   LINE      CODE     ---       #967
      0100424FH   LINE      CODE     ---       #968
      01004251H   LINE      CODE     ---       #969
      01004257H   LINE      CODE     ---       #970
      01004258H   LINE      CODE     ---       #971
      0100425DH   LINE      CODE     ---       #972
      0100425DH   LINE      CODE     ---       #973
      0100425EH   LINE      CODE     ---       #976
      0100425EH   LINE      CODE     ---       #977
      01004266H   LINE      CODE     ---       #978
      01004267H   LINE      CODE     ---       #981
      01004267H   LINE      CODE     ---       #982
      0100426FH   LINE      CODE     ---       #983
      01004270H   LINE      CODE     ---       #985
      01004270H   LINE      CODE     ---       #986
      01004284H   LINE      CODE     ---       #987
      010042A1H   LINE      CODE     ---       #988
      010042A2H   LINE      CODE     ---       #990
      010042A2H   LINE      CODE     ---       #991
      010042B6H   LINE      CODE     ---       #992
      010042B7H   LINE      CODE     ---       #994
      010042B7H   LINE      CODE     ---       #995
      010042CBH   LINE      CODE     ---       #996
      010042E9H   LINE      CODE     ---       #997
      010042EAH   LINE      CODE     ---       #999
LX51 LINKER/LOCATER V4.64.0.0                                                         04/04/2018  09:18:43  PAGE 53


      010042EAH   LINE      CODE     ---       #1000
      010042FEH   LINE      CODE     ---       #1001
      010042FFH   LINE      CODE     ---       #1003
      010042FFH   LINE      CODE     ---       #1004
      0100430CH   LINE      CODE     ---       #1005
      0100433CH   LINE      CODE     ---       #1006
      0100433CH   LINE      CODE     ---       #1008
      0100433CH   LINE      CODE     ---       #1009
      01004344H   LINE      CODE     ---       #1010
      01004346H   LINE      CODE     ---       #1011
      0100434CH   LINE      CODE     ---       #1012
      0100434DH   LINE      CODE     ---       #1013
      01004352H   LINE      CODE     ---       #1014
      01004352H   LINE      CODE     ---       #1015
      01004353H   LINE      CODE     ---       #1017
      01004353H   LINE      CODE     ---       #1018
      0100435BH   LINE      CODE     ---       #1019
      0100435DH   LINE      CODE     ---       #1020
      01004363H   LINE      CODE     ---       #1021
      01004364H   LINE      CODE     ---       #1022
      01004369H   LINE      CODE     ---       #1023
      01004369H   LINE      CODE     ---       #1024
      0100436AH   LINE      CODE     ---       #1026
      0100436AH   LINE      CODE     ---       #1027
      01004372H   LINE      CODE     ---       #1028
      01004374H   LINE      CODE     ---       #1029
      0100437AH   LINE      CODE     ---       #1030
      0100437BH   LINE      CODE     ---       #1031
      01004380H   LINE      CODE     ---       #1032
      01004380H   LINE      CODE     ---       #1033
      01004381H   LINE      CODE     ---       #1035
      01004381H   LINE      CODE     ---       #1036
      01004395H   LINE      CODE     ---       #1037
      01004396H   LINE      CODE     ---       #1039
      01004396H   LINE      CODE     ---       #1040
      010043A5H   LINE      CODE     ---       #1041
      010043A6H   LINE      CODE     ---       #1043
      010043A6H   LINE      CODE     ---       #1044
      010043B5H   LINE      CODE     ---       #1045
      010043B6H   LINE      CODE     ---       #1047
      010043B6H   LINE      CODE     ---       #1048
      010043CAH   LINE      CODE     ---       #1049
      010043CBH   LINE      CODE     ---       #1051
      010043CBH   LINE      CODE     ---       #1052
      010043DFH   LINE      CODE     ---       #1053
      010043E0H   LINE      CODE     ---       #1055
      010043E0H   LINE      CODE     ---       #1056
      010043E8H   LINE      CODE     ---       #1057
      010043E9H   LINE      CODE     ---       #1059
      010043E9H   LINE      CODE     ---       #1060
      010043F1H   LINE      CODE     ---       #1061
      010043F2H   LINE      CODE     ---       #1063
      010043F2H   LINE      CODE     ---       #1064
      010043FAH   LINE      CODE     ---       #1065
      010043FAH   LINE      CODE     ---       #1066
      010043FAH   LINE      CODE     ---       #1067
      ---         BLOCKEND  ---      ---       LVL=0

      0100D888H   BLOCK     CODE     ---       LVL=0
      0100D888H   BLOCK     CODE     NEAR LAB  LVL=1
      0000002CH   SYMBOL    DATA     BYTE      i
      ---         BLOCKEND  ---      ---       LVL=1
      0100D888H   LINE      CODE     ---       #1073
      0100D888H   LINE      CODE     ---       #1074
      0100D888H   LINE      CODE     ---       #1077
LX51 LINKER/LOCATER V4.64.0.0                                                         04/04/2018  09:18:43  PAGE 54


      0100D892H   LINE      CODE     ---       #1078
      0100D8BCH   LINE      CODE     ---       #1079
      0100D8F2H   LINE      CODE     ---       #1081
      0100D8FFH   LINE      CODE     ---       #1082
      0100D903H   LINE      CODE     ---       #1083
      0100D905H   LINE      CODE     ---       #1085
      0100D90AH   LINE      CODE     ---       #1086
      ---         BLOCKEND  ---      ---       LVL=0

      01005FE3H   BLOCK     CODE     ---       LVL=0
      020006C6H   SYMBOL    XDATA    ---       info_string
      01005FEEH   BLOCK     CODE     NEAR LAB  LVL=1
      020006C9H   SYMBOL    XDATA    INT       i
      01005FF9H   BLOCK     CODE     NEAR LAB  LVL=2
      020006CBH   SYMBOL    XDATA    ---       str
      ---         BLOCKEND  ---      ---       LVL=2
      ---         BLOCKEND  ---      ---       LVL=1
      01005FE3H   LINE      CODE     ---       #1092
      01005FEEH   LINE      CODE     ---       #1093
      01005FEEH   LINE      CODE     ---       #1095
      01005FF9H   LINE      CODE     ---       #1097
      01006011H   LINE      CODE     ---       #1098
      0100602DH   LINE      CODE     ---       #1099
      01006049H   LINE      CODE     ---       #1100
      01006065H   LINE      CODE     ---       #1101
      01006081H   LINE      CODE     ---       #1103
      0100609DH   LINE      CODE     ---       #1104
      010060C1H   LINE      CODE     ---       #1105
      010060DDH   LINE      CODE     ---       #1106
      010060F9H   LINE      CODE     ---       #1107
      01006100H   LINE      CODE     ---       #1108
      0100611EH   LINE      CODE     ---       #1110
      0100613AH   LINE      CODE     ---       #1112
      0100615EH   LINE      CODE     ---       #1113
      0100617AH   LINE      CODE     ---       #1114
      01006196H   LINE      CODE     ---       #1116
      010061B2H   LINE      CODE     ---       #1117
      010061CEH   LINE      CODE     ---       #1119
      010061D5H   LINE      CODE     ---       #1120
      010061F3H   LINE      CODE     ---       #1121
      010061F3H   LINE      CODE     ---       #1122
      010061FAH   LINE      CODE     ---       #1123
      01006218H   LINE      CODE     ---       #1125
      01006234H   LINE      CODE     ---       #1126
      01006234H   LINE      CODE     ---       #1128
      0100624FH   LINE      CODE     ---       #1129
      01006257H   LINE      CODE     ---       #1130
      01006297H   LINE      CODE     ---       #1131
      010062B3H   LINE      CODE     ---       #1132
      010062B6H   LINE      CODE     ---       #1133
      010062B6H   LINE      CODE     ---       #1134
      010062BEH   LINE      CODE     ---       #1135
      010062FEH   LINE      CODE     ---       #1136
      0100631AH   LINE      CODE     ---       #1137
      0100631CH   LINE      CODE     ---       #1138
      0100631CH   LINE      CODE     ---       #1139
      01006372H   LINE      CODE     ---       #1140
      0100638EH   LINE      CODE     ---       #1141
      0100638EH   LINE      CODE     ---       #1142
      0100638EH   LINE      CODE     ---       #1143
      0100639FH   LINE      CODE     ---       #1144
      010063BBH   LINE      CODE     ---       #1145
      010063D7H   LINE      CODE     ---       #1147
      010063EEH   LINE      CODE     ---       #1148
      010063F6H   LINE      CODE     ---       #1149
LX51 LINKER/LOCATER V4.64.0.0                                                         04/04/2018  09:18:43  PAGE 55


      0100640DH   LINE      CODE     ---       #1150
      0100640FH   LINE      CODE     ---       #1151
      01006426H   LINE      CODE     ---       #1152
      01006426H   LINE      CODE     ---       #1153
      01006442H   LINE      CODE     ---       #1155
      0100645EH   LINE      CODE     ---       #1156
      0100647AH   LINE      CODE     ---       #1157
      01006495H   LINE      CODE     ---       #1159
      010064FEH   LINE      CODE     ---       #1160
      0100651AH   LINE      CODE     ---       #1161
      01006536H   LINE      CODE     ---       #1162
      01006547H   LINE      CODE     ---       #1164
      01006572H   LINE      CODE     ---       #1165
      0100658EH   LINE      CODE     ---       #1166
      010065AAH   LINE      CODE     ---       #1168
      010065D5H   LINE      CODE     ---       #1169
      010065F1H   LINE      CODE     ---       #1170
      0100660DH   LINE      CODE     ---       #1172
      01006638H   LINE      CODE     ---       #1173
      01006654H   LINE      CODE     ---       #1174
      01006670H   LINE      CODE     ---       #1177
      0100668CH   LINE      CODE     ---       #1179
      010066A8H   LINE      CODE     ---       #1180
      010066B3H   LINE      CODE     ---       #1181
      010066ECH   LINE      CODE     ---       #1182
      01006708H   LINE      CODE     ---       #1183
      01006741H   LINE      CODE     ---       #1184
      0100675DH   LINE      CODE     ---       #1185
      01006796H   LINE      CODE     ---       #1186
      010067B2H   LINE      CODE     ---       #1187
      010067B5H   LINE      CODE     ---       #1188
      010067B5H   LINE      CODE     ---       #1189
      010067EEH   LINE      CODE     ---       #1190
      0100680AH   LINE      CODE     ---       #1191
      01006843H   LINE      CODE     ---       #1192
      0100685FH   LINE      CODE     ---       #1193
      01006898H   LINE      CODE     ---       #1194
      010068B4H   LINE      CODE     ---       #1195
      010068B4H   LINE      CODE     ---       #1197
      010068D0H   LINE      CODE     ---       #1198
      010068DBH   LINE      CODE     ---       #1199
      01006914H   LINE      CODE     ---       #1200
      01006930H   LINE      CODE     ---       #1201
      01006969H   LINE      CODE     ---       #1202
      01006985H   LINE      CODE     ---       #1203
      010069BEH   LINE      CODE     ---       #1204
      010069DAH   LINE      CODE     ---       #1205
      010069DDH   LINE      CODE     ---       #1206
      010069DDH   LINE      CODE     ---       #1207
      01006A16H   LINE      CODE     ---       #1208
      01006A32H   LINE      CODE     ---       #1209
      01006A6BH   LINE      CODE     ---       #1210
      01006A87H   LINE      CODE     ---       #1211
      01006AC0H   LINE      CODE     ---       #1212
      01006ADCH   LINE      CODE     ---       #1213
      01006ADCH   LINE      CODE     ---       #1215
      01006AF8H   LINE      CODE     ---       #1218
      01006AFFH   LINE      CODE     ---       #1219
      01006B1BH   LINE      CODE     ---       #1220
      01006B1DH   LINE      CODE     ---       #1221
      01006B39H   LINE      CODE     ---       #1222
      01006B39H   LINE      CODE     ---       #1224
      01006B59H   LINE      CODE     ---       #1225
      01006B59H   LINE      CODE     ---       #1226
      01006B75H   LINE      CODE     ---       #1227
LX51 LINKER/LOCATER V4.64.0.0                                                         04/04/2018  09:18:43  PAGE 56


      01006B78H   LINE      CODE     ---       #1228
      01006B78H   LINE      CODE     ---       #1229
      01006B94H   LINE      CODE     ---       #1230
      01006B96H   LINE      CODE     ---       #1231
      01006B96H   LINE      CODE     ---       #1232
      01006BB2H   LINE      CODE     ---       #1233
      01006BB4H   LINE      CODE     ---       #1234
      01006BB4H   LINE      CODE     ---       #1235
      01006BD0H   LINE      CODE     ---       #1236
      01006BD2H   LINE      CODE     ---       #1237
      01006BD2H   LINE      CODE     ---       #1238
      01006BEEH   LINE      CODE     ---       #1239
      01006BF0H   LINE      CODE     ---       #1240
      01006BF0H   LINE      CODE     ---       #1241
      01006C0CH   LINE      CODE     ---       #1242
      01006C0CH   LINE      CODE     ---       #1243
      01006C0CH   LINE      CODE     ---       #1245
      01006C23H   LINE      CODE     ---       #1246
      01006C23H   LINE      CODE     ---       #1247
      01006C3FH   LINE      CODE     ---       #1248
      01006C41H   LINE      CODE     ---       #1249
      01006C41H   LINE      CODE     ---       #1250
      01006C5DH   LINE      CODE     ---       #1251
      01006C5FH   LINE      CODE     ---       #1252
      01006C5FH   LINE      CODE     ---       #1253
      01006C7BH   LINE      CODE     ---       #1254
      01006C7DH   LINE      CODE     ---       #1255
      01006C7DH   LINE      CODE     ---       #1256
      01006C99H   LINE      CODE     ---       #1257
      01006C9BH   LINE      CODE     ---       #1258
      01006C9BH   LINE      CODE     ---       #1259
      01006CB7H   LINE      CODE     ---       #1260
      01006CB7H   LINE      CODE     ---       #1261
      01006CB7H   LINE      CODE     ---       #1262
      01006CB7H   LINE      CODE     ---       #1263
      01006CB7H   LINE      CODE     ---       #1265
      01006CBDH   LINE      CODE     ---       #1266
      01006CD9H   LINE      CODE     ---       #1267
      01006CDBH   LINE      CODE     ---       #1268
      01006CF7H   LINE      CODE     ---       #1269
      01006CF7H   LINE      CODE     ---       #1271
      01006D1DH   LINE      CODE     ---       #1272
      01006D39H   LINE      CODE     ---       #1276
      01006D55H   LINE      CODE     ---       #1277
      01006D70H   LINE      CODE     ---       #1278
      01006DAFH   LINE      CODE     ---       #1279
      01006DCBH   LINE      CODE     ---       #1280
      01006DE7H   LINE      CODE     ---       #1281
      01006DF8H   LINE      CODE     ---       #1284
      01006E14H   LINE      CODE     ---       #1285
      01006E2FH   LINE      CODE     ---       #1286
      01006E96H   LINE      CODE     ---       #1287
      01006EB2H   LINE      CODE     ---       #1288
      01006ECEH   LINE      CODE     ---       #1289
      01006EDFH   LINE      CODE     ---       #1291
      01006EFBH   LINE      CODE     ---       #1292
      01006F16H   LINE      CODE     ---       #1293
      01006F67H   LINE      CODE     ---       #1294
      01006F83H   LINE      CODE     ---       #1295
      01006F9FH   LINE      CODE     ---       #1296
      01006FB0H   LINE      CODE     ---       #1298
      01006FCCH   LINE      CODE     ---       #1299
      0100701FH   LINE      CODE     ---       #1300
      0100703BH   LINE      CODE     ---       #1301
      0100708EH   LINE      CODE     ---       #1302
LX51 LINKER/LOCATER V4.64.0.0                                                         04/04/2018  09:18:43  PAGE 57


      010070AAH   LINE      CODE     ---       #1303
      010070C6H   LINE      CODE     ---       #1306
      010070EAH   LINE      CODE     ---       #1307
      01007106H   LINE      CODE     ---       #1308
      01007122H   LINE      CODE     ---       #1310
      0100713DH   LINE      CODE     ---       #1312
      010071A4H   LINE      CODE     ---       #1313
      010071C0H   LINE      CODE     ---       #1316
      01007214H   LINE      CODE     ---       #1317
      01007230H   LINE      CODE     ---       #1318
      01007241H   LINE      CODE     ---       #1320
      0100727EH   LINE      CODE     ---       #1321
      0100729AH   LINE      CODE     ---       #1322
      010072B6H   LINE      CODE     ---       #1324
      010072DCH   LINE      CODE     ---       #1325
      010072F8H   LINE      CODE     ---       #1326
      01007314H   LINE      CODE     ---       #1328
      01007349H   LINE      CODE     ---       #1329
      01007365H   LINE      CODE     ---       #1330
      01007381H   LINE      CODE     ---       #1332
      010073C0H   LINE      CODE     ---       #1333
      010073DCH   LINE      CODE     ---       #1334
      010073F8H   LINE      CODE     ---       #1336
      010073FEH   LINE      CODE     ---       #1337
      0100741AH   LINE      CODE     ---       #1338
      0100741CH   LINE      CODE     ---       #1339
      01007438H   LINE      CODE     ---       #1340
      01007438H   LINE      CODE     ---       #1342
      0100745CH   LINE      CODE     ---       #1343
      01007478H   LINE      CODE     ---       #1344
      01007494H   LINE      CODE     ---       #1346
      010074BFH   LINE      CODE     ---       #1347
      010074DBH   LINE      CODE     ---       #1348
      010074F7H   LINE      CODE     ---       #1350
      0100752CH   LINE      CODE     ---       #1351
      01007548H   LINE      CODE     ---       #1352
      01007564H   LINE      CODE     ---       #1354
      0100759AH   LINE      CODE     ---       #1355
      010075B6H   LINE      CODE     ---       #1356
      010075D2H   LINE      CODE     ---       #1358
      010075FDH   LINE      CODE     ---       #1359
      01007619H   LINE      CODE     ---       #1360
      01007635H   LINE      CODE     ---       #1362
      01007660H   LINE      CODE     ---       #1363
      0100767CH   LINE      CODE     ---       #1364
      01007698H   LINE      CODE     ---       #1366
      010076B5H   LINE      CODE     ---       #1367
      010076D1H   LINE      CODE     ---       #1368
      010076EDH   LINE      CODE     ---       #1370
      01007718H   LINE      CODE     ---       #1371
      01007734H   LINE      CODE     ---       #1372
      01007750H   LINE      CODE     ---       #1374
      0100777BH   LINE      CODE     ---       #1375
      01007797H   LINE      CODE     ---       #1376
      010077B3H   LINE      CODE     ---       #1378
      010077B9H   LINE      CODE     ---       #1379
      010077D5H   LINE      CODE     ---       #1380
      010077D7H   LINE      CODE     ---       #1381
      010077F3H   LINE      CODE     ---       #1382
      010077F3H   LINE      CODE     ---       #1384
      010077F9H   LINE      CODE     ---       #1385
      01007815H   LINE      CODE     ---       #1386
      01007817H   LINE      CODE     ---       #1387
      01007833H   LINE      CODE     ---       #1388
      01007833H   LINE      CODE     ---       #1390
LX51 LINKER/LOCATER V4.64.0.0                                                         04/04/2018  09:18:43  PAGE 58


      01007839H   LINE      CODE     ---       #1391
      01007855H   LINE      CODE     ---       #1392
      01007857H   LINE      CODE     ---       #1393
      01007873H   LINE      CODE     ---       #1394
      01007873H   LINE      CODE     ---       #1396
      010078B7H   LINE      CODE     ---       #1397
      010078D3H   LINE      CODE     ---       #1398
      010078EFH   LINE      CODE     ---       #1399
      010078EFH   LINE      CODE     ---       #1400
      ---         BLOCKEND  ---      ---       LVL=0

      0100D5D7H   BLOCK     CODE     ---       LVL=0
      02000030H   SYMBOL    XDATA    ---       packet_data
      02000033H   SYMBOL    XDATA    WORD      packet_lenght
      02000035H   SYMBOL    XDATA    BYTE      old_id
      0100D5E8H   BLOCK     CODE     NEAR LAB  LVL=1
      00000030H   SYMBOL    DATA     WORD      index
      ---         BLOCKEND  ---      ---       LVL=1
      0100D5D7H   LINE      CODE     ---       #1406
      0100D5E8H   LINE      CODE     ---       #1407
      0100D5E8H   LINE      CODE     ---       #1411
      0100D5EDH   LINE      CODE     ---       #1412
      0100D5F2H   LINE      CODE     ---       #1415
      0100D5FAH   LINE      CODE     ---       #1420
      0100D604H   LINE      CODE     ---       #1422
      0100D618H   LINE      CODE     ---       #1423
      0100D630H   LINE      CODE     ---       #1424
      0100D63AH   LINE      CODE     ---       #1426
      0100D63FH   LINE      CODE     ---       #1428
      0100D659H   LINE      CODE     ---       #1430
      0100D65EH   LINE      CODE     ---       #1431
      0100D663H   LINE      CODE     ---       #1432
      ---         BLOCKEND  ---      ---       LVL=0

      0100D664H   BLOCK     CODE     ---       LVL=0
      02000E09H   SYMBOL    XDATA    ---       packet_data
      02000E0CH   SYMBOL    XDATA    WORD      packet_lenght
      0100D675H   BLOCK     CODE     NEAR LAB  LVL=1
      0000004BH   SYMBOL    DATA     WORD      index
      ---         BLOCKEND  ---      ---       LVL=1
      0100D664H   LINE      CODE     ---       #1434
      0100D675H   LINE      CODE     ---       #1435
      0100D675H   LINE      CODE     ---       #1439
      0100D67AH   LINE      CODE     ---       #1440
      0100D67FH   LINE      CODE     ---       #1442
      0100D687H   LINE      CODE     ---       #1444
      0100D691H   LINE      CODE     ---       #1446
      0100D6A5H   LINE      CODE     ---       #1447
      0100D6BDH   LINE      CODE     ---       #1448
      0100D6C7H   LINE      CODE     ---       #1450
      0100D6CCH   LINE      CODE     ---       #1452
      0100D6E6H   LINE      CODE     ---       #1454
      0100D6EBH   LINE      CODE     ---       #1455
      0100D6F0H   LINE      CODE     ---       #1456
      ---         BLOCKEND  ---      ---       LVL=0

      0100CE51H   BLOCK     CODE     ---       LVL=0
      0100CE51H   BLOCK     CODE     NEAR LAB  LVL=1
      0200000AH   SYMBOL    XDATA    ---       packet_data
      00000007H   SYMBOL    DATA     BYTE      packet_lenght
      02000014H   SYMBOL    XDATA    LONG      aux_val
      02000018H   SYMBOL    XDATA    DWORD     t_start
      0200001CH   SYMBOL    XDATA    DWORD     t_end
      ---         BLOCKEND  ---      ---       LVL=1
      0100CE51H   LINE      CODE     ---       #1462
LX51 LINKER/LOCATER V4.64.0.0                                                         04/04/2018  09:18:43  PAGE 59


      0100CE51H   LINE      CODE     ---       #1463
      0100CE51H   LINE      CODE     ---       #1466
      0100CE5CH   LINE      CODE     ---       #1469
      0100CE5EH   LINE      CODE     ---       #1470
      0100CE64H   LINE      CODE     ---       #1471
      0100CE66H   LINE      CODE     ---       #1472
      0100CE7BH   LINE      CODE     ---       #1474
      0100CE84H   LINE      CODE     ---       #1475
      0100CE8CH   LINE      CODE     ---       #1476
      0100CE8FH   LINE      CODE     ---       #1477
      0100CE91H   LINE      CODE     ---       #1478
      0100CE94H   LINE      CODE     ---       #1479
      0100CE94H   LINE      CODE     ---       #1481
      0100CE9DH   LINE      CODE     ---       #1482
      0100CED2H   LINE      CODE     ---       #1483
      0100CED7H   LINE      CODE     ---       #1484
      0100CED7H   LINE      CODE     ---       #1485
      0100CED7H   LINE      CODE     ---       #1486
      0100CED7H   LINE      CODE     ---       #1488
      0100CEDDH   LINE      CODE     ---       #1489
      0100CEF1H   LINE      CODE     ---       #1491
      0100CF0EH   LINE      CODE     ---       #1492
      0100CF0EH   LINE      CODE     ---       #1494
      0100CF1CH   LINE      CODE     ---       #1495
      ---         BLOCKEND  ---      ---       LVL=0

      0100D90BH   BLOCK     CODE     ---       LVL=0
      02000020H   SYMBOL    XDATA    ---       packet_data
      02000023H   SYMBOL    XDATA    WORD      packet_lenght
      02000025H   SYMBOL    XDATA    BYTE      id
      0100D91CH   BLOCK     CODE     NEAR LAB  LVL=1
      00000010H   SYMBOL    DATA     WORD      i
      ---         BLOCKEND  ---      ---       LVL=1
      0100D90BH   LINE      CODE     ---       #1501
      0100D91CH   LINE      CODE     ---       #1502
      0100D91CH   LINE      CODE     ---       #1506
      0100D921H   LINE      CODE     ---       #1507
      0100D926H   LINE      CODE     ---       #1509
      0100D92EH   LINE      CODE     ---       #1511
      0100D938H   LINE      CODE     ---       #1513
      0100D94CH   LINE      CODE     ---       #1514
      0100D964H   LINE      CODE     ---       #1515
      0100D96EH   LINE      CODE     ---       #1517
      0100D973H   LINE      CODE     ---       #1519
      0100D98DH   LINE      CODE     ---       #1520
      ---         BLOCKEND  ---      ---       LVL=0

      0100D402H   BLOCK     CODE     ---       LVL=0
      0100D402H   BLOCK     CODE     NEAR LAB  LVL=1
      02000002H   SYMBOL    XDATA    ---       packet_data
      02000008H   SYMBOL    XDATA    BYTE      packet_lenght
      ---         BLOCKEND  ---      ---       LVL=1
      0100D402H   LINE      CODE     ---       #1526
      0100D402H   LINE      CODE     ---       #1531
      0100D41AH   LINE      CODE     ---       #1534
      0100D41AH   LINE      CODE     ---       #1535
      0100D420H   LINE      CODE     ---       #1537
      0100D420H   LINE      CODE     ---       #1539
      0100D43BH   LINE      CODE     ---       #1540
      0100D441H   LINE      CODE     ---       #1542
      0100D441H   LINE      CODE     ---       #1546
      0100D447H   LINE      CODE     ---       #1547
      0100D466H   LINE      CODE     ---       #1548
      0100D46BH   LINE      CODE     ---       #1549
      0100D471H   LINE      CODE     ---       #1550
LX51 LINKER/LOCATER V4.64.0.0                                                         04/04/2018  09:18:43  PAGE 60


      0100D48CH   LINE      CODE     ---       #1551
      0100D4A1H   LINE      CODE     ---       #1553
      ---         BLOCKEND  ---      ---       LVL=0

      0100BD22H   BLOCK     CODE     ---       LVL=0
      0100BD22H   BLOCK     CODE     NEAR LAB  LVL=1
      00000023H   SYMBOL    DATA     ---       packet_data
      00000007H   SYMBOL    DATA     BYTE      packet_length
      00000006H   SYMBOL    DATA     INT       curr_diff
      02000002H   SYMBOL    XDATA    LONG      aux_val
      02000006H   SYMBOL    XDATA    LONG      aux_p1
      0200000AH   SYMBOL    XDATA    LONG      aux_p2
      0200000EH   SYMBOL    XDATA    DWORD     t_start
      02000012H   SYMBOL    XDATA    DWORD     t_end
      ---         BLOCKEND  ---      ---       LVL=1
      0100BD22H   LINE      CODE     ---       #1561
      0100BD22H   LINE      CODE     ---       #1569
      0100BD24H   LINE      CODE     ---       #1570
      0100BD27H   LINE      CODE     ---       #1571
      0100BD2AH   LINE      CODE     ---       #1572
      0100BD3FH   LINE      CODE     ---       #1574
      0100BD48H   LINE      CODE     ---       #1575
      0100BD50H   LINE      CODE     ---       #1576
      0100BD53H   LINE      CODE     ---       #1577
      0100BD55H   LINE      CODE     ---       #1578
      0100BD58H   LINE      CODE     ---       #1579
      0100BD58H   LINE      CODE     ---       #1580
      0100BD61H   LINE      CODE     ---       #1581
      0100BD96H   LINE      CODE     ---       #1582
      0100BD9BH   LINE      CODE     ---       #1583
      0100BD9BH   LINE      CODE     ---       #1584
      0100BD9BH   LINE      CODE     ---       #1586
      0100BD9BH   LINE      CODE     ---       #1588
      0100BDA3H   LINE      CODE     ---       #1591
      0100BDB6H   LINE      CODE     ---       #1592
      0100BDBBH   LINE      CODE     ---       #1594
      0100BDCEH   LINE      CODE     ---       #1595
      0100BDD3H   LINE      CODE     ---       #1597
      0100BDE2H   LINE      CODE     ---       #1599
      0100BE19H   LINE      CODE     ---       #1601
      0100BE39H   LINE      CODE     ---       #1602
      0100BE56H   LINE      CODE     ---       #1605
      0100BE59H   LINE      CODE     ---       #1606
      0100BE70H   LINE      CODE     ---       #1607
      0100BE85H   LINE      CODE     ---       #1608
      0100BE92H   LINE      CODE     ---       #1609
      0100BEA7H   LINE      CODE     ---       #1611
      ---         BLOCKEND  ---      ---       LVL=0

      0100DF07H   BLOCK     CODE     ---       LVL=0
      0100DF07H   BLOCK     CODE     NEAR LAB  LVL=1
      02000002H   SYMBOL    XDATA    LONG      aux_p1
      02000006H   SYMBOL    XDATA    LONG      aux_p2
      00000023H   SYMBOL    DATA     ---       packet_data
      ---         BLOCKEND  ---      ---       LVL=1
      0100DF07H   LINE      CODE     ---       #1618
      0100DF07H   LINE      CODE     ---       #1623
      0100DF10H   LINE      CODE     ---       #1624
      0100DF22H   LINE      CODE     ---       #1627
      0100DF25H   LINE      CODE     ---       #1628
      0100DF40H   LINE      CODE     ---       #1629
      0100DF5BH   LINE      CODE     ---       #1630
      0100DF68H   LINE      CODE     ---       #1631
      0100DF7DH   LINE      CODE     ---       #1633
      ---         BLOCKEND  ---      ---       LVL=0
LX51 LINKER/LOCATER V4.64.0.0                                                         04/04/2018  09:18:43  PAGE 61



      0100E3AEH   BLOCK     CODE     ---       LVL=0
      0100E3AEH   BLOCK     CODE     NEAR LAB  LVL=1
      02000002H   SYMBOL    XDATA    ---       packet_data
      0200000CH   SYMBOL    XDATA    BYTE      packet_lenght
      ---         BLOCKEND  ---      ---       LVL=1
      0100E3AEH   LINE      CODE     ---       #1639
      0100E3AEH   LINE      CODE     ---       #1644
      0100E3C6H   LINE      CODE     ---       #1647
      0100E3C6H   LINE      CODE     ---       #1648
      0100E3CCH   LINE      CODE     ---       #1650
      0100E3CCH   LINE      CODE     ---       #1653
      0100E3D2H   LINE      CODE     ---       #1655
      0100E3D7H   LINE      CODE     ---       #1656
      0100E3DDH   LINE      CODE     ---       #1657
      0100E3F8H   LINE      CODE     ---       #1659
      0100E405H   LINE      CODE     ---       #1661
      ---         BLOCKEND  ---      ---       LVL=0

      0100EAD6H   BLOCK     CODE     ---       LVL=0
      02000E09H   SYMBOL    XDATA    ---       data_array
      00000005H   SYMBOL    DATA     BYTE      data_length
      0100EAE1H   BLOCK     CODE     NEAR LAB  LVL=1
      0000004BH   SYMBOL    DATA     BYTE      i
      0000004CH   SYMBOL    DATA     BYTE      checksum
      ---         BLOCKEND  ---      ---       LVL=1
      0100EAD6H   LINE      CODE     ---       #1669
      0100EAE1H   LINE      CODE     ---       #1672
      0100EAE4H   LINE      CODE     ---       #1674
      0100EAECH   LINE      CODE     ---       #1675
      0100EB05H   LINE      CODE     ---       #1677
      0100EB07H   LINE      CODE     ---       #1678
      ---         BLOCKEND  ---      ---       LVL=0

      0100EF1EH   BLOCK     CODE     ---       LVL=0
      00000007H   SYMBOL    DATA     BYTE      value
      0100EF1EH   BLOCK     CODE     NEAR LAB  LVL=1
      00000004H   SYMBOL    DATA     INT       packet_lenght
      02000030H   SYMBOL    XDATA    ---       packet_data
      ---         BLOCKEND  ---      ---       LVL=1
      0100EF1EH   LINE      CODE     ---       #1685
      0100EF1EH   LINE      CODE     ---       #1686
      0100EF22H   LINE      CODE     ---       #1689
      0100EF27H   LINE      CODE     ---       #1690
      0100EF29H   LINE      CODE     ---       #1692
      0100EF32H   LINE      CODE     ---       #1693
      ---         BLOCKEND  ---      ---       LVL=0

      0100CF1DH   BLOCK     CODE     ---       LVL=0
      02000030H   SYMBOL    XDATA    INT       displacement
      0100CF25H   BLOCK     CODE     NEAR LAB  LVL=1
      02000032H   SYMBOL    XDATA    INT       i
      00000007H   SYMBOL    DATA     BYTE      writeStatus
      02000034H   SYMBOL    XDATA    INT       pages
      02000036H   SYMBOL    XDATA    BYTE      ret_val
      ---         BLOCKEND  ---      ---       LVL=1
      0100CF1DH   LINE      CODE     ---       #1700
      0100CF25H   LINE      CODE     ---       #1701
      0100CF25H   LINE      CODE     ---       #1705
      0100CF2BH   LINE      CODE     ---       #1708
      0100CF2EH   LINE      CODE     ---       #1711
      0100CF33H   LINE      CODE     ---       #1712
      0100CF38H   LINE      CODE     ---       #1715
      0100CF3BH   LINE      CODE     ---       #1717
      0100CF4EH   LINE      CODE     ---       #1719
LX51 LINKER/LOCATER V4.64.0.0                                                         04/04/2018  09:18:43  PAGE 62


      0100CF57H   LINE      CODE     ---       #1721
      0100CF7AH   LINE      CODE     ---       #1722
      0100CF9FH   LINE      CODE     ---       #1723
      0100CFA2H   LINE      CODE     ---       #1724
      0100CFA7H   LINE      CODE     ---       #1725
      0100CFA9H   LINE      CODE     ---       #1726
      0100CFA9H   LINE      CODE     ---       #1727
      0100CFB9H   LINE      CODE     ---       #1729
      0100CFCCH   LINE      CODE     ---       #1732
      0100CFCFH   LINE      CODE     ---       #1734
      0100CFD4H   LINE      CODE     ---       #1735
      ---         BLOCKEND  ---      ---       LVL=0

      0100E5A3H   BLOCK     CODE     ---       LVL=0
      0100E5A3H   BLOCK     CODE     NEAR LAB  LVL=1
      00000006H   SYMBOL    DATA     WORD      i
      ---         BLOCKEND  ---      ---       LVL=1
      0100E5A3H   LINE      CODE     ---       #1743
      0100E5A3H   LINE      CODE     ---       #1744
      0100E5A3H   LINE      CODE     ---       #1747
      0100E5AFH   LINE      CODE     ---       #1748
      0100E5CBH   LINE      CODE     ---       #1749
      0100E5D2H   LINE      CODE     ---       #1752
      0100E5D8H   LINE      CODE     ---       #1753
      0100E5DBH   LINE      CODE     ---       #1754
      0100E5DCH   LINE      CODE     ---       #1755
      0100E5EFH   LINE      CODE     ---       #1756
      0100E5EFH   LINE      CODE     ---       #1757
      ---         BLOCKEND  ---      ---       LVL=0

      0100E6CEH   BLOCK     CODE     ---       LVL=0
      0100E6CEH   BLOCK     CODE     NEAR LAB  LVL=1
      00000006H   SYMBOL    DATA     WORD      i
      ---         BLOCKEND  ---      ---       LVL=1
      0100E6CEH   LINE      CODE     ---       #1765
      0100E6CEH   LINE      CODE     ---       #1768
      0100E6DAH   LINE      CODE     ---       #1769
      0100E6FDH   LINE      CODE     ---       #1770
      0100E704H   LINE      CODE     ---       #1773
      0100E70AH   LINE      CODE     ---       #1774
      0100E70EH   LINE      CODE     ---       #1775
      0100E70EH   LINE      CODE     ---       #1776
      0100E714H   LINE      CODE     ---       #1777
      0100E714H   LINE      CODE     ---       #1778
      ---         BLOCKEND  ---      ---       LVL=0

      0100B065H   BLOCK     CODE     ---       LVL=0
      0100B065H   BLOCK     CODE     NEAR LAB  LVL=1
      00000003H   SYMBOL    DATA     BYTE      i
      ---         BLOCKEND  ---      ---       LVL=1
      0100B065H   LINE      CODE     ---       #1784
      0100B065H   LINE      CODE     ---       #1785
      0100B065H   LINE      CODE     ---       #1789
      0100B06BH   LINE      CODE     ---       #1791
      0100B076H   LINE      CODE     ---       #1792
      0100B081H   LINE      CODE     ---       #1793
      0100B08EH   LINE      CODE     ---       #1794
      0100B09AH   LINE      CODE     ---       #1795
      0100B0A6H   LINE      CODE     ---       #1796
      0100B0B1H   LINE      CODE     ---       #1798
      0100B0BEH   LINE      CODE     ---       #1799
      0100B0C9H   LINE      CODE     ---       #1800
      0100B0D4H   LINE      CODE     ---       #1801
      0100B0E1H   LINE      CODE     ---       #1802
      0100B0EDH   LINE      CODE     ---       #1803
LX51 LINKER/LOCATER V4.64.0.0                                                         04/04/2018  09:18:43  PAGE 63


      0100B0F8H   LINE      CODE     ---       #1805
      0100B0FDH   LINE      CODE     ---       #1806
      0100B0FFH   LINE      CODE     ---       #1807
      0100B101H   LINE      CODE     ---       #1809
      0100B106H   LINE      CODE     ---       #1811
      0100B10BH   LINE      CODE     ---       #1813
      0100B111H   LINE      CODE     ---       #1814
      0100B113H   LINE      CODE     ---       #1815
      0100B115H   LINE      CODE     ---       #1817
      0100B11DH   LINE      CODE     ---       #1818
      0100B133H   LINE      CODE     ---       #1819
      0100B154H   LINE      CODE     ---       #1820
      0100B157H   LINE      CODE     ---       #1822
      0100B15FH   LINE      CODE     ---       #1823
      0100B15FH   LINE      CODE     ---       #1824
      0100B177H   LINE      CODE     ---       #1825
      0100B19DH   LINE      CODE     ---       #1826
      0100B1A0H   LINE      CODE     ---       #1828
      0100B1ABH   LINE      CODE     ---       #1829
      0100B1B2H   LINE      CODE     ---       #1830
      0100B1B6H   LINE      CODE     ---       #1832
      0100B1C0H   LINE      CODE     ---       #1833
      0100B1CBH   LINE      CODE     ---       #1835
      0100B1D5H   LINE      CODE     ---       #1838
      0100B1DAH   LINE      CODE     ---       #1840
      0100B1E2H   LINE      CODE     ---       #1841
      0100B1EDH   LINE      CODE     ---       #1843
      0100B1F6H   LINE      CODE     ---       #1844
      0100B1FDH   LINE      CODE     ---       #1846
      0100B201H   LINE      CODE     ---       #1848
      0100B205H   LINE      CODE     ---       #1849
      0100B209H   LINE      CODE     ---       #1852
      0100B21FH   LINE      CODE     ---       #1853
      0100B22DH   LINE      CODE     ---       #1854
      0100B239H   LINE      CODE     ---       #1855
      0100B246H   LINE      CODE     ---       #1857
      0100B24BH   LINE      CODE     ---       #1858
      0100B24DH   LINE      CODE     ---       #1859
      0100B24FH   LINE      CODE     ---       #1861
      0100B25BH   LINE      CODE     ---       #1862
      0100B265H   LINE      CODE     ---       #1863
      0100B26CH   LINE      CODE     ---       #1864
      0100B277H   LINE      CODE     ---       #1865
      0100B294H   LINE      CODE     ---       #1867
      0100B29AH   LINE      CODE     ---       #1868
      0100B29EH   LINE      CODE     ---       #1869
      0100B2A1H   LINE      CODE     ---       #1872
      0100B2A7H   LINE      CODE     ---       #1875
      0100B2C0H   LINE      CODE     ---       #1876
      ---         BLOCKEND  ---      ---       LVL=0

      0100E150H   BLOCK     CODE     ---       LVL=0
      0100E150H   BLOCK     CODE     NEAR LAB  LVL=1
      0000002CH   SYMBOL    DATA     BYTE      index
      02000020H   SYMBOL    XDATA    ---       packet_data
      ---         BLOCKEND  ---      ---       LVL=1
      0100E150H   LINE      CODE     ---       #1885
      0100E150H   LINE      CODE     ---       #1894
      0100E156H   LINE      CODE     ---       #1896
      0100E160H   LINE      CODE     ---       #1897
      0100E19FH   LINE      CODE     ---       #1901
      0100E1AFH   LINE      CODE     ---       #1903
      0100E1BBH   LINE      CODE     ---       #1905
      ---         BLOCKEND  ---      ---       LVL=0

LX51 LINKER/LOCATER V4.64.0.0                                                         04/04/2018  09:18:43  PAGE 64


      0100B4EAH   BLOCK     CODE     ---       LVL=0
      0100B4EAH   LINE      CODE     ---       #1907
      0100B4EAH   LINE      CODE     ---       #1911
      0100B4F2H   LINE      CODE     ---       #1912
      0100B506H   LINE      CODE     ---       #1913
      0100B51AH   LINE      CODE     ---       #1914
      0100B51DH   LINE      CODE     ---       #1915
      0100B51DH   LINE      CODE     ---       #1916
      0100B521H   LINE      CODE     ---       #1917
      0100B535H   LINE      CODE     ---       #1918
      0100B549H   LINE      CODE     ---       #1919
      0100B54BH   LINE      CODE     ---       #1920
      0100B54BH   LINE      CODE     ---       #1921
      0100B55FH   LINE      CODE     ---       #1922
      0100B57CH   LINE      CODE     ---       #1924
      0100B590H   LINE      CODE     ---       #1925
      0100B5ADH   LINE      CODE     ---       #1926
      0100B5ADH   LINE      CODE     ---       #1927
      0100B5ADH   LINE      CODE     ---       #1931
      0100B5C5H   LINE      CODE     ---       #1933
      0100B5C5H   LINE      CODE     ---       #1935
      0100B5E7H   LINE      CODE     ---       #1936
      0100B5FBH   LINE      CODE     ---       #1937
      0100B61DH   LINE      CODE     ---       #1938
      0100B631H   LINE      CODE     ---       #1940
      0100B653H   LINE      CODE     ---       #1941
      0100B667H   LINE      CODE     ---       #1942
      0100B689H   LINE      CODE     ---       #1943
      0100B69DH   LINE      CODE     ---       #1944
      0100B69DH   LINE      CODE     ---       #1945
      ---         BLOCKEND  ---      ---       LVL=0

      0100E759H   BLOCK     CODE     ---       LVL=0
      0100E759H   LINE      CODE     ---       #1947
      0100E759H   LINE      CODE     ---       #1950
      0100E761H   LINE      CODE     ---       #1953
      0100E76BH   LINE      CODE     ---       #1954
      0100E77FH   LINE      CODE     ---       #1955
      0100E793H   LINE      CODE     ---       #1956
      0100E793H   LINE      CODE     ---       #1959
      0100E79BH   LINE      CODE     ---       #1960
      ---         BLOCKEND  ---      ---       LVL=0

      0100EC81H   BLOCK     CODE     ---       LVL=0
      0100EC81H   BLOCK     CODE     NEAR LAB  LVL=1
      02000020H   SYMBOL    XDATA    ---       packet_data
      ---         BLOCKEND  ---      ---       LVL=1
      0100EC81H   LINE      CODE     ---       #1962
      0100EC81H   LINE      CODE     ---       #1967
      0100EC87H   LINE      CODE     ---       #1970
      0100EC8FH   LINE      CODE     ---       #1973
      0100EC9FH   LINE      CODE     ---       #1976
      0100ECABH   LINE      CODE     ---       #1978
      ---         BLOCKEND  ---      ---       LVL=0

      0100D4A2H   BLOCK     CODE     ---       LVL=0
      0100D4A2H   BLOCK     CODE     NEAR LAB  LVL=1
      02000020H   SYMBOL    XDATA    ---       packet_data
      ---         BLOCKEND  ---      ---       LVL=1
      0100D4A2H   LINE      CODE     ---       #2006
      0100D4A2H   LINE      CODE     ---       #2014
      0100D4A8H   LINE      CODE     ---       #2016
      0100D4BBH   LINE      CODE     ---       #2017
      0100D520H   LINE      CODE     ---       #2021
      0100D530H   LINE      CODE     ---       #2023
LX51 LINKER/LOCATER V4.64.0.0                                                         04/04/2018  09:18:43  PAGE 65


      0100D53CH   LINE      CODE     ---       #2024
      ---         BLOCKEND  ---      ---       LVL=0

      0100EDA5H   BLOCK     CODE     ---       LVL=0
      0100EDA5H   LINE      CODE     ---       #2026
      0100EDA5H   LINE      CODE     ---       #2029
      0100EDADH   LINE      CODE     ---       #2031
      0100EDB1H   LINE      CODE     ---       #2032
      0100EDB1H   LINE      CODE     ---       #2033
      0100EDBAH   LINE      CODE     ---       #2034
      0100EDBBH   LINE      CODE     ---       #2035
      0100EDBBH   LINE      CODE     ---       #2036
      0100EDC4H   LINE      CODE     ---       #2037
      0100EDC4H   LINE      CODE     ---       #2038
      ---         BLOCKEND  ---      ---       LVL=0

      0100EF72H   BLOCK     CODE     ---       LVL=0
      0100EF72H   BLOCK     CODE     NEAR LAB  LVL=1
      02000020H   SYMBOL    XDATA    ---       packet_data
      ---         BLOCKEND  ---      ---       LVL=1
      0100EF72H   LINE      CODE     ---       #2040
      0100EF72H   LINE      CODE     ---       #2045
      0100EF77H   LINE      CODE     ---       #2048
      0100EF79H   LINE      CODE     ---       #2051
      0100EF85H   LINE      CODE     ---       #2052
      ---         BLOCKEND  ---      ---       LVL=0

      0100E79CH   BLOCK     CODE     ---       LVL=0
      0100E79CH   LINE      CODE     ---       #2054
      0100E79CH   LINE      CODE     ---       #2056
      0100E7A5H   LINE      CODE     ---       #2058
      0100E7AAH   LINE      CODE     ---       #2059
      0100E7AFH   LINE      CODE     ---       #2060
      0100E7B0H   LINE      CODE     ---       #2061
      0100E7B0H   LINE      CODE     ---       #2063
      0100E7B9H   LINE      CODE     ---       #2064
      0100E7BCH   LINE      CODE     ---       #2069
      0100E7D4H   LINE      CODE     ---       #2070
      0100E7D7H   LINE      CODE     ---       #2071
      0100E7DCH   LINE      CODE     ---       #2072
      0100E7DCH   LINE      CODE     ---       #2073
      ---         BLOCKEND  ---      ---       LVL=0

      0100E292H   BLOCK     CODE     ---       LVL=0
      0100E292H   BLOCK     CODE     NEAR LAB  LVL=1
      02000020H   SYMBOL    XDATA    ---       packet_data
      ---         BLOCKEND  ---      ---       LVL=1
      0100E292H   LINE      CODE     ---       #2075
      0100E292H   LINE      CODE     ---       #2083
      0100E298H   LINE      CODE     ---       #2085
      0100E2B7H   LINE      CODE     ---       #2086
      0100E2D6H   LINE      CODE     ---       #2090
      0100E2E6H   LINE      CODE     ---       #2092
      0100E2F2H   LINE      CODE     ---       #2093
      ---         BLOCKEND  ---      ---       LVL=0

      0100AD5DH   BLOCK     CODE     ---       LVL=0
      0100AD5DH   BLOCK     CODE     NEAR LAB  LVL=1
      02000020H   SYMBOL    XDATA    DWORD     off_1
      02000024H   SYMBOL    XDATA    DWORD     off_2
      02000028H   SYMBOL    XDATA    FLOAT     mult_1
      0200002CH   SYMBOL    XDATA    FLOAT     mult_2
      0000002CH   SYMBOL    DATA     BYTE      packet_lenght
      0000002DH   SYMBOL    DATA     ---       packet_data
      0000002FH   SYMBOL    DATA     BYTE      old_id
LX51 LINKER/LOCATER V4.64.0.0                                                         04/04/2018  09:18:43  PAGE 66


      ---         BLOCKEND  ---      ---       LVL=1
      0100AD5DH   LINE      CODE     ---       #2095
      0100AD5DH   LINE      CODE     ---       #2100
      0100AD60H   LINE      CODE     ---       #2104
      0100AD69H   LINE      CODE     ---       #2105
      0100AD7DH   LINE      CODE     ---       #2106
      0100AD91H   LINE      CODE     ---       #2107
      0100ADA5H   LINE      CODE     ---       #2108
      0100ADB9H   LINE      CODE     ---       #2110
      0100ADE5H   LINE      CODE     ---       #2111
      0100AE11H   LINE      CODE     ---       #2113
      0100AE3DH   LINE      CODE     ---       #2114
      0100AE69H   LINE      CODE     ---       #2116
      0100AEC7H   LINE      CODE     ---       #2117
      0100AF25H   LINE      CODE     ---       #2121
      0100AF2EH   LINE      CODE     ---       #2122
      0100AF4EH   LINE      CODE     ---       #2123
      0100AF62H   LINE      CODE     ---       #2124
      0100AF84H   LINE      CODE     ---       #2125
      0100AF98H   LINE      CODE     ---       #2127
      0100AFBAH   LINE      CODE     ---       #2128
      0100AFCEH   LINE      CODE     ---       #2129
      0100AFF0H   LINE      CODE     ---       #2130
      0100B004H   LINE      CODE     ---       #2131
      0100B004H   LINE      CODE     ---       #2132
      0100B004H   LINE      CODE     ---       #2135
      0100B011H   LINE      CODE     ---       #2136
      0100B013H   LINE      CODE     ---       #2137
      0100B01CH   LINE      CODE     ---       #2138
      0100B01FH   LINE      CODE     ---       #2139
      0100B022H   LINE      CODE     ---       #2140
      0100B036H   LINE      CODE     ---       #2141
      0100B037H   LINE      CODE     ---       #2142
      0100B037H   LINE      CODE     ---       #2143
      0100B03AH   LINE      CODE     ---       #2144
      0100B03CH   LINE      CODE     ---       #2145
      0100B04FH   LINE      CODE     ---       #2146
      0100B04FH   LINE      CODE     ---       #2147
      0100B050H   LINE      CODE     ---       #2148
      0100B050H   LINE      CODE     ---       #2149
      0100B059H   LINE      CODE     ---       #2150
      0100B05FH   LINE      CODE     ---       #2152
      0100B064H   LINE      CODE     ---       #2153
      0100B064H   LINE      CODE     ---       #2154
      ---         BLOCKEND  ---      ---       LVL=0

      0100E685H   BLOCK     CODE     ---       LVL=0
      0100E685H   BLOCK     CODE     NEAR LAB  LVL=1
      02000020H   SYMBOL    XDATA    ---       packet_data
      ---         BLOCKEND  ---      ---       LVL=1
      0100E685H   LINE      CODE     ---       #2156
      0100E685H   LINE      CODE     ---       #2161
      0100E68BH   LINE      CODE     ---       #2163
      0100E69EH   LINE      CODE     ---       #2164
      0100E6B1H   LINE      CODE     ---       #2166
      0100E6C1H   LINE      CODE     ---       #2168
      0100E6CDH   LINE      CODE     ---       #2170
      ---         BLOCKEND  ---      ---       LVL=0

      ---         MODULE    ---      ---       GLOBALS
      020010FAH   PUBLIC    XDATA    ---       calib
      020010F9H   PUBLIC    XDATA    BYTE      dev_pwm_limit
      00000021H.5 PUBLIC    BIT      BIT       tension_valid
      00000021H.4 PUBLIC    BIT      BIT       interrupt_flag
      020010F8H   PUBLIC    XDATA    BYTE      rest_enabled
LX51 LINKER/LOCATER V4.64.0.0                                                         04/04/2018  09:18:43  PAGE 67


      020010C1H   PUBLIC    XDATA    ---       g_meas
      020010BDH   PUBLIC    XDATA    LONG      dev_tension_f
      020010BCH   PUBLIC    XDATA    CHAR      pwm_sign
      020010B4H   PUBLIC    XDATA    ---       ADC_buf
      020010B0H   PUBLIC    XDATA    FLOAT     tau_feedback
      020010ACH   PUBLIC    XDATA    DWORD     timer_value0
      00000021H.3 PUBLIC    BIT      BIT       watchdog_flag
      020010A8H   PUBLIC    XDATA    LONG      pow_tension
      00000021H.2 PUBLIC    BIT      BIT       reset_last_value_flag
      020010A4H   PUBLIC    XDATA    LONG      rest_pos_curr_ref
      0200108BH   PUBLIC    XDATA    ---       g_refNew
      02001006H   PUBLIC    XDATA    ---       g_rx
      02000FEDH   PUBLIC    XDATA    ---       g_refOld
      02000FE9H   PUBLIC    XDATA    LONG      dev_tension
      02000FE5H   PUBLIC    XDATA    DWORD     timer_value
      02000FE1H   PUBLIC    XDATA    LONG      curr_pos_res
      02000FE0H   PUBLIC    XDATA    BYTE      master_mode
      02000FA9H   PUBLIC    XDATA    ---       g_measOld
      02000FA8H   PUBLIC    XDATA    BYTE      forced_open
      02000EECH   PUBLIC    XDATA    ---       g_mem
      02000ED3H   PUBLIC    XDATA    ---       g_ref
      02000ECFH   PUBLIC    XDATA    DWORD     count_tension_valid
      02000ECEH   PUBLIC    XDATA    BYTE      first_tension_valid
      02000E12H   PUBLIC    XDATA    ---       c_mem
      000000CAH   SFRSYM    DATA     BYTE      SFRPRT5SEL
      000000DAH   SFRSYM    DATA     BYTE      SFRPRT6SEL
      000000D0H.6 SFRSYM    DATA     BIT       AC
      000000A8H.7 SFRSYM    DATA     BIT       EA
      000000A8H   SFRSYM    DATA     BYTE      IE
      00000085H   SFRSYM    DATA     BYTE      DPH1
      00000084H   SFRSYM    DATA     BYTE      DPL1
      000000D0H.7 SFRSYM    DATA     BIT       CY
      000000A0H   SFRSYM    DATA     BYTE      P2AX
      00000095H   SFRSYM    DATA     BYTE      DPX1
      00000081H   SFRSYM    DATA     BYTE      SP
      000000D0H.2 SFRSYM    DATA     BIT       OV
      00000080H   SFRSYM    DATA     BYTE      SFRPRT0DR
      00000090H   SFRSYM    DATA     BYTE      SFRPRT1DR
      000000F2H   SFRSYM    DATA     BYTE      SFRPRT12SEL
      00000098H   SFRSYM    DATA     BYTE      SFRPRT2DR
      000000B0H   SFRSYM    DATA     BYTE      SFRPRT3DR
      000000C0H   SFRSYM    DATA     BYTE      SFRPRT4DR
      000000FAH   SFRSYM    DATA     BYTE      SFRPRT15SEL
      000000C8H   SFRSYM    DATA     BYTE      SFRPRT5DR
      000000D8H   SFRSYM    DATA     BYTE      SFRPRT6DR
      00000089H   SFRSYM    DATA     BYTE      SFRPRT0PS
      00000091H   SFRSYM    DATA     BYTE      SFRPRT1PS
      00000099H   SFRSYM    DATA     BYTE      SFRPRT2PS
      000000B1H   SFRSYM    DATA     BYTE      SFRPRT3PS
      000000C1H   SFRSYM    DATA     BYTE      SFRPRT4PS
      000000C9H   SFRSYM    DATA     BYTE      SFRPRT5PS
      000000D9H   SFRSYM    DATA     BYTE      SFRPRT6PS
      000000EAH   SFRSYM    DATA     BYTE      MXAX
      000000F0H   SFRSYM    DATA     BYTE      B
      000000E0H   SFRSYM    DATA     BYTE      ACC
      000000D0H   SFRSYM    DATA     BIT       P
      000000D0H.3 SFRSYM    DATA     BIT       RS0
      000000D0H.4 SFRSYM    DATA     BIT       RS1
      00000083H   SFRSYM    DATA     BYTE      DPH
      000000E8H   SFRSYM    DATA     BYTE      SFRPRT12DR
      00000082H   SFRSYM    DATA     BYTE      DPL
      000000F8H   SFRSYM    DATA     BYTE      SFRPRT15DR
      00000086H   SFRSYM    DATA     BYTE      DPS
      000000E9H   SFRSYM    DATA     BYTE      SFRPRT12PS
      00000093H   SFRSYM    DATA     BYTE      DPX
LX51 LINKER/LOCATER V4.64.0.0                                                         04/04/2018  09:18:43  PAGE 68


      000000F9H   SFRSYM    DATA     BYTE      SFRPRT15PS
      000000D0H.5 SFRSYM    DATA     BIT       F0
      000000D0H.1 SFRSYM    DATA     BIT       F1
      0000008AH   SFRSYM    DATA     BYTE      SFRPRT0SEL
      000000D0H   SFRSYM    DATA     BYTE      PSW
      000000A2H   SFRSYM    DATA     BYTE      SFRPRT1SEL
      0000009AH   SFRSYM    DATA     BYTE      SFRPRT2SEL
      000000B2H   SFRSYM    DATA     BYTE      SFRPRT3SEL
      000000C2H   SFRSYM    DATA     BYTE      SFRPRT4SEL

      ---         MODULE    ---      ---       INTERRUPTIONS
      0100DF7EH   PUBLIC    CODE     ---       pwm_limit_search
      0100E069H   PUBLIC    CODE     ---       overcurrent_control
      01009D17H   PUBLIC    CODE     ---       analog_read_end
      010094A5H   PUBLIC    CODE     ---       _encoder_reading
      010078F0H   PUBLIC    CODE     ---       motor_control
      0100C00EH   PUBLIC    CODE     ---       function_scheduler
      0100C4EBH   PUBLIC    CODE     ---       interrupt_manager
      0100F38CH   PUBLIC    CODE     ---       ISR_RS485_RX_ExInterrupt
      0100F389H   PUBLIC    CODE     ---       ISR_WATCHDOG_Handler
      000000CAH   SFRSYM    DATA     BYTE      SFRPRT5SEL
      000000DAH   SFRSYM    DATA     BYTE      SFRPRT6SEL
      000000D0H.6 SFRSYM    DATA     BIT       AC
      000000A8H.7 SFRSYM    DATA     BIT       EA
      000000A8H   SFRSYM    DATA     BYTE      IE
      00000085H   SFRSYM    DATA     BYTE      DPH1
      00000084H   SFRSYM    DATA     BYTE      DPL1
      000000D0H.7 SFRSYM    DATA     BIT       CY
      000000A0H   SFRSYM    DATA     BYTE      P2AX
      00000095H   SFRSYM    DATA     BYTE      DPX1
      00000081H   SFRSYM    DATA     BYTE      SP
      000000D0H.2 SFRSYM    DATA     BIT       OV
      00000080H   SFRSYM    DATA     BYTE      SFRPRT0DR
      00000090H   SFRSYM    DATA     BYTE      SFRPRT1DR
      000000F2H   SFRSYM    DATA     BYTE      SFRPRT12SEL
      00000098H   SFRSYM    DATA     BYTE      SFRPRT2DR
      000000B0H   SFRSYM    DATA     BYTE      SFRPRT3DR
      000000C0H   SFRSYM    DATA     BYTE      SFRPRT4DR
      000000FAH   SFRSYM    DATA     BYTE      SFRPRT15SEL
      000000C8H   SFRSYM    DATA     BYTE      SFRPRT5DR
      000000D8H   SFRSYM    DATA     BYTE      SFRPRT6DR
      00000089H   SFRSYM    DATA     BYTE      SFRPRT0PS
      00000091H   SFRSYM    DATA     BYTE      SFRPRT1PS
      00000099H   SFRSYM    DATA     BYTE      SFRPRT2PS
      000000B1H   SFRSYM    DATA     BYTE      SFRPRT3PS
      000000C1H   SFRSYM    DATA     BYTE      SFRPRT4PS
      000000C9H   SFRSYM    DATA     BYTE      SFRPRT5PS
      000000D9H   SFRSYM    DATA     BYTE      SFRPRT6PS
      000000EAH   SFRSYM    DATA     BYTE      MXAX
      000000F0H   SFRSYM    DATA     BYTE      B
      000000E0H   SFRSYM    DATA     BYTE      ACC
      000000D0H   SFRSYM    DATA     BIT       P
      000000D0H.3 SFRSYM    DATA     BIT       RS0
      000000D0H.4 SFRSYM    DATA     BIT       RS1
      00000083H   SFRSYM    DATA     BYTE      DPH
      000000E8H   SFRSYM    DATA     BYTE      SFRPRT12DR
      00000082H   SFRSYM    DATA     BYTE      DPL
      000000F8H   SFRSYM    DATA     BYTE      SFRPRT15DR
      00000086H   SFRSYM    DATA     BYTE      DPS
      000000E9H   SFRSYM    DATA     BYTE      SFRPRT12PS
      00000093H   SFRSYM    DATA     BYTE      DPX
      000000F9H   SFRSYM    DATA     BYTE      SFRPRT15PS
      000000D0H.5 SFRSYM    DATA     BIT       F0
      000000D0H.1 SFRSYM    DATA     BIT       F1
      0000008AH   SFRSYM    DATA     BYTE      SFRPRT0SEL
LX51 LINKER/LOCATER V4.64.0.0                                                         04/04/2018  09:18:43  PAGE 69


      000000D0H   SFRSYM    DATA     BYTE      PSW
      000000A2H   SFRSYM    DATA     BYTE      SFRPRT1SEL
      0000009AH   SFRSYM    DATA     BYTE      SFRPRT2SEL
      000000B2H   SFRSYM    DATA     BYTE      SFRPRT3SEL
      000000C2H   SFRSYM    DATA     BYTE      SFRPRT4SEL
      020011EFH   SYMBOL    XDATA    ---       pwm_preload_values

      0100F389H   BLOCK     CODE     ---       LVL=0
      0100F389H   LINE      CODE     ---       #102
      0100F389H   LINE      CODE     ---       #106
      0100F38BH   LINE      CODE     ---       #108
      ---         BLOCKEND  ---      ---       LVL=0

      0100F38CH   BLOCK     CODE     ---       LVL=0
      0100F38CH   LINE      CODE     ---       #114
      0100F38CH   LINE      CODE     ---       #118
      0100F38EH   LINE      CODE     ---       #120
      ---         BLOCKEND  ---      ---       LVL=0

      0100C4EBH   BLOCK     CODE     ---       LVL=0
      0100C4EBH   BLOCK     CODE     NEAR LAB  LVL=1
      00000008H   SYMBOL    DATA     BYTE      state
      00000009H   SYMBOL    DATA     BYTE      data_packet_index
      0000000AH   SYMBOL    DATA     BYTE      data_packet_length
      02001100H   SYMBOL    XDATA    ---       data_packet_buffer
      0000000BH   SYMBOL    DATA     ---       rx_queue
      00000029H   SYMBOL    DATA     BYTE      rx_data
      00000020H.0 SYMBOL    BIT      BIT       rx_data_type
      0000002AH   SYMBOL    DATA     BYTE      package_count
      ---         BLOCKEND  ---      ---       LVL=1
      0100C4EBH   LINE      CODE     ---       #137
      0100C4EBH   LINE      CODE     ---       #153
      0100C4EEH   LINE      CODE     ---       #159
      0100C501H   LINE      CODE     ---       #163
      0100C506H   LINE      CODE     ---       #165
      0100C51EH   LINE      CODE     ---       #167
      0100C51EH   LINE      CODE     ---       #169
      0100C521H   LINE      CODE     ---       #170
      0100C524H   LINE      CODE     ---       #171
      0100C527H   LINE      CODE     ---       #174
      0100C531H   LINE      CODE     ---       #175
      0100C534H   LINE      CODE     ---       #176
      0100C536H   LINE      CODE     ---       #177
      0100C538H   LINE      CODE     ---       #178
      0100C53BH   LINE      CODE     ---       #179
      0100C53DH   LINE      CODE     ---       #180
      0100C54DH   LINE      CODE     ---       #183
      0100C552H   LINE      CODE     ---       #184
      0100C554H   LINE      CODE     ---       #187
      0100C554H   LINE      CODE     ---       #190
      0100C567H   LINE      CODE     ---       #191
      0100C56BH   LINE      CODE     ---       #193
      0100C56DH   LINE      CODE     ---       #195
      0100C570H   LINE      CODE     ---       #196
      0100C573H   LINE      CODE     ---       #197
      0100C576H   LINE      CODE     ---       #200
      0100C576H   LINE      CODE     ---       #203
      0100C579H   LINE      CODE     ---       #205
      0100C580H   LINE      CODE     ---       #206
      0100C583H   LINE      CODE     ---       #207
      0100C585H   LINE      CODE     ---       #208
      0100C58FH   LINE      CODE     ---       #209
      0100C592H   LINE      CODE     ---       #210
      0100C594H   LINE      CODE     ---       #211
      0100C597H   LINE      CODE     ---       #212
LX51 LINKER/LOCATER V4.64.0.0                                                         04/04/2018  09:18:43  PAGE 70


      0100C59AH   LINE      CODE     ---       #214
      0100C59DH   LINE      CODE     ---       #215
      0100C5A3H   LINE      CODE     ---       #217
      0100C5A6H   LINE      CODE     ---       #218
      0100C5A6H   LINE      CODE     ---       #219
      0100C5A9H   LINE      CODE     ---       #222
      0100C5A9H   LINE      CODE     ---       #224
      0100C5B7H   LINE      CODE     ---       #225
      0100C5B9H   LINE      CODE     ---       #228
      0100C5C3H   LINE      CODE     ---       #230
      0100C5C6H   LINE      CODE     ---       #232
      0100C5D9H   LINE      CODE     ---       #233
      0100C5E2H   LINE      CODE     ---       #234
      0100C5E8H   LINE      CODE     ---       #236
      0100C5EBH   LINE      CODE     ---       #237
      0100C5EBH   LINE      CODE     ---       #239
      0100C5EEH   LINE      CODE     ---       #240
      0100C5F0H   LINE      CODE     ---       #241
      0100C5F2H   LINE      CODE     ---       #242
      0100C5F4H   LINE      CODE     ---       #244
      0100C5F4H   LINE      CODE     ---       #245
      0100C5F7H   LINE      CODE     ---       #248
      0100C5F7H   LINE      CODE     ---       #249
      0100C600H   LINE      CODE     ---       #250
      0100C602H   LINE      CODE     ---       #251
      0100C604H   LINE      CODE     ---       #252
      0100C609H   LINE      CODE     ---       #253
      0100C60EH   LINE      CODE     ---       #254
      0100C611H   LINE      CODE     ---       #255
      0100C613H   LINE      CODE     ---       #256
      0100C613H   LINE      CODE     ---       #257
      0100C616H   LINE      CODE     ---       #258
      0100C616H   LINE      CODE     ---       #259
      0100C619H   LINE      CODE     ---       #260
      ---         BLOCKEND  ---      ---       LVL=0

      0100C00EH   BLOCK     CODE     ---       LVL=0
      0100C00EH   BLOCK     CODE     NEAR LAB  LVL=1
      02001180H   SYMBOL    XDATA    WORD      counter_calibration
      ---         BLOCKEND  ---      ---       LVL=1
      0100C00EH   LINE      CODE     ---       #269
      0100C00EH   LINE      CODE     ---       #273
      0100C017H   LINE      CODE     ---       #277
      0100C01CH   LINE      CODE     ---       #281
      0100C01FH   LINE      CODE     ---       #282
      0100C021H   LINE      CODE     ---       #283
      0100C024H   LINE      CODE     ---       #284
      0100C024H   LINE      CODE     ---       #288
      0100C029H   LINE      CODE     ---       #292
      0100C02CH   LINE      CODE     ---       #293
      0100C02EH   LINE      CODE     ---       #294
      0100C031H   LINE      CODE     ---       #295
      0100C031H   LINE      CODE     ---       #297
      0100C036H   LINE      CODE     ---       #301
      0100C039H   LINE      CODE     ---       #302
      0100C03BH   LINE      CODE     ---       #303
      0100C03EH   LINE      CODE     ---       #304
      0100C03EH   LINE      CODE     ---       #306
      0100C043H   LINE      CODE     ---       #310
      0100C046H   LINE      CODE     ---       #311
      0100C048H   LINE      CODE     ---       #312
      0100C04BH   LINE      CODE     ---       #313
      0100C04BH   LINE      CODE     ---       #317
      0100C04EH   LINE      CODE     ---       #321
      0100C051H   LINE      CODE     ---       #322
LX51 LINKER/LOCATER V4.64.0.0                                                         04/04/2018  09:18:43  PAGE 71


      0100C053H   LINE      CODE     ---       #323
      0100C056H   LINE      CODE     ---       #324
      0100C056H   LINE      CODE     ---       #328
      0100C059H   LINE      CODE     ---       #330
      0100C05CH   LINE      CODE     ---       #331
      0100C05EH   LINE      CODE     ---       #332
      0100C061H   LINE      CODE     ---       #333
      0100C061H   LINE      CODE     ---       #337
      0100C064H   LINE      CODE     ---       #341
      0100C067H   LINE      CODE     ---       #342
      0100C069H   LINE      CODE     ---       #343
      0100C06CH   LINE      CODE     ---       #344
      0100C06CH   LINE      CODE     ---       #348
      0100C072H   LINE      CODE     ---       #350
      0100C078H   LINE      CODE     ---       #351
      0100C07BH   LINE      CODE     ---       #352
      0100C07BH   LINE      CODE     ---       #354
      0100C081H   LINE      CODE     ---       #355
      0100C084H   LINE      CODE     ---       #356
      0100C084H   LINE      CODE     ---       #358
      0100C08AH   LINE      CODE     ---       #361
      0100C091H   LINE      CODE     ---       #362
      0100C09DH   LINE      CODE     ---       #365
      0100C0A6H   LINE      CODE     ---       #367
      0100C0A9H   LINE      CODE     ---       #368
      0100C0B0H   LINE      CODE     ---       #369
      0100C0B0H   LINE      CODE     ---       #370
      0100C0BEH   LINE      CODE     ---       #373
      0100C0C1H   LINE      CODE     ---       #374
      0100C0C3H   LINE      CODE     ---       #375
      0100C0C6H   LINE      CODE     ---       #376
      0100C0C6H   LINE      CODE     ---       #377
      0100C0C6H   LINE      CODE     ---       #379
      0100C0C9H   LINE      CODE     ---       #380
      0100C0C9H   LINE      CODE     ---       #381
      0100C0C9H   LINE      CODE     ---       #385
      0100C0CCH   LINE      CODE     ---       #386
      0100C0CEH   LINE      CODE     ---       #387
      0100C0D1H   LINE      CODE     ---       #388
      0100C0D1H   LINE      CODE     ---       #393
      0100C0D8H   LINE      CODE     ---       #394
      0100C0E4H   LINE      CODE     ---       #395
      0100C0E7H   LINE      CODE     ---       #396
      0100C0EEH   LINE      CODE     ---       #397
      0100C0EEH   LINE      CODE     ---       #398
      0100C0FCH   LINE      CODE     ---       #399
      0100C0FCH   LINE      CODE     ---       #403
      0100C0FFH   LINE      CODE     ---       #404
      0100C101H   LINE      CODE     ---       #405
      0100C104H   LINE      CODE     ---       #406
      0100C104H   LINE      CODE     ---       #412
      0100C117H   LINE      CODE     ---       #413
      0100C12AH   LINE      CODE     ---       #416
      0100C13DH   LINE      CODE     ---       #418
      0100C140H   LINE      CODE     ---       #419
      0100C142H   LINE      CODE     ---       #420
      0100C145H   LINE      CODE     ---       #421
      0100C145H   LINE      CODE     ---       #423
      0100C14EH   LINE      CODE     ---       #424
      0100C159H   LINE      CODE     ---       #426
      ---         BLOCKEND  ---      ---       LVL=0

      010078F0H   BLOCK     CODE     ---       LVL=0
      010078F0H   BLOCK     CODE     NEAR LAB  LVL=1
      00000023H   SYMBOL    DATA     LONG      pwm_input
LX51 LINKER/LOCATER V4.64.0.0                                                         04/04/2018  09:18:43  PAGE 72


      00000027H   SYMBOL    DATA     LONG      pos_error
      0000002BH   SYMBOL    DATA     LONG      curr_error
      0000002FH   SYMBOL    DATA     LONG      i_ref
      00000033H   SYMBOL    DATA     LONG      handle_value
      00000037H   SYMBOL    DATA     LONG      err_emg_1
      0000003BH   SYMBOL    DATA     LONG      err_emg_2
      0000003FH   SYMBOL    DATA     LONG      k_p
      00000043H   SYMBOL    DATA     LONG      k_i
      00000047H   SYMBOL    DATA     LONG      k_d
      0000004BH   SYMBOL    DATA     LONG      k_p_c
      0000004FH   SYMBOL    DATA     LONG      k_i_c
      00000053H   SYMBOL    DATA     LONG      k_d_c
      00000057H   SYMBOL    DATA     LONG      k_p_dl
      0000005BH   SYMBOL    DATA     LONG      k_i_dl
      0000005FH   SYMBOL    DATA     LONG      k_d_dl
      00000063H   SYMBOL    DATA     LONG      k_p_c_dl
      00000067H   SYMBOL    DATA     LONG      k_i_c_dl
      0000006BH   SYMBOL    DATA     LONG      k_d_c_dl
      02001182H   SYMBOL    XDATA    LONG      pos_error_sum
      02001186H   SYMBOL    XDATA    LONG      curr_error_sum
      0200118AH   SYMBOL    XDATA    LONG      prev_pos_err
      0200118EH   SYMBOL    XDATA    LONG      prev_curr_err
      00000021H.6 SYMBOL    BIT      BIT       motor_dir
      02001192H   SYMBOL    XDATA    BYTE      current_emg
      ---         BLOCKEND  ---      ---       LVL=1
      010078F0H   LINE      CODE     ---       #432
      010078F0H   LINE      CODE     ---       #434
      010078F9H   LINE      CODE     ---       #444
      0100790EH   LINE      CODE     ---       #445
      01007921H   LINE      CODE     ---       #446
      01007934H   LINE      CODE     ---       #448
      01007947H   LINE      CODE     ---       #449
      0100795AH   LINE      CODE     ---       #450
      0100796DH   LINE      CODE     ---       #452
      01007980H   LINE      CODE     ---       #453
      01007993H   LINE      CODE     ---       #454
      010079A6H   LINE      CODE     ---       #456
      010079B9H   LINE      CODE     ---       #457
      010079CCH   LINE      CODE     ---       #458
      010079DFH   LINE      CODE     ---       #475
      01007A0AH   LINE      CODE     ---       #476
      01007A35H   LINE      CODE     ---       #479
      01007A59H   LINE      CODE     ---       #481
      01007A59H   LINE      CODE     ---       #485
      01007A5FH   LINE      CODE     ---       #486
      01007A83H   LINE      CODE     ---       #488
      01007AA7H   LINE      CODE     ---       #492
      01007AF0H   LINE      CODE     ---       #493
      01007B1EH   LINE      CODE     ---       #494
      01007B1EH   LINE      CODE     ---       #495
      01007B66H   LINE      CODE     ---       #496
      01007B94H   LINE      CODE     ---       #498
      01007BA2H   LINE      CODE     ---       #499
      01007BA2H   LINE      CODE     ---       #500
      01007BA5H   LINE      CODE     ---       #502
      01007BA5H   LINE      CODE     ---       #503
      01007BB8H   LINE      CODE     ---       #504
      01007BF5H   LINE      CODE     ---       #506
      01007C00H   LINE      CODE     ---       #507
      01007C03H   LINE      CODE     ---       #509
      01007C03H   LINE      CODE     ---       #510
      01007C17H   LINE      CODE     ---       #511
      01007C2AH   LINE      CODE     ---       #512
      01007C80H   LINE      CODE     ---       #513
      01007C80H   LINE      CODE     ---       #514
LX51 LINKER/LOCATER V4.64.0.0                                                         04/04/2018  09:18:43  PAGE 73


      01007C96H   LINE      CODE     ---       #515
      01007CF5H   LINE      CODE     ---       #516
      01007CF5H   LINE      CODE     ---       #517
      01007CF8H   LINE      CODE     ---       #519
      01007CF8H   LINE      CODE     ---       #520
      01007D0CH   LINE      CODE     ---       #521
      01007D20H   LINE      CODE     ---       #522
      01007D20H   LINE      CODE     ---       #524
      01007D33H   LINE      CODE     ---       #525
      01007D39H   LINE      CODE     ---       #526
      01007D3CH   LINE      CODE     ---       #527
      01007D3CH   LINE      CODE     ---       #528
      01007D52H   LINE      CODE     ---       #529
      01007D58H   LINE      CODE     ---       #530
      01007D5BH   LINE      CODE     ---       #531
      01007D5BH   LINE      CODE     ---       #532
      01007D5BH   LINE      CODE     ---       #534
      01007D5BH   LINE      CODE     ---       #536
      01007D6EH   LINE      CODE     ---       #537
      01007D73H   LINE      CODE     ---       #538
      01007D76H   LINE      CODE     ---       #539
      01007D76H   LINE      CODE     ---       #540
      01007DD2H   LINE      CODE     ---       #541
      01007DD5H   LINE      CODE     ---       #543
      01007DD5H   LINE      CODE     ---       #545
      01007DE8H   LINE      CODE     ---       #546
      01007DEDH   LINE      CODE     ---       #547
      01007DF0H   LINE      CODE     ---       #548
      01007DF0H   LINE      CODE     ---       #549
      01007E55H   LINE      CODE     ---       #550
      01007E58H   LINE      CODE     ---       #552
      01007E58H   LINE      CODE     ---       #553
      01007E58H   LINE      CODE     ---       #554
      01007E58H   LINE      CODE     ---       #556
      01007E5BH   LINE      CODE     ---       #558
      01007E5BH   LINE      CODE     ---       #559
      01007E6FH   LINE      CODE     ---       #560
      01007E83H   LINE      CODE     ---       #562
      01007E83H   LINE      CODE     ---       #563
      01007E96H   LINE      CODE     ---       #564
      01007E9CH   LINE      CODE     ---       #565
      01007E9FH   LINE      CODE     ---       #566
      01007E9FH   LINE      CODE     ---       #567
      01007EB5H   LINE      CODE     ---       #568
      01007EBBH   LINE      CODE     ---       #569
      01007EBEH   LINE      CODE     ---       #570
      01007EBEH   LINE      CODE     ---       #571
      01007EBEH   LINE      CODE     ---       #574
      01007EBEH   LINE      CODE     ---       #576
      01007EE4H   LINE      CODE     ---       #577
      01007EE9H   LINE      CODE     ---       #578
      01007EECH   LINE      CODE     ---       #579
      01007EECH   LINE      CODE     ---       #581
      01007F02H   LINE      CODE     ---       #582
      01007F54H   LINE      CODE     ---       #584
      01007F57H   LINE      CODE     ---       #587
      01007F57H   LINE      CODE     ---       #589
      01007F7DH   LINE      CODE     ---       #590
      01007F82H   LINE      CODE     ---       #591
      01007F84H   LINE      CODE     ---       #592
      01007F84H   LINE      CODE     ---       #594
      01007F97H   LINE      CODE     ---       #595
      01007FF2H   LINE      CODE     ---       #596
      01007FF2H   LINE      CODE     ---       #597
      01007FF2H   LINE      CODE     ---       #599
LX51 LINKER/LOCATER V4.64.0.0                                                         04/04/2018  09:18:43  PAGE 74


      01007FF2H   LINE      CODE     ---       #600
      01007FF2H   LINE      CODE     ---       #601
      01007FF2H   LINE      CODE     ---       #603
      01007FF2H   LINE      CODE     ---       #604
      01007FF2H   LINE      CODE     ---       #605
      01007FF2H   LINE      CODE     ---       #608
      01007FF8H   LINE      CODE     ---       #609
      01008018H   LINE      CODE     ---       #610
      0100802CH   LINE      CODE     ---       #611
      0100804EH   LINE      CODE     ---       #612
      01008062H   LINE      CODE     ---       #613
      01008062H   LINE      CODE     ---       #615
      0100807DH   LINE      CODE     ---       #617
      0100807DH   LINE      CODE     ---       #618
      010080A8H   LINE      CODE     ---       #620
      010080CAH   LINE      CODE     ---       #623
      010080E6H   LINE      CODE     ---       #624
      010080F6H   LINE      CODE     ---       #625
      010080F6H   LINE      CODE     ---       #626
      01008112H   LINE      CODE     ---       #627
      01008120H   LINE      CODE     ---       #628
      01008120H   LINE      CODE     ---       #632
      01008129H   LINE      CODE     ---       #635
      0100813BH   LINE      CODE     ---       #636
      01008161H   LINE      CODE     ---       #639
      01008174H   LINE      CODE     ---       #640
      010081A0H   LINE      CODE     ---       #643
      010081B3H   LINE      CODE     ---       #644
      010081F6H   LINE      CODE     ---       #647
      01008204H   LINE      CODE     ---       #650
      01008217H   LINE      CODE     ---       #651
      0100821BH   LINE      CODE     ---       #653
      0100821DH   LINE      CODE     ---       #656
      01008239H   LINE      CODE     ---       #657
      0100824FH   LINE      CODE     ---       #659
      01008271H   LINE      CODE     ---       #660
      0100828BH   LINE      CODE     ---       #663
      010082AEH   LINE      CODE     ---       #664
      010082D0H   LINE      CODE     ---       #666
      010082ECH   LINE      CODE     ---       #667
      010082FCH   LINE      CODE     ---       #668
      010082FCH   LINE      CODE     ---       #669
      01008318H   LINE      CODE     ---       #670
      01008326H   LINE      CODE     ---       #671
      01008326H   LINE      CODE     ---       #675
      0100832FH   LINE      CODE     ---       #678
      01008341H   LINE      CODE     ---       #679
      01008367H   LINE      CODE     ---       #682
      0100837AH   LINE      CODE     ---       #683
      010083A6H   LINE      CODE     ---       #686
      010083B9H   LINE      CODE     ---       #687
      010083FCH   LINE      CODE     ---       #690
      01008411H   LINE      CODE     ---       #691
      0100841EH   LINE      CODE     ---       #692
      0100841EH   LINE      CODE     ---       #693
      01008432H   LINE      CODE     ---       #694
      0100843CH   LINE      CODE     ---       #695
      0100843CH   LINE      CODE     ---       #698
      0100844AH   LINE      CODE     ---       #700
      0100844DH   LINE      CODE     ---       #703
      0100844DH   LINE      CODE     ---       #704
      01008478H   LINE      CODE     ---       #706
      0100849AH   LINE      CODE     ---       #709
      010084B5H   LINE      CODE     ---       #710
      010084C2H   LINE      CODE     ---       #711
LX51 LINKER/LOCATER V4.64.0.0                                                         04/04/2018  09:18:43  PAGE 75


      010084E0H   LINE      CODE     ---       #712
      010084EEH   LINE      CODE     ---       #713
      010084EEH   LINE      CODE     ---       #716
      01008501H   LINE      CODE     ---       #717
      0100851BH   LINE      CODE     ---       #721
      0100852EH   LINE      CODE     ---       #722
      0100855AH   LINE      CODE     ---       #726
      0100856DH   LINE      CODE     ---       #727
      010085B0H   LINE      CODE     ---       #731
      010085BEH   LINE      CODE     ---       #733
      010085D1H   LINE      CODE     ---       #734
      010085D6H   LINE      CODE     ---       #736
      010085D8H   LINE      CODE     ---       #738
      010085DBH   LINE      CODE     ---       #741
      010085DBH   LINE      CODE     ---       #742
      010085EAH   LINE      CODE     ---       #744
      010085FFH   LINE      CODE     ---       #746
      0100861BH   LINE      CODE     ---       #747
      01008631H   LINE      CODE     ---       #748
      01008631H   LINE      CODE     ---       #749
      01008653H   LINE      CODE     ---       #750
      0100866DH   LINE      CODE     ---       #751
      0100866DH   LINE      CODE     ---       #754
      01008690H   LINE      CODE     ---       #755
      010086B2H   LINE      CODE     ---       #757
      010086CEH   LINE      CODE     ---       #758
      010086DEH   LINE      CODE     ---       #759
      010086DEH   LINE      CODE     ---       #760
      010086FAH   LINE      CODE     ---       #761
      01008708H   LINE      CODE     ---       #762
      01008708H   LINE      CODE     ---       #764
      01008711H   LINE      CODE     ---       #767
      01008723H   LINE      CODE     ---       #768
      01008749H   LINE      CODE     ---       #771
      0100875CH   LINE      CODE     ---       #772
      01008788H   LINE      CODE     ---       #775
      0100879BH   LINE      CODE     ---       #776
      010087DEH   LINE      CODE     ---       #778
      010087ECH   LINE      CODE     ---       #780
      010087FFH   LINE      CODE     ---       #781
      01008803H   LINE      CODE     ---       #783
      01008805H   LINE      CODE     ---       #784
      01008805H   LINE      CODE     ---       #785
      01008807H   LINE      CODE     ---       #788
      01008807H   LINE      CODE     ---       #790
      0100881CH   LINE      CODE     ---       #792
      0100882FH   LINE      CODE     ---       #793
      01008833H   LINE      CODE     ---       #795
      01008835H   LINE      CODE     ---       #799
      0100884AH   LINE      CODE     ---       #800
      01008857H   LINE      CODE     ---       #801
      0100886BH   LINE      CODE     ---       #802
      01008875H   LINE      CODE     ---       #805
      01008875H   LINE      CODE     ---       #807
      01008875H   LINE      CODE     ---       #811
      01008889H   LINE      CODE     ---       #812
      01008893H   LINE      CODE     ---       #813
      010088A8H   LINE      CODE     ---       #814
      010088B3H   LINE      CODE     ---       #817
      010088BBH   LINE      CODE     ---       #818
      010088F2H   LINE      CODE     ---       #821
      01008910H   LINE      CODE     ---       #823
      01008913H   LINE      CODE     ---       #824
      0100891AH   LINE      CODE     ---       #826
      0100891FH   LINE      CODE     ---       #828
LX51 LINKER/LOCATER V4.64.0.0                                                         04/04/2018  09:18:43  PAGE 76


      01008929H   LINE      CODE     ---       #829
      ---         BLOCKEND  ---      ---       LVL=0

      010094A5H   BLOCK     CODE     ---       LVL=0
      00000007H   SYMBOL    DATA     BYTE      idx
      010094A5H   BLOCK     CODE     NEAR LAB  LVL=1
      00000023H   SYMBOL    DATA     BYTE      index
      00000003H   SYMBOL    DATA     BYTE      jj
      02000002H   SYMBOL    XDATA    DWORD     data_encoder
      02000006H   SYMBOL    XDATA    LONG      value_encoder
      0200000AH   SYMBOL    XDATA    LONG      speed_encoder
      0200000EH   SYMBOL    XDATA    LONG      accel_encoder
      02000012H   SYMBOL    XDATA    LONG      aux
      02001193H   SYMBOL    XDATA    ---       last_value_encoder
      0200119FH   SYMBOL    XDATA    ---       error
      00000021H.7 SYMBOL    BIT      BIT       only_first_time
      020011A2H   SYMBOL    XDATA    BYTE      one_time_execute
      00000022H.0 SYMBOL    BIT      BIT       pos_reconstruct
      020011A3H   SYMBOL    XDATA    ---       v_value
      020011AFH   SYMBOL    XDATA    ---       vv_value
      020011BBH   SYMBOL    XDATA    ---       vvv_value
      020011C7H   SYMBOL    XDATA    ---       a_value
      020011D3H   SYMBOL    XDATA    ---       aa_value
      020011DFH   SYMBOL    XDATA    ---       aaa_value
      ---         BLOCKEND  ---      ---       LVL=1
      010094A5H   LINE      CODE     ---       #835
      010094A5H   LINE      CODE     ---       #837
      010094A7H   LINE      CODE     ---       #864
      010094B1H   LINE      CODE     ---       #867
      010094B4H   LINE      CODE     ---       #868
      010094BCH   LINE      CODE     ---       #869
      010094D4H   LINE      CODE     ---       #871
      010094D6H   LINE      CODE     ---       #872
      010094D6H   LINE      CODE     ---       #876
      010094DAH   LINE      CODE     ---       #877
      010094F2H   LINE      CODE     ---       #878
      010094F2H   LINE      CODE     ---       #879
      010094F7H   LINE      CODE     ---       #880
      0100950FH   LINE      CODE     ---       #882
      01009525H   LINE      CODE     ---       #883
      01009525H   LINE      CODE     ---       #886
      01009533H   LINE      CODE     ---       #888
      0100958BH   LINE      CODE     ---       #895
      0100958EH   LINE      CODE     ---       #896
      010095AEH   LINE      CODE     ---       #897
      010095B3H   LINE      CODE     ---       #898
      010095B5H   LINE      CODE     ---       #899
      010095B5H   LINE      CODE     ---       #902
      010095EEH   LINE      CODE     ---       #922
      01009608H   LINE      CODE     ---       #923
      01009618H   LINE      CODE     ---       #924
      01009618H   LINE      CODE     ---       #925
      01009634H   LINE      CODE     ---       #926
      01009644H   LINE      CODE     ---       #927
      01009644H   LINE      CODE     ---       #928
      0100965EH   LINE      CODE     ---       #929
      0100966CH   LINE      CODE     ---       #930
      01009680H   LINE      CODE     ---       #933
      01009680H   LINE      CODE     ---       #934
      01009680H   LINE      CODE     ---       #935
      01009680H   LINE      CODE     ---       #937
      0100968DH   LINE      CODE     ---       #939
      010096ADH   LINE      CODE     ---       #941
      010096E9H   LINE      CODE     ---       #943
      0100970FH   LINE      CODE     ---       #944
LX51 LINKER/LOCATER V4.64.0.0                                                         04/04/2018  09:18:43  PAGE 77


      01009747H   LINE      CODE     ---       #945
      01009747H   LINE      CODE     ---       #947
      01009767H   LINE      CODE     ---       #948
      01009767H   LINE      CODE     ---       #950
      0100977CH   LINE      CODE     ---       #951
      0100977CH   LINE      CODE     ---       #952
      0100981AH   LINE      CODE     ---       #953
      0100981DH   LINE      CODE     ---       #954
      0100981DH   LINE      CODE     ---       #955
      0100981DH   LINE      CODE     ---       #956
      010098BBH   LINE      CODE     ---       #957
      010098BEH   LINE      CODE     ---       #958
      010098BEH   LINE      CODE     ---       #959
      010098BEH   LINE      CODE     ---       #960
      0100995CH   LINE      CODE     ---       #961
      0100995CH   LINE      CODE     ---       #962
      0100995CH   LINE      CODE     ---       #963
      0100995CH   LINE      CODE     ---       #965
      0100997CH   LINE      CODE     ---       #968
      01009991H   LINE      CODE     ---       #969
      01009991H   LINE      CODE     ---       #970
      01009A2FH   LINE      CODE     ---       #971
      01009A32H   LINE      CODE     ---       #973
      01009A32H   LINE      CODE     ---       #974
      01009AD0H   LINE      CODE     ---       #975
      01009AD3H   LINE      CODE     ---       #977
      01009AD3H   LINE      CODE     ---       #978
      01009B71H   LINE      CODE     ---       #979
      01009B71H   LINE      CODE     ---       #980
      01009B71H   LINE      CODE     ---       #982
      01009B91H   LINE      CODE     ---       #985
      01009BBDH   LINE      CODE     ---       #986
      01009BE9H   LINE      CODE     ---       #987
      01009C09H   LINE      CODE     ---       #989
      01009C35H   LINE      CODE     ---       #990
      01009C61H   LINE      CODE     ---       #991
      01009C81H   LINE      CODE     ---       #995
      01009C87H   LINE      CODE     ---       #996
      01009C90H   LINE      CODE     ---       #997
      01009C94H   LINE      CODE     ---       #998
      01009C94H   LINE      CODE     ---       #1000
      01009C9AH   LINE      CODE     ---       #1001
      01009CC4H   LINE      CODE     ---       #1003
      01009CF8H   LINE      CODE     ---       #1006
      01009D0CH   LINE      CODE     ---       #1008
      01009D14H   LINE      CODE     ---       #1010
      01009D16H   LINE      CODE     ---       #1011
      01009D16H   LINE      CODE     ---       #1012
      01009D16H   LINE      CODE     ---       #1013
      ---         BLOCKEND  ---      ---       LVL=0

      01009D17H   BLOCK     CODE     ---       LVL=0
      01009D17H   BLOCK     CODE     NEAR LAB  LVL=1
      00000023H   SYMBOL    DATA     LONG      i_aux
      0000000EH   SYMBOL    DATA     BYTE      emg_1_status
      0000000FH   SYMBOL    DATA     BYTE      emg_2_status
      020011EBH   SYMBOL    XDATA    WORD      emg_counter_1
      020011EDH   SYMBOL    XDATA    WORD      emg_counter_2
      ---         BLOCKEND  ---      ---       LVL=1
      01009D17H   LINE      CODE     ---       #1019
      01009D17H   LINE      CODE     ---       #1051
      01009D1DH   LINE      CODE     ---       #1052
      01009D20H   LINE      CODE     ---       #1053
      01009D22H   LINE      CODE     ---       #1054
      01009D25H   LINE      CODE     ---       #1055
LX51 LINKER/LOCATER V4.64.0.0                                                         04/04/2018  09:18:43  PAGE 78


      01009D25H   LINE      CODE     ---       #1056
      01009D27H   LINE      CODE     ---       #1059
      01009D4FH   LINE      CODE     ---       #1061
      01009D52H   LINE      CODE     ---       #1062
      01009D54H   LINE      CODE     ---       #1063
      01009D57H   LINE      CODE     ---       #1064
      01009D57H   LINE      CODE     ---       #1066
      01009D60H   LINE      CODE     ---       #1067
      01009D7BH   LINE      CODE     ---       #1068
      01009D88H   LINE      CODE     ---       #1069
      01009D8AH   LINE      CODE     ---       #1070
      01009D8AH   LINE      CODE     ---       #1071
      01009DA5H   LINE      CODE     ---       #1072
      01009DB2H   LINE      CODE     ---       #1073
      01009DB4H   LINE      CODE     ---       #1075
      01009DC1H   LINE      CODE     ---       #1076
      01009DC1H   LINE      CODE     ---       #1078
      01009DC6H   LINE      CODE     ---       #1079
      01009DC6H   LINE      CODE     ---       #1083
      01009DE4H   LINE      CODE     ---       #1086
      01009DFEH   LINE      CODE     ---       #1087
      01009E00H   LINE      CODE     ---       #1088
      01009E02H   LINE      CODE     ---       #1089
      01009E02H   LINE      CODE     ---       #1090
      01009E21H   LINE      CODE     ---       #1091
      01009E38H   LINE      CODE     ---       #1092
      01009E38H   LINE      CODE     ---       #1094
      01009E3EH   LINE      CODE     ---       #1095
      01009E41H   LINE      CODE     ---       #1098
      01009E7EH   LINE      CODE     ---       #1102
      01009E81H   LINE      CODE     ---       #1103
      01009E83H   LINE      CODE     ---       #1104
      01009E86H   LINE      CODE     ---       #1105
      01009E86H   LINE      CODE     ---       #1108
      01009E8CH   LINE      CODE     ---       #1109
      01009E8EH   LINE      CODE     ---       #1110
      01009E90H   LINE      CODE     ---       #1111
      01009E90H   LINE      CODE     ---       #1116
      01009EABH   LINE      CODE     ---       #1117
      01009EABH   LINE      CODE     ---       #1118
      01009EBFH   LINE      CODE     ---       #1119
      01009ED1H   LINE      CODE     ---       #1120
      01009EEFH   LINE      CODE     ---       #1122
      01009EF2H   LINE      CODE     ---       #1123
      01009EF4H   LINE      CODE     ---       #1124
      01009EF7H   LINE      CODE     ---       #1125
      01009EF7H   LINE      CODE     ---       #1127
      01009F0AH   LINE      CODE     ---       #1128
      01009F15H   LINE      CODE     ---       #1130
      01009F29H   LINE      CODE     ---       #1131
      01009F33H   LINE      CODE     ---       #1133
      01009F41H   LINE      CODE     ---       #1135
      01009F47H   LINE      CODE     ---       #1136
      01009F49H   LINE      CODE     ---       #1137
      01009F4CH   LINE      CODE     ---       #1138
      01009F4CH   LINE      CODE     ---       #1140
      01009F4FH   LINE      CODE     ---       #1142
      01009F4FH   LINE      CODE     ---       #1143
      01009F56H   LINE      CODE     ---       #1144
      01009F60H   LINE      CODE     ---       #1145
      01009F63H   LINE      CODE     ---       #1147
      01009F66H   LINE      CODE     ---       #1149
      01009F66H   LINE      CODE     ---       #1150
      01009F74H   LINE      CODE     ---       #1151
      01009F85H   LINE      CODE     ---       #1152
LX51 LINKER/LOCATER V4.64.0.0                                                         04/04/2018  09:18:43  PAGE 79


      01009F8BH   LINE      CODE     ---       #1155
      01009F90H   LINE      CODE     ---       #1157
      01009F95H   LINE      CODE     ---       #1159
      01009F98H   LINE      CODE     ---       #1160
      01009F9AH   LINE      CODE     ---       #1161
      01009F9DH   LINE      CODE     ---       #1162
      01009F9DH   LINE      CODE     ---       #1164
      01009FA0H   LINE      CODE     ---       #1165
      01009FA0H   LINE      CODE     ---       #1166
      01009FA3H   LINE      CODE     ---       #1168
      01009FA3H   LINE      CODE     ---       #1170
      01009FB1H   LINE      CODE     ---       #1171
      01009FF2H   LINE      CODE     ---       #1173
      01009FF5H   LINE      CODE     ---       #1174
      01009FF7H   LINE      CODE     ---       #1175
      01009FFAH   LINE      CODE     ---       #1176
      01009FFAH   LINE      CODE     ---       #1178
      0100A008H   LINE      CODE     ---       #1179
      0100A026H   LINE      CODE     ---       #1181
      0100A029H   LINE      CODE     ---       #1182
      0100A02BH   LINE      CODE     ---       #1183
      0100A02EH   LINE      CODE     ---       #1184
      0100A02EH   LINE      CODE     ---       #1187
      0100A033H   LINE      CODE     ---       #1189
      0100A038H   LINE      CODE     ---       #1191
      0100A03FH   LINE      CODE     ---       #1193
      0100A041H   LINE      CODE     ---       #1194
      0100A041H   LINE      CODE     ---       #1195
      0100A041H   LINE      CODE     ---       #1197
      0100A041H   LINE      CODE     ---       #1198
      0100A041H   LINE      CODE     ---       #1199
      0100A041H   LINE      CODE     ---       #1201
      0100A044H   LINE      CODE     ---       #1202
      0100A046H   LINE      CODE     ---       #1203
      0100A049H   LINE      CODE     ---       #1204
      0100A049H   LINE      CODE     ---       #1206
      0100A070H   LINE      CODE     ---       #1207
      0100A070H   LINE      CODE     ---       #1208
      0100A084H   LINE      CODE     ---       #1209
      0100A096H   LINE      CODE     ---       #1210
      0100A0B4H   LINE      CODE     ---       #1212
      0100A0B7H   LINE      CODE     ---       #1213
      0100A0B9H   LINE      CODE     ---       #1214
      0100A0BCH   LINE      CODE     ---       #1215
      0100A0BCH   LINE      CODE     ---       #1217
      0100A0CFH   LINE      CODE     ---       #1218
      0100A0DAH   LINE      CODE     ---       #1220
      0100A0EEH   LINE      CODE     ---       #1221
      0100A0F8H   LINE      CODE     ---       #1223
      0100A106H   LINE      CODE     ---       #1225
      0100A109H   LINE      CODE     ---       #1227
      0100A109H   LINE      CODE     ---       #1228
      0100A110H   LINE      CODE     ---       #1229
      0100A11AH   LINE      CODE     ---       #1231
      0100A11DH   LINE      CODE     ---       #1232
      0100A11FH   LINE      CODE     ---       #1233
      0100A122H   LINE      CODE     ---       #1234
      0100A122H   LINE      CODE     ---       #1236
      0100A125H   LINE      CODE     ---       #1237
      0100A128H   LINE      CODE     ---       #1239
      0100A128H   LINE      CODE     ---       #1240
      0100A136H   LINE      CODE     ---       #1241
      0100A147H   LINE      CODE     ---       #1242
      0100A14DH   LINE      CODE     ---       #1245
      0100A152H   LINE      CODE     ---       #1247
LX51 LINKER/LOCATER V4.64.0.0                                                         04/04/2018  09:18:43  PAGE 80


      0100A157H   LINE      CODE     ---       #1249
      0100A15AH   LINE      CODE     ---       #1250
      0100A15CH   LINE      CODE     ---       #1251
      0100A15FH   LINE      CODE     ---       #1252
      0100A15FH   LINE      CODE     ---       #1254
      0100A162H   LINE      CODE     ---       #1255
      0100A162H   LINE      CODE     ---       #1256
      0100A165H   LINE      CODE     ---       #1258
      0100A165H   LINE      CODE     ---       #1260
      0100A173H   LINE      CODE     ---       #1261
      0100A1B4H   LINE      CODE     ---       #1263
      0100A1B7H   LINE      CODE     ---       #1264
      0100A1B9H   LINE      CODE     ---       #1265
      0100A1BCH   LINE      CODE     ---       #1266
      0100A1BCH   LINE      CODE     ---       #1268
      0100A1CDH   LINE      CODE     ---       #1269
      0100A1EBH   LINE      CODE     ---       #1272
      0100A1F0H   LINE      CODE     ---       #1274
      0100A1F5H   LINE      CODE     ---       #1276
      0100A1FCH   LINE      CODE     ---       #1278
      0100A1FFH   LINE      CODE     ---       #1279
      0100A201H   LINE      CODE     ---       #1280
      0100A204H   LINE      CODE     ---       #1281
      0100A204H   LINE      CODE     ---       #1283
      0100A207H   LINE      CODE     ---       #1284
      0100A207H   LINE      CODE     ---       #1285
      0100A20AH   LINE      CODE     ---       #1287
      0100A20AH   LINE      CODE     ---       #1288
      0100A211H   LINE      CODE     ---       #1289
      0100A214H   LINE      CODE     ---       #1290
      0100A216H   LINE      CODE     ---       #1292
      0100A216H   LINE      CODE     ---       #1293
      0100A224H   LINE      CODE     ---       #1294
      0100A232H   LINE      CODE     ---       #1295
      0100A238H   LINE      CODE     ---       #1297
      0100A23BH   LINE      CODE     ---       #1298
      0100A23DH   LINE      CODE     ---       #1299
      0100A240H   LINE      CODE     ---       #1300
      0100A240H   LINE      CODE     ---       #1303
      0100A257H   LINE      CODE     ---       #1306
      0100A257H   LINE      CODE     ---       #1307
      0100A25DH   LINE      CODE     ---       #1308
      0100A271H   LINE      CODE     ---       #1309
      0100A285H   LINE      CODE     ---       #1310
      0100A285H   LINE      CODE     ---       #1311
      0100A28EH   LINE      CODE     ---       #1312
      0100A291H   LINE      CODE     ---       #1313
      0100A291H   LINE      CODE     ---       #1315
      0100A294H   LINE      CODE     ---       #1316
      0100A294H   LINE      CODE     ---       #1317
      0100A294H   LINE      CODE     ---       #1319
      0100A294H   LINE      CODE     ---       #1320
      0100A294H   LINE      CODE     ---       #1321
      0100A294H   LINE      CODE     ---       #1323
      0100A297H   LINE      CODE     ---       #1324
      0100A299H   LINE      CODE     ---       #1325
      0100A29CH   LINE      CODE     ---       #1326
      0100A29CH   LINE      CODE     ---       #1327
      0100A29EH   LINE      CODE     ---       #1328
      0100A29EH   LINE      CODE     ---       #1330
      0100A2A1H   LINE      CODE     ---       #1331
      0100A2A4H   LINE      CODE     ---       #1333
      0100A2A6H   LINE      CODE     ---       #1336
      0100A2ABH   LINE      CODE     ---       #1338
      0100A2B0H   LINE      CODE     ---       #1340
LX51 LINKER/LOCATER V4.64.0.0                                                         04/04/2018  09:18:43  PAGE 81


      0100A2B3H   LINE      CODE     ---       #1341
      0100A2B5H   LINE      CODE     ---       #1342
      0100A2B8H   LINE      CODE     ---       #1343
      0100A2B8H   LINE      CODE     ---       #1345
      0100A2BEH   LINE      CODE     ---       #1346
      0100A2D5H   LINE      CODE     ---       #1349
      0100A2D5H   LINE      CODE     ---       #1350
      0100A2DAH   LINE      CODE     ---       #1351
      0100A2DEH   LINE      CODE     ---       #1352
      0100A2DEH   LINE      CODE     ---       #1353
      0100A2DEH   LINE      CODE     ---       #1356
      0100A2E9H   LINE      CODE     ---       #1359
      0100A2F4H   LINE      CODE     ---       #1360
      0100A2FFH   LINE      CODE     ---       #1362
      0100A2FFH   LINE      CODE     ---       #1365
      0100A31CH   LINE      CODE     ---       #1366
      0100A333H   LINE      CODE     ---       #1367
      0100A381H   LINE      CODE     ---       #1369
      0100A386H   LINE      CODE     ---       #1372
      0100A38BH   LINE      CODE     ---       #1373
      0100A38DH   LINE      CODE     ---       #1374
      0100A38DH   LINE      CODE     ---       #1376
      0100A392H   LINE      CODE     ---       #1379
      0100A397H   LINE      CODE     ---       #1382
      0100A39DH   LINE      CODE     ---       #1383
      0100A3A0H   LINE      CODE     ---       #1386
      0100A3A3H   LINE      CODE     ---       #1387
      0100A3A5H   LINE      CODE     ---       #1388
      0100A3A8H   LINE      CODE     ---       #1389
      0100A3A8H   LINE      CODE     ---       #1391
      0100A3ADH   LINE      CODE     ---       #1392
      0100A3AFH   LINE      CODE     ---       #1393
      0100A3AFH   LINE      CODE     ---       #1394
      0100A3B4H   LINE      CODE     ---       #1395
      0100A3B8H   LINE      CODE     ---       #1396
      0100A3B8H   LINE      CODE     ---       #1397
      0100A3B8H   LINE      CODE     ---       #1398
      0100A3B8H   LINE      CODE     ---       #1400
      0100A3BBH   LINE      CODE     ---       #1401
      0100A3BDH   LINE      CODE     ---       #1402
      0100A3C0H   LINE      CODE     ---       #1403
      0100A3C0H   LINE      CODE     ---       #1404
      ---         BLOCKEND  ---      ---       LVL=0

      0100E069H   BLOCK     CODE     ---       LVL=0
      0100E069H   LINE      CODE     ---       #1410
      0100E069H   LINE      CODE     ---       #1411
      0100E074H   LINE      CODE     ---       #1413
      0100E08EH   LINE      CODE     ---       #1415
      0100E094H   LINE      CODE     ---       #1417
      0100E0BDH   LINE      CODE     ---       #1419
      0100E0C3H   LINE      CODE     ---       #1420
      0100E0C3H   LINE      CODE     ---       #1423
      0100E0CDH   LINE      CODE     ---       #1424
      0100E0D0H   LINE      CODE     ---       #1426
      0100E0D6H   LINE      CODE     ---       #1427
      0100E0DCH   LINE      CODE     ---       #1428
      0100E0DCH   LINE      CODE     ---       #1429
      ---         BLOCKEND  ---      ---       LVL=0

      0100DF7EH   BLOCK     CODE     ---       LVL=0
      0100DF7EH   BLOCK     CODE     NEAR LAB  LVL=1
      00000027H   SYMBOL    DATA     BYTE      index
      ---         BLOCKEND  ---      ---       LVL=1
      0100DF7EH   LINE      CODE     ---       #1435
LX51 LINKER/LOCATER V4.64.0.0                                                         04/04/2018  09:18:43  PAGE 82


      0100DF7EH   LINE      CODE     ---       #1439
      0100DF99H   LINE      CODE     ---       #1440
      0100DF9EH   LINE      CODE     ---       #1441
      0100DFBAH   LINE      CODE     ---       #1442
      0100DFC0H   LINE      CODE     ---       #1443
      0100DFC1H   LINE      CODE     ---       #1444
      0100DFE4H   LINE      CODE     ---       #1445
      0100DFF3H   LINE      CODE     ---       #1446
      0100DFF3H   LINE      CODE     ---       #1447
      ---         BLOCKEND  ---      ---       LVL=0

      ---         MODULE    ---      ---       MAIN
      0100B2C1H   PUBLIC    CODE     ---       main
      000000CAH   SFRSYM    DATA     BYTE      SFRPRT5SEL
      000000DAH   SFRSYM    DATA     BYTE      SFRPRT6SEL
      000000D0H.6 SFRSYM    DATA     BIT       AC
      000000A8H.7 SFRSYM    DATA     BIT       EA
      000000A8H   SFRSYM    DATA     BYTE      IE
      00000085H   SFRSYM    DATA     BYTE      DPH1
      00000084H   SFRSYM    DATA     BYTE      DPL1
      000000D0H.7 SFRSYM    DATA     BIT       CY
      000000A0H   SFRSYM    DATA     BYTE      P2AX
      00000095H   SFRSYM    DATA     BYTE      DPX1
      00000081H   SFRSYM    DATA     BYTE      SP
      000000D0H.2 SFRSYM    DATA     BIT       OV
      00000080H   SFRSYM    DATA     BYTE      SFRPRT0DR
      00000090H   SFRSYM    DATA     BYTE      SFRPRT1DR
      000000F2H   SFRSYM    DATA     BYTE      SFRPRT12SEL
      00000098H   SFRSYM    DATA     BYTE      SFRPRT2DR
      000000B0H   SFRSYM    DATA     BYTE      SFRPRT3DR
      000000C0H   SFRSYM    DATA     BYTE      SFRPRT4DR
      000000FAH   SFRSYM    DATA     BYTE      SFRPRT15SEL
      000000C8H   SFRSYM    DATA     BYTE      SFRPRT5DR
      000000D8H   SFRSYM    DATA     BYTE      SFRPRT6DR
      00000089H   SFRSYM    DATA     BYTE      SFRPRT0PS
      00000091H   SFRSYM    DATA     BYTE      SFRPRT1PS
      00000099H   SFRSYM    DATA     BYTE      SFRPRT2PS
      000000B1H   SFRSYM    DATA     BYTE      SFRPRT3PS
      000000C1H   SFRSYM    DATA     BYTE      SFRPRT4PS
      000000C9H   SFRSYM    DATA     BYTE      SFRPRT5PS
      000000D9H   SFRSYM    DATA     BYTE      SFRPRT6PS
      000000EAH   SFRSYM    DATA     BYTE      MXAX
      000000F0H   SFRSYM    DATA     BYTE      B
      000000E0H   SFRSYM    DATA     BYTE      ACC
      000000D0H   SFRSYM    DATA     BIT       P
      000000D0H.3 SFRSYM    DATA     BIT       RS0
      000000D0H.4 SFRSYM    DATA     BIT       RS1
      00000083H   SFRSYM    DATA     BYTE      DPH
      000000E8H   SFRSYM    DATA     BYTE      SFRPRT12DR
      00000082H   SFRSYM    DATA     BYTE      DPL
      000000F8H   SFRSYM    DATA     BYTE      SFRPRT15DR
      00000086H   SFRSYM    DATA     BYTE      DPS
      000000E9H   SFRSYM    DATA     BYTE      SFRPRT12PS
      00000093H   SFRSYM    DATA     BYTE      DPX
      000000F9H   SFRSYM    DATA     BYTE      SFRPRT15PS
      000000D0H.5 SFRSYM    DATA     BIT       F0
      000000D0H.1 SFRSYM    DATA     BIT       F1
      0000008AH   SFRSYM    DATA     BYTE      SFRPRT0SEL
      000000D0H   SFRSYM    DATA     BYTE      PSW
      000000A2H   SFRSYM    DATA     BYTE      SFRPRT1SEL
      0000009AH   SFRSYM    DATA     BYTE      SFRPRT2SEL
      000000B2H   SFRSYM    DATA     BYTE      SFRPRT3SEL
      000000C2H   SFRSYM    DATA     BYTE      SFRPRT4SEL

      0100B2C1H   BLOCK     CODE     ---       LVL=0
LX51 LINKER/LOCATER V4.64.0.0                                                         04/04/2018  09:18:43  PAGE 83


      0100B2C1H   BLOCK     CODE     NEAR LAB  LVL=1
      00000003H   SYMBOL    DATA     BYTE      i
      02000000H   SYMBOL    XDATA    BYTE      DMA_Chan
      02000001H   SYMBOL    XDATA    ---       DMA_TD
      ---         BLOCKEND  ---      ---       LVL=1
      0100B2C1H   LINE      CODE     ---       #72
      0100B2C1H   LINE      CODE     ---       #73
      0100B2C1H   LINE      CODE     ---       #86
      0100B2C4H   LINE      CODE     ---       #87
      0100B2C7H   LINE      CODE     ---       #91
      0100B2D0H   LINE      CODE     ---       #92
      0100B2D5H   LINE      CODE     ---       #95
      0100B2DAH   LINE      CODE     ---       #97
      0100B2DFH   LINE      CODE     ---       #98
      0100B2E2H   LINE      CODE     ---       #99
      0100B2E7H   LINE      CODE     ---       #103
      0100B2EAH   LINE      CODE     ---       #104
      0100B2EDH   LINE      CODE     ---       #105
      0100B2F0H   LINE      CODE     ---       #107
      0100B2F3H   LINE      CODE     ---       #108
      0100B2F6H   LINE      CODE     ---       #110
      0100B2FDH   LINE      CODE     ---       #114
      0100B300H   LINE      CODE     ---       #116
      0100B307H   LINE      CODE     ---       #120
      0100B30AH   LINE      CODE     ---       #121
      0100B30FH   LINE      CODE     ---       #122
      0100B314H   LINE      CODE     ---       #123
      0100B319H   LINE      CODE     ---       #124
      0100B31EH   LINE      CODE     ---       #129
      0100B321H   LINE      CODE     ---       #131
      0100B324H   LINE      CODE     ---       #132
      0100B327H   LINE      CODE     ---       #133
      0100B32AH   LINE      CODE     ---       #137
      0100B32DH   LINE      CODE     ---       #138
      0100B332H   LINE      CODE     ---       #141
      0100B347H   LINE      CODE     ---       #142
      0100B34FH   LINE      CODE     ---       #143
      0100B35FH   LINE      CODE     ---       #144
      0100B376H   LINE      CODE     ---       #145
      0100B381H   LINE      CODE     ---       #147
      0100B38BH   LINE      CODE     ---       #149
      0100B390H   LINE      CODE     ---       #153
      0100B393H   LINE      CODE     ---       #154
      0100B396H   LINE      CODE     ---       #156
      0100B39EH   LINE      CODE     ---       #160
      0100B3A3H   LINE      CODE     ---       #162
      0100B3ACH   LINE      CODE     ---       #165
      0100B3B4H   LINE      CODE     ---       #166
      0100B3CCH   LINE      CODE     ---       #169
      0100B3D2H   LINE      CODE     ---       #170
      0100B3E9H   LINE      CODE     ---       #174
      0100B3F0H   LINE      CODE     ---       #176
      0100B3F8H   LINE      CODE     ---       #177
      0100B3FAH   LINE      CODE     ---       #179
      0100B402H   LINE      CODE     ---       #182
      0100B40AH   LINE      CODE     ---       #183
      0100B420H   LINE      CODE     ---       #184
      0100B42CH   LINE      CODE     ---       #185
      0100B42EH   LINE      CODE     ---       #187
      0100B441H   LINE      CODE     ---       #189
      0100B44BH   LINE      CODE     ---       #192
      0100B456H   LINE      CODE     ---       #193
      0100B461H   LINE      CODE     ---       #195
      0100B466H   LINE      CODE     ---       #197
      0100B46BH   LINE      CODE     ---       #198
LX51 LINKER/LOCATER V4.64.0.0                                                         04/04/2018  09:18:43  PAGE 84


      0100B477H   LINE      CODE     ---       #199
      0100B479H   LINE      CODE     ---       #200
      0100B47FH   LINE      CODE     ---       #202
      0100B481H   LINE      CODE     ---       #205
      0100B488H   LINE      CODE     ---       #206
      0100B48CH   LINE      CODE     ---       #210
      0100B491H   LINE      CODE     ---       #211
      0100B49CH   LINE      CODE     ---       #213
      0100B4A2H   LINE      CODE     ---       #217
      0100B4A2H   LINE      CODE     ---       #218
      0100B4A2H   LINE      CODE     ---       #220
      0100B4A7H   LINE      CODE     ---       #223
      0100B4AAH   LINE      CODE     ---       #226
      0100B4B0H   LINE      CODE     ---       #228
      0100B4B3H   LINE      CODE     ---       #230
      0100B4B8H   LINE      CODE     ---       #232
      0100B4BAH   LINE      CODE     ---       #233
      0100B4BCH   LINE      CODE     ---       #235
      0100B4BFH   LINE      CODE     ---       #236
      0100B4C1H   LINE      CODE     ---       #238
      0100B4C1H   LINE      CODE     ---       #239
      0100B4C4H   LINE      CODE     ---       #241
      0100B4C9H   LINE      CODE     ---       #243
      0100B4CEH   LINE      CODE     ---       #244
      0100B4CEH   LINE      CODE     ---       #245
      0100B4CEH   LINE      CODE     ---       #246
      0100B4D0H   LINE      CODE     ---       #249
      0100B4D5H   LINE      CODE     ---       #252
      0100B4DDH   LINE      CODE     ---       #254
      0100B4E4H   LINE      CODE     ---       #255
      0100B4E7H   LINE      CODE     ---       #256
      0100B4E9H   LINE      CODE     ---       #257
      0100B4E9H   LINE      CODE     ---       #258
      ---         BLOCKEND  ---      ---       LVL=0

      ---         MODULE    ---      ---       UTILS
      0100A3C1H   PUBLIC    CODE     ---       check_rest_position
      02000016H   PUBLIC    XDATA    BYTE      ?_calc_turns_fcn?BYTE
      0100CD76H   PUBLIC    CODE     ---       _calc_turns_fcn
      0100C28BH   PUBLIC    CODE     ---       calibration
      0200001EH   PUBLIC    XDATA    BYTE      ?_my_mod?BYTE
      0100DCA0H   PUBLIC    CODE     ---       _my_mod
      0100E1BCH   PUBLIC    CODE     ---       _check_enc_data
      0100DD21H   PUBLIC    CODE     ---       _filter_voltage
      0100DC1DH   PUBLIC    CODE     ---       _filter_acc_3
      0100DB9AH   PUBLIC    CODE     ---       _filter_acc_2
      0100DB17H   PUBLIC    CODE     ---       _filter_acc_1
      0100DA94H   PUBLIC    CODE     ---       _filter_vel_3
      0100DA11H   PUBLIC    CODE     ---       _filter_vel_2
      0100D98EH   PUBLIC    CODE     ---       _filter_vel_1
      0100D13FH   PUBLIC    CODE     ---       _filter_curr_diff
      0100D08AH   PUBLIC    CODE     ---       _filter_ch2
      0100CFD5H   PUBLIC    CODE     ---       _filter_ch1
      0100DFF4H   PUBLIC    CODE     ---       _filter_i1
      02000026H   PUBLIC    XDATA    BYTE      ?_curr_estim?BYTE
      0100B846H   PUBLIC    CODE     ---       _curr_estim
      000000CAH   SFRSYM    DATA     BYTE      SFRPRT5SEL
      000000DAH   SFRSYM    DATA     BYTE      SFRPRT6SEL
      000000D0H.6 SFRSYM    DATA     BIT       AC
      000000A8H.7 SFRSYM    DATA     BIT       EA
      000000A8H   SFRSYM    DATA     BYTE      IE
      00000085H   SFRSYM    DATA     BYTE      DPH1
      00000084H   SFRSYM    DATA     BYTE      DPL1
      000000D0H.7 SFRSYM    DATA     BIT       CY
      000000A0H   SFRSYM    DATA     BYTE      P2AX
LX51 LINKER/LOCATER V4.64.0.0                                                         04/04/2018  09:18:43  PAGE 85


      00000095H   SFRSYM    DATA     BYTE      DPX1
      00000081H   SFRSYM    DATA     BYTE      SP
      000000D0H.2 SFRSYM    DATA     BIT       OV
      00000080H   SFRSYM    DATA     BYTE      SFRPRT0DR
      00000090H   SFRSYM    DATA     BYTE      SFRPRT1DR
      000000F2H   SFRSYM    DATA     BYTE      SFRPRT12SEL
      00000098H   SFRSYM    DATA     BYTE      SFRPRT2DR
      000000B0H   SFRSYM    DATA     BYTE      SFRPRT3DR
      000000C0H   SFRSYM    DATA     BYTE      SFRPRT4DR
      000000FAH   SFRSYM    DATA     BYTE      SFRPRT15SEL
      000000C8H   SFRSYM    DATA     BYTE      SFRPRT5DR
      000000D8H   SFRSYM    DATA     BYTE      SFRPRT6DR
      00000089H   SFRSYM    DATA     BYTE      SFRPRT0PS
      00000091H   SFRSYM    DATA     BYTE      SFRPRT1PS
      00000099H   SFRSYM    DATA     BYTE      SFRPRT2PS
      000000B1H   SFRSYM    DATA     BYTE      SFRPRT3PS
      000000C1H   SFRSYM    DATA     BYTE      SFRPRT4PS
      000000C9H   SFRSYM    DATA     BYTE      SFRPRT5PS
      000000D9H   SFRSYM    DATA     BYTE      SFRPRT6PS
      000000EAH   SFRSYM    DATA     BYTE      MXAX
      000000F0H   SFRSYM    DATA     BYTE      B
      000000E0H   SFRSYM    DATA     BYTE      ACC
      000000D0H   SFRSYM    DATA     BIT       P
      000000D0H.3 SFRSYM    DATA     BIT       RS0
      000000D0H.4 SFRSYM    DATA     BIT       RS1
      00000083H   SFRSYM    DATA     BYTE      DPH
      000000E8H   SFRSYM    DATA     BYTE      SFRPRT12DR
      00000082H   SFRSYM    DATA     BYTE      DPL
      000000F8H   SFRSYM    DATA     BYTE      SFRPRT15DR
      00000086H   SFRSYM    DATA     BYTE      DPS
      000000E9H   SFRSYM    DATA     BYTE      SFRPRT12PS
      00000093H   SFRSYM    DATA     BYTE      DPX
      000000F9H   SFRSYM    DATA     BYTE      SFRPRT15PS
      000000D0H.5 SFRSYM    DATA     BIT       F0
      000000D0H.1 SFRSYM    DATA     BIT       F1
      0000008AH   SFRSYM    DATA     BYTE      SFRPRT0SEL
      000000D0H   SFRSYM    DATA     BYTE      PSW
      000000A2H   SFRSYM    DATA     BYTE      SFRPRT1SEL
      0000009AH   SFRSYM    DATA     BYTE      SFRPRT2SEL
      000000B2H   SFRSYM    DATA     BYTE      SFRPRT3SEL
      000000C2H   SFRSYM    DATA     BYTE      SFRPRT4SEL

      0100B846H   BLOCK     CODE     ---       LVL=0
      02000026H   SYMBOL    XDATA    LONG      pos
      0200002AH   SYMBOL    XDATA    LONG      vel
      0200002EH   SYMBOL    XDATA    LONG      acc
      0100B846H   LINE      CODE     ---       #52
      0100B84CH   LINE      CODE     ---       #53
      0100B9E7H   LINE      CODE     ---       #59
      ---         BLOCKEND  ---      ---       LVL=0
      00000004H   SYMBOL    DATA     LONG      new_value
      0200120CH   SYMBOL    XDATA    LONG      old_value
      02001210H   SYMBOL    XDATA    LONG      aux

      0100DFF4H   BLOCK     CODE     ---       LVL=0
      00000004H   SYMBOL    DATA     LONG      new_value
      0100DFF4H   BLOCK     CODE     NEAR LAB  LVL=1
      02001214H   SYMBOL    XDATA    LONG      old_value
      02001218H   SYMBOL    XDATA    LONG      aux
      ---         BLOCKEND  ---      ---       LVL=1
      0100DFF4H   LINE      CODE     ---       #76
      0100DFF4H   LINE      CODE     ---       #80
      0100E041H   LINE      CODE     ---       #82
      0100E055H   LINE      CODE     ---       #84
      0100E068H   LINE      CODE     ---       #85
LX51 LINKER/LOCATER V4.64.0.0                                                         04/04/2018  09:18:43  PAGE 86


      ---         BLOCKEND  ---      ---       LVL=0

      0100CFD5H   BLOCK     CODE     ---       LVL=0
      02000002H   SYMBOL    XDATA    LONG      new_value
      0100CFDBH   BLOCK     CODE     NEAR LAB  LVL=1
      0200121CH   SYMBOL    XDATA    LONG      old_value
      02001220H   SYMBOL    XDATA    LONG      aux
      ---         BLOCKEND  ---      ---       LVL=1
      0100CFD5H   LINE      CODE     ---       #91
      0100CFDBH   LINE      CODE     ---       #95
      0100CFF4H   LINE      CODE     ---       #96
      0100CFFFH   LINE      CODE     ---       #98
      0100D05EH   LINE      CODE     ---       #100
      0100D072H   LINE      CODE     ---       #102
      0100D089H   LINE      CODE     ---       #103
      ---         BLOCKEND  ---      ---       LVL=0

      0100D08AH   BLOCK     CODE     ---       LVL=0
      02000002H   SYMBOL    XDATA    LONG      new_value
      0100D090H   BLOCK     CODE     NEAR LAB  LVL=1
      02001224H   SYMBOL    XDATA    LONG      old_value
      02001228H   SYMBOL    XDATA    LONG      aux
      ---         BLOCKEND  ---      ---       LVL=1
      0100D08AH   LINE      CODE     ---       #109
      0100D090H   LINE      CODE     ---       #113
      0100D0A9H   LINE      CODE     ---       #114
      0100D0B4H   LINE      CODE     ---       #116
      0100D113H   LINE      CODE     ---       #118
      0100D127H   LINE      CODE     ---       #120
      0100D13EH   LINE      CODE     ---       #121
      ---         BLOCKEND  ---      ---       LVL=0

      0100D13FH   BLOCK     CODE     ---       LVL=0
      02000026H   SYMBOL    XDATA    LONG      curr_diff
      0100D145H   BLOCK     CODE     NEAR LAB  LVL=1
      0200122CH   SYMBOL    XDATA    LONG      old_out
      02001230H   SYMBOL    XDATA    LONG      aux
      02001234H   SYMBOL    XDATA    LONG      old_input
      ---         BLOCKEND  ---      ---       LVL=1
      0100D13FH   LINE      CODE     ---       #127
      0100D145H   LINE      CODE     ---       #131
      0100D1BBH   LINE      CODE     ---       #133
      0100D1CFH   LINE      CODE     ---       #134
      0100D1E3H   LINE      CODE     ---       #136
      0100D1F1H   LINE      CODE     ---       #137
      ---         BLOCKEND  ---      ---       LVL=0

      0100D98EH   BLOCK     CODE     ---       LVL=0
      02000016H   SYMBOL    XDATA    LONG      new_value
      0100D994H   BLOCK     CODE     NEAR LAB  LVL=1
      02001238H   SYMBOL    XDATA    LONG      old_out
      0200123CH   SYMBOL    XDATA    LONG      aux
      ---         BLOCKEND  ---      ---       LVL=1
      0100D98EH   LINE      CODE     ---       #143
      0100D994H   LINE      CODE     ---       #147
      0100D9EEH   LINE      CODE     ---       #149
      0100DA02H   LINE      CODE     ---       #151
      0100DA10H   LINE      CODE     ---       #152
      ---         BLOCKEND  ---      ---       LVL=0

      0100DA11H   BLOCK     CODE     ---       LVL=0
      02000016H   SYMBOL    XDATA    LONG      new_value
      0100DA17H   BLOCK     CODE     NEAR LAB  LVL=1
      02001240H   SYMBOL    XDATA    LONG      old_out
      02001244H   SYMBOL    XDATA    LONG      aux
LX51 LINKER/LOCATER V4.64.0.0                                                         04/04/2018  09:18:43  PAGE 87


      ---         BLOCKEND  ---      ---       LVL=1
      0100DA11H   LINE      CODE     ---       #154
      0100DA17H   LINE      CODE     ---       #158
      0100DA71H   LINE      CODE     ---       #160
      0100DA85H   LINE      CODE     ---       #162
      0100DA93H   LINE      CODE     ---       #163
      ---         BLOCKEND  ---      ---       LVL=0

      0100DA94H   BLOCK     CODE     ---       LVL=0
      02000016H   SYMBOL    XDATA    LONG      new_value
      0100DA9AH   BLOCK     CODE     NEAR LAB  LVL=1
      02001248H   SYMBOL    XDATA    LONG      old_out
      0200124CH   SYMBOL    XDATA    LONG      aux
      ---         BLOCKEND  ---      ---       LVL=1
      0100DA94H   LINE      CODE     ---       #165
      0100DA9AH   LINE      CODE     ---       #169
      0100DAF4H   LINE      CODE     ---       #171
      0100DB08H   LINE      CODE     ---       #173
      0100DB16H   LINE      CODE     ---       #174
      ---         BLOCKEND  ---      ---       LVL=0

      0100DB17H   BLOCK     CODE     ---       LVL=0
      02000016H   SYMBOL    XDATA    LONG      new_value
      0100DB1DH   BLOCK     CODE     NEAR LAB  LVL=1
      02001250H   SYMBOL    XDATA    LONG      old_out
      02001254H   SYMBOL    XDATA    LONG      aux
      ---         BLOCKEND  ---      ---       LVL=1
      0100DB17H   LINE      CODE     ---       #180
      0100DB1DH   LINE      CODE     ---       #184
      0100DB77H   LINE      CODE     ---       #186
      0100DB8BH   LINE      CODE     ---       #188
      0100DB99H   LINE      CODE     ---       #189
      ---         BLOCKEND  ---      ---       LVL=0

      0100DB9AH   BLOCK     CODE     ---       LVL=0
      02000016H   SYMBOL    XDATA    LONG      new_value
      0100DBA0H   BLOCK     CODE     NEAR LAB  LVL=1
      02001258H   SYMBOL    XDATA    LONG      old_out
      0200125CH   SYMBOL    XDATA    LONG      aux
      ---         BLOCKEND  ---      ---       LVL=1
      0100DB9AH   LINE      CODE     ---       #191
      0100DBA0H   LINE      CODE     ---       #195
      0100DBFAH   LINE      CODE     ---       #197
      0100DC0EH   LINE      CODE     ---       #199
      0100DC1CH   LINE      CODE     ---       #200
      ---         BLOCKEND  ---      ---       LVL=0

      0100DC1DH   BLOCK     CODE     ---       LVL=0
      02000016H   SYMBOL    XDATA    LONG      new_value
      0100DC23H   BLOCK     CODE     NEAR LAB  LVL=1
      02001260H   SYMBOL    XDATA    LONG      old_out
      02001264H   SYMBOL    XDATA    LONG      aux
      ---         BLOCKEND  ---      ---       LVL=1
      0100DC1DH   LINE      CODE     ---       #202
      0100DC23H   LINE      CODE     ---       #206
      0100DC7DH   LINE      CODE     ---       #208
      0100DC91H   LINE      CODE     ---       #210
      0100DC9FH   LINE      CODE     ---       #211
      ---         BLOCKEND  ---      ---       LVL=0

      0100DD21H   BLOCK     CODE     ---       LVL=0
      00000004H   SYMBOL    DATA     LONG      new_value
      0100DD21H   BLOCK     CODE     NEAR LAB  LVL=1
      02001268H   SYMBOL    XDATA    LONG      old_value
      0200126CH   SYMBOL    XDATA    LONG      aux
LX51 LINKER/LOCATER V4.64.0.0                                                         04/04/2018  09:18:43  PAGE 88


      ---         BLOCKEND  ---      ---       LVL=1
      0100DD21H   LINE      CODE     ---       #217
      0100DD21H   LINE      CODE     ---       #222
      0100DD72H   LINE      CODE     ---       #224
      0100DD86H   LINE      CODE     ---       #226
      0100DD9DH   LINE      CODE     ---       #227
      ---         BLOCKEND  ---      ---       LVL=0

      0100E1BCH   BLOCK     CODE     ---       LVL=0
      00000001H   SYMBOL    DATA     ---       value
      0100E1BCH   BLOCK     CODE     NEAR LAB  LVL=1
      00000014H   SYMBOL    IDATA    ---       p
      00000024H   SYMBOL    DATA     BYTE      a
      ---         BLOCKEND  ---      ---       LVL=1
      0100E1BCH   LINE      CODE     ---       #235
      0100E1BCH   LINE      CODE     ---       #237
      0100E1C6H   LINE      CODE     ---       #238
      0100E1CBH   LINE      CODE     ---       #240
      0100E1DFH   LINE      CODE     ---       #241
      0100E1F3H   LINE      CODE     ---       #242
      0100E207H   LINE      CODE     ---       #243
      0100E214H   LINE      CODE     ---       #245
      0100E226H   LINE      CODE     ---       #247
      ---         BLOCKEND  ---      ---       LVL=0

      0100DCA0H   BLOCK     CODE     ---       LVL=0
      0200001EH   SYMBOL    XDATA    LONG      val
      02000022H   SYMBOL    XDATA    LONG      divisor
      0100DCA0H   LINE      CODE     ---       #265
      0100DCA6H   LINE      CODE     ---       #267
      0100DCBFH   LINE      CODE     ---       #268
      0100DCE7H   LINE      CODE     ---       #269
      0100DCE7H   LINE      CODE     ---       #270
      0100DD20H   LINE      CODE     ---       #271
      0100DD20H   LINE      CODE     ---       #272
      ---         BLOCKEND  ---      ---       LVL=0

      0100C28BH   BLOCK     CODE     ---       LVL=0
      0100C28BH   BLOCK     CODE     NEAR LAB  LVL=1
      02001270H   SYMBOL    XDATA    BYTE      direction
      02001271H   SYMBOL    XDATA    WORD      closure_counter
      ---         BLOCKEND  ---      ---       LVL=1
      0100C28BH   LINE      CODE     ---       #279
      0100C28BH   LINE      CODE     ---       #285
      0100C291H   LINE      CODE     ---       #286
      0100C2E0H   LINE      CODE     ---       #287
      0100C305H   LINE      CODE     ---       #288
      0100C30BH   LINE      CODE     ---       #289
      0100C30BH   LINE      CODE     ---       #290
      0100C30CH   LINE      CODE     ---       #291
      0100C35FH   LINE      CODE     ---       #292
      0100C388H   LINE      CODE     ---       #293
      0100C38DH   LINE      CODE     ---       #294
      0100C39BH   LINE      CODE     ---       #295
      0100C3AFH   LINE      CODE     ---       #296
      0100C3B6H   LINE      CODE     ---       #297
      0100C3BAH   LINE      CODE     ---       #298
      0100C3BAH   LINE      CODE     ---       #299
      0100C3BAH   LINE      CODE     ---       #300
      0100C3BAH   LINE      CODE     ---       #301
      ---         BLOCKEND  ---      ---       LVL=0

      0100CD76H   BLOCK     CODE     ---       LVL=0
      02000016H   SYMBOL    XDATA    LONG      pos1
      0200001AH   SYMBOL    XDATA    LONG      pos2
LX51 LINKER/LOCATER V4.64.0.0                                                         04/04/2018  09:18:43  PAGE 89


      0100CD7CH   BLOCK     CODE     NEAR LAB  LVL=1
      00000004H   SYMBOL    DATA     LONG      x
      00000004H   SYMBOL    DATA     LONG      aux
      ---         BLOCKEND  ---      ---       LVL=1
      0100CD76H   LINE      CODE     ---       #337
      0100CD7CH   LINE      CODE     ---       #339
      0100CDFDH   LINE      CODE     ---       #341
      0100CE1CH   LINE      CODE     ---       #343
      0100CE50H   LINE      CODE     ---       #344
      ---         BLOCKEND  ---      ---       LVL=0

      0100A3C1H   BLOCK     CODE     ---       LVL=0
      0100A3C1H   BLOCK     CODE     NEAR LAB  LVL=1
      02001273H   SYMBOL    XDATA    DWORD     count
      02001277H   SYMBOL    XDATA    BYTE      flag_count
      02001278H   SYMBOL    XDATA    BYTE      first_time
      02001279H   SYMBOL    XDATA    FLOAT     m
      0200127DH   SYMBOL    XDATA    LONG      abs_err_thr
      02001281H   SYMBOL    XDATA    LONG      delta_inc
      02001285H   SYMBOL    XDATA    LONG      rest_error
      02001289H   SYMBOL    XDATA    LONG      stop
      00000023H   SYMBOL    DATA     LONG      err_emg_2
      ---         BLOCKEND  ---      ---       LVL=1
      0100A3C1H   LINE      CODE     ---       #351
      0100A3C1H   LINE      CODE     ---       #364
      0100A3C7H   LINE      CODE     ---       #365
      0100A3D2H   LINE      CODE     ---       #366
      0100A3D7H   LINE      CODE     ---       #367
      0100A3D7H   LINE      CODE     ---       #369
      0100A3F4H   LINE      CODE     ---       #371
      0100A44DH   LINE      CODE     ---       #372
      0100A454H   LINE      CODE     ---       #373
      0100A473H   LINE      CODE     ---       #374
      0100A473H   LINE      CODE     ---       #375
      0100A475H   LINE      CODE     ---       #376
      0100A475H   LINE      CODE     ---       #377
      0100A480H   LINE      CODE     ---       #378
      0100A485H   LINE      CODE     ---       #379
      0100A48AH   LINE      CODE     ---       #380
      0100A48AH   LINE      CODE     ---       #388
      0100A4BCH   LINE      CODE     ---       #389
      0100A4C1H   LINE      CODE     ---       #390
      0100A4D5H   LINE      CODE     ---       #393
      0100A543H   LINE      CODE     ---       #396
      0100A57EH   LINE      CODE     ---       #397
      0100A5BEH   LINE      CODE     ---       #399
      0100A5EBH   LINE      CODE     ---       #401
      0100A615H   LINE      CODE     ---       #402
      0100A655H   LINE      CODE     ---       #404
      0100A660H   LINE      CODE     ---       #405
      0100A665H   LINE      CODE     ---       #406
      0100A665H   LINE      CODE     ---       #408
      0100A66EH   LINE      CODE     ---       #410
      0100A6B2H   LINE      CODE     ---       #412
      0100A6C6H   LINE      CODE     ---       #413
      0100A6CCH   LINE      CODE     ---       #414
      0100A6D7H   LINE      CODE     ---       #415
      0100A6DAH   LINE      CODE     ---       #416
      0100A6DAH   LINE      CODE     ---       #417
      0100A707H   LINE      CODE     ---       #418
      0100A720H   LINE      CODE     ---       #419
      0100A74EH   LINE      CODE     ---       #420
      0100A74EH   LINE      CODE     ---       #421
      0100A767H   LINE      CODE     ---       #422
      0100A796H   LINE      CODE     ---       #423
LX51 LINKER/LOCATER V4.64.0.0                                                         04/04/2018  09:18:43  PAGE 90


      0100A796H   LINE      CODE     ---       #424
      0100A796H   LINE      CODE     ---       #427
      0100A7AAH   LINE      CODE     ---       #429
      0100A7B5H   LINE      CODE     ---       #431
      0100A7E0H   LINE      CODE     ---       #433
      0100A7F3H   LINE      CODE     ---       #434
      0100A850H   LINE      CODE     ---       #435
      0100A850H   LINE      CODE     ---       #436
      0100A864H   LINE      CODE     ---       #437
      0100A869H   LINE      CODE     ---       #438
      0100A869H   LINE      CODE     ---       #439
      0100A869H   LINE      CODE     ---       #442
      0100A86FH   LINE      CODE     ---       #443
      0100A88FH   LINE      CODE     ---       #444
      0100A8A3H   LINE      CODE     ---       #445
      0100A8C5H   LINE      CODE     ---       #446
      0100A8D9H   LINE      CODE     ---       #447
      0100A8D9H   LINE      CODE     ---       #448
      0100A8D9H   LINE      CODE     ---       #450
      ---         BLOCKEND  ---      ---       LVL=0

      ---         MODULE    ---      ---       CYFITTER_CFG
      0100FB13H   PUBLIC    CONST    ---       ADC_AMux__maskTable
      0100FB0FH   PUBLIC    CONST    ---       ADC_AMux__addrTable
      0100C992H   PUBLIC    CODE     ---       cyfitter_cfg
      0100EB08H   PUBLIC    CODE     ---       _ADC_AMux_Unset
      0100EB6AH   PUBLIC    CODE     ---       _ADC_AMux_Set
      000000CAH   SFRSYM    DATA     BYTE      SFRPRT5SEL
      000000DAH   SFRSYM    DATA     BYTE      SFRPRT6SEL
      000000D0H.6 SFRSYM    DATA     BIT       AC
      000000A8H.7 SFRSYM    DATA     BIT       EA
      000000A8H   SFRSYM    DATA     BYTE      IE
      00000085H   SFRSYM    DATA     BYTE      DPH1
      00000084H   SFRSYM    DATA     BYTE      DPL1
      000000D0H.7 SFRSYM    DATA     BIT       CY
      000000A0H   SFRSYM    DATA     BYTE      P2AX
      00000095H   SFRSYM    DATA     BYTE      DPX1
      00000081H   SFRSYM    DATA     BYTE      SP
      000000D0H.2 SFRSYM    DATA     BIT       OV
      00000080H   SFRSYM    DATA     BYTE      SFRPRT0DR
      00000090H   SFRSYM    DATA     BYTE      SFRPRT1DR
      000000F2H   SFRSYM    DATA     BYTE      SFRPRT12SEL
      00000098H   SFRSYM    DATA     BYTE      SFRPRT2DR
      000000B0H   SFRSYM    DATA     BYTE      SFRPRT3DR
      000000C0H   SFRSYM    DATA     BYTE      SFRPRT4DR
      000000FAH   SFRSYM    DATA     BYTE      SFRPRT15SEL
      000000C8H   SFRSYM    DATA     BYTE      SFRPRT5DR
      000000D8H   SFRSYM    DATA     BYTE      SFRPRT6DR
      00000089H   SFRSYM    DATA     BYTE      SFRPRT0PS
      00000091H   SFRSYM    DATA     BYTE      SFRPRT1PS
      00000099H   SFRSYM    DATA     BYTE      SFRPRT2PS
      000000B1H   SFRSYM    DATA     BYTE      SFRPRT3PS
      000000C1H   SFRSYM    DATA     BYTE      SFRPRT4PS
      000000C9H   SFRSYM    DATA     BYTE      SFRPRT5PS
      000000D9H   SFRSYM    DATA     BYTE      SFRPRT6PS
      000000EAH   SFRSYM    DATA     BYTE      MXAX
      000000F0H   SFRSYM    DATA     BYTE      B
      000000E0H   SFRSYM    DATA     BYTE      ACC
      000000D0H   SFRSYM    DATA     BIT       P
      000000D0H.3 SFRSYM    DATA     BIT       RS0
      000000D0H.4 SFRSYM    DATA     BIT       RS1
      00000083H   SFRSYM    DATA     BYTE      DPH
      000000E8H   SFRSYM    DATA     BYTE      SFRPRT12DR
      00000082H   SFRSYM    DATA     BYTE      DPL
      000000F8H   SFRSYM    DATA     BYTE      SFRPRT15DR
LX51 LINKER/LOCATER V4.64.0.0                                                         04/04/2018  09:18:43  PAGE 91


      00000086H   SFRSYM    DATA     BYTE      DPS
      000000E9H   SFRSYM    DATA     BYTE      SFRPRT12PS
      00000093H   SFRSYM    DATA     BYTE      DPX
      000000F9H   SFRSYM    DATA     BYTE      SFRPRT15PS
      000000D0H.5 SFRSYM    DATA     BIT       F0
      000000D0H.1 SFRSYM    DATA     BIT       F1
      0000008AH   SFRSYM    DATA     BYTE      SFRPRT0SEL
      000000D0H   SFRSYM    DATA     BYTE      PSW
      000000A2H   SFRSYM    DATA     BYTE      SFRPRT1SEL
      0000009AH   SFRSYM    DATA     BYTE      SFRPRT2SEL
      000000B2H   SFRSYM    DATA     BYTE      SFRPRT3SEL
      000000C2H   SFRSYM    DATA     BYTE      SFRPRT4SEL
      0100BB89H   SYMBOL    CODE     ---       ClockSetup
      0100F38FH   SYMBOL    CODE     ---       _CyClockStartupError
      0100E90FH   SYMBOL    CODE     ---       AnalogSetDefault
      0100CBAEH   SYMBOL    CODE     ---       cfg_dma_init

      0100F38FH   BLOCK     CODE     ---       LVL=0
      02000000H   SYMBOL    XDATA    BYTE      errorCode
      0100F38FH   LINE      CODE     ---       #76
      0100F38FH   LINE      CODE     ---       #77
      0100F38FH   LINE      CODE     ---       #80
      0100F38FH   LINE      CODE     ---       #101
      ---         BLOCKEND  ---      ---       LVL=0

      0100CBAEH   BLOCK     CODE     ---       LVL=0
      0100CBAEH   BLOCK     CODE     NEAR LAB  LVL=1
      0100F39AH   SYMBOL    CONST    ---       BS_DSI3_1_HV_ROUTING_VAL
      0100F41AH   SYMBOL    CONST    ---       BS_DSISWITCH_1_2_VAL
      0100F49AH   SYMBOL    CONST    ---       BS_DSI3_2_HV_ROUTING_VAL
      0100F51AH   SYMBOL    CONST    ---       BS_DSISWITCH_1_3_VAL
      0100F59AH   SYMBOL    CONST    ---       BS_DSI3_3_HV_ROUTING_VAL
      0100F61AH   SYMBOL    CONST    ---       BS_DSISWITCH_1_4_VAL
      0100F69AH   SYMBOL    CONST    ---       BS_DSI3_4_HV_ROUTING_VAL
      0100F71AH   SYMBOL    CONST    ---       BS_DSISWITCH_1_5_VAL
      0100F79AH   SYMBOL    CONST    ---       BS_DSI3_5_HV_ROUTING_VAL
      0100F81AH   SYMBOL    CONST    ---       CH1_ADDR_DATA0
      0100F822H   SYMBOL    CONST    ---       CH2_ADDR_DATA0
      0100F82AH   SYMBOL    CONST    ---       CH4_ADDR_DATA0
      0100F832H   SYMBOL    CONST    ---       CH5_ADDR_DATA0
      0100F83AH   SYMBOL    CONST    ---       CH6_ADDR_DATA0
      0100F842H   SYMBOL    CONST    ---       DMA_TD_START_CMD
      02001321H   SYMBOL    XDATA    DWORD     DMA_ZERO_VAL
      0100F847H   SYMBOL    CONST    ---       CFG_TD_LIST0
      ---         BLOCKEND  ---      ---       LVL=1
      0100CBAEH   LINE      CODE     ---       #327
      0100CBAEH   LINE      CODE     ---       #328
      0100CBAEH   LINE      CODE     ---       #552
      0100CBB9H   LINE      CODE     ---       #553
      0100CBBFH   LINE      CODE     ---       #554
      0100CBC5H   LINE      CODE     ---       #555
      0100CBCAH   LINE      CODE     ---       #556
      0100CBD6H   LINE      CODE     ---       #557
      0100CBDCH   LINE      CODE     ---       #558
      0100CBE0H   LINE      CODE     ---       #559
      0100CC02H   LINE      CODE     ---       #560
      0100CC0FH   LINE      CODE     ---       #561
      0100CC1CH   LINE      CODE     ---       #562
      0100CC28H   LINE      CODE     ---       #563
      0100CC2EH   LINE      CODE     ---       #564
      0100CC33H   LINE      CODE     ---       #565
      0100CC39H   LINE      CODE     ---       #566
      0100CC3FH   LINE      CODE     ---       #567
      0100CC45H   LINE      CODE     ---       #569
      0100CC45H   LINE      CODE     ---       #570
LX51 LINKER/LOCATER V4.64.0.0                                                         04/04/2018  09:18:43  PAGE 92


      0100CC4BH   LINE      CODE     ---       #571
      0100CC4BH   LINE      CODE     ---       #574
      0100CC53H   LINE      CODE     ---       #575
      0100CC5BH   LINE      CODE     ---       #576
      0100CC63H   LINE      CODE     ---       #577
      0100CC6BH   LINE      CODE     ---       #578
      0100CC73H   LINE      CODE     ---       #579
      0100CC7BH   LINE      CODE     ---       #582
      0100CC96H   LINE      CODE     ---       #584
      ---         BLOCKEND  ---      ---       LVL=0

      0100BB89H   BLOCK     CODE     ---       LVL=0
      0100BB89H   BLOCK     CODE     NEAR LAB  LVL=1
      02000000H   SYMBOL    XDATA    DWORD     timeout
      02000004H   SYMBOL    XDATA    BYTE      pllLock
      ---         BLOCKEND  ---      ---       LVL=1
      0100BB89H   LINE      CODE     ---       #602
      0100BB89H   LINE      CODE     ---       #603
      0100BB89H   LINE      CODE     ---       #609
      0100BB96H   LINE      CODE     ---       #610
      0100BB9CH   LINE      CODE     ---       #611
      0100BBA8H   LINE      CODE     ---       #612
      0100BBAEH   LINE      CODE     ---       #613
      0100BBBBH   LINE      CODE     ---       #614
      0100BBC1H   LINE      CODE     ---       #615
      0100BBCEH   LINE      CODE     ---       #616
      0100BBD4H   LINE      CODE     ---       #617
      0100BBE1H   LINE      CODE     ---       #618
      0100BBE7H   LINE      CODE     ---       #619
      0100BBF4H   LINE      CODE     ---       #620
      0100BBFAH   LINE      CODE     ---       #621
      0100BC07H   LINE      CODE     ---       #622
      0100BC0DH   LINE      CODE     ---       #625
      0100BC25H   LINE      CODE     ---       #628
      0100BC2BH   LINE      CODE     ---       #631
      0100BC31H   LINE      CODE     ---       #632
      0100BC3FH   LINE      CODE     ---       #635
      0100BC4CH   LINE      CODE     ---       #636
      0100BC59H   LINE      CODE     ---       #638
      0100BC5EH   LINE      CODE     ---       #639
      0100BC83H   LINE      CODE     ---       #640
      0100BC83H   LINE      CODE     ---       #641
      0100BC94H   LINE      CODE     ---       #642
      0100BC9EH   LINE      CODE     ---       #643
      0100BCC6H   LINE      CODE     ---       #645
      0100BCD4H   LINE      CODE     ---       #646
      0100BCD4H   LINE      CODE     ---       #647
      0100BCD9H   LINE      CODE     ---       #648
      0100BCD9H   LINE      CODE     ---       #651
      0100BCE6H   LINE      CODE     ---       #652
      0100BCECH   LINE      CODE     ---       #653
      0100BCF1H   LINE      CODE     ---       #654
      0100BCF7H   LINE      CODE     ---       #655
      0100BCFCH   LINE      CODE     ---       #658
      0100BD00H   LINE      CODE     ---       #659
      0100BD06H   LINE      CODE     ---       #660
      0100BD0CH   LINE      CODE     ---       #662
      0100BD13H   LINE      CODE     ---       #663
      0100BD1AH   LINE      CODE     ---       #664
      0100BD21H   LINE      CODE     ---       #665
      ---         BLOCKEND  ---      ---       LVL=0

      0100E90FH   BLOCK     CODE     ---       LVL=0
      0100E90FH   BLOCK     CODE     NEAR LAB  LVL=1
      00000007H   SYMBOL    DATA     BYTE      bg_xover_inl_trim
LX51 LINKER/LOCATER V4.64.0.0                                                         04/04/2018  09:18:43  PAGE 93


      ---         BLOCKEND  ---      ---       LVL=1
      0100E90FH   LINE      CODE     ---       #687
      0100E90FH   LINE      CODE     ---       #688
      0100E90FH   LINE      CODE     ---       #689
      0100E918H   LINE      CODE     ---       #690
      0100E91FH   LINE      CODE     ---       #691
      0100E925H   LINE      CODE     ---       #692
      0100E92BH   LINE      CODE     ---       #693
      0100E931H   LINE      CODE     ---       #694
      0100E937H   LINE      CODE     ---       #695
      0100E93DH   LINE      CODE     ---       #696
      0100E943H   LINE      CODE     ---       #697
      0100E949H   LINE      CODE     ---       #698
      ---         BLOCKEND  ---      ---       LVL=0
      00000007H   SYMBOL    DATA     BYTE      enabled
      00000006H   SYMBOL    DATA     BYTE      regValue

      0100EB6AH   BLOCK     CODE     ---       LVL=0
      00000007H   SYMBOL    DATA     BYTE      channel
      0100EB6AH   LINE      CODE     ---       #761
      0100EB6AH   LINE      CODE     ---       #762
      0100EB6AH   LINE      CODE     ---       #763
      0100EB70H   LINE      CODE     ---       #764
      0100EB70H   LINE      CODE     ---       #765
      0100EB99H   LINE      CODE     ---       #766
      0100EB99H   LINE      CODE     ---       #767
      ---         BLOCKEND  ---      ---       LVL=0

      0100EB08H   BLOCK     CODE     ---       LVL=0
      00000007H   SYMBOL    DATA     BYTE      channel
      0100EB08H   LINE      CODE     ---       #783
      0100EB08H   LINE      CODE     ---       #784
      0100EB08H   LINE      CODE     ---       #785
      0100EB0EH   LINE      CODE     ---       #786
      0100EB0EH   LINE      CODE     ---       #787
      0100EB38H   LINE      CODE     ---       #788
      0100EB38H   LINE      CODE     ---       #789
      ---         BLOCKEND  ---      ---       LVL=0

      0100C992H   BLOCK     CODE     ---       LVL=0
      0100C992H   BLOCK     CODE     NEAR LAB  LVL=1
      0100FB15H   SYMBOL    CONST    ---       BS_IOPINS0_7_VAL
      0100FB1DH   SYMBOL    CONST    ---       BS_IOPINS0_8_VAL
      0100FB27H   SYMBOL    CONST    ---       BS_IOPINS0_1_VAL
      0100FB31H   SYMBOL    CONST    ---       BS_IOPINS0_2_VAL
      0100FB39H   SYMBOL    CONST    ---       BS_PHUB_CFGMEM10_VAL
      ---         BLOCKEND  ---      ---       LVL=1
      0100C992H   LINE      CODE     ---       #810
      0100C992H   LINE      CODE     ---       #811
      0100C992H   LINE      CODE     ---       #833
      0100C9A8H   LINE      CODE     ---       #835
      0100C9A8H   LINE      CODE     ---       #836
      0100C9ABH   LINE      CODE     ---       #839
      0100C9B1H   LINE      CODE     ---       #840
      0100C9C2H   LINE      CODE     ---       #843
      0100C9D8H   LINE      CODE     ---       #844
      0100C9EEH   LINE      CODE     ---       #847
      0100C9F5H   LINE      CODE     ---       #848
      0100C9FCH   LINE      CODE     ---       #849
      0100C9FCH   LINE      CODE     ---       #853
      0100CA16H   LINE      CODE     ---       #854
      0100CA27H   LINE      CODE     ---       #855
      0100CA38H   LINE      CODE     ---       #856
      0100CA49H   LINE      CODE     ---       #857
      0100CA5AH   LINE      CODE     ---       #858
LX51 LINKER/LOCATER V4.64.0.0                                                         04/04/2018  09:18:43  PAGE 94


      0100CA60H   LINE      CODE     ---       #860
      0100CA67H   LINE      CODE     ---       #861
      0100CA70H   LINE      CODE     ---       #862
      0100CA70H   LINE      CODE     ---       #863
      0100CA76H   LINE      CODE     ---       #864
      0100CA76H   LINE      CODE     ---       #868
      0100CA7CH   LINE      CODE     ---       #870
      0100CA7FH   LINE      CODE     ---       #873
      0100CA82H   LINE      CODE     ---       #876
      0100CAA3H   LINE      CODE     ---       #877
      0100CAAAH   LINE      CODE     ---       #878
      ---         BLOCKEND  ---      ---       LVL=0

      ---         MODULE    ---      ---       CLOCK_UART
      0100F256H   PUBLIC    CODE     ---       CLOCK_UART_GetSourceRegister
      0100F1DEH   PUBLIC    CODE     ---       CLOCK_UART_GetDividerRegister
      0100C3BBH   PUBLIC    CODE     ---       _CLOCK_UART_SetDividerRegister
      00000007H   SYMBOL    DATA     BYTE      state

      0100C3BBH   BLOCK     CODE     ---       LVL=0
      02000020H   SYMBOL    XDATA    WORD      clkDivider
      02000022H   SYMBOL    XDATA    BYTE      restart
      0100C3C6H   BLOCK     CODE     NEAR LAB  LVL=1
      02000023H   SYMBOL    XDATA    BYTE      enabled
      02000024H   SYMBOL    XDATA    BYTE      currSrc
      02000025H   SYMBOL    XDATA    WORD      oldDivider
      ---         BLOCKEND  ---      ---       LVL=1
      0100C3BBH   LINE      CODE     ---       #193
      0100C3C6H   LINE      CODE     ---       #195
      0100C3C6H   LINE      CODE     ---       #198
      0100C3CEH   LINE      CODE     ---       #199
      0100C3D9H   LINE      CODE     ---       #201
      0100C3EBH   LINE      CODE     ---       #202
      0100C3EBH   LINE      CODE     ---       #203
      0100C3F5H   LINE      CODE     ---       #205
      0100C406H   LINE      CODE     ---       #206
      0100C406H   LINE      CODE     ---       #208
      0100C40AH   LINE      CODE     ---       #209
      0100C40AH   LINE      CODE     ---       #213
      0100C413H   LINE      CODE     ---       #214
      0100C41AH   LINE      CODE     ---       #215
      0100C41BH   LINE      CODE     ---       #217
      0100C41BH   LINE      CODE     ---       #220
      0100C422H   LINE      CODE     ---       #221
      0100C433H   LINE      CODE     ---       #222
      0100C433H   LINE      CODE     ---       #223
      0100C434H   LINE      CODE     ---       #225
      0100C434H   LINE      CODE     ---       #227
      0100C43AH   LINE      CODE     ---       #228
      0100C43AH   LINE      CODE     ---       #229
      0100C43FH   LINE      CODE     ---       #236
      0100C444H   LINE      CODE     ---       #237
      0100C449H   LINE      CODE     ---       #240
      0100C450H   LINE      CODE     ---       #243
      0100C462H   LINE      CODE     ---       #244
      0100C462H   LINE      CODE     ---       #246
      0100C473H   LINE      CODE     ---       #247
      0100C479H   LINE      CODE     ---       #250
      0100C481H   LINE      CODE     ---       #253
      0100C488H   LINE      CODE     ---       #257
      0100C48DH   LINE      CODE     ---       #259
      0100C48DH   LINE      CODE     ---       #260
      0100C48DH   LINE      CODE     ---       #263
      0100C495H   LINE      CODE     ---       #264
      0100C495H   LINE      CODE     ---       #266
LX51 LINKER/LOCATER V4.64.0.0                                                         04/04/2018  09:18:43  PAGE 95


      0100C4A6H   LINE      CODE     ---       #268
      0100C4B9H   LINE      CODE     ---       #269
      0100C4C3H   LINE      CODE     ---       #270
      0100C4C4H   LINE      CODE     ---       #272
      0100C4C4H   LINE      CODE     ---       #274
      0100C4D5H   LINE      CODE     ---       #275
      0100C4EAH   LINE      CODE     ---       #276
      0100C4EAH   LINE      CODE     ---       #277
      0100C4EAH   LINE      CODE     ---       #278
      0100C4EAH   LINE      CODE     ---       #279
      ---         BLOCKEND  ---      ---       LVL=0

      0100F1DEH   BLOCK     CODE     ---       LVL=0
      0100F1DEH   LINE      CODE     ---       #297
      0100F1DEH   LINE      CODE     ---       #298
      0100F1DEH   LINE      CODE     ---       #299
      0100F1E7H   LINE      CODE     ---       #300
      ---         BLOCKEND  ---      ---       LVL=0
      00000007H   SYMBOL    DATA     BYTE      modeBitMask
      00000007H   SYMBOL    DATA     BYTE      modeBitMask
      00000007H   SYMBOL    DATA     BYTE      oldSrc

      0100F256H   BLOCK     CODE     ---       LVL=0
      0100F256H   LINE      CODE     ---       #464
      0100F256H   LINE      CODE     ---       #465
      0100F256H   LINE      CODE     ---       #466
      0100F25DH   LINE      CODE     ---       #467
      ---         BLOCKEND  ---      ---       LVL=0

      ---         MODULE    ---      ---       ISR_RS485_RX
      0100F29DH   PUBLIC    CODE     ---       ISR_RS485_RX_Disable
      0100F296H   PUBLIC    CODE     ---       ISR_RS485_RX_Enable
      0100F1E8H   PUBLIC    CODE     ---       _ISR_RS485_RX_SetPriority
      0100F0DCH   PUBLIC    CODE     ---       _ISR_RS485_RX_SetVector
      0100EC27H   PUBLIC    CODE     ---       ISR_RS485_RX_Interrupt
      0100EDC5H   PUBLIC    CODE     ---       _ISR_RS485_RX_StartEx
      000000CAH   SFRSYM    DATA     BYTE      SFRPRT5SEL
      000000DAH   SFRSYM    DATA     BYTE      SFRPRT6SEL
      000000D0H.6 SFRSYM    DATA     BIT       AC
      000000A8H.7 SFRSYM    DATA     BIT       EA
      000000A8H   SFRSYM    DATA     BYTE      IE
      00000085H   SFRSYM    DATA     BYTE      DPH1
      00000084H   SFRSYM    DATA     BYTE      DPL1
      000000D0H.7 SFRSYM    DATA     BIT       CY
      000000A0H   SFRSYM    DATA     BYTE      P2AX
      00000095H   SFRSYM    DATA     BYTE      DPX1
      00000081H   SFRSYM    DATA     BYTE      SP
      000000D0H.2 SFRSYM    DATA     BIT       OV
      00000080H   SFRSYM    DATA     BYTE      SFRPRT0DR
      00000090H   SFRSYM    DATA     BYTE      SFRPRT1DR
      000000F2H   SFRSYM    DATA     BYTE      SFRPRT12SEL
      00000098H   SFRSYM    DATA     BYTE      SFRPRT2DR
      000000B0H   SFRSYM    DATA     BYTE      SFRPRT3DR
      000000C0H   SFRSYM    DATA     BYTE      SFRPRT4DR
      000000FAH   SFRSYM    DATA     BYTE      SFRPRT15SEL
      000000C8H   SFRSYM    DATA     BYTE      SFRPRT5DR
      000000D8H   SFRSYM    DATA     BYTE      SFRPRT6DR
      00000089H   SFRSYM    DATA     BYTE      SFRPRT0PS
      00000091H   SFRSYM    DATA     BYTE      SFRPRT1PS
      00000099H   SFRSYM    DATA     BYTE      SFRPRT2PS
      000000B1H   SFRSYM    DATA     BYTE      SFRPRT3PS
      000000C1H   SFRSYM    DATA     BYTE      SFRPRT4PS
      000000C9H   SFRSYM    DATA     BYTE      SFRPRT5PS
      000000D9H   SFRSYM    DATA     BYTE      SFRPRT6PS
      000000EAH   SFRSYM    DATA     BYTE      MXAX
LX51 LINKER/LOCATER V4.64.0.0                                                         04/04/2018  09:18:43  PAGE 96


      000000F0H   SFRSYM    DATA     BYTE      B
      000000E0H   SFRSYM    DATA     BYTE      ACC
      000000D0H   SFRSYM    DATA     BIT       P
      000000D0H.3 SFRSYM    DATA     BIT       RS0
      000000D0H.4 SFRSYM    DATA     BIT       RS1
      00000083H   SFRSYM    DATA     BYTE      DPH
      000000E8H   SFRSYM    DATA     BYTE      SFRPRT12DR
      00000082H   SFRSYM    DATA     BYTE      DPL
      000000F8H   SFRSYM    DATA     BYTE      SFRPRT15DR
      00000086H   SFRSYM    DATA     BYTE      DPS
      000000E9H   SFRSYM    DATA     BYTE      SFRPRT12PS
      00000093H   SFRSYM    DATA     BYTE      DPX
      000000F9H   SFRSYM    DATA     BYTE      SFRPRT15PS
      000000D0H.5 SFRSYM    DATA     BIT       F0
      000000D0H.1 SFRSYM    DATA     BIT       F1
      0000008AH   SFRSYM    DATA     BYTE      SFRPRT0SEL
      000000D0H   SFRSYM    DATA     BYTE      PSW
      000000A2H   SFRSYM    DATA     BYTE      SFRPRT1SEL
      0000009AH   SFRSYM    DATA     BYTE      SFRPRT2SEL
      000000B2H   SFRSYM    DATA     BYTE      SFRPRT3SEL
      000000C2H   SFRSYM    DATA     BYTE      SFRPRT4SEL

      0100EDC5H   BLOCK     CODE     ---       LVL=0
      02000002H   SYMBOL    XDATA    ---       address
      0100EDC5H   LINE      CODE     ---       #94
      0100EDCDH   LINE      CODE     ---       #95
      0100EDCDH   LINE      CODE     ---       #97
      0100EDD0H   LINE      CODE     ---       #100
      0100EDDBH   LINE      CODE     ---       #103
      0100EDE0H   LINE      CODE     ---       #106
      0100EDE3H   LINE      CODE     ---       #107
      ---         BLOCKEND  ---      ---       LVL=0

      0100EC27H   BLOCK     CODE     ---       LVL=0
      0100EC27H   LINE      CODE     ---       #151
      0100EC27H   LINE      CODE     ---       #168
      ---         BLOCKEND  ---      ---       LVL=0

      0100F0DCH   BLOCK     CODE     ---       LVL=0
      00000006H   SYMBOL    DATA     ---       address
      0100F0DCH   LINE      CODE     ---       #198
      0100F0DCH   LINE      CODE     ---       #199
      0100F0DCH   LINE      CODE     ---       #200
      0100F0E9H   LINE      CODE     ---       #201
      ---         BLOCKEND  ---      ---       LVL=0

      0100F1E8H   BLOCK     CODE     ---       LVL=0
      00000007H   SYMBOL    DATA     BYTE      priority
      0100F1E8H   LINE      CODE     ---       #248
      0100F1E8H   LINE      CODE     ---       #249
      0100F1E8H   LINE      CODE     ---       #250
      0100F1F1H   LINE      CODE     ---       #251
      ---         BLOCKEND  ---      ---       LVL=0
      00000007H   SYMBOL    DATA     BYTE      priority

      0100F296H   BLOCK     CODE     ---       LVL=0
      0100F296H   LINE      CODE     ---       #297
      0100F296H   LINE      CODE     ---       #298
      0100F296H   LINE      CODE     ---       #300
      0100F29CH   LINE      CODE     ---       #301
      ---         BLOCKEND  ---      ---       LVL=0

      0100F29DH   BLOCK     CODE     ---       LVL=0
      0100F29DH   LINE      CODE     ---       #339
      0100F29DH   LINE      CODE     ---       #340
LX51 LINKER/LOCATER V4.64.0.0                                                         04/04/2018  09:18:43  PAGE 97


      0100F29DH   LINE      CODE     ---       #342
      0100F2A3H   LINE      CODE     ---       #343
      ---         BLOCKEND  ---      ---       LVL=0

      ---         MODULE    ---      ---       PWM_MOTORS
      02001327H   PUBLIC    XDATA    BYTE      PWM_MOTORS_initVar
      0100F2CBH   PUBLIC    CODE     ---       _PWM_MOTORS_WriteCompare2
      0100F2C5H   PUBLIC    CODE     ---       _PWM_MOTORS_WriteCompare1
      0100F2BFH   PUBLIC    CODE     ---       _PWM_MOTORS_WritePeriod
      0100F2B9H   PUBLIC    CODE     ---       _PWM_MOTORS_WriteCounter
      0100F25EH   PUBLIC    CODE     ---       PWM_MOTORS_Enable
      0100ECD3H   PUBLIC    CODE     ---       PWM_MOTORS_Init
      0100E9EDH   PUBLIC    CODE     ---       PWM_MOTORS_Start
      000000CAH   SFRSYM    DATA     BYTE      SFRPRT5SEL
      000000DAH   SFRSYM    DATA     BYTE      SFRPRT6SEL
      000000D0H.6 SFRSYM    DATA     BIT       AC
      000000A8H.7 SFRSYM    DATA     BIT       EA
      000000A8H   SFRSYM    DATA     BYTE      IE
      00000085H   SFRSYM    DATA     BYTE      DPH1
      00000084H   SFRSYM    DATA     BYTE      DPL1
      000000D0H.7 SFRSYM    DATA     BIT       CY
      000000A0H   SFRSYM    DATA     BYTE      P2AX
      00000095H   SFRSYM    DATA     BYTE      DPX1
      00000081H   SFRSYM    DATA     BYTE      SP
      000000D0H.2 SFRSYM    DATA     BIT       OV
      00000080H   SFRSYM    DATA     BYTE      SFRPRT0DR
      00000090H   SFRSYM    DATA     BYTE      SFRPRT1DR
      000000F2H   SFRSYM    DATA     BYTE      SFRPRT12SEL
      00000098H   SFRSYM    DATA     BYTE      SFRPRT2DR
      000000B0H   SFRSYM    DATA     BYTE      SFRPRT3DR
      000000C0H   SFRSYM    DATA     BYTE      SFRPRT4DR
      000000FAH   SFRSYM    DATA     BYTE      SFRPRT15SEL
      000000C8H   SFRSYM    DATA     BYTE      SFRPRT5DR
      000000D8H   SFRSYM    DATA     BYTE      SFRPRT6DR
      00000089H   SFRSYM    DATA     BYTE      SFRPRT0PS
      00000091H   SFRSYM    DATA     BYTE      SFRPRT1PS
      00000099H   SFRSYM    DATA     BYTE      SFRPRT2PS
      000000B1H   SFRSYM    DATA     BYTE      SFRPRT3PS
      000000C1H   SFRSYM    DATA     BYTE      SFRPRT4PS
      000000C9H   SFRSYM    DATA     BYTE      SFRPRT5PS
      000000D9H   SFRSYM    DATA     BYTE      SFRPRT6PS
      000000EAH   SFRSYM    DATA     BYTE      MXAX
      000000F0H   SFRSYM    DATA     BYTE      B
      000000E0H   SFRSYM    DATA     BYTE      ACC
      000000D0H   SFRSYM    DATA     BIT       P
      000000D0H.3 SFRSYM    DATA     BIT       RS0
      000000D0H.4 SFRSYM    DATA     BIT       RS1
      00000083H   SFRSYM    DATA     BYTE      DPH
      000000E8H   SFRSYM    DATA     BYTE      SFRPRT12DR
      00000082H   SFRSYM    DATA     BYTE      DPL
      000000F8H   SFRSYM    DATA     BYTE      SFRPRT15DR
      00000086H   SFRSYM    DATA     BYTE      DPS
      000000E9H   SFRSYM    DATA     BYTE      SFRPRT12PS
      00000093H   SFRSYM    DATA     BYTE      DPX
      000000F9H   SFRSYM    DATA     BYTE      SFRPRT15PS
      000000D0H.5 SFRSYM    DATA     BIT       F0
      000000D0H.1 SFRSYM    DATA     BIT       F1
      0000008AH   SFRSYM    DATA     BYTE      SFRPRT0SEL
      000000D0H   SFRSYM    DATA     BYTE      PSW
      000000A2H   SFRSYM    DATA     BYTE      SFRPRT1SEL
      0000009AH   SFRSYM    DATA     BYTE      SFRPRT2SEL
      000000B2H   SFRSYM    DATA     BYTE      SFRPRT3SEL
      000000C2H   SFRSYM    DATA     BYTE      SFRPRT4SEL

      0100E9EDH   BLOCK     CODE     ---       LVL=0
LX51 LINKER/LOCATER V4.64.0.0                                                         04/04/2018  09:18:43  PAGE 98


      0100E9EDH   LINE      CODE     ---       #55
      0100E9EDH   LINE      CODE     ---       #56
      0100E9EDH   LINE      CODE     ---       #58
      0100E9F3H   LINE      CODE     ---       #59
      0100E9F3H   LINE      CODE     ---       #60
      0100E9F6H   LINE      CODE     ---       #61
      0100E9FCH   LINE      CODE     ---       #62
      0100E9FCH   LINE      CODE     ---       #63
      0100E9FFH   LINE      CODE     ---       #65
      ---         BLOCKEND  ---      ---       LVL=0

      0100ECD3H   BLOCK     CODE     ---       LVL=0
      0100ECD3H   BLOCK     CODE     NEAR LAB  LVL=1
      00000007H   SYMBOL    DATA     BYTE      ctrl
      ---         BLOCKEND  ---      ---       LVL=1
      0100ECD3H   LINE      CODE     ---       #84
      0100ECD3H   LINE      CODE     ---       #85
      0100ECD3H   LINE      CODE     ---       #118
      0100ECDAH   LINE      CODE     ---       #120
      0100ECDDH   LINE      CODE     ---       #126
      0100ECE4H   LINE      CODE     ---       #133
      0100ECE9H   LINE      CODE     ---       #136
      0100ECEEH   LINE      CODE     ---       #141
      0100ECF3H   LINE      CODE     ---       #142
      0100ECF8H   LINE      CODE     ---       #179
      ---         BLOCKEND  ---      ---       LVL=0

      0100F25EH   BLOCK     CODE     ---       LVL=0
      0100F25EH   LINE      CODE     ---       #199
      0100F25EH   LINE      CODE     ---       #200
      0100F25EH   LINE      CODE     ---       #209
      0100F265H   LINE      CODE     ---       #211
      ---         BLOCKEND  ---      ---       LVL=0

      0100F2B9H   BLOCK     CODE     ---       LVL=0
      00000007H   SYMBOL    DATA     BYTE      counter
      0100F2B9H   LINE      CODE     ---       #403
      0100F2B9H   LINE      CODE     ---       #405
      0100F2B9H   LINE      CODE     ---       #406
      0100F2BEH   LINE      CODE     ---       #407
      ---         BLOCKEND  ---      ---       LVL=0

      0100F2BFH   BLOCK     CODE     ---       LVL=0
      00000007H   SYMBOL    DATA     BYTE      period
      0100F2BFH   LINE      CODE     ---       #482
      0100F2BFH   LINE      CODE     ---       #483
      0100F2BFH   LINE      CODE     ---       #487
      0100F2C4H   LINE      CODE     ---       #489
      ---         BLOCKEND  ---      ---       LVL=0

      0100F2C5H   BLOCK     CODE     ---       LVL=0
      00000007H   SYMBOL    DATA     BYTE      compare
      0100F2C5H   LINE      CODE     ---       #555
      0100F2C5H   LINE      CODE     ---       #557
      0100F2C5H   LINE      CODE     ---       #561
      0100F2CAH   LINE      CODE     ---       #563
      ---         BLOCKEND  ---      ---       LVL=0

      0100F2CBH   BLOCK     CODE     ---       LVL=0
      00000007H   SYMBOL    DATA     BYTE      compare
      0100F2CBH   LINE      CODE     ---       #584
      0100F2CBH   LINE      CODE     ---       #586
      0100F2CBH   LINE      CODE     ---       #590
      0100F2D0H   LINE      CODE     ---       #592
      ---         BLOCKEND  ---      ---       LVL=0
LX51 LINKER/LOCATER V4.64.0.0                                                         04/04/2018  09:18:43  PAGE 99


      00000007H   SYMBOL    DATA     BYTE      result
      00000007H   SYMBOL    DATA     BYTE      control

      ---         MODULE    ---      ---       PACER_TIMER
      02001328H   PUBLIC    XDATA    BYTE      PACER_TIMER_initVar
      0100F0F8H   PUBLIC    CODE     ---       _PACER_TIMER_WriteCounter
      0100F0EAH   PUBLIC    CODE     ---       _PACER_TIMER_WritePeriod
      0100F2D1H   PUBLIC    CODE     ---       _PACER_TIMER_SetInterruptMode
      0100EF9AH   PUBLIC    CODE     ---       PACER_TIMER_Start
      0100EEF2H   PUBLIC    CODE     ---       PACER_TIMER_Enable
      0100E898H   PUBLIC    CODE     ---       PACER_TIMER_Init
      000000CAH   SFRSYM    DATA     BYTE      SFRPRT5SEL
      000000DAH   SFRSYM    DATA     BYTE      SFRPRT6SEL
      000000D0H.6 SFRSYM    DATA     BIT       AC
      000000A8H.7 SFRSYM    DATA     BIT       EA
      000000A8H   SFRSYM    DATA     BYTE      IE
      00000085H   SFRSYM    DATA     BYTE      DPH1
      00000084H   SFRSYM    DATA     BYTE      DPL1
      000000D0H.7 SFRSYM    DATA     BIT       CY
      000000A0H   SFRSYM    DATA     BYTE      P2AX
      00000095H   SFRSYM    DATA     BYTE      DPX1
      00000081H   SFRSYM    DATA     BYTE      SP
      000000D0H.2 SFRSYM    DATA     BIT       OV
      00000080H   SFRSYM    DATA     BYTE      SFRPRT0DR
      00000090H   SFRSYM    DATA     BYTE      SFRPRT1DR
      000000F2H   SFRSYM    DATA     BYTE      SFRPRT12SEL
      00000098H   SFRSYM    DATA     BYTE      SFRPRT2DR
      000000B0H   SFRSYM    DATA     BYTE      SFRPRT3DR
      000000C0H   SFRSYM    DATA     BYTE      SFRPRT4DR
      000000FAH   SFRSYM    DATA     BYTE      SFRPRT15SEL
      000000C8H   SFRSYM    DATA     BYTE      SFRPRT5DR
      000000D8H   SFRSYM    DATA     BYTE      SFRPRT6DR
      00000089H   SFRSYM    DATA     BYTE      SFRPRT0PS
      00000091H   SFRSYM    DATA     BYTE      SFRPRT1PS
      00000099H   SFRSYM    DATA     BYTE      SFRPRT2PS
      000000B1H   SFRSYM    DATA     BYTE      SFRPRT3PS
      000000C1H   SFRSYM    DATA     BYTE      SFRPRT4PS
      000000C9H   SFRSYM    DATA     BYTE      SFRPRT5PS
      000000D9H   SFRSYM    DATA     BYTE      SFRPRT6PS
      000000EAH   SFRSYM    DATA     BYTE      MXAX
      000000F0H   SFRSYM    DATA     BYTE      B
      000000E0H   SFRSYM    DATA     BYTE      ACC
      000000D0H   SFRSYM    DATA     BIT       P
      000000D0H.3 SFRSYM    DATA     BIT       RS0
      000000D0H.4 SFRSYM    DATA     BIT       RS1
      00000083H   SFRSYM    DATA     BYTE      DPH
      000000E8H   SFRSYM    DATA     BYTE      SFRPRT12DR
      00000082H   SFRSYM    DATA     BYTE      DPL
      000000F8H   SFRSYM    DATA     BYTE      SFRPRT15DR
      00000086H   SFRSYM    DATA     BYTE      DPS
      000000E9H   SFRSYM    DATA     BYTE      SFRPRT12PS
      00000093H   SFRSYM    DATA     BYTE      DPX
      000000F9H   SFRSYM    DATA     BYTE      SFRPRT15PS
      000000D0H.5 SFRSYM    DATA     BIT       F0
      000000D0H.1 SFRSYM    DATA     BIT       F1
      0000008AH   SFRSYM    DATA     BYTE      SFRPRT0SEL
      000000D0H   SFRSYM    DATA     BYTE      PSW
      000000A2H   SFRSYM    DATA     BYTE      SFRPRT1SEL
      0000009AH   SFRSYM    DATA     BYTE      SFRPRT2SEL
      000000B2H   SFRSYM    DATA     BYTE      SFRPRT3SEL
      000000C2H   SFRSYM    DATA     BYTE      SFRPRT4SEL

      0100E898H   BLOCK     CODE     ---       LVL=0
      0100E898H   LINE      CODE     ---       #43
      0100E898H   LINE      CODE     ---       #44
LX51 LINKER/LOCATER V4.64.0.0                                                         04/04/2018  09:18:43  PAGE 100


      0100E898H   LINE      CODE     ---       #52
      0100E89FH   LINE      CODE     ---       #60
      0100E8A6H   LINE      CODE     ---       #106
      0100E8ADH   LINE      CODE     ---       #107
      0100E8B1H   LINE      CODE     ---       #110
      0100E8B5H   LINE      CODE     ---       #111
      0100E8B9H   LINE      CODE     ---       #114
      0100E8C0H   LINE      CODE     ---       #118
      0100E8C7H   LINE      CODE     ---       #119
      0100E8CEH   LINE      CODE     ---       #162
      0100E8D3H   LINE      CODE     ---       #163
      ---         BLOCKEND  ---      ---       LVL=0

      0100EEF2H   BLOCK     CODE     ---       LVL=0
      0100EEF2H   LINE      CODE     ---       #180
      0100EEF2H   LINE      CODE     ---       #181
      0100EEF2H   LINE      CODE     ---       #184
      0100EEF9H   LINE      CODE     ---       #185
      0100EF00H   LINE      CODE     ---       #190
      0100EF07H   LINE      CODE     ---       #192
      ---         BLOCKEND  ---      ---       LVL=0

      0100EF9AH   BLOCK     CODE     ---       LVL=0
      0100EF9AH   LINE      CODE     ---       #215
      0100EF9AH   LINE      CODE     ---       #216
      0100EF9AH   LINE      CODE     ---       #217
      0100EFA0H   LINE      CODE     ---       #218
      0100EFA0H   LINE      CODE     ---       #219
      0100EFA3H   LINE      CODE     ---       #221
      0100EFA9H   LINE      CODE     ---       #222
      0100EFA9H   LINE      CODE     ---       #225
      0100EFACH   LINE      CODE     ---       #226
      ---         BLOCKEND  ---      ---       LVL=0

      0100F2D1H   BLOCK     CODE     ---       LVL=0
      00000007H   SYMBOL    DATA     BYTE      interruptMode
      0100F2D1H   LINE      CODE     ---       #279
      0100F2D1H   LINE      CODE     ---       #280
      0100F2D1H   LINE      CODE     ---       #281
      0100F2D6H   LINE      CODE     ---       #282
      ---         BLOCKEND  ---      ---       LVL=0
      00000007H   SYMBOL    DATA     BYTE      control

      0100F0EAH   BLOCK     CODE     ---       LVL=0
      00000006H   SYMBOL    DATA     WORD      period
      0100F0EAH   BLOCK     CODE     NEAR LAB  LVL=1
      00000006H   SYMBOL    DATA     WORD      period_temp
      ---         BLOCKEND  ---      ---       LVL=1
      0100F0EAH   LINE      CODE     ---       #431
      0100F0EAH   LINE      CODE     ---       #432
      0100F0EAH   LINE      CODE     ---       #434
      0100F0EAH   LINE      CODE     ---       #435
      0100F0F7H   LINE      CODE     ---       #439
      ---         BLOCKEND  ---      ---       LVL=0

      0100F0F8H   BLOCK     CODE     ---       LVL=0
      00000006H   SYMBOL    DATA     WORD      counter
      0100F0F8H   LINE      CODE     ---       #480
      0100F0F8H   LINE      CODE     ---       #481
      0100F0F8H   LINE      CODE     ---       #486
      0100F105H   LINE      CODE     ---       #491
      ---         BLOCKEND  ---      ---       LVL=0

      ---         MODULE    ---      ---       UART_RS485
      020012F6H   PUBLIC    XDATA    BYTE      UART_RS485_errorStatus
LX51 LINKER/LOCATER V4.64.0.0                                                         04/04/2018  09:18:43  PAGE 101


      020012F5H   PUBLIC    XDATA    BYTE      UART_RS485_rxBufferOverflow
      020012F4H   PUBLIC    XDATA    BYTE      UART_RS485_initVar
      020012F3H   PUBLIC    XDATA    BYTE      UART_RS485_rxBufferWrite
      020012D3H   PUBLIC    XDATA    ---       UART_RS485_rxBuffer
      020012D2H   PUBLIC    XDATA    BYTE      UART_RS485_rxBufferRead
      020012D1H   PUBLIC    XDATA    BYTE      UART_RS485_rxBufferLoopDetect
      0100F058H   PUBLIC    CODE     ---       UART_RS485_ClearTxBuffer
      0100EA3BH   PUBLIC    CODE     ---       _UART_RS485_PutString
      0100F14CH   PUBLIC    CODE     ---       _UART_RS485_PutChar
      0100F2D7H   PUBLIC    CODE     ---       UART_RS485_ReadTxStatus
      0100EBCAH   PUBLIC    CODE     ---       UART_RS485_ClearRxBuffer
      0100E554H   PUBLIC    CODE     ---       UART_RS485_GetRxBufferSize
      0100E353H   PUBLIC    CODE     ---       UART_RS485_GetChar
      0100EF86H   PUBLIC    CODE     ---       UART_RS485_ReadRxStatus
      0100ED41H   PUBLIC    CODE     ---       UART_RS485_Stop
      0100ED1FH   PUBLIC    CODE     ---       UART_RS485_Enable
      0100EAA3H   PUBLIC    CODE     ---       UART_RS485_Init
      0100EFADH   PUBLIC    CODE     ---       UART_RS485_Start
      000000CAH   SFRSYM    DATA     BYTE      SFRPRT5SEL
      000000DAH   SFRSYM    DATA     BYTE      SFRPRT6SEL
      000000D0H.6 SFRSYM    DATA     BIT       AC
      000000A8H.7 SFRSYM    DATA     BIT       EA
      000000A8H   SFRSYM    DATA     BYTE      IE
      00000085H   SFRSYM    DATA     BYTE      DPH1
      00000084H   SFRSYM    DATA     BYTE      DPL1
      000000D0H.7 SFRSYM    DATA     BIT       CY
      000000A0H   SFRSYM    DATA     BYTE      P2AX
      00000095H   SFRSYM    DATA     BYTE      DPX1
      00000081H   SFRSYM    DATA     BYTE      SP
      000000D0H.2 SFRSYM    DATA     BIT       OV
      00000080H   SFRSYM    DATA     BYTE      SFRPRT0DR
      00000090H   SFRSYM    DATA     BYTE      SFRPRT1DR
      000000F2H   SFRSYM    DATA     BYTE      SFRPRT12SEL
      00000098H   SFRSYM    DATA     BYTE      SFRPRT2DR
      000000B0H   SFRSYM    DATA     BYTE      SFRPRT3DR
      000000C0H   SFRSYM    DATA     BYTE      SFRPRT4DR
      000000FAH   SFRSYM    DATA     BYTE      SFRPRT15SEL
      000000C8H   SFRSYM    DATA     BYTE      SFRPRT5DR
      000000D8H   SFRSYM    DATA     BYTE      SFRPRT6DR
      00000089H   SFRSYM    DATA     BYTE      SFRPRT0PS
      00000091H   SFRSYM    DATA     BYTE      SFRPRT1PS
      00000099H   SFRSYM    DATA     BYTE      SFRPRT2PS
      000000B1H   SFRSYM    DATA     BYTE      SFRPRT3PS
      000000C1H   SFRSYM    DATA     BYTE      SFRPRT4PS
      000000C9H   SFRSYM    DATA     BYTE      SFRPRT5PS
      000000D9H   SFRSYM    DATA     BYTE      SFRPRT6PS
      000000EAH   SFRSYM    DATA     BYTE      MXAX
      000000F0H   SFRSYM    DATA     BYTE      B
      000000E0H   SFRSYM    DATA     BYTE      ACC
      000000D0H   SFRSYM    DATA     BIT       P
      000000D0H.3 SFRSYM    DATA     BIT       RS0
      000000D0H.4 SFRSYM    DATA     BIT       RS1
      00000083H   SFRSYM    DATA     BYTE      DPH
      000000E8H   SFRSYM    DATA     BYTE      SFRPRT12DR
      00000082H   SFRSYM    DATA     BYTE      DPL
      000000F8H   SFRSYM    DATA     BYTE      SFRPRT15DR
      00000086H   SFRSYM    DATA     BYTE      DPS
      000000E9H   SFRSYM    DATA     BYTE      SFRPRT12PS
      00000093H   SFRSYM    DATA     BYTE      DPX
      000000F9H   SFRSYM    DATA     BYTE      SFRPRT15PS
      000000D0H.5 SFRSYM    DATA     BIT       F0
      000000D0H.1 SFRSYM    DATA     BIT       F1
      0000008AH   SFRSYM    DATA     BYTE      SFRPRT0SEL
      000000D0H   SFRSYM    DATA     BYTE      PSW
      000000A2H   SFRSYM    DATA     BYTE      SFRPRT1SEL
LX51 LINKER/LOCATER V4.64.0.0                                                         04/04/2018  09:18:43  PAGE 102


      0000009AH   SFRSYM    DATA     BYTE      SFRPRT2SEL
      000000B2H   SFRSYM    DATA     BYTE      SFRPRT3SEL
      000000C2H   SFRSYM    DATA     BYTE      SFRPRT4SEL

      0100EFADH   BLOCK     CODE     ---       LVL=0
      0100EFADH   LINE      CODE     ---       #76
      0100EFADH   LINE      CODE     ---       #77
      0100EFADH   LINE      CODE     ---       #79
      0100EFB3H   LINE      CODE     ---       #80
      0100EFB3H   LINE      CODE     ---       #81
      0100EFB6H   LINE      CODE     ---       #82
      0100EFBCH   LINE      CODE     ---       #83
      0100EFBCH   LINE      CODE     ---       #85
      0100EFBFH   LINE      CODE     ---       #86
      ---         BLOCKEND  ---      ---       LVL=0

      0100EAA3H   BLOCK     CODE     ---       LVL=0
      0100EAA3H   LINE      CODE     ---       #106
      0100EAA3H   LINE      CODE     ---       #107
      0100EAA3H   LINE      CODE     ---       #112
      0100EAACH   LINE      CODE     ---       #113
      0100EAB3H   LINE      CODE     ---       #114
      0100EAB8H   LINE      CODE     ---       #124
      0100EABEH   LINE      CODE     ---       #126
      0100EAC4H   LINE      CODE     ---       #138
      0100EACAH   LINE      CODE     ---       #139
      0100EAD0H   LINE      CODE     ---       #150
      0100EAD5H   LINE      CODE     ---       #160
      ---         BLOCKEND  ---      ---       LVL=0

      0100ED1FH   BLOCK     CODE     ---       LVL=0
      0100ED1FH   BLOCK     CODE     NEAR LAB  LVL=1
      00000007H   SYMBOL    DATA     BYTE      enableInterrupts
      ---         BLOCKEND  ---      ---       LVL=1
      0100ED1FH   LINE      CODE     ---       #183
      0100ED1FH   LINE      CODE     ---       #184
      0100ED1FH   LINE      CODE     ---       #186
      0100ED22H   LINE      CODE     ---       #190
      0100ED29H   LINE      CODE     ---       #193
      0100ED30H   LINE      CODE     ---       #196
      0100ED36H   LINE      CODE     ---       #211
      0100ED3DH   LINE      CODE     ---       #222
      0100ED40H   LINE      CODE     ---       #223
      ---         BLOCKEND  ---      ---       LVL=0

      0100ED41H   BLOCK     CODE     ---       LVL=0
      0100ED41H   BLOCK     CODE     NEAR LAB  LVL=1
      00000007H   SYMBOL    DATA     BYTE      enableInterrupts
      ---         BLOCKEND  ---      ---       LVL=1
      0100ED41H   LINE      CODE     ---       #240
      0100ED41H   LINE      CODE     ---       #241
      0100ED41H   LINE      CODE     ---       #243
      0100ED44H   LINE      CODE     ---       #247
      0100ED4BH   LINE      CODE     ---       #262
      0100ED52H   LINE      CODE     ---       #265
      0100ED58H   LINE      CODE     ---       #270
      0100ED5FH   LINE      CODE     ---       #277
      0100ED62H   LINE      CODE     ---       #278
      ---         BLOCKEND  ---      ---       LVL=0
      00000007H   SYMBOL    DATA     BYTE      intSrc
      00000007H   SYMBOL    DATA     BYTE      rxData
      00000006H   SYMBOL    DATA     BYTE      locRxBufferRead
      00000005H   SYMBOL    DATA     BYTE      locRxBufferWrite

      0100EF86H   BLOCK     CODE     ---       LVL=0
LX51 LINKER/LOCATER V4.64.0.0                                                         04/04/2018  09:18:43  PAGE 103


      0100EF86H   BLOCK     CODE     NEAR LAB  LVL=1
      00000007H   SYMBOL    DATA     BYTE      status
      ---         BLOCKEND  ---      ---       LVL=1
      0100EF86H   LINE      CODE     ---       #485
      0100EF86H   LINE      CODE     ---       #486
      0100EF86H   LINE      CODE     ---       #489
      0100EF8DH   LINE      CODE     ---       #492
      0100EF93H   LINE      CODE     ---       #493
      0100EF93H   LINE      CODE     ---       #494
      0100EF97H   LINE      CODE     ---       #495
      0100EF99H   LINE      CODE     ---       #496
      0100EF99H   LINE      CODE     ---       #499
      0100EF99H   LINE      CODE     ---       #500
      ---         BLOCKEND  ---      ---       LVL=0

      0100E353H   BLOCK     CODE     ---       LVL=0
      0100E353H   BLOCK     CODE     NEAR LAB  LVL=1
      00000007H   SYMBOL    DATA     BYTE      rxData
      00000006H   SYMBOL    DATA     BYTE      rxStatus
      00000006H   SYMBOL    DATA     BYTE      locRxBufferRead
      00000005H   SYMBOL    DATA     BYTE      locRxBufferWrite
      ---         BLOCKEND  ---      ---       LVL=1
      0100E353H   LINE      CODE     ---       #532
      0100E353H   LINE      CODE     ---       #533
      0100E353H   LINE      CODE     ---       #534
      0100E355H   LINE      CODE     ---       #542
      0100E35BH   LINE      CODE     ---       #544
      0100E360H   LINE      CODE     ---       #545
      0100E365H   LINE      CODE     ---       #547
      0100E36FH   LINE      CODE     ---       #548
      0100E36FH   LINE      CODE     ---       #549
      0100E37BH   LINE      CODE     ---       #550
      0100E37CH   LINE      CODE     ---       #551
      0100E382H   LINE      CODE     ---       #552
      0100E382H   LINE      CODE     ---       #553
      0100E384H   LINE      CODE     ---       #554
      0100E384H   LINE      CODE     ---       #556
      0100E389H   LINE      CODE     ---       #558
      0100E38FH   LINE      CODE     ---       #559
      0100E38FH   LINE      CODE     ---       #560
      0100E391H   LINE      CODE     ---       #575
      0100E391H   LINE      CODE     ---       #577
      0100E393H   LINE      CODE     ---       #579
      0100E398H   LINE      CODE     ---       #580
      0100E39BH   LINE      CODE     ---       #581
      0100E39BH   LINE      CODE     ---       #582
      0100E3A0H   LINE      CODE     ---       #585
      0100E3A5H   LINE      CODE     ---       #586
      0100E3A5H   LINE      CODE     ---       #587
      0100E3A7H   LINE      CODE     ---       #588
      0100E3A7H   LINE      CODE     ---       #589
      0100E3A7H   LINE      CODE     ---       #590
      0100E3A7H   LINE      CODE     ---       #592
      0100E3ADH   LINE      CODE     ---       #611
      0100E3ADH   LINE      CODE     ---       #612
      ---         BLOCKEND  ---      ---       LVL=0
      00000002H   SYMBOL    DATA     WORD      locErrorStatus

      0100E554H   BLOCK     CODE     ---       LVL=0
      0100E554H   BLOCK     CODE     NEAR LAB  LVL=1
      00000007H   SYMBOL    DATA     BYTE      size
      ---         BLOCKEND  ---      ---       LVL=1
      0100E554H   LINE      CODE     ---       #683
      0100E554H   LINE      CODE     ---       #685
      0100E554H   LINE      CODE     ---       #691
LX51 LINKER/LOCATER V4.64.0.0                                                         04/04/2018  09:18:43  PAGE 104


      0100E55AH   LINE      CODE     ---       #693
      0100E566H   LINE      CODE     ---       #694
      0100E566H   LINE      CODE     ---       #695
      0100E56CH   LINE      CODE     ---       #696
      0100E56CH   LINE      CODE     ---       #697
      0100E56EH   LINE      CODE     ---       #698
      0100E570H   LINE      CODE     ---       #700
      0100E570H   LINE      CODE     ---       #701
      0100E572H   LINE      CODE     ---       #702
      0100E572H   LINE      CODE     ---       #703
      0100E574H   LINE      CODE     ---       #704
      0100E581H   LINE      CODE     ---       #705
      0100E581H   LINE      CODE     ---       #706
      0100E58AH   LINE      CODE     ---       #707
      0100E58CH   LINE      CODE     ---       #709
      0100E58CH   LINE      CODE     ---       #710
      0100E59CH   LINE      CODE     ---       #711
      0100E59CH   LINE      CODE     ---       #713
      0100E5A2H   LINE      CODE     ---       #722
      0100E5A2H   LINE      CODE     ---       #723
      ---         BLOCKEND  ---      ---       LVL=0

      0100EBCAH   BLOCK     CODE     ---       LVL=0
      0100EBCAH   BLOCK     CODE     NEAR LAB  LVL=1
      00000007H   SYMBOL    DATA     BYTE      enableInterrupts
      ---         BLOCKEND  ---      ---       LVL=1
      0100EBCAH   LINE      CODE     ---       #757
      0100EBCAH   LINE      CODE     ---       #758
      0100EBCAH   LINE      CODE     ---       #762
      0100EBCDH   LINE      CODE     ---       #763
      0100EBD4H   LINE      CODE     ---       #764
      0100EBD8H   LINE      CODE     ---       #765
      0100EBDBH   LINE      CODE     ---       #770
      0100EBE1H   LINE      CODE     ---       #772
      0100EBE6H   LINE      CODE     ---       #773
      0100EBEAH   LINE      CODE     ---       #774
      0100EBEEH   LINE      CODE     ---       #775
      0100EBF2H   LINE      CODE     ---       #777
      0100EBF8H   LINE      CODE     ---       #781
      ---         BLOCKEND  ---      ---       LVL=0
      00000007H   SYMBOL    DATA     BYTE      address
      00000007H   SYMBOL    DATA     BYTE      address
      00000007H   SYMBOL    DATA     BYTE      intSrc
      00000007H   SYMBOL    DATA     BYTE      txDataByte

      0100F2D7H   BLOCK     CODE     ---       LVL=0
      0100F2D7H   LINE      CODE     ---       #1003
      0100F2D7H   LINE      CODE     ---       #1004
      0100F2D7H   LINE      CODE     ---       #1005
      0100F2DCH   LINE      CODE     ---       #1006
      ---         BLOCKEND  ---      ---       LVL=0

      0100F14CH   BLOCK     CODE     ---       LVL=0
      00000007H   SYMBOL    DATA     BYTE      txDataByte
      0100F14CH   LINE      CODE     ---       #1041
      0100F14CH   LINE      CODE     ---       #1042
      0100F14CH   LINE      CODE     ---       #1107
      0100F153H   LINE      CODE     ---       #1108
      0100F153H   LINE      CODE     ---       #1110
      0100F153H   LINE      CODE     ---       #1113
      0100F158H   LINE      CODE     ---       #1116
      ---         BLOCKEND  ---      ---       LVL=0

      0100EA3BH   BLOCK     CODE     ---       LVL=0
      020006C6H   SYMBOL    XDATA    ---       string
LX51 LINKER/LOCATER V4.64.0.0                                                         04/04/2018  09:18:43  PAGE 105


      0100EA46H   BLOCK     CODE     NEAR LAB  LVL=1
      00000004H   SYMBOL    DATA     WORD      bufIndex
      ---         BLOCKEND  ---      ---       LVL=1
      0100EA3BH   LINE      CODE     ---       #1145
      0100EA46H   LINE      CODE     ---       #1146
      0100EA46H   LINE      CODE     ---       #1147
      0100EA49H   LINE      CODE     ---       #1150
      0100EA4FH   LINE      CODE     ---       #1151
      0100EA4FH   LINE      CODE     ---       #1153
      0100EA64H   LINE      CODE     ---       #1154
      0100EA64H   LINE      CODE     ---       #1155
      0100EA67H   LINE      CODE     ---       #1156
      0100EA6CH   LINE      CODE     ---       #1157
      0100EA6EH   LINE      CODE     ---       #1158
      0100EA6EH   LINE      CODE     ---       #1159
      ---         BLOCKEND  ---      ---       LVL=0
      00000005H   SYMBOL    DATA     BYTE      byteCount
      00000006H   SYMBOL    DATA     BYTE      bufIndex
      00000007H   SYMBOL    DATA     BYTE      txDataByte
      00000007H   SYMBOL    DATA     BYTE      size

      0100F058H   BLOCK     CODE     ---       LVL=0
      0100F058H   BLOCK     CODE     NEAR LAB  LVL=1
      00000007H   SYMBOL    DATA     BYTE      enableInterrupts
      ---         BLOCKEND  ---      ---       LVL=1
      0100F058H   LINE      CODE     ---       #1354
      0100F058H   LINE      CODE     ---       #1355
      0100F058H   LINE      CODE     ---       #1358
      0100F05BH   LINE      CODE     ---       #1360
      0100F062H   LINE      CODE     ---       #1361
      0100F066H   LINE      CODE     ---       #1362
      0100F069H   LINE      CODE     ---       #1376
      ---         BLOCKEND  ---      ---       LVL=0
      00000007H   SYMBOL    DATA     BYTE      retMode
      020012D0H   SYMBOL    XDATA    BYTE      txPeriod

      ---         MODULE    ---      ---       MOTOR_DIR
      0100F2DDH   PUBLIC    CODE     ---       _MOTOR_DIR_Write

      0100F2DDH   BLOCK     CODE     ---       LVL=0
      00000007H   SYMBOL    DATA     BYTE      control
      0100F2DDH   LINE      CODE     ---       #37
      0100F2DDH   LINE      CODE     ---       #38
      0100F2DDH   LINE      CODE     ---       #39
      0100F2E2H   LINE      CODE     ---       #40
      ---         BLOCKEND  ---      ---       LVL=0

      ---         MODULE    ---      ---       COUNTER_ENC
      02001329H   PUBLIC    XDATA    BYTE      COUNTER_ENC_initVar
      0100F159H   PUBLIC    CODE     ---       COUNTER_ENC_ClearFIFO
      0100F301H   PUBLIC    CODE     ---       _COUNTER_ENC_WriteCompare
      0100F2FBH   PUBLIC    CODE     ---       _COUNTER_ENC_WritePeriod
      0100F2F5H   PUBLIC    CODE     ---       COUNTER_ENC_ReadCapture
      0100F2EFH   PUBLIC    CODE     ---       _COUNTER_ENC_WriteCounter
      0100F2E9H   PUBLIC    CODE     ---       COUNTER_ENC_ReadStatusRegister
      0100F2E3H   PUBLIC    CODE     ---       _COUNTER_ENC_SetInterruptMode
      0100EFC0H   PUBLIC    CODE     ---       COUNTER_ENC_Start
      0100F266H   PUBLIC    CODE     ---       COUNTER_ENC_Enable
      0100E9B8H   PUBLIC    CODE     ---       COUNTER_ENC_Init
      000000CAH   SFRSYM    DATA     BYTE      SFRPRT5SEL
      000000DAH   SFRSYM    DATA     BYTE      SFRPRT6SEL
      000000D0H.6 SFRSYM    DATA     BIT       AC
      000000A8H.7 SFRSYM    DATA     BIT       EA
      000000A8H   SFRSYM    DATA     BYTE      IE
      00000085H   SFRSYM    DATA     BYTE      DPH1
LX51 LINKER/LOCATER V4.64.0.0                                                         04/04/2018  09:18:43  PAGE 106


      00000084H   SFRSYM    DATA     BYTE      DPL1
      000000D0H.7 SFRSYM    DATA     BIT       CY
      000000A0H   SFRSYM    DATA     BYTE      P2AX
      00000095H   SFRSYM    DATA     BYTE      DPX1
      00000081H   SFRSYM    DATA     BYTE      SP
      000000D0H.2 SFRSYM    DATA     BIT       OV
      00000080H   SFRSYM    DATA     BYTE      SFRPRT0DR
      00000090H   SFRSYM    DATA     BYTE      SFRPRT1DR
      000000F2H   SFRSYM    DATA     BYTE      SFRPRT12SEL
      00000098H   SFRSYM    DATA     BYTE      SFRPRT2DR
      000000B0H   SFRSYM    DATA     BYTE      SFRPRT3DR
      000000C0H   SFRSYM    DATA     BYTE      SFRPRT4DR
      000000FAH   SFRSYM    DATA     BYTE      SFRPRT15SEL
      000000C8H   SFRSYM    DATA     BYTE      SFRPRT5DR
      000000D8H   SFRSYM    DATA     BYTE      SFRPRT6DR
      00000089H   SFRSYM    DATA     BYTE      SFRPRT0PS
      00000091H   SFRSYM    DATA     BYTE      SFRPRT1PS
      00000099H   SFRSYM    DATA     BYTE      SFRPRT2PS
      000000B1H   SFRSYM    DATA     BYTE      SFRPRT3PS
      000000C1H   SFRSYM    DATA     BYTE      SFRPRT4PS
      000000C9H   SFRSYM    DATA     BYTE      SFRPRT5PS
      000000D9H   SFRSYM    DATA     BYTE      SFRPRT6PS
      000000EAH   SFRSYM    DATA     BYTE      MXAX
      000000F0H   SFRSYM    DATA     BYTE      B
      000000E0H   SFRSYM    DATA     BYTE      ACC
      000000D0H   SFRSYM    DATA     BIT       P
      000000D0H.3 SFRSYM    DATA     BIT       RS0
      000000D0H.4 SFRSYM    DATA     BIT       RS1
      00000083H   SFRSYM    DATA     BYTE      DPH
      000000E8H   SFRSYM    DATA     BYTE      SFRPRT12DR
      00000082H   SFRSYM    DATA     BYTE      DPL
      000000F8H   SFRSYM    DATA     BYTE      SFRPRT15DR
      00000086H   SFRSYM    DATA     BYTE      DPS
      000000E9H   SFRSYM    DATA     BYTE      SFRPRT12PS
      00000093H   SFRSYM    DATA     BYTE      DPX
      000000F9H   SFRSYM    DATA     BYTE      SFRPRT15PS
      000000D0H.5 SFRSYM    DATA     BIT       F0
      000000D0H.1 SFRSYM    DATA     BIT       F1
      0000008AH   SFRSYM    DATA     BYTE      SFRPRT0SEL
      000000D0H   SFRSYM    DATA     BYTE      PSW
      000000A2H   SFRSYM    DATA     BYTE      SFRPRT1SEL
      0000009AH   SFRSYM    DATA     BYTE      SFRPRT2SEL
      000000B2H   SFRSYM    DATA     BYTE      SFRPRT3SEL
      000000C2H   SFRSYM    DATA     BYTE      SFRPRT4SEL

      0100E9B8H   BLOCK     CODE     ---       LVL=0
      0100E9B8H   BLOCK     CODE     NEAR LAB  LVL=1
      00000007H   SYMBOL    DATA     BYTE      ctrl
      00000007H   SYMBOL    DATA     BYTE      COUNTER_ENC_interruptState
      ---         BLOCKEND  ---      ---       LVL=1
      0100E9B8H   LINE      CODE     ---       #37
      0100E9B8H   LINE      CODE     ---       #38
      0100E9B8H   LINE      CODE     ---       #79
      0100E9BFH   LINE      CODE     ---       #80
      0100E9C0H   LINE      CODE     ---       #83
      0100E9C4H   LINE      CODE     ---       #88
      0100E9C5H   LINE      CODE     ---       #96
      0100E9C8H   LINE      CODE     ---       #100
      0100E9CDH   LINE      CODE     ---       #102
      0100E9D2H   LINE      CODE     ---       #104
      0100E9D7H   LINE      CODE     ---       #108
      0100E9DAH   LINE      CODE     ---       #110
      0100E9DFH   LINE      CODE     ---       #115
      0100E9E2H   LINE      CODE     ---       #117
      0100E9E9H   LINE      CODE     ---       #120
LX51 LINKER/LOCATER V4.64.0.0                                                         04/04/2018  09:18:43  PAGE 107


      0100E9ECH   LINE      CODE     ---       #123
      ---         BLOCKEND  ---      ---       LVL=0

      0100F266H   BLOCK     CODE     ---       LVL=0
      0100F266H   LINE      CODE     ---       #143
      0100F266H   LINE      CODE     ---       #144
      0100F266H   LINE      CODE     ---       #155
      0100F26DH   LINE      CODE     ---       #158
      ---         BLOCKEND  ---      ---       LVL=0

      0100EFC0H   BLOCK     CODE     ---       LVL=0
      0100EFC0H   LINE      CODE     ---       #178
      0100EFC0H   LINE      CODE     ---       #179
      0100EFC0H   LINE      CODE     ---       #180
      0100EFC6H   LINE      CODE     ---       #181
      0100EFC6H   LINE      CODE     ---       #182
      0100EFC9H   LINE      CODE     ---       #184
      0100EFCFH   LINE      CODE     ---       #185
      0100EFCFH   LINE      CODE     ---       #188
      0100EFD2H   LINE      CODE     ---       #189
      ---         BLOCKEND  ---      ---       LVL=0

      0100F2E3H   BLOCK     CODE     ---       LVL=0
      00000007H   SYMBOL    DATA     BYTE      interruptsMask
      0100F2E3H   LINE      CODE     ---       #237
      0100F2E3H   LINE      CODE     ---       #238
      0100F2E3H   LINE      CODE     ---       #239
      0100F2E8H   LINE      CODE     ---       #240
      ---         BLOCKEND  ---      ---       LVL=0

      0100F2E9H   BLOCK     CODE     ---       LVL=0
      0100F2E9H   LINE      CODE     ---       #261
      0100F2E9H   LINE      CODE     ---       #262
      0100F2E9H   LINE      CODE     ---       #263
      0100F2EEH   LINE      CODE     ---       #264
      ---         BLOCKEND  ---      ---       LVL=0
      00000007H   SYMBOL    DATA     BYTE      control

      0100F2EFH   BLOCK     CODE     ---       LVL=0
      00000007H   SYMBOL    DATA     BYTE      counter
      0100F2EFH   LINE      CODE     ---       #326
      0100F2EFH   LINE      CODE     ---       #328
      0100F2EFH   LINE      CODE     ---       #337
      0100F2F4H   LINE      CODE     ---       #339
      ---         BLOCKEND  ---      ---       LVL=0

      0100F2F5H   BLOCK     CODE     ---       LVL=0
      0100F2F5H   LINE      CODE     ---       #390
      0100F2F5H   LINE      CODE     ---       #391
      0100F2F5H   LINE      CODE     ---       #395
      0100F2FAH   LINE      CODE     ---       #397
      ---         BLOCKEND  ---      ---       LVL=0

      0100F2FBH   BLOCK     CODE     ---       LVL=0
      00000007H   SYMBOL    DATA     BYTE      period
      0100F2FBH   LINE      CODE     ---       #415
      0100F2FBH   LINE      CODE     ---       #416
      0100F2FBH   LINE      CODE     ---       #420
      0100F300H   LINE      CODE     ---       #422
      ---         BLOCKEND  ---      ---       LVL=0

      0100F301H   BLOCK     CODE     ---       LVL=0
      00000007H   SYMBOL    DATA     BYTE      compare
      0100F301H   LINE      CODE     ---       #465
      0100F301H   LINE      CODE     ---       #467
LX51 LINKER/LOCATER V4.64.0.0                                                         04/04/2018  09:18:43  PAGE 108


      0100F301H   LINE      CODE     ---       #471
      0100F306H   LINE      CODE     ---       #473
      ---         BLOCKEND  ---      ---       LVL=0

      0100F159H   BLOCK     CODE     ---       LVL=0
      0100F159H   LINE      CODE     ---       #558
      0100F159H   LINE      CODE     ---       #559
      0100F159H   LINE      CODE     ---       #561
      0100F160H   LINE      CODE     ---       #562
      0100F160H   LINE      CODE     ---       #563
      0100F163H   LINE      CODE     ---       #564
      0100F165H   LINE      CODE     ---       #566
      ---         BLOCKEND  ---      ---       LVL=0

      ---         MODULE    ---      ---       SHIFTREG_ENC_3
      0200132AH   PUBLIC    XDATA    BYTE      SHIFTREG_ENC_3_initVar
      0100F1F2H   PUBLIC    CODE     ---       SHIFTREG_ENC_3_ReadData
      0100F07CH   PUBLIC    CODE     ---       _SHIFTREG_ENC_3_SetIntMode
      0100F106H   PUBLIC    CODE     ---       SHIFTREG_ENC_3_EnableInt
      0100F307H   PUBLIC    CODE     ---       SHIFTREG_ENC_3_Init
      0100F1BDH   PUBLIC    CODE     ---       SHIFTREG_ENC_3_Enable
      0100EFD3H   PUBLIC    CODE     ---       SHIFTREG_ENC_3_Start
      000000CAH   SFRSYM    DATA     BYTE      SFRPRT5SEL
      000000DAH   SFRSYM    DATA     BYTE      SFRPRT6SEL
      000000D0H.6 SFRSYM    DATA     BIT       AC
      000000A8H.7 SFRSYM    DATA     BIT       EA
      000000A8H   SFRSYM    DATA     BYTE      IE
      00000085H   SFRSYM    DATA     BYTE      DPH1
      00000084H   SFRSYM    DATA     BYTE      DPL1
      000000D0H.7 SFRSYM    DATA     BIT       CY
      000000A0H   SFRSYM    DATA     BYTE      P2AX
      00000095H   SFRSYM    DATA     BYTE      DPX1
      00000081H   SFRSYM    DATA     BYTE      SP
      000000D0H.2 SFRSYM    DATA     BIT       OV
      00000080H   SFRSYM    DATA     BYTE      SFRPRT0DR
      00000090H   SFRSYM    DATA     BYTE      SFRPRT1DR
      000000F2H   SFRSYM    DATA     BYTE      SFRPRT12SEL
      00000098H   SFRSYM    DATA     BYTE      SFRPRT2DR
      000000B0H   SFRSYM    DATA     BYTE      SFRPRT3DR
      000000C0H   SFRSYM    DATA     BYTE      SFRPRT4DR
      000000FAH   SFRSYM    DATA     BYTE      SFRPRT15SEL
      000000C8H   SFRSYM    DATA     BYTE      SFRPRT5DR
      000000D8H   SFRSYM    DATA     BYTE      SFRPRT6DR
      00000089H   SFRSYM    DATA     BYTE      SFRPRT0PS
      00000091H   SFRSYM    DATA     BYTE      SFRPRT1PS
      00000099H   SFRSYM    DATA     BYTE      SFRPRT2PS
      000000B1H   SFRSYM    DATA     BYTE      SFRPRT3PS
      000000C1H   SFRSYM    DATA     BYTE      SFRPRT4PS
      000000C9H   SFRSYM    DATA     BYTE      SFRPRT5PS
      000000D9H   SFRSYM    DATA     BYTE      SFRPRT6PS
      000000EAH   SFRSYM    DATA     BYTE      MXAX
      000000F0H   SFRSYM    DATA     BYTE      B
      000000E0H   SFRSYM    DATA     BYTE      ACC
      000000D0H   SFRSYM    DATA     BIT       P
      000000D0H.3 SFRSYM    DATA     BIT       RS0
      000000D0H.4 SFRSYM    DATA     BIT       RS1
      00000083H   SFRSYM    DATA     BYTE      DPH
      000000E8H   SFRSYM    DATA     BYTE      SFRPRT12DR
      00000082H   SFRSYM    DATA     BYTE      DPL
      000000F8H   SFRSYM    DATA     BYTE      SFRPRT15DR
      00000086H   SFRSYM    DATA     BYTE      DPS
      000000E9H   SFRSYM    DATA     BYTE      SFRPRT12PS
      00000093H   SFRSYM    DATA     BYTE      DPX
      000000F9H   SFRSYM    DATA     BYTE      SFRPRT15PS
      000000D0H.5 SFRSYM    DATA     BIT       F0
LX51 LINKER/LOCATER V4.64.0.0                                                         04/04/2018  09:18:43  PAGE 109


      000000D0H.1 SFRSYM    DATA     BIT       F1
      0000008AH   SFRSYM    DATA     BYTE      SFRPRT0SEL
      000000D0H   SFRSYM    DATA     BYTE      PSW
      000000A2H   SFRSYM    DATA     BYTE      SFRPRT1SEL
      0000009AH   SFRSYM    DATA     BYTE      SFRPRT2SEL
      000000B2H   SFRSYM    DATA     BYTE      SFRPRT3SEL
      000000C2H   SFRSYM    DATA     BYTE      SFRPRT4SEL

      0100EFD3H   BLOCK     CODE     ---       LVL=0
      0100EFD3H   LINE      CODE     ---       #43
      0100EFD3H   LINE      CODE     ---       #44
      0100EFD3H   LINE      CODE     ---       #45
      0100EFD9H   LINE      CODE     ---       #46
      0100EFD9H   LINE      CODE     ---       #47
      0100EFDCH   LINE      CODE     ---       #48
      0100EFE2H   LINE      CODE     ---       #49
      0100EFE2H   LINE      CODE     ---       #51
      0100EFE5H   LINE      CODE     ---       #52
      ---         BLOCKEND  ---      ---       LVL=0

      0100F1BDH   BLOCK     CODE     ---       LVL=0
      0100F1BDH   LINE      CODE     ---       #69
      0100F1BDH   LINE      CODE     ---       #70
      0100F1BDH   LINE      CODE     ---       #73
      0100F1C4H   LINE      CODE     ---       #75
      0100F1C7H   LINE      CODE     ---       #76
      ---         BLOCKEND  ---      ---       LVL=0

      0100F307H   BLOCK     CODE     ---       LVL=0
      0100F307H   LINE      CODE     ---       #93
      0100F307H   LINE      CODE     ---       #94
      0100F307H   LINE      CODE     ---       #95
      0100F30CH   LINE      CODE     ---       #96
      ---         BLOCKEND  ---      ---       LVL=0

      0100F106H   BLOCK     CODE     ---       LVL=0
      0100F106H   BLOCK     CODE     NEAR LAB  LVL=1
      00000007H   SYMBOL    DATA     BYTE      interruptState
      ---         BLOCKEND  ---      ---       LVL=1
      0100F106H   LINE      CODE     ---       #135
      0100F106H   LINE      CODE     ---       #136
      0100F106H   LINE      CODE     ---       #139
      0100F109H   LINE      CODE     ---       #140
      0100F110H   LINE      CODE     ---       #141
      0100F113H   LINE      CODE     ---       #142
      ---         BLOCKEND  ---      ---       LVL=0
      00000007H   SYMBOL    DATA     BYTE      interruptState
      00000007H   SYMBOL    DATA     BYTE      fifoId
      00000005H   SYMBOL    DATA     BYTE      result

      0100F07CH   BLOCK     CODE     ---       LVL=0
      00000007H   SYMBOL    DATA     BYTE      interruptSource
      0100F07CH   LINE      CODE     ---       #261
      0100F07CH   LINE      CODE     ---       #262
      0100F07CH   LINE      CODE     ---       #263
      0100F083H   LINE      CODE     ---       #264
      0100F08CH   LINE      CODE     ---       #265
      ---         BLOCKEND  ---      ---       LVL=0
      00000004H   SYMBOL    DATA     DWORD     shiftData

      0100F1F2H   BLOCK     CODE     ---       LVL=0
      0100F1F2H   LINE      CODE     ---       #366
      0100F1F2H   LINE      CODE     ---       #367
      0100F1F2H   LINE      CODE     ---       #368
      0100F1FBH   LINE      CODE     ---       #369
LX51 LINKER/LOCATER V4.64.0.0                                                         04/04/2018  09:18:43  PAGE 110


      ---         BLOCKEND  ---      ---       LVL=0

      ---         MODULE    ---      ---       SHIFTREG_ENC_2
      0200132BH   PUBLIC    XDATA    BYTE      SHIFTREG_ENC_2_initVar
      0100F1FCH   PUBLIC    CODE     ---       SHIFTREG_ENC_2_ReadData
      0100F08DH   PUBLIC    CODE     ---       _SHIFTREG_ENC_2_SetIntMode
      0100F114H   PUBLIC    CODE     ---       SHIFTREG_ENC_2_EnableInt
      0100F30DH   PUBLIC    CODE     ---       SHIFTREG_ENC_2_Init
      0100F1C8H   PUBLIC    CODE     ---       SHIFTREG_ENC_2_Enable
      0100EFE6H   PUBLIC    CODE     ---       SHIFTREG_ENC_2_Start
      000000CAH   SFRSYM    DATA     BYTE      SFRPRT5SEL
      000000DAH   SFRSYM    DATA     BYTE      SFRPRT6SEL
      000000D0H.6 SFRSYM    DATA     BIT       AC
      000000A8H.7 SFRSYM    DATA     BIT       EA
      000000A8H   SFRSYM    DATA     BYTE      IE
      00000085H   SFRSYM    DATA     BYTE      DPH1
      00000084H   SFRSYM    DATA     BYTE      DPL1
      000000D0H.7 SFRSYM    DATA     BIT       CY
      000000A0H   SFRSYM    DATA     BYTE      P2AX
      00000095H   SFRSYM    DATA     BYTE      DPX1
      00000081H   SFRSYM    DATA     BYTE      SP
      000000D0H.2 SFRSYM    DATA     BIT       OV
      00000080H   SFRSYM    DATA     BYTE      SFRPRT0DR
      00000090H   SFRSYM    DATA     BYTE      SFRPRT1DR
      000000F2H   SFRSYM    DATA     BYTE      SFRPRT12SEL
      00000098H   SFRSYM    DATA     BYTE      SFRPRT2DR
      000000B0H   SFRSYM    DATA     BYTE      SFRPRT3DR
      000000C0H   SFRSYM    DATA     BYTE      SFRPRT4DR
      000000FAH   SFRSYM    DATA     BYTE      SFRPRT15SEL
      000000C8H   SFRSYM    DATA     BYTE      SFRPRT5DR
      000000D8H   SFRSYM    DATA     BYTE      SFRPRT6DR
      00000089H   SFRSYM    DATA     BYTE      SFRPRT0PS
      00000091H   SFRSYM    DATA     BYTE      SFRPRT1PS
      00000099H   SFRSYM    DATA     BYTE      SFRPRT2PS
      000000B1H   SFRSYM    DATA     BYTE      SFRPRT3PS
      000000C1H   SFRSYM    DATA     BYTE      SFRPRT4PS
      000000C9H   SFRSYM    DATA     BYTE      SFRPRT5PS
      000000D9H   SFRSYM    DATA     BYTE      SFRPRT6PS
      000000EAH   SFRSYM    DATA     BYTE      MXAX
      000000F0H   SFRSYM    DATA     BYTE      B
      000000E0H   SFRSYM    DATA     BYTE      ACC
      000000D0H   SFRSYM    DATA     BIT       P
      000000D0H.3 SFRSYM    DATA     BIT       RS0
      000000D0H.4 SFRSYM    DATA     BIT       RS1
      00000083H   SFRSYM    DATA     BYTE      DPH
      000000E8H   SFRSYM    DATA     BYTE      SFRPRT12DR
      00000082H   SFRSYM    DATA     BYTE      DPL
      000000F8H   SFRSYM    DATA     BYTE      SFRPRT15DR
      00000086H   SFRSYM    DATA     BYTE      DPS
      000000E9H   SFRSYM    DATA     BYTE      SFRPRT12PS
      00000093H   SFRSYM    DATA     BYTE      DPX
      000000F9H   SFRSYM    DATA     BYTE      SFRPRT15PS
      000000D0H.5 SFRSYM    DATA     BIT       F0
      000000D0H.1 SFRSYM    DATA     BIT       F1
      0000008AH   SFRSYM    DATA     BYTE      SFRPRT0SEL
      000000D0H   SFRSYM    DATA     BYTE      PSW
      000000A2H   SFRSYM    DATA     BYTE      SFRPRT1SEL
      0000009AH   SFRSYM    DATA     BYTE      SFRPRT2SEL
      000000B2H   SFRSYM    DATA     BYTE      SFRPRT3SEL
      000000C2H   SFRSYM    DATA     BYTE      SFRPRT4SEL

      0100EFE6H   BLOCK     CODE     ---       LVL=0
      0100EFE6H   LINE      CODE     ---       #43
      0100EFE6H   LINE      CODE     ---       #44
      0100EFE6H   LINE      CODE     ---       #45
LX51 LINKER/LOCATER V4.64.0.0                                                         04/04/2018  09:18:43  PAGE 111


      0100EFECH   LINE      CODE     ---       #46
      0100EFECH   LINE      CODE     ---       #47
      0100EFEFH   LINE      CODE     ---       #48
      0100EFF5H   LINE      CODE     ---       #49
      0100EFF5H   LINE      CODE     ---       #51
      0100EFF8H   LINE      CODE     ---       #52
      ---         BLOCKEND  ---      ---       LVL=0

      0100F1C8H   BLOCK     CODE     ---       LVL=0
      0100F1C8H   LINE      CODE     ---       #69
      0100F1C8H   LINE      CODE     ---       #70
      0100F1C8H   LINE      CODE     ---       #73
      0100F1CFH   LINE      CODE     ---       #75
      0100F1D2H   LINE      CODE     ---       #76
      ---         BLOCKEND  ---      ---       LVL=0

      0100F30DH   BLOCK     CODE     ---       LVL=0
      0100F30DH   LINE      CODE     ---       #93
      0100F30DH   LINE      CODE     ---       #94
      0100F30DH   LINE      CODE     ---       #95
      0100F312H   LINE      CODE     ---       #96
      ---         BLOCKEND  ---      ---       LVL=0

      0100F114H   BLOCK     CODE     ---       LVL=0
      0100F114H   BLOCK     CODE     NEAR LAB  LVL=1
      00000007H   SYMBOL    DATA     BYTE      interruptState
      ---         BLOCKEND  ---      ---       LVL=1
      0100F114H   LINE      CODE     ---       #135
      0100F114H   LINE      CODE     ---       #136
      0100F114H   LINE      CODE     ---       #139
      0100F117H   LINE      CODE     ---       #140
      0100F11EH   LINE      CODE     ---       #141
      0100F121H   LINE      CODE     ---       #142
      ---         BLOCKEND  ---      ---       LVL=0
      00000007H   SYMBOL    DATA     BYTE      interruptState
      00000007H   SYMBOL    DATA     BYTE      fifoId
      00000005H   SYMBOL    DATA     BYTE      result

      0100F08DH   BLOCK     CODE     ---       LVL=0
      00000007H   SYMBOL    DATA     BYTE      interruptSource
      0100F08DH   LINE      CODE     ---       #261
      0100F08DH   LINE      CODE     ---       #262
      0100F08DH   LINE      CODE     ---       #263
      0100F094H   LINE      CODE     ---       #264
      0100F09DH   LINE      CODE     ---       #265
      ---         BLOCKEND  ---      ---       LVL=0
      00000004H   SYMBOL    DATA     DWORD     shiftData

      0100F1FCH   BLOCK     CODE     ---       LVL=0
      0100F1FCH   LINE      CODE     ---       #366
      0100F1FCH   LINE      CODE     ---       #367
      0100F1FCH   LINE      CODE     ---       #368
      0100F205H   LINE      CODE     ---       #369
      ---         BLOCKEND  ---      ---       LVL=0

      ---         MODULE    ---      ---       EEPROM
      0100CC97H   PUBLIC    CODE     ---       _EEPROM_Write
      0100F385H   PUBLIC    CODE     ---       EEPROM_Start
      0100F2A4H   PUBLIC    CODE     ---       EEPROM_Enable
      000000CAH   SFRSYM    DATA     BYTE      SFRPRT5SEL
      000000DAH   SFRSYM    DATA     BYTE      SFRPRT6SEL
      000000D0H.6 SFRSYM    DATA     BIT       AC
      000000A8H.7 SFRSYM    DATA     BIT       EA
      000000A8H   SFRSYM    DATA     BYTE      IE
      00000085H   SFRSYM    DATA     BYTE      DPH1
LX51 LINKER/LOCATER V4.64.0.0                                                         04/04/2018  09:18:43  PAGE 112


      00000084H   SFRSYM    DATA     BYTE      DPL1
      000000D0H.7 SFRSYM    DATA     BIT       CY
      000000A0H   SFRSYM    DATA     BYTE      P2AX
      00000095H   SFRSYM    DATA     BYTE      DPX1
      00000081H   SFRSYM    DATA     BYTE      SP
      000000D0H.2 SFRSYM    DATA     BIT       OV
      00000080H   SFRSYM    DATA     BYTE      SFRPRT0DR
      00000090H   SFRSYM    DATA     BYTE      SFRPRT1DR
      000000F2H   SFRSYM    DATA     BYTE      SFRPRT12SEL
      00000098H   SFRSYM    DATA     BYTE      SFRPRT2DR
      000000B0H   SFRSYM    DATA     BYTE      SFRPRT3DR
      000000C0H   SFRSYM    DATA     BYTE      SFRPRT4DR
      000000FAH   SFRSYM    DATA     BYTE      SFRPRT15SEL
      000000C8H   SFRSYM    DATA     BYTE      SFRPRT5DR
      000000D8H   SFRSYM    DATA     BYTE      SFRPRT6DR
      00000089H   SFRSYM    DATA     BYTE      SFRPRT0PS
      00000091H   SFRSYM    DATA     BYTE      SFRPRT1PS
      00000099H   SFRSYM    DATA     BYTE      SFRPRT2PS
      000000B1H   SFRSYM    DATA     BYTE      SFRPRT3PS
      000000C1H   SFRSYM    DATA     BYTE      SFRPRT4PS
      000000C9H   SFRSYM    DATA     BYTE      SFRPRT5PS
      000000D9H   SFRSYM    DATA     BYTE      SFRPRT6PS
      000000EAH   SFRSYM    DATA     BYTE      MXAX
      000000F0H   SFRSYM    DATA     BYTE      B
      000000E0H   SFRSYM    DATA     BYTE      ACC
      000000D0H   SFRSYM    DATA     BIT       P
      000000D0H.3 SFRSYM    DATA     BIT       RS0
      000000D0H.4 SFRSYM    DATA     BIT       RS1
      00000083H   SFRSYM    DATA     BYTE      DPH
      000000E8H   SFRSYM    DATA     BYTE      SFRPRT12DR
      00000082H   SFRSYM    DATA     BYTE      DPL
      000000F8H   SFRSYM    DATA     BYTE      SFRPRT15DR
      00000086H   SFRSYM    DATA     BYTE      DPS
      000000E9H   SFRSYM    DATA     BYTE      SFRPRT12PS
      00000093H   SFRSYM    DATA     BYTE      DPX
      000000F9H   SFRSYM    DATA     BYTE      SFRPRT15PS
      000000D0H.5 SFRSYM    DATA     BIT       F0
      000000D0H.1 SFRSYM    DATA     BIT       F1
      0000008AH   SFRSYM    DATA     BYTE      SFRPRT0SEL
      000000D0H   SFRSYM    DATA     BYTE      PSW
      000000A2H   SFRSYM    DATA     BYTE      SFRPRT1SEL
      0000009AH   SFRSYM    DATA     BYTE      SFRPRT2SEL
      000000B2H   SFRSYM    DATA     BYTE      SFRPRT3SEL
      000000C2H   SFRSYM    DATA     BYTE      SFRPRT4SEL

      0100F2A4H   BLOCK     CODE     ---       LVL=0
      0100F2A4H   LINE      CODE     ---       #33
      0100F2A4H   LINE      CODE     ---       #34
      0100F2A4H   LINE      CODE     ---       #36
      0100F2A7H   LINE      CODE     ---       #39
      0100F2AAH   LINE      CODE     ---       #40
      ---         BLOCKEND  ---      ---       LVL=0

      0100F385H   BLOCK     CODE     ---       LVL=0
      0100F385H   LINE      CODE     ---       #57
      0100F385H   LINE      CODE     ---       #58
      0100F385H   LINE      CODE     ---       #59
      0100F388H   LINE      CODE     ---       #60
      ---         BLOCKEND  ---      ---       LVL=0

      0100CC97H   BLOCK     CODE     ---       LVL=0
      02000037H   SYMBOL    XDATA    ---       rowData
      0200003AH   SYMBOL    XDATA    BYTE      rowNumber
      0100CCA5H   BLOCK     CODE     NEAR LAB  LVL=1
      0200003BH   SYMBOL    XDATA    BYTE      status
LX51 LINKER/LOCATER V4.64.0.0                                                         04/04/2018  09:18:43  PAGE 113


      ---         BLOCKEND  ---      ---       LVL=1
      0100CC97H   LINE      CODE     ---       #345
      0100CCA5H   LINE      CODE     ---       #346
      0100CCA5H   LINE      CODE     ---       #349
      0100CCA8H   LINE      CODE     ---       #351
      0100CCB4H   LINE      CODE     ---       #352
      0100CCB4H   LINE      CODE     ---       #354
      0100CCBDH   LINE      CODE     ---       #355
      0100CCBDH   LINE      CODE     ---       #357
      0100CCC3H   LINE      CODE     ---       #360
      0100CCE1H   LINE      CODE     ---       #361
      0100CCE1H   LINE      CODE     ---       #362
      0100CCE9H   LINE      CODE     ---       #363
      0100CCE9H   LINE      CODE     ---       #365
      0100CCE9H   LINE      CODE     ---       #368
      0100CCFFH   LINE      CODE     ---       #369
      0100CCFFH   LINE      CODE     ---       #370
      0100CD03H   LINE      CODE     ---       #371
      0100CD03H   LINE      CODE     ---       #374
      0100CD09H   LINE      CODE     ---       #375
      0100CD09H   LINE      CODE     ---       #376
      0100CD25H   LINE      CODE     ---       #378
      0100CD25H   LINE      CODE     ---       #380
      0100CD2BH   LINE      CODE     ---       #382
      0100CD33H   LINE      CODE     ---       #383
      0100CD33H   LINE      CODE     ---       #385
      0100CD33H   LINE      CODE     ---       #388
      0100CD49H   LINE      CODE     ---       #389
      0100CD49H   LINE      CODE     ---       #390
      0100CD4DH   LINE      CODE     ---       #391
      0100CD4DH   LINE      CODE     ---       #392
      0100CD4FH   LINE      CODE     ---       #394
      0100CD4FH   LINE      CODE     ---       #395
      0100CD55H   LINE      CODE     ---       #396
      0100CD55H   LINE      CODE     ---       #397
      0100CD57H   LINE      CODE     ---       #399
      0100CD57H   LINE      CODE     ---       #400
      0100CD5DH   LINE      CODE     ---       #401
      0100CD5DH   LINE      CODE     ---       #402
      0100CD5DH   LINE      CODE     ---       #405
      0100CD60H   LINE      CODE     ---       #406
      0100CD62H   LINE      CODE     ---       #408
      0100CD62H   LINE      CODE     ---       #409
      0100CD68H   LINE      CODE     ---       #410
      0100CD68H   LINE      CODE     ---       #411
      0100CD6AH   LINE      CODE     ---       #413
      0100CD6AH   LINE      CODE     ---       #414
      0100CD70H   LINE      CODE     ---       #415
      0100CD70H   LINE      CODE     ---       #417
      0100CD75H   LINE      CODE     ---       #418
      ---         BLOCKEND  ---      ---       LVL=0

      ---         MODULE    ---      ---       ADC
      02001303H   PUBLIC    XDATA    LONG      ADC_CountsPerVolt
      02001302H   PUBLIC    XDATA    BYTE      ADC_convDone
      020012FEH   PUBLIC    XDATA    BYTE      ADC_started
      020012FDH   PUBLIC    XDATA    BYTE      ADC_stopConversion
      020012F9H   PUBLIC    XDATA    LONG      ADC_Offset
      020012F8H   PUBLIC    XDATA    BYTE      ADC_initVar
      020012F7H   PUBLIC    XDATA    BYTE      ADC_Config
      0100EE77H   PUBLIC    CODE     ---       ADC_Start
      0100D6F1H   PUBLIC    CODE     ---       ADC_Enable
      0100D1F2H   PUBLIC    CODE     ---       ADC_Init
      000000CAH   SFRSYM    DATA     BYTE      SFRPRT5SEL
      000000DAH   SFRSYM    DATA     BYTE      SFRPRT6SEL
LX51 LINKER/LOCATER V4.64.0.0                                                         04/04/2018  09:18:43  PAGE 114


      000000D0H.6 SFRSYM    DATA     BIT       AC
      000000A8H.7 SFRSYM    DATA     BIT       EA
      000000A8H   SFRSYM    DATA     BYTE      IE
      00000085H   SFRSYM    DATA     BYTE      DPH1
      00000084H   SFRSYM    DATA     BYTE      DPL1
      000000D0H.7 SFRSYM    DATA     BIT       CY
      000000A0H   SFRSYM    DATA     BYTE      P2AX
      00000095H   SFRSYM    DATA     BYTE      DPX1
      00000081H   SFRSYM    DATA     BYTE      SP
      000000D0H.2 SFRSYM    DATA     BIT       OV
      00000080H   SFRSYM    DATA     BYTE      SFRPRT0DR
      00000090H   SFRSYM    DATA     BYTE      SFRPRT1DR
      000000F2H   SFRSYM    DATA     BYTE      SFRPRT12SEL
      00000098H   SFRSYM    DATA     BYTE      SFRPRT2DR
      000000B0H   SFRSYM    DATA     BYTE      SFRPRT3DR
      000000C0H   SFRSYM    DATA     BYTE      SFRPRT4DR
      000000FAH   SFRSYM    DATA     BYTE      SFRPRT15SEL
      000000C8H   SFRSYM    DATA     BYTE      SFRPRT5DR
      000000D8H   SFRSYM    DATA     BYTE      SFRPRT6DR
      00000089H   SFRSYM    DATA     BYTE      SFRPRT0PS
      00000091H   SFRSYM    DATA     BYTE      SFRPRT1PS
      00000099H   SFRSYM    DATA     BYTE      SFRPRT2PS
      000000B1H   SFRSYM    DATA     BYTE      SFRPRT3PS
      000000C1H   SFRSYM    DATA     BYTE      SFRPRT4PS
      000000C9H   SFRSYM    DATA     BYTE      SFRPRT5PS
      000000D9H   SFRSYM    DATA     BYTE      SFRPRT6PS
      000000EAH   SFRSYM    DATA     BYTE      MXAX
      000000F0H   SFRSYM    DATA     BYTE      B
      000000E0H   SFRSYM    DATA     BYTE      ACC
      000000D0H   SFRSYM    DATA     BIT       P
      000000D0H.3 SFRSYM    DATA     BIT       RS0
      000000D0H.4 SFRSYM    DATA     BIT       RS1
      00000083H   SFRSYM    DATA     BYTE      DPH
      000000E8H   SFRSYM    DATA     BYTE      SFRPRT12DR
      00000082H   SFRSYM    DATA     BYTE      DPL
      000000F8H   SFRSYM    DATA     BYTE      SFRPRT15DR
      00000086H   SFRSYM    DATA     BYTE      DPS
      000000E9H   SFRSYM    DATA     BYTE      SFRPRT12PS
      00000093H   SFRSYM    DATA     BYTE      DPX
      000000F9H   SFRSYM    DATA     BYTE      SFRPRT15PS
      000000D0H.5 SFRSYM    DATA     BIT       F0
      000000D0H.1 SFRSYM    DATA     BIT       F1
      0000008AH   SFRSYM    DATA     BYTE      SFRPRT0SEL
      000000D0H   SFRSYM    DATA     BYTE      PSW
      000000A2H   SFRSYM    DATA     BYTE      SFRPRT1SEL
      0000009AH   SFRSYM    DATA     BYTE      SFRPRT2SEL
      000000B2H   SFRSYM    DATA     BYTE      SFRPRT3SEL
      000000C2H   SFRSYM    DATA     BYTE      SFRPRT4SEL
      0100D354H   SYMBOL    CODE     ---       _ADC_InitConfig
      0100B9E8H   SYMBOL    CODE     ---       _ADC_GainCompensation
      0100E85BH   SYMBOL    CODE     ---       _ADC_SetDSMRef0Reg
      020012FFH   SYMBOL    XDATA    ---       ADC_gcor

      0100D1F2H   BLOCK     CODE     ---       LVL=0
      0100D1F2H   LINE      CODE     ---       #91
      0100D1F2H   LINE      CODE     ---       #92
      0100D1F2H   LINE      CODE     ---       #94
      0100D1F8H   LINE      CODE     ---       #95
      0100D1FDH   LINE      CODE     ---       #97
      0100D202H   LINE      CODE     ---       #101
      0100D207H   LINE      CODE     ---       #106
      0100D20EH   LINE      CODE     ---       #110
      0100D214H   LINE      CODE     ---       #111
      0100D217H   LINE      CODE     ---       #112
      0100D21BH   LINE      CODE     ---       #113
LX51 LINKER/LOCATER V4.64.0.0                                                         04/04/2018  09:18:43  PAGE 115


      0100D222H   LINE      CODE     ---       #114
      0100D227H   LINE      CODE     ---       #116
      0100D22BH   LINE      CODE     ---       #117
      0100D22DH   LINE      CODE     ---       #119
      0100D233H   LINE      CODE     ---       #120
      0100D236H   LINE      CODE     ---       #124
      0100D23AH   LINE      CODE     ---       #126
      0100D240H   LINE      CODE     ---       #127
      0100D243H   LINE      CODE     ---       #128
      0100D248H   LINE      CODE     ---       #130
      0100D24EH   LINE      CODE     ---       #133
      0100D265H   LINE      CODE     ---       #161
      0100D27BH   LINE      CODE     ---       #162
      0100D29AH   LINE      CODE     ---       #165
      0100D2A2H   LINE      CODE     ---       #166
      ---         BLOCKEND  ---      ---       LVL=0

      0100D6F1H   BLOCK     CODE     ---       LVL=0
      0100D6F1H   BLOCK     CODE     NEAR LAB  LVL=1
      02000002H   SYMBOL    XDATA    BYTE      config
      02000003H   SYMBOL    XDATA    BYTE      enableInterrupts
      ---         BLOCKEND  ---      ---       LVL=1
      0100D6F1H   LINE      CODE     ---       #184
      0100D6F1H   LINE      CODE     ---       #185
      0100D6F1H   LINE      CODE     ---       #188
      0100D6F9H   LINE      CODE     ---       #191
      0100D701H   LINE      CODE     ---       #194
      0100D708H   LINE      CODE     ---       #195
      0100D70CH   LINE      CODE     ---       #198
      0100D713H   LINE      CODE     ---       #199
      0100D717H   LINE      CODE     ---       #202
      0100D71EH   LINE      CODE     ---       #203
      0100D723H   LINE      CODE     ---       #205
      0100D72AH   LINE      CODE     ---       #265
      0100D72AH   LINE      CODE     ---       #266
      0100D72AH   LINE      CODE     ---       #268
      0100D72AH   LINE      CODE     ---       #271
      0100D731H   LINE      CODE     ---       #274
      0100D738H   LINE      CODE     ---       #275
      0100D73DH   LINE      CODE     ---       #278
      0100D744H   LINE      CODE     ---       #281
      0100D74AH   LINE      CODE     ---       #285
      0100D751H   LINE      CODE     ---       #286
      0100D758H   LINE      CODE     ---       #290
      0100D75FH   LINE      CODE     ---       #291
      0100D766H   LINE      CODE     ---       #295
      0100D76CH   LINE      CODE     ---       #297
      0100D770H   LINE      CODE     ---       #300
      0100D778H   LINE      CODE     ---       #302
      ---         BLOCKEND  ---      ---       LVL=0

      0100EE77H   BLOCK     CODE     ---       LVL=0
      0100EE77H   LINE      CODE     ---       #329
      0100EE77H   LINE      CODE     ---       #330
      0100EE77H   LINE      CODE     ---       #331
      0100EE7DH   LINE      CODE     ---       #332
      0100EE7DH   LINE      CODE     ---       #333
      0100EE83H   LINE      CODE     ---       #334
      0100EE83H   LINE      CODE     ---       #335
      0100EE86H   LINE      CODE     ---       #336
      0100EE86H   LINE      CODE     ---       #337
      0100EE8CH   LINE      CODE     ---       #338
      0100EE8CH   LINE      CODE     ---       #341
      0100EE8FH   LINE      CODE     ---       #342
      ---         BLOCKEND  ---      ---       LVL=0
LX51 LINKER/LOCATER V4.64.0.0                                                         04/04/2018  09:18:43  PAGE 116


      00000007H   SYMBOL    DATA     BYTE      gain
      00000006H   SYMBOL    DATA     BYTE      tmpReg
      00000007H   SYMBOL    DATA     BYTE      coherency
      00000006H   SYMBOL    DATA     BYTE      tmpReg
      00000004H   SYMBOL    DATA     WORD      gcorValue
      00000007H   SYMBOL    DATA     BYTE      retMode
      00000006H   SYMBOL    DATA     BYTE      status
      00000006H   SYMBOL    DATA     CHAR      result
      00000007H   SYMBOL    DATA     BYTE      coherency
      00000004H   SYMBOL    DATA     LONG      offset
      00000004H   SYMBOL    DATA     LONG      adcGain
      00000006H   SYMBOL    DATA     INT       mVolts
      00000004H   SYMBOL    DATA     FLOAT     Volts
      00000004H   SYMBOL    DATA     LONG      uVolts

      0100D354H   BLOCK     CODE     ---       LVL=0
      00000007H   SYMBOL    DATA     BYTE      config
      0100D354H   LINE      CODE     ---       #1242
      0100D354H   LINE      CODE     ---       #1243
      0100D354H   LINE      CODE     ---       #1244
      0100D359H   LINE      CODE     ---       #1246
      0100D361H   LINE      CODE     ---       #1247
      0100D361H   LINE      CODE     ---       #1249
      0100D367H   LINE      CODE     ---       #1250
      0100D36DH   LINE      CODE     ---       #1251
      0100D371H   LINE      CODE     ---       #1252
      0100D374H   LINE      CODE     ---       #1253
      0100D376H   LINE      CODE     ---       #1254
      0100D37AH   LINE      CODE     ---       #1255
      0100D37FH   LINE      CODE     ---       #1256
      0100D381H   LINE      CODE     ---       #1257
      0100D383H   LINE      CODE     ---       #1258
      0100D388H   LINE      CODE     ---       #1260
      0100D38EH   LINE      CODE     ---       #1261
      0100D392H   LINE      CODE     ---       #1262
      0100D396H   LINE      CODE     ---       #1263
      0100D399H   LINE      CODE     ---       #1264
      0100D39FH   LINE      CODE     ---       #1265
      0100D3A3H   LINE      CODE     ---       #1266
      0100D3A7H   LINE      CODE     ---       #1267
      0100D3ACH   LINE      CODE     ---       #1268
      0100D3B0H   LINE      CODE     ---       #1269
      0100D3B4H   LINE      CODE     ---       #1270
      0100D3B8H   LINE      CODE     ---       #1272
      0100D3BDH   LINE      CODE     ---       #1273
      0100D3C3H   LINE      CODE     ---       #1274
      0100D3C6H   LINE      CODE     ---       #1276
      0100D3CBH   LINE      CODE     ---       #1277
      0100D3CDH   LINE      CODE     ---       #1278
      0100D3D0H   LINE      CODE     ---       #1279
      0100D3D4H   LINE      CODE     ---       #1288
      0100D3D9H   LINE      CODE     ---       #1300
      0100D3E6H   LINE      CODE     ---       #1302
      0100D3EFH   LINE      CODE     ---       #1306
      0100D3F8H   LINE      CODE     ---       #1311
      0100D401H   LINE      CODE     ---       #1313
      0100D401H   LINE      CODE     ---       #1526
      ---         BLOCKEND  ---      ---       LVL=0

      0100B9E8H   BLOCK     CODE     ---       LVL=0
      00000007H   SYMBOL    DATA     BYTE      inputRange
      02000003H   SYMBOL    XDATA    WORD      idealDecGain
      02000005H   SYMBOL    XDATA    WORD      idealOddDecGain
      02000007H   SYMBOL    XDATA    BYTE      resolution
      02000008H   SYMBOL    XDATA    BYTE      config
LX51 LINKER/LOCATER V4.64.0.0                                                         04/04/2018  09:18:43  PAGE 117


      0100B9F6H   BLOCK     CODE     NEAR LAB  LVL=1
      02000009H   SYMBOL    XDATA    CHAR      flash
      00000004H   SYMBOL    DATA     LONG      normalised
      00000004H   SYMBOL    DATA     WORD      gcorValue
      00000004H   SYMBOL    DATA     DWORD     gcorTmp
      ---         BLOCKEND  ---      ---       LVL=1
      0100B9E8H   LINE      CODE     ---       #1617
      0100B9F6H   LINE      CODE     ---       #1619
      0100B9F6H   LINE      CODE     ---       #1625
      0100BA0CH   LINE      CODE     ---       #1626
      0100BA0CH   LINE      CODE     ---       #1627
      0100BA26H   LINE      CODE     ---       #1628
      0100BA26H   LINE      CODE     ---       #1629
      0100BA26H   LINE      CODE     ---       #1630
      0100BA26H   LINE      CODE     ---       #1632
      0100BA2FH   LINE      CODE     ---       #1633
      0100BA2FH   LINE      CODE     ---       #1634
      0100BA3DH   LINE      CODE     ---       #1635
      0100BA40H   LINE      CODE     ---       #1637
      0100BA40H   LINE      CODE     ---       #1638
      0100BA4EH   LINE      CODE     ---       #1639
      0100BA4EH   LINE      CODE     ---       #1640
      0100BA51H   LINE      CODE     ---       #1642
      0100BA51H   LINE      CODE     ---       #1644
      0100BA5AH   LINE      CODE     ---       #1645
      0100BA5AH   LINE      CODE     ---       #1646
      0100BA68H   LINE      CODE     ---       #1647
      0100BA6AH   LINE      CODE     ---       #1649
      0100BA6AH   LINE      CODE     ---       #1650
      0100BA78H   LINE      CODE     ---       #1651
      0100BA78H   LINE      CODE     ---       #1652
      0100BA7AH   LINE      CODE     ---       #1654
      0100BA7AH   LINE      CODE     ---       #1656
      0100BA83H   LINE      CODE     ---       #1657
      0100BA83H   LINE      CODE     ---       #1658
      0100BA91H   LINE      CODE     ---       #1659
      0100BA93H   LINE      CODE     ---       #1661
      0100BA93H   LINE      CODE     ---       #1662
      0100BAA1H   LINE      CODE     ---       #1663
      0100BAA1H   LINE      CODE     ---       #1664
      0100BAA3H   LINE      CODE     ---       #1666
      0100BAA3H   LINE      CODE     ---       #1668
      0100BAACH   LINE      CODE     ---       #1669
      0100BAACH   LINE      CODE     ---       #1670
      0100BABAH   LINE      CODE     ---       #1671
      0100BABCH   LINE      CODE     ---       #1673
      0100BABCH   LINE      CODE     ---       #1674
      0100BACAH   LINE      CODE     ---       #1675
      0100BACAH   LINE      CODE     ---       #1676
      0100BACCH   LINE      CODE     ---       #1678
      0100BACCH   LINE      CODE     ---       #1679
      0100BAD1H   LINE      CODE     ---       #1680
      0100BAD1H   LINE      CODE     ---       #1681
      0100BAD1H   LINE      CODE     ---       #1684
      0100BB04H   LINE      CODE     ---       #1685
      0100BB17H   LINE      CODE     ---       #1686
      0100BB24H   LINE      CODE     ---       #1688
      0100BB2DH   LINE      CODE     ---       #1689
      0100BB2DH   LINE      CODE     ---       #1690
      0100BB44H   LINE      CODE     ---       #1691
      0100BB5AH   LINE      CODE     ---       #1692
      0100BB5CH   LINE      CODE     ---       #1694
      0100BB5CH   LINE      CODE     ---       #1696
      0100BB70H   LINE      CODE     ---       #1697
      0100BB70H   LINE      CODE     ---       #1700
LX51 LINKER/LOCATER V4.64.0.0                                                         04/04/2018  09:18:43  PAGE 118


      0100BB88H   LINE      CODE     ---       #1701
      0100BB88H   LINE      CODE     ---       #1703
      0100BB88H   LINE      CODE     ---       #1706
      0100BB88H   LINE      CODE     ---       #1707
      ---         BLOCKEND  ---      ---       LVL=0

      0100E85BH   BLOCK     CODE     ---       LVL=0
      02000002H   SYMBOL    XDATA    BYTE      value
      0100E860H   BLOCK     CODE     NEAR LAB  LVL=1
      02000003H   SYMBOL    XDATA    BYTE      enableInterrupts
      ---         BLOCKEND  ---      ---       LVL=1
      0100E85BH   LINE      CODE     ---       #1724
      0100E860H   LINE      CODE     ---       #1725
      0100E860H   LINE      CODE     ---       #1727
      0100E868H   LINE      CODE     ---       #1730
      0100E86FH   LINE      CODE     ---       #1731
      0100E874H   LINE      CODE     ---       #1732
      0100E87CH   LINE      CODE     ---       #1735
      0100E883H   LINE      CODE     ---       #1737
      0100E88AH   LINE      CODE     ---       #1738
      0100E88FH   LINE      CODE     ---       #1740
      0100E897H   LINE      CODE     ---       #1741
      ---         BLOCKEND  ---      ---       LVL=0
      00000007H   SYMBOL    DATA     CHAR      result
      00000006H   SYMBOL    DATA     INT       result
      00000004H   SYMBOL    DATA     LONG      result

      ---         MODULE    ---      ---       RS485_CTS
      0100F313H   PUBLIC    CODE     ---       _RS485_CTS_Write

      0100F313H   BLOCK     CODE     ---       LVL=0
      00000007H   SYMBOL    DATA     BYTE      control
      0100F313H   LINE      CODE     ---       #37
      0100F313H   LINE      CODE     ---       #38
      0100F313H   LINE      CODE     ---       #39
      0100F318H   LINE      CODE     ---       #40
      ---         BLOCKEND  ---      ---       LVL=0

      ---         MODULE    ---      ---       BOOTLOADABLE
      0100F206H   PUBLIC    CODE     ---       Bootloadable_Load
      000000CAH   SFRSYM    DATA     BYTE      SFRPRT5SEL
      000000DAH   SFRSYM    DATA     BYTE      SFRPRT6SEL
      000000D0H.6 SFRSYM    DATA     BIT       AC
      000000A8H.7 SFRSYM    DATA     BIT       EA
      000000A8H   SFRSYM    DATA     BYTE      IE
      00000085H   SFRSYM    DATA     BYTE      DPH1
      00000084H   SFRSYM    DATA     BYTE      DPL1
      000000D0H.7 SFRSYM    DATA     BIT       CY
      000000A0H   SFRSYM    DATA     BYTE      P2AX
      00000095H   SFRSYM    DATA     BYTE      DPX1
      00000081H   SFRSYM    DATA     BYTE      SP
      000000D0H.2 SFRSYM    DATA     BIT       OV
      00000080H   SFRSYM    DATA     BYTE      SFRPRT0DR
      00000090H   SFRSYM    DATA     BYTE      SFRPRT1DR
      000000F2H   SFRSYM    DATA     BYTE      SFRPRT12SEL
      00000098H   SFRSYM    DATA     BYTE      SFRPRT2DR
      000000B0H   SFRSYM    DATA     BYTE      SFRPRT3DR
      000000C0H   SFRSYM    DATA     BYTE      SFRPRT4DR
      000000FAH   SFRSYM    DATA     BYTE      SFRPRT15SEL
      000000C8H   SFRSYM    DATA     BYTE      SFRPRT5DR
      000000D8H   SFRSYM    DATA     BYTE      SFRPRT6DR
      00000089H   SFRSYM    DATA     BYTE      SFRPRT0PS
      00000091H   SFRSYM    DATA     BYTE      SFRPRT1PS
      00000099H   SFRSYM    DATA     BYTE      SFRPRT2PS
      000000B1H   SFRSYM    DATA     BYTE      SFRPRT3PS
LX51 LINKER/LOCATER V4.64.0.0                                                         04/04/2018  09:18:43  PAGE 119


      000000C1H   SFRSYM    DATA     BYTE      SFRPRT4PS
      000000C9H   SFRSYM    DATA     BYTE      SFRPRT5PS
      000000D9H   SFRSYM    DATA     BYTE      SFRPRT6PS
      000000EAH   SFRSYM    DATA     BYTE      MXAX
      000000F0H   SFRSYM    DATA     BYTE      B
      000000E0H   SFRSYM    DATA     BYTE      ACC
      000000D0H   SFRSYM    DATA     BIT       P
      000000D0H.3 SFRSYM    DATA     BIT       RS0
      000000D0H.4 SFRSYM    DATA     BIT       RS1
      00000083H   SFRSYM    DATA     BYTE      DPH
      000000E8H   SFRSYM    DATA     BYTE      SFRPRT12DR
      00000082H   SFRSYM    DATA     BYTE      DPL
      000000F8H   SFRSYM    DATA     BYTE      SFRPRT15DR
      00000086H   SFRSYM    DATA     BYTE      DPS
      000000E9H   SFRSYM    DATA     BYTE      SFRPRT12PS
      00000093H   SFRSYM    DATA     BYTE      DPX
      000000F9H   SFRSYM    DATA     BYTE      SFRPRT15PS
      000000D0H.5 SFRSYM    DATA     BIT       F0
      000000D0H.1 SFRSYM    DATA     BIT       F1
      0000008AH   SFRSYM    DATA     BYTE      SFRPRT0SEL
      000000D0H   SFRSYM    DATA     BYTE      PSW
      000000A2H   SFRSYM    DATA     BYTE      SFRPRT1SEL
      0000009AH   SFRSYM    DATA     BYTE      SFRPRT2SEL
      000000B2H   SFRSYM    DATA     BYTE      SFRPRT3SEL
      000000C2H   SFRSYM    DATA     BYTE      SFRPRT4SEL

      0100F206H   BLOCK     CODE     ---       LVL=0
      0100F206H   LINE      CODE     ---       #41
      0100F206H   LINE      CODE     ---       #42
      0100F206H   LINE      CODE     ---       #44
      0100F20CH   LINE      CODE     ---       #46
      0100F20FH   LINE      CODE     ---       #47
      ---         BLOCKEND  ---      ---       LVL=0
      00000002H   SYMBOL    DATA     WORD      idx

      ---         MODULE    ---      ---       MOTOR_ON_OFF
      0100F319H   PUBLIC    CODE     ---       _MOTOR_ON_OFF_Write

      0100F319H   BLOCK     CODE     ---       LVL=0
      00000007H   SYMBOL    DATA     BYTE      control
      0100F319H   LINE      CODE     ---       #37
      0100F319H   LINE      CODE     ---       #38
      0100F319H   LINE      CODE     ---       #39
      0100F31EH   LINE      CODE     ---       #40
      ---         BLOCKEND  ---      ---       LVL=0

      ---         MODULE    ---      ---       FTDI_ENABLE_REG
      0100F31FH   PUBLIC    CODE     ---       _FTDI_ENABLE_REG_Write

      0100F31FH   BLOCK     CODE     ---       LVL=0
      00000007H   SYMBOL    DATA     BYTE      control
      0100F31FH   LINE      CODE     ---       #37
      0100F31FH   LINE      CODE     ---       #38
      0100F31FH   LINE      CODE     ---       #39
      0100F324H   LINE      CODE     ---       #40
      ---         BLOCKEND  ---      ---       LVL=0

      ---         MODULE    ---      ---       RESET_FF
      0100F325H   PUBLIC    CODE     ---       _RESET_FF_Write

      0100F325H   BLOCK     CODE     ---       LVL=0
      00000007H   SYMBOL    DATA     BYTE      control
      0100F325H   LINE      CODE     ---       #37
      0100F325H   LINE      CODE     ---       #38
      0100F325H   LINE      CODE     ---       #39
LX51 LINKER/LOCATER V4.64.0.0                                                         04/04/2018  09:18:43  PAGE 120


      0100F32AH   LINE      CODE     ---       #40
      ---         BLOCKEND  ---      ---       LVL=0

      ---         MODULE    ---      ---       FF_STATUS
      0100F32BH   PUBLIC    CODE     ---       FF_STATUS_Read
      000000CAH   SFRSYM    DATA     BYTE      SFRPRT5SEL
      000000DAH   SFRSYM    DATA     BYTE      SFRPRT6SEL
      000000D0H.6 SFRSYM    DATA     BIT       AC
      000000A8H.7 SFRSYM    DATA     BIT       EA
      000000A8H   SFRSYM    DATA     BYTE      IE
      00000085H   SFRSYM    DATA     BYTE      DPH1
      00000084H   SFRSYM    DATA     BYTE      DPL1
      000000D0H.7 SFRSYM    DATA     BIT       CY
      000000A0H   SFRSYM    DATA     BYTE      P2AX
      00000095H   SFRSYM    DATA     BYTE      DPX1
      00000081H   SFRSYM    DATA     BYTE      SP
      000000D0H.2 SFRSYM    DATA     BIT       OV
      00000080H   SFRSYM    DATA     BYTE      SFRPRT0DR
      00000090H   SFRSYM    DATA     BYTE      SFRPRT1DR
      000000F2H   SFRSYM    DATA     BYTE      SFRPRT12SEL
      00000098H   SFRSYM    DATA     BYTE      SFRPRT2DR
      000000B0H   SFRSYM    DATA     BYTE      SFRPRT3DR
      000000C0H   SFRSYM    DATA     BYTE      SFRPRT4DR
      000000FAH   SFRSYM    DATA     BYTE      SFRPRT15SEL
      000000C8H   SFRSYM    DATA     BYTE      SFRPRT5DR
      000000D8H   SFRSYM    DATA     BYTE      SFRPRT6DR
      00000089H   SFRSYM    DATA     BYTE      SFRPRT0PS
      00000091H   SFRSYM    DATA     BYTE      SFRPRT1PS
      00000099H   SFRSYM    DATA     BYTE      SFRPRT2PS
      000000B1H   SFRSYM    DATA     BYTE      SFRPRT3PS
      000000C1H   SFRSYM    DATA     BYTE      SFRPRT4PS
      000000C9H   SFRSYM    DATA     BYTE      SFRPRT5PS
      000000D9H   SFRSYM    DATA     BYTE      SFRPRT6PS
      000000EAH   SFRSYM    DATA     BYTE      MXAX
      000000F0H   SFRSYM    DATA     BYTE      B
      000000E0H   SFRSYM    DATA     BYTE      ACC
      000000D0H   SFRSYM    DATA     BIT       P
      000000D0H.3 SFRSYM    DATA     BIT       RS0
      000000D0H.4 SFRSYM    DATA     BIT       RS1
      00000083H   SFRSYM    DATA     BYTE      DPH
      000000E8H   SFRSYM    DATA     BYTE      SFRPRT12DR
      00000082H   SFRSYM    DATA     BYTE      DPL
      000000F8H   SFRSYM    DATA     BYTE      SFRPRT15DR
      00000086H   SFRSYM    DATA     BYTE      DPS
      000000E9H   SFRSYM    DATA     BYTE      SFRPRT12PS
      00000093H   SFRSYM    DATA     BYTE      DPX
      000000F9H   SFRSYM    DATA     BYTE      SFRPRT15PS
      000000D0H.5 SFRSYM    DATA     BIT       F0
      000000D0H.1 SFRSYM    DATA     BIT       F1
      0000008AH   SFRSYM    DATA     BYTE      SFRPRT0SEL
      000000D0H   SFRSYM    DATA     BYTE      PSW
      000000A2H   SFRSYM    DATA     BYTE      SFRPRT1SEL
      0000009AH   SFRSYM    DATA     BYTE      SFRPRT2SEL
      000000B2H   SFRSYM    DATA     BYTE      SFRPRT3SEL
      000000C2H   SFRSYM    DATA     BYTE      SFRPRT4SEL

      0100F32BH   BLOCK     CODE     ---       LVL=0
      0100F32BH   LINE      CODE     ---       #37
      0100F32BH   LINE      CODE     ---       #38
      0100F32BH   LINE      CODE     ---       #39
      0100F330H   LINE      CODE     ---       #40
      ---         BLOCKEND  ---      ---       LVL=0
      00000007H   SYMBOL    DATA     BYTE      interruptState
      00000007H   SYMBOL    DATA     BYTE      interruptState
      00000007H   SYMBOL    DATA     BYTE      mask
LX51 LINKER/LOCATER V4.64.0.0                                                         04/04/2018  09:18:43  PAGE 121



      ---         MODULE    ---      ---       MY_TIMER
      0200132CH   PUBLIC    XDATA    BYTE      MY_TIMER_initVar
      0100F166H   PUBLIC    CODE     ---       MY_TIMER_ClearFIFO
      0100F0AFH   PUBLIC    CODE     ---       MY_TIMER_ReadCounter
      0100F224H   PUBLIC    CODE     ---       _MY_TIMER_WriteCounter
      0100F21AH   PUBLIC    CODE     ---       MY_TIMER_ReadCapture
      0100F210H   PUBLIC    CODE     ---       _MY_TIMER_WritePeriod
      0100F337H   PUBLIC    CODE     ---       MY_TIMER_ReadStatusRegister
      0100F331H   PUBLIC    CODE     ---       _MY_TIMER_SetInterruptMode
      0100EFF9H   PUBLIC    CODE     ---       MY_TIMER_Start
      0100F26EH   PUBLIC    CODE     ---       MY_TIMER_Enable
      0100EC55H   PUBLIC    CODE     ---       MY_TIMER_Init
      000000CAH   SFRSYM    DATA     BYTE      SFRPRT5SEL
      000000DAH   SFRSYM    DATA     BYTE      SFRPRT6SEL
      000000D0H.6 SFRSYM    DATA     BIT       AC
      000000A8H.7 SFRSYM    DATA     BIT       EA
      000000A8H   SFRSYM    DATA     BYTE      IE
      00000085H   SFRSYM    DATA     BYTE      DPH1
      00000084H   SFRSYM    DATA     BYTE      DPL1
      000000D0H.7 SFRSYM    DATA     BIT       CY
      000000A0H   SFRSYM    DATA     BYTE      P2AX
      00000095H   SFRSYM    DATA     BYTE      DPX1
      00000081H   SFRSYM    DATA     BYTE      SP
      000000D0H.2 SFRSYM    DATA     BIT       OV
      00000080H   SFRSYM    DATA     BYTE      SFRPRT0DR
      00000090H   SFRSYM    DATA     BYTE      SFRPRT1DR
      000000F2H   SFRSYM    DATA     BYTE      SFRPRT12SEL
      00000098H   SFRSYM    DATA     BYTE      SFRPRT2DR
      000000B0H   SFRSYM    DATA     BYTE      SFRPRT3DR
      000000C0H   SFRSYM    DATA     BYTE      SFRPRT4DR
      000000FAH   SFRSYM    DATA     BYTE      SFRPRT15SEL
      000000C8H   SFRSYM    DATA     BYTE      SFRPRT5DR
      000000D8H   SFRSYM    DATA     BYTE      SFRPRT6DR
      00000089H   SFRSYM    DATA     BYTE      SFRPRT0PS
      00000091H   SFRSYM    DATA     BYTE      SFRPRT1PS
      00000099H   SFRSYM    DATA     BYTE      SFRPRT2PS
      000000B1H   SFRSYM    DATA     BYTE      SFRPRT3PS
      000000C1H   SFRSYM    DATA     BYTE      SFRPRT4PS
      000000C9H   SFRSYM    DATA     BYTE      SFRPRT5PS
      000000D9H   SFRSYM    DATA     BYTE      SFRPRT6PS
      000000EAH   SFRSYM    DATA     BYTE      MXAX
      000000F0H   SFRSYM    DATA     BYTE      B
      000000E0H   SFRSYM    DATA     BYTE      ACC
      000000D0H   SFRSYM    DATA     BIT       P
      000000D0H.3 SFRSYM    DATA     BIT       RS0
      000000D0H.4 SFRSYM    DATA     BIT       RS1
      00000083H   SFRSYM    DATA     BYTE      DPH
      000000E8H   SFRSYM    DATA     BYTE      SFRPRT12DR
      00000082H   SFRSYM    DATA     BYTE      DPL
      000000F8H   SFRSYM    DATA     BYTE      SFRPRT15DR
      00000086H   SFRSYM    DATA     BYTE      DPS
      000000E9H   SFRSYM    DATA     BYTE      SFRPRT12PS
      00000093H   SFRSYM    DATA     BYTE      DPX
      000000F9H   SFRSYM    DATA     BYTE      SFRPRT15PS
      000000D0H.5 SFRSYM    DATA     BIT       F0
      000000D0H.1 SFRSYM    DATA     BIT       F1
      0000008AH   SFRSYM    DATA     BYTE      SFRPRT0SEL
      000000D0H   SFRSYM    DATA     BYTE      PSW
      000000A2H   SFRSYM    DATA     BYTE      SFRPRT1SEL
      0000009AH   SFRSYM    DATA     BYTE      SFRPRT2SEL
      000000B2H   SFRSYM    DATA     BYTE      SFRPRT3SEL
      000000C2H   SFRSYM    DATA     BYTE      SFRPRT4SEL

      0100EC55H   BLOCK     CODE     ---       LVL=0
LX51 LINKER/LOCATER V4.64.0.0                                                         04/04/2018  09:18:43  PAGE 122


      0100EC55H   BLOCK     CODE     NEAR LAB  LVL=1
      00000007H   SYMBOL    DATA     BYTE      MY_TIMER_interruptState
      ---         BLOCKEND  ---      ---       LVL=1
      0100EC55H   LINE      CODE     ---       #43
      0100EC55H   LINE      CODE     ---       #44
      0100EC55H   LINE      CODE     ---       #118
      0100EC60H   LINE      CODE     ---       #119
      0100EC6BH   LINE      CODE     ---       #142
      0100EC6EH   LINE      CODE     ---       #145
      0100EC75H   LINE      CODE     ---       #148
      0100EC78H   LINE      CODE     ---       #159
      0100EC7BH   LINE      CODE     ---       #162
      0100EC80H   LINE      CODE     ---       #163
      ---         BLOCKEND  ---      ---       LVL=0

      0100F26EH   BLOCK     CODE     ---       LVL=0
      0100F26EH   LINE      CODE     ---       #180
      0100F26EH   LINE      CODE     ---       #181
      0100F26EH   LINE      CODE     ---       #190
      0100F275H   LINE      CODE     ---       #192
      ---         BLOCKEND  ---      ---       LVL=0

      0100EFF9H   BLOCK     CODE     ---       LVL=0
      0100EFF9H   LINE      CODE     ---       #215
      0100EFF9H   LINE      CODE     ---       #216
      0100EFF9H   LINE      CODE     ---       #217
      0100EFFFH   LINE      CODE     ---       #218
      0100EFFFH   LINE      CODE     ---       #219
      0100F002H   LINE      CODE     ---       #221
      0100F008H   LINE      CODE     ---       #222
      0100F008H   LINE      CODE     ---       #225
      0100F00BH   LINE      CODE     ---       #226
      ---         BLOCKEND  ---      ---       LVL=0

      0100F331H   BLOCK     CODE     ---       LVL=0
      00000007H   SYMBOL    DATA     BYTE      interruptMode
      0100F331H   LINE      CODE     ---       #279
      0100F331H   LINE      CODE     ---       #280
      0100F331H   LINE      CODE     ---       #281
      0100F336H   LINE      CODE     ---       #282
      ---         BLOCKEND  ---      ---       LVL=0

      0100F337H   BLOCK     CODE     ---       LVL=0
      0100F337H   LINE      CODE     ---       #333
      0100F337H   LINE      CODE     ---       #334
      0100F337H   LINE      CODE     ---       #335
      0100F33CH   LINE      CODE     ---       #336
      ---         BLOCKEND  ---      ---       LVL=0
      00000007H   SYMBOL    DATA     BYTE      control

      0100F210H   BLOCK     CODE     ---       LVL=0
      00000004H   SYMBOL    DATA     DWORD     period
      0100F210H   LINE      CODE     ---       #431
      0100F210H   LINE      CODE     ---       #432
      0100F210H   LINE      CODE     ---       #437
      0100F219H   LINE      CODE     ---       #439
      ---         BLOCKEND  ---      ---       LVL=0

      0100F21AH   BLOCK     CODE     ---       LVL=0
      0100F21AH   LINE      CODE     ---       #456
      0100F21AH   LINE      CODE     ---       #457
      0100F21AH   LINE      CODE     ---       #461
      0100F223H   LINE      CODE     ---       #463
      ---         BLOCKEND  ---      ---       LVL=0

LX51 LINKER/LOCATER V4.64.0.0                                                         04/04/2018  09:18:43  PAGE 123


      0100F224H   BLOCK     CODE     ---       LVL=0
      00000004H   SYMBOL    DATA     DWORD     counter
      0100F224H   LINE      CODE     ---       #480
      0100F224H   LINE      CODE     ---       #481
      0100F224H   LINE      CODE     ---       #489
      0100F22DH   LINE      CODE     ---       #491
      ---         BLOCKEND  ---      ---       LVL=0

      0100F0AFH   BLOCK     CODE     ---       LVL=0
      0100F0AFH   LINE      CODE     ---       #508
      0100F0AFH   LINE      CODE     ---       #509
      0100F0AFH   LINE      CODE     ---       #516
      0100F0B4H   LINE      CODE     ---       #523
      0100F0BDH   LINE      CODE     ---       #525
      ---         BLOCKEND  ---      ---       LVL=0

      0100F166H   BLOCK     CODE     ---       LVL=0
      0100F166H   LINE      CODE     ---       #763
      0100F166H   LINE      CODE     ---       #764
      0100F166H   LINE      CODE     ---       #765
      0100F16DH   LINE      CODE     ---       #766
      0100F16DH   LINE      CODE     ---       #767
      0100F170H   LINE      CODE     ---       #768
      0100F172H   LINE      CODE     ---       #769
      ---         BLOCKEND  ---      ---       LVL=0

      ---         MODULE    ---      ---       SHIFTREG_ENC_1
      0200132DH   PUBLIC    XDATA    BYTE      SHIFTREG_ENC_1_initVar
      0100F22EH   PUBLIC    CODE     ---       SHIFTREG_ENC_1_ReadData
      0100F09EH   PUBLIC    CODE     ---       _SHIFTREG_ENC_1_SetIntMode
      0100F122H   PUBLIC    CODE     ---       SHIFTREG_ENC_1_EnableInt
      0100F33DH   PUBLIC    CODE     ---       SHIFTREG_ENC_1_Init
      0100F1D3H   PUBLIC    CODE     ---       SHIFTREG_ENC_1_Enable
      0100F00CH   PUBLIC    CODE     ---       SHIFTREG_ENC_1_Start
      000000CAH   SFRSYM    DATA     BYTE      SFRPRT5SEL
      000000DAH   SFRSYM    DATA     BYTE      SFRPRT6SEL
      000000D0H.6 SFRSYM    DATA     BIT       AC
      000000A8H.7 SFRSYM    DATA     BIT       EA
      000000A8H   SFRSYM    DATA     BYTE      IE
      00000085H   SFRSYM    DATA     BYTE      DPH1
      00000084H   SFRSYM    DATA     BYTE      DPL1
      000000D0H.7 SFRSYM    DATA     BIT       CY
      000000A0H   SFRSYM    DATA     BYTE      P2AX
      00000095H   SFRSYM    DATA     BYTE      DPX1
      00000081H   SFRSYM    DATA     BYTE      SP
      000000D0H.2 SFRSYM    DATA     BIT       OV
      00000080H   SFRSYM    DATA     BYTE      SFRPRT0DR
      00000090H   SFRSYM    DATA     BYTE      SFRPRT1DR
      000000F2H   SFRSYM    DATA     BYTE      SFRPRT12SEL
      00000098H   SFRSYM    DATA     BYTE      SFRPRT2DR
      000000B0H   SFRSYM    DATA     BYTE      SFRPRT3DR
      000000C0H   SFRSYM    DATA     BYTE      SFRPRT4DR
      000000FAH   SFRSYM    DATA     BYTE      SFRPRT15SEL
      000000C8H   SFRSYM    DATA     BYTE      SFRPRT5DR
      000000D8H   SFRSYM    DATA     BYTE      SFRPRT6DR
      00000089H   SFRSYM    DATA     BYTE      SFRPRT0PS
      00000091H   SFRSYM    DATA     BYTE      SFRPRT1PS
      00000099H   SFRSYM    DATA     BYTE      SFRPRT2PS
      000000B1H   SFRSYM    DATA     BYTE      SFRPRT3PS
      000000C1H   SFRSYM    DATA     BYTE      SFRPRT4PS
      000000C9H   SFRSYM    DATA     BYTE      SFRPRT5PS
      000000D9H   SFRSYM    DATA     BYTE      SFRPRT6PS
      000000EAH   SFRSYM    DATA     BYTE      MXAX
      000000F0H   SFRSYM    DATA     BYTE      B
      000000E0H   SFRSYM    DATA     BYTE      ACC
LX51 LINKER/LOCATER V4.64.0.0                                                         04/04/2018  09:18:43  PAGE 124


      000000D0H   SFRSYM    DATA     BIT       P
      000000D0H.3 SFRSYM    DATA     BIT       RS0
      000000D0H.4 SFRSYM    DATA     BIT       RS1
      00000083H   SFRSYM    DATA     BYTE      DPH
      000000E8H   SFRSYM    DATA     BYTE      SFRPRT12DR
      00000082H   SFRSYM    DATA     BYTE      DPL
      000000F8H   SFRSYM    DATA     BYTE      SFRPRT15DR
      00000086H   SFRSYM    DATA     BYTE      DPS
      000000E9H   SFRSYM    DATA     BYTE      SFRPRT12PS
      00000093H   SFRSYM    DATA     BYTE      DPX
      000000F9H   SFRSYM    DATA     BYTE      SFRPRT15PS
      000000D0H.5 SFRSYM    DATA     BIT       F0
      000000D0H.1 SFRSYM    DATA     BIT       F1
      0000008AH   SFRSYM    DATA     BYTE      SFRPRT0SEL
      000000D0H   SFRSYM    DATA     BYTE      PSW
      000000A2H   SFRSYM    DATA     BYTE      SFRPRT1SEL
      0000009AH   SFRSYM    DATA     BYTE      SFRPRT2SEL
      000000B2H   SFRSYM    DATA     BYTE      SFRPRT3SEL
      000000C2H   SFRSYM    DATA     BYTE      SFRPRT4SEL

      0100F00CH   BLOCK     CODE     ---       LVL=0
      0100F00CH   LINE      CODE     ---       #43
      0100F00CH   LINE      CODE     ---       #44
      0100F00CH   LINE      CODE     ---       #45
      0100F012H   LINE      CODE     ---       #46
      0100F012H   LINE      CODE     ---       #47
      0100F015H   LINE      CODE     ---       #48
      0100F01BH   LINE      CODE     ---       #49
      0100F01BH   LINE      CODE     ---       #51
      0100F01EH   LINE      CODE     ---       #52
      ---         BLOCKEND  ---      ---       LVL=0

      0100F1D3H   BLOCK     CODE     ---       LVL=0
      0100F1D3H   LINE      CODE     ---       #69
      0100F1D3H   LINE      CODE     ---       #70
      0100F1D3H   LINE      CODE     ---       #73
      0100F1DAH   LINE      CODE     ---       #75
      0100F1DDH   LINE      CODE     ---       #76
      ---         BLOCKEND  ---      ---       LVL=0

      0100F33DH   BLOCK     CODE     ---       LVL=0
      0100F33DH   LINE      CODE     ---       #93
      0100F33DH   LINE      CODE     ---       #94
      0100F33DH   LINE      CODE     ---       #95
      0100F342H   LINE      CODE     ---       #96
      ---         BLOCKEND  ---      ---       LVL=0

      0100F122H   BLOCK     CODE     ---       LVL=0
      0100F122H   BLOCK     CODE     NEAR LAB  LVL=1
      00000007H   SYMBOL    DATA     BYTE      interruptState
      ---         BLOCKEND  ---      ---       LVL=1
      0100F122H   LINE      CODE     ---       #135
      0100F122H   LINE      CODE     ---       #136
      0100F122H   LINE      CODE     ---       #139
      0100F125H   LINE      CODE     ---       #140
      0100F12CH   LINE      CODE     ---       #141
      0100F12FH   LINE      CODE     ---       #142
      ---         BLOCKEND  ---      ---       LVL=0
      00000007H   SYMBOL    DATA     BYTE      interruptState
      00000007H   SYMBOL    DATA     BYTE      fifoId
      00000005H   SYMBOL    DATA     BYTE      result

      0100F09EH   BLOCK     CODE     ---       LVL=0
      00000007H   SYMBOL    DATA     BYTE      interruptSource
      0100F09EH   LINE      CODE     ---       #261
LX51 LINKER/LOCATER V4.64.0.0                                                         04/04/2018  09:18:43  PAGE 125


      0100F09EH   LINE      CODE     ---       #262
      0100F09EH   LINE      CODE     ---       #263
      0100F0A5H   LINE      CODE     ---       #264
      0100F0AEH   LINE      CODE     ---       #265
      ---         BLOCKEND  ---      ---       LVL=0
      00000004H   SYMBOL    DATA     DWORD     shiftData

      0100F22EH   BLOCK     CODE     ---       LVL=0
      0100F22EH   LINE      CODE     ---       #366
      0100F22EH   LINE      CODE     ---       #367
      0100F22EH   LINE      CODE     ---       #368
      0100F237H   LINE      CODE     ---       #369
      ---         BLOCKEND  ---      ---       LVL=0

      ---         MODULE    ---      ---       RESET_COUNTERS
      0100F343H   PUBLIC    CODE     ---       _RESET_COUNTERS_Write

      0100F343H   BLOCK     CODE     ---       LVL=0
      00000007H   SYMBOL    DATA     BYTE      control
      0100F343H   LINE      CODE     ---       #37
      0100F343H   LINE      CODE     ---       #38
      0100F343H   LINE      CODE     ---       #39
      0100F348H   LINE      CODE     ---       #40
      ---         BLOCKEND  ---      ---       LVL=0

      ---         MODULE    ---      ---       ADC_STATUS
      0100F349H   PUBLIC    CODE     ---       ADC_STATUS_Read
      000000CAH   SFRSYM    DATA     BYTE      SFRPRT5SEL
      000000DAH   SFRSYM    DATA     BYTE      SFRPRT6SEL
      000000D0H.6 SFRSYM    DATA     BIT       AC
      000000A8H.7 SFRSYM    DATA     BIT       EA
      000000A8H   SFRSYM    DATA     BYTE      IE
      00000085H   SFRSYM    DATA     BYTE      DPH1
      00000084H   SFRSYM    DATA     BYTE      DPL1
      000000D0H.7 SFRSYM    DATA     BIT       CY
      000000A0H   SFRSYM    DATA     BYTE      P2AX
      00000095H   SFRSYM    DATA     BYTE      DPX1
      00000081H   SFRSYM    DATA     BYTE      SP
      000000D0H.2 SFRSYM    DATA     BIT       OV
      00000080H   SFRSYM    DATA     BYTE      SFRPRT0DR
      00000090H   SFRSYM    DATA     BYTE      SFRPRT1DR
      000000F2H   SFRSYM    DATA     BYTE      SFRPRT12SEL
      00000098H   SFRSYM    DATA     BYTE      SFRPRT2DR
      000000B0H   SFRSYM    DATA     BYTE      SFRPRT3DR
      000000C0H   SFRSYM    DATA     BYTE      SFRPRT4DR
      000000FAH   SFRSYM    DATA     BYTE      SFRPRT15SEL
      000000C8H   SFRSYM    DATA     BYTE      SFRPRT5DR
      000000D8H   SFRSYM    DATA     BYTE      SFRPRT6DR
      00000089H   SFRSYM    DATA     BYTE      SFRPRT0PS
      00000091H   SFRSYM    DATA     BYTE      SFRPRT1PS
      00000099H   SFRSYM    DATA     BYTE      SFRPRT2PS
      000000B1H   SFRSYM    DATA     BYTE      SFRPRT3PS
      000000C1H   SFRSYM    DATA     BYTE      SFRPRT4PS
      000000C9H   SFRSYM    DATA     BYTE      SFRPRT5PS
      000000D9H   SFRSYM    DATA     BYTE      SFRPRT6PS
      000000EAH   SFRSYM    DATA     BYTE      MXAX
      000000F0H   SFRSYM    DATA     BYTE      B
      000000E0H   SFRSYM    DATA     BYTE      ACC
      000000D0H   SFRSYM    DATA     BIT       P
      000000D0H.3 SFRSYM    DATA     BIT       RS0
      000000D0H.4 SFRSYM    DATA     BIT       RS1
      00000083H   SFRSYM    DATA     BYTE      DPH
      000000E8H   SFRSYM    DATA     BYTE      SFRPRT12DR
      00000082H   SFRSYM    DATA     BYTE      DPL
      000000F8H   SFRSYM    DATA     BYTE      SFRPRT15DR
LX51 LINKER/LOCATER V4.64.0.0                                                         04/04/2018  09:18:43  PAGE 126


      00000086H   SFRSYM    DATA     BYTE      DPS
      000000E9H   SFRSYM    DATA     BYTE      SFRPRT12PS
      00000093H   SFRSYM    DATA     BYTE      DPX
      000000F9H   SFRSYM    DATA     BYTE      SFRPRT15PS
      000000D0H.5 SFRSYM    DATA     BIT       F0
      000000D0H.1 SFRSYM    DATA     BIT       F1
      0000008AH   SFRSYM    DATA     BYTE      SFRPRT0SEL
      000000D0H   SFRSYM    DATA     BYTE      PSW
      000000A2H   SFRSYM    DATA     BYTE      SFRPRT1SEL
      0000009AH   SFRSYM    DATA     BYTE      SFRPRT2SEL
      000000B2H   SFRSYM    DATA     BYTE      SFRPRT3SEL
      000000C2H   SFRSYM    DATA     BYTE      SFRPRT4SEL

      0100F349H   BLOCK     CODE     ---       LVL=0
      0100F349H   LINE      CODE     ---       #37
      0100F349H   LINE      CODE     ---       #38
      0100F349H   LINE      CODE     ---       #39
      0100F34EH   LINE      CODE     ---       #40
      ---         BLOCKEND  ---      ---       LVL=0
      00000007H   SYMBOL    DATA     BYTE      interruptState
      00000007H   SYMBOL    DATA     BYTE      interruptState
      00000007H   SYMBOL    DATA     BYTE      mask

      ---         MODULE    ---      ---       DMA_DMA
      0200132EH   PUBLIC    XDATA    BYTE      DMA_DmaHandle
      02000002H   PUBLIC    XDATA    BYTE      ?_DMA_DmaInitialize?BYTE
      0100E63BH   PUBLIC    CODE     ---       _DMA_DmaInitialize
      000000CAH   SFRSYM    DATA     BYTE      SFRPRT5SEL
      000000DAH   SFRSYM    DATA     BYTE      SFRPRT6SEL
      000000D0H.6 SFRSYM    DATA     BIT       AC
      000000A8H.7 SFRSYM    DATA     BIT       EA
      000000A8H   SFRSYM    DATA     BYTE      IE
      00000085H   SFRSYM    DATA     BYTE      DPH1
      00000084H   SFRSYM    DATA     BYTE      DPL1
      000000D0H.7 SFRSYM    DATA     BIT       CY
      000000A0H   SFRSYM    DATA     BYTE      P2AX
      00000095H   SFRSYM    DATA     BYTE      DPX1
      00000081H   SFRSYM    DATA     BYTE      SP
      000000D0H.2 SFRSYM    DATA     BIT       OV
      00000080H   SFRSYM    DATA     BYTE      SFRPRT0DR
      00000090H   SFRSYM    DATA     BYTE      SFRPRT1DR
      000000F2H   SFRSYM    DATA     BYTE      SFRPRT12SEL
      00000098H   SFRSYM    DATA     BYTE      SFRPRT2DR
      000000B0H   SFRSYM    DATA     BYTE      SFRPRT3DR
      000000C0H   SFRSYM    DATA     BYTE      SFRPRT4DR
      000000FAH   SFRSYM    DATA     BYTE      SFRPRT15SEL
      000000C8H   SFRSYM    DATA     BYTE      SFRPRT5DR
      000000D8H   SFRSYM    DATA     BYTE      SFRPRT6DR
      00000089H   SFRSYM    DATA     BYTE      SFRPRT0PS
      00000091H   SFRSYM    DATA     BYTE      SFRPRT1PS
      00000099H   SFRSYM    DATA     BYTE      SFRPRT2PS
      000000B1H   SFRSYM    DATA     BYTE      SFRPRT3PS
      000000C1H   SFRSYM    DATA     BYTE      SFRPRT4PS
      000000C9H   SFRSYM    DATA     BYTE      SFRPRT5PS
      000000D9H   SFRSYM    DATA     BYTE      SFRPRT6PS
      000000EAH   SFRSYM    DATA     BYTE      MXAX
      000000F0H   SFRSYM    DATA     BYTE      B
      000000E0H   SFRSYM    DATA     BYTE      ACC
      000000D0H   SFRSYM    DATA     BIT       P
      000000D0H.3 SFRSYM    DATA     BIT       RS0
      000000D0H.4 SFRSYM    DATA     BIT       RS1
      00000083H   SFRSYM    DATA     BYTE      DPH
      000000E8H   SFRSYM    DATA     BYTE      SFRPRT12DR
      00000082H   SFRSYM    DATA     BYTE      DPL
      000000F8H   SFRSYM    DATA     BYTE      SFRPRT15DR
LX51 LINKER/LOCATER V4.64.0.0                                                         04/04/2018  09:18:43  PAGE 127


      00000086H   SFRSYM    DATA     BYTE      DPS
      000000E9H   SFRSYM    DATA     BYTE      SFRPRT12PS
      00000093H   SFRSYM    DATA     BYTE      DPX
      000000F9H   SFRSYM    DATA     BYTE      SFRPRT15PS
      000000D0H.5 SFRSYM    DATA     BIT       F0
      000000D0H.1 SFRSYM    DATA     BIT       F1
      0000008AH   SFRSYM    DATA     BYTE      SFRPRT0SEL
      000000D0H   SFRSYM    DATA     BYTE      PSW
      000000A2H   SFRSYM    DATA     BYTE      SFRPRT1SEL
      0000009AH   SFRSYM    DATA     BYTE      SFRPRT2SEL
      000000B2H   SFRSYM    DATA     BYTE      SFRPRT3SEL
      000000C2H   SFRSYM    DATA     BYTE      SFRPRT4SEL

      0100E63BH   BLOCK     CODE     ---       LVL=0
      00000007H   SYMBOL    DATA     BYTE      BurstCount
      00000006H   SYMBOL    DATA     BYTE      ReqestPerBurst
      02000004H   SYMBOL    XDATA    WORD      UpperSrcAddress
      02000006H   SYMBOL    XDATA    WORD      UpperDestAddress
      0100E63BH   LINE      CODE     ---       #97
      0100E645H   LINE      CODE     ---       #98
      0100E645H   LINE      CODE     ---       #101
      0100E64BH   LINE      CODE     ---       #109
      0100E65FH   LINE      CODE     ---       #112
      0100E675H   LINE      CODE     ---       #115
      0100E67FH   LINE      CODE     ---       #117
      0100E684H   LINE      CODE     ---       #118
      ---         BLOCKEND  ---      ---       LVL=0

      ---         MODULE    ---      ---       ADC_SOC
      0100F34FH   PUBLIC    CODE     ---       _ADC_SOC_Write

      0100F34FH   BLOCK     CODE     ---       LVL=0
      00000007H   SYMBOL    DATA     BYTE      control
      0100F34FH   LINE      CODE     ---       #37
      0100F34FH   LINE      CODE     ---       #38
      0100F34FH   LINE      CODE     ---       #39
      0100F354H   LINE      CODE     ---       #40
      ---         BLOCKEND  ---      ---       LVL=0

      ---         MODULE    ---      ---       ISR_WATCHDOG
      0100F2B2H   PUBLIC    CODE     ---       ISR_WATCHDOG_Disable
      0100F2ABH   PUBLIC    CODE     ---       ISR_WATCHDOG_Enable
      0100F238H   PUBLIC    CODE     ---       _ISR_WATCHDOG_SetPriority
      0100F130H   PUBLIC    CODE     ---       _ISR_WATCHDOG_SetVector
      0100F395H   PUBLIC    CODE     ---       ISR_WATCHDOG_Interrupt
      0100EDE4H   PUBLIC    CODE     ---       _ISR_WATCHDOG_StartEx
      000000CAH   SFRSYM    DATA     BYTE      SFRPRT5SEL
      000000DAH   SFRSYM    DATA     BYTE      SFRPRT6SEL
      000000D0H.6 SFRSYM    DATA     BIT       AC
      000000A8H.7 SFRSYM    DATA     BIT       EA
      000000A8H   SFRSYM    DATA     BYTE      IE
      00000085H   SFRSYM    DATA     BYTE      DPH1
      00000084H   SFRSYM    DATA     BYTE      DPL1
      000000D0H.7 SFRSYM    DATA     BIT       CY
      000000A0H   SFRSYM    DATA     BYTE      P2AX
      00000095H   SFRSYM    DATA     BYTE      DPX1
      00000081H   SFRSYM    DATA     BYTE      SP
      000000D0H.2 SFRSYM    DATA     BIT       OV
      00000080H   SFRSYM    DATA     BYTE      SFRPRT0DR
      00000090H   SFRSYM    DATA     BYTE      SFRPRT1DR
      000000F2H   SFRSYM    DATA     BYTE      SFRPRT12SEL
      00000098H   SFRSYM    DATA     BYTE      SFRPRT2DR
      000000B0H   SFRSYM    DATA     BYTE      SFRPRT3DR
      000000C0H   SFRSYM    DATA     BYTE      SFRPRT4DR
      000000FAH   SFRSYM    DATA     BYTE      SFRPRT15SEL
LX51 LINKER/LOCATER V4.64.0.0                                                         04/04/2018  09:18:43  PAGE 128


      000000C8H   SFRSYM    DATA     BYTE      SFRPRT5DR
      000000D8H   SFRSYM    DATA     BYTE      SFRPRT6DR
      00000089H   SFRSYM    DATA     BYTE      SFRPRT0PS
      00000091H   SFRSYM    DATA     BYTE      SFRPRT1PS
      00000099H   SFRSYM    DATA     BYTE      SFRPRT2PS
      000000B1H   SFRSYM    DATA     BYTE      SFRPRT3PS
      000000C1H   SFRSYM    DATA     BYTE      SFRPRT4PS
      000000C9H   SFRSYM    DATA     BYTE      SFRPRT5PS
      000000D9H   SFRSYM    DATA     BYTE      SFRPRT6PS
      000000EAH   SFRSYM    DATA     BYTE      MXAX
      000000F0H   SFRSYM    DATA     BYTE      B
      000000E0H   SFRSYM    DATA     BYTE      ACC
      000000D0H   SFRSYM    DATA     BIT       P
      000000D0H.3 SFRSYM    DATA     BIT       RS0
      000000D0H.4 SFRSYM    DATA     BIT       RS1
      00000083H   SFRSYM    DATA     BYTE      DPH
      000000E8H   SFRSYM    DATA     BYTE      SFRPRT12DR
      00000082H   SFRSYM    DATA     BYTE      DPL
      000000F8H   SFRSYM    DATA     BYTE      SFRPRT15DR
      00000086H   SFRSYM    DATA     BYTE      DPS
      000000E9H   SFRSYM    DATA     BYTE      SFRPRT12PS
      00000093H   SFRSYM    DATA     BYTE      DPX
      000000F9H   SFRSYM    DATA     BYTE      SFRPRT15PS
      000000D0H.5 SFRSYM    DATA     BIT       F0
      000000D0H.1 SFRSYM    DATA     BIT       F1
      0000008AH   SFRSYM    DATA     BYTE      SFRPRT0SEL
      000000D0H   SFRSYM    DATA     BYTE      PSW
      000000A2H   SFRSYM    DATA     BYTE      SFRPRT1SEL
      0000009AH   SFRSYM    DATA     BYTE      SFRPRT2SEL
      000000B2H   SFRSYM    DATA     BYTE      SFRPRT3SEL
      000000C2H   SFRSYM    DATA     BYTE      SFRPRT4SEL

      0100EDE4H   BLOCK     CODE     ---       LVL=0
      02000002H   SYMBOL    XDATA    ---       address
      0100EDE4H   LINE      CODE     ---       #94
      0100EDECH   LINE      CODE     ---       #95
      0100EDECH   LINE      CODE     ---       #97
      0100EDEFH   LINE      CODE     ---       #100
      0100EDFAH   LINE      CODE     ---       #103
      0100EDFFH   LINE      CODE     ---       #106
      0100EE02H   LINE      CODE     ---       #107
      ---         BLOCKEND  ---      ---       LVL=0

      0100F395H   BLOCK     CODE     ---       LVL=0
      0100F395H   LINE      CODE     ---       #151
      0100F395H   LINE      CODE     ---       #168
      ---         BLOCKEND  ---      ---       LVL=0

      0100F130H   BLOCK     CODE     ---       LVL=0
      00000006H   SYMBOL    DATA     ---       address
      0100F130H   LINE      CODE     ---       #198
      0100F130H   LINE      CODE     ---       #199
      0100F130H   LINE      CODE     ---       #200
      0100F13DH   LINE      CODE     ---       #201
      ---         BLOCKEND  ---      ---       LVL=0

      0100F238H   BLOCK     CODE     ---       LVL=0
      00000007H   SYMBOL    DATA     BYTE      priority
      0100F238H   LINE      CODE     ---       #248
      0100F238H   LINE      CODE     ---       #249
      0100F238H   LINE      CODE     ---       #250
      0100F241H   LINE      CODE     ---       #251
      ---         BLOCKEND  ---      ---       LVL=0
      00000007H   SYMBOL    DATA     BYTE      priority

LX51 LINKER/LOCATER V4.64.0.0                                                         04/04/2018  09:18:43  PAGE 129


      0100F2ABH   BLOCK     CODE     ---       LVL=0
      0100F2ABH   LINE      CODE     ---       #297
      0100F2ABH   LINE      CODE     ---       #298
      0100F2ABH   LINE      CODE     ---       #300
      0100F2B1H   LINE      CODE     ---       #301
      ---         BLOCKEND  ---      ---       LVL=0

      0100F2B2H   BLOCK     CODE     ---       LVL=0
      0100F2B2H   LINE      CODE     ---       #339
      0100F2B2H   LINE      CODE     ---       #340
      0100F2B2H   LINE      CODE     ---       #342
      0100F2B8H   LINE      CODE     ---       #343
      ---         BLOCKEND  ---      ---       LVL=0

      ---         MODULE    ---      ---       WATCHDOG_COUNTER
      0200132FH   PUBLIC    XDATA    BYTE      WATCHDOG_COUNTER_initVar
      0100F13EH   PUBLIC    CODE     ---       _WATCHDOG_COUNTER_WritePeriod
      0100EE40H   PUBLIC    CODE     ---       _WATCHDOG_COUNTER_WriteCounter
      0100F355H   PUBLIC    CODE     ---       _WATCHDOG_COUNTER_SetInterruptMode
      0100F01FH   PUBLIC    CODE     ---       WATCHDOG_COUNTER_Start
      0100EF08H   PUBLIC    CODE     ---       WATCHDOG_COUNTER_Enable
      0100E94AH   PUBLIC    CODE     ---       WATCHDOG_COUNTER_Init
      000000CAH   SFRSYM    DATA     BYTE      SFRPRT5SEL
      000000DAH   SFRSYM    DATA     BYTE      SFRPRT6SEL
      000000D0H.6 SFRSYM    DATA     BIT       AC
      000000A8H.7 SFRSYM    DATA     BIT       EA
      000000A8H   SFRSYM    DATA     BYTE      IE
      00000085H   SFRSYM    DATA     BYTE      DPH1
      00000084H   SFRSYM    DATA     BYTE      DPL1
      000000D0H.7 SFRSYM    DATA     BIT       CY
      000000A0H   SFRSYM    DATA     BYTE      P2AX
      00000095H   SFRSYM    DATA     BYTE      DPX1
      00000081H   SFRSYM    DATA     BYTE      SP
      000000D0H.2 SFRSYM    DATA     BIT       OV
      00000080H   SFRSYM    DATA     BYTE      SFRPRT0DR
      00000090H   SFRSYM    DATA     BYTE      SFRPRT1DR
      000000F2H   SFRSYM    DATA     BYTE      SFRPRT12SEL
      00000098H   SFRSYM    DATA     BYTE      SFRPRT2DR
      000000B0H   SFRSYM    DATA     BYTE      SFRPRT3DR
      000000C0H   SFRSYM    DATA     BYTE      SFRPRT4DR
      000000FAH   SFRSYM    DATA     BYTE      SFRPRT15SEL
      000000C8H   SFRSYM    DATA     BYTE      SFRPRT5DR
      000000D8H   SFRSYM    DATA     BYTE      SFRPRT6DR
      00000089H   SFRSYM    DATA     BYTE      SFRPRT0PS
      00000091H   SFRSYM    DATA     BYTE      SFRPRT1PS
      00000099H   SFRSYM    DATA     BYTE      SFRPRT2PS
      000000B1H   SFRSYM    DATA     BYTE      SFRPRT3PS
      000000C1H   SFRSYM    DATA     BYTE      SFRPRT4PS
      000000C9H   SFRSYM    DATA     BYTE      SFRPRT5PS
      000000D9H   SFRSYM    DATA     BYTE      SFRPRT6PS
      000000EAH   SFRSYM    DATA     BYTE      MXAX
      000000F0H   SFRSYM    DATA     BYTE      B
      000000E0H   SFRSYM    DATA     BYTE      ACC
      000000D0H   SFRSYM    DATA     BIT       P
      000000D0H.3 SFRSYM    DATA     BIT       RS0
      000000D0H.4 SFRSYM    DATA     BIT       RS1
      00000083H   SFRSYM    DATA     BYTE      DPH
      000000E8H   SFRSYM    DATA     BYTE      SFRPRT12DR
      00000082H   SFRSYM    DATA     BYTE      DPL
      000000F8H   SFRSYM    DATA     BYTE      SFRPRT15DR
      00000086H   SFRSYM    DATA     BYTE      DPS
      000000E9H   SFRSYM    DATA     BYTE      SFRPRT12PS
      00000093H   SFRSYM    DATA     BYTE      DPX
      000000F9H   SFRSYM    DATA     BYTE      SFRPRT15PS
      000000D0H.5 SFRSYM    DATA     BIT       F0
LX51 LINKER/LOCATER V4.64.0.0                                                         04/04/2018  09:18:43  PAGE 130


      000000D0H.1 SFRSYM    DATA     BIT       F1
      0000008AH   SFRSYM    DATA     BYTE      SFRPRT0SEL
      000000D0H   SFRSYM    DATA     BYTE      PSW
      000000A2H   SFRSYM    DATA     BYTE      SFRPRT1SEL
      0000009AH   SFRSYM    DATA     BYTE      SFRPRT2SEL
      000000B2H   SFRSYM    DATA     BYTE      SFRPRT3SEL
      000000C2H   SFRSYM    DATA     BYTE      SFRPRT4SEL

      0100E94AH   BLOCK     CODE     ---       LVL=0
      0100E94AH   LINE      CODE     ---       #37
      0100E94AH   LINE      CODE     ---       #38
      0100E94AH   LINE      CODE     ---       #50
      0100E951H   LINE      CODE     ---       #57
      0100E958H   LINE      CODE     ---       #66
      0100E95FH   LINE      CODE     ---       #69
      0100E966H   LINE      CODE     ---       #70
      0100E96AH   LINE      CODE     ---       #73
      0100E96EH   LINE      CODE     ---       #74
      0100E972H   LINE      CODE     ---       #100
      0100E977H   LINE      CODE     ---       #102
      0100E97CH   LINE      CODE     ---       #104
      0100E981H   LINE      CODE     ---       #123
      ---         BLOCKEND  ---      ---       LVL=0

      0100EF08H   BLOCK     CODE     ---       LVL=0
      0100EF08H   LINE      CODE     ---       #143
      0100EF08H   LINE      CODE     ---       #144
      0100EF08H   LINE      CODE     ---       #147
      0100EF0FH   LINE      CODE     ---       #148
      0100EF16H   LINE      CODE     ---       #155
      0100EF1DH   LINE      CODE     ---       #158
      ---         BLOCKEND  ---      ---       LVL=0

      0100F01FH   BLOCK     CODE     ---       LVL=0
      0100F01FH   LINE      CODE     ---       #178
      0100F01FH   LINE      CODE     ---       #179
      0100F01FH   LINE      CODE     ---       #180
      0100F025H   LINE      CODE     ---       #181
      0100F025H   LINE      CODE     ---       #182
      0100F028H   LINE      CODE     ---       #184
      0100F02EH   LINE      CODE     ---       #185
      0100F02EH   LINE      CODE     ---       #188
      0100F031H   LINE      CODE     ---       #189
      ---         BLOCKEND  ---      ---       LVL=0

      0100F355H   BLOCK     CODE     ---       LVL=0
      00000007H   SYMBOL    DATA     BYTE      interruptsMask
      0100F355H   LINE      CODE     ---       #237
      0100F355H   LINE      CODE     ---       #238
      0100F355H   LINE      CODE     ---       #239
      0100F35AH   LINE      CODE     ---       #240
      ---         BLOCKEND  ---      ---       LVL=0
      00000007H   SYMBOL    DATA     BYTE      control

      0100EE40H   BLOCK     CODE     ---       LVL=0
      00000007H   SYMBOL    DATA     BYTE      counter
      0100EE40H   LINE      CODE     ---       #326
      0100EE40H   LINE      CODE     ---       #328
      0100EE40H   LINE      CODE     ---       #333
      0100EE47H   LINE      CODE     ---       #334
      0100EE54H   LINE      CODE     ---       #335
      0100EE5BH   LINE      CODE     ---       #339
      ---         BLOCKEND  ---      ---       LVL=0

      0100F13EH   BLOCK     CODE     ---       LVL=0
LX51 LINKER/LOCATER V4.64.0.0                                                         04/04/2018  09:18:43  PAGE 131


      00000007H   SYMBOL    DATA     BYTE      period
      0100F13EH   LINE      CODE     ---       #415
      0100F13EH   LINE      CODE     ---       #416
      0100F13EH   LINE      CODE     ---       #418
      0100F14BH   LINE      CODE     ---       #422
      ---         BLOCKEND  ---      ---       LVL=0

      ---         MODULE    ---      ---       WATCHDOG_ENABLER
      0100F35BH   PUBLIC    CODE     ---       _WATCHDOG_ENABLER_Write

      0100F35BH   BLOCK     CODE     ---       LVL=0
      00000007H   SYMBOL    DATA     BYTE      control
      0100F35BH   LINE      CODE     ---       #37
      0100F35BH   LINE      CODE     ---       #38
      0100F35BH   LINE      CODE     ---       #39
      0100F360H   LINE      CODE     ---       #40
      ---         BLOCKEND  ---      ---       LVL=0

      ---         MODULE    ---      ---       WATCHDOG_REFRESH
      0100F361H   PUBLIC    CODE     ---       _WATCHDOG_REFRESH_Write

      0100F361H   BLOCK     CODE     ---       LVL=0
      00000007H   SYMBOL    DATA     BYTE      control
      0100F361H   LINE      CODE     ---       #37
      0100F361H   LINE      CODE     ---       #38
      0100F361H   LINE      CODE     ---       #39
      0100F366H   LINE      CODE     ---       #40
      ---         BLOCKEND  ---      ---       LVL=0

      ---         MODULE    ---      ---       CYDMAC
      0100DE8FH   PUBLIC    CODE     ---       _CyDmaTdSetAddress
      02000002H   PUBLIC    XDATA    BYTE      ?_CyDmaTdSetConfiguration?BYTE
      0100D801H   PUBLIC    CODE     ---       _CyDmaTdSetConfiguration
      0100E81DH   PUBLIC    CODE     ---       CyDmaTdAllocate
      02000008H   PUBLIC    XDATA    BYTE      ?_CyDmaChSetConfiguration?BYTE
      0100DD9EH   PUBLIC    CODE     ---       _CyDmaChSetConfiguration
      0100EE22H   PUBLIC    CODE     ---       _CyDmaChSetInitialTd
      0100DE17H   PUBLIC    CODE     ---       _CyDmaChSetExtendedAddress
      0100E7DDH   PUBLIC    CODE     ---       _CyDmaChPriority
      0100E5F0H   PUBLIC    CODE     ---       _CyDmaChEnable
      0100E982H   PUBLIC    CODE     ---       CyDmacConfigure
      000000CAH   SFRSYM    DATA     BYTE      SFRPRT5SEL
      000000DAH   SFRSYM    DATA     BYTE      SFRPRT6SEL
      000000D0H.6 SFRSYM    DATA     BIT       AC
      000000A8H.7 SFRSYM    DATA     BIT       EA
      000000A8H   SFRSYM    DATA     BYTE      IE
      00000085H   SFRSYM    DATA     BYTE      DPH1
      00000084H   SFRSYM    DATA     BYTE      DPL1
      000000D0H.7 SFRSYM    DATA     BIT       CY
      000000A0H   SFRSYM    DATA     BYTE      P2AX
      00000095H   SFRSYM    DATA     BYTE      DPX1
      00000081H   SFRSYM    DATA     BYTE      SP
      000000D0H.2 SFRSYM    DATA     BIT       OV
      00000080H   SFRSYM    DATA     BYTE      SFRPRT0DR
      00000090H   SFRSYM    DATA     BYTE      SFRPRT1DR
      000000F2H   SFRSYM    DATA     BYTE      SFRPRT12SEL
      00000098H   SFRSYM    DATA     BYTE      SFRPRT2DR
      000000B0H   SFRSYM    DATA     BYTE      SFRPRT3DR
      000000C0H   SFRSYM    DATA     BYTE      SFRPRT4DR
      000000FAH   SFRSYM    DATA     BYTE      SFRPRT15SEL
      000000C8H   SFRSYM    DATA     BYTE      SFRPRT5DR
      000000D8H   SFRSYM    DATA     BYTE      SFRPRT6DR
      00000089H   SFRSYM    DATA     BYTE      SFRPRT0PS
      00000091H   SFRSYM    DATA     BYTE      SFRPRT1PS
      00000099H   SFRSYM    DATA     BYTE      SFRPRT2PS
LX51 LINKER/LOCATER V4.64.0.0                                                         04/04/2018  09:18:43  PAGE 132


      000000B1H   SFRSYM    DATA     BYTE      SFRPRT3PS
      000000C1H   SFRSYM    DATA     BYTE      SFRPRT4PS
      000000C9H   SFRSYM    DATA     BYTE      SFRPRT5PS
      000000D9H   SFRSYM    DATA     BYTE      SFRPRT6PS
      000000EAH   SFRSYM    DATA     BYTE      MXAX
      000000F0H   SFRSYM    DATA     BYTE      B
      000000E0H   SFRSYM    DATA     BYTE      ACC
      000000D0H   SFRSYM    DATA     BIT       P
      000000D0H.3 SFRSYM    DATA     BIT       RS0
      000000D0H.4 SFRSYM    DATA     BIT       RS1
      00000083H   SFRSYM    DATA     BYTE      DPH
      000000E8H   SFRSYM    DATA     BYTE      SFRPRT12DR
      00000082H   SFRSYM    DATA     BYTE      DPL
      000000F8H   SFRSYM    DATA     BYTE      SFRPRT15DR
      00000086H   SFRSYM    DATA     BYTE      DPS
      000000E9H   SFRSYM    DATA     BYTE      SFRPRT12PS
      00000093H   SFRSYM    DATA     BYTE      DPX
      000000F9H   SFRSYM    DATA     BYTE      SFRPRT15PS
      000000D0H.5 SFRSYM    DATA     BIT       F0
      000000D0H.1 SFRSYM    DATA     BIT       F1
      0000008AH   SFRSYM    DATA     BYTE      SFRPRT0SEL
      000000D0H   SFRSYM    DATA     BYTE      PSW
      000000A2H   SFRSYM    DATA     BYTE      SFRPRT1SEL
      0000009AH   SFRSYM    DATA     BYTE      SFRPRT2SEL
      000000B2H   SFRSYM    DATA     BYTE      SFRPRT3SEL
      000000C2H   SFRSYM    DATA     BYTE      SFRPRT4SEL
      02001316H   SYMBOL    XDATA    DWORD     CyDmaChannels
      0200131AH   SYMBOL    XDATA    BYTE      CyDmaTdFreeIndex
      0200131BH   SYMBOL    XDATA    BYTE      CyDmaTdCurrentNumber

      0100E982H   BLOCK     CODE     ---       LVL=0
      0100E982H   BLOCK     CODE     NEAR LAB  LVL=1
      00000007H   SYMBOL    DATA     BYTE      dmaIndex
      ---         BLOCKEND  ---      ---       LVL=1
      0100E982H   LINE      CODE     ---       #53
      0100E982H   LINE      CODE     ---       #54
      0100E982H   LINE      CODE     ---       #58
      0100E988H   LINE      CODE     ---       #59
      0100E98BH   LINE      CODE     ---       #62
      0100E990H   LINE      CODE     ---       #63
      0100E990H   LINE      CODE     ---       #64
      0100E9A3H   LINE      CODE     ---       #65
      0100E9A6H   LINE      CODE     ---       #68
      0100E9B7H   LINE      CODE     ---       #69
      ---         BLOCKEND  ---      ---       LVL=0
      00000007H   SYMBOL    DATA     BYTE      error

      0100E5F0H   BLOCK     CODE     ---       LVL=0
      00000007H   SYMBOL    DATA     BYTE      chHandle
      00000005H   SYMBOL    DATA     BYTE      preserveTds
      0100E5F0H   BLOCK     CODE     NEAR LAB  LVL=1
      00000006H   SYMBOL    DATA     BYTE      status
      ---         BLOCKEND  ---      ---       LVL=1
      0100E5F0H   LINE      CODE     ---       #269
      0100E5F0H   LINE      CODE     ---       #270
      0100E5F0H   LINE      CODE     ---       #271
      0100E5F2H   LINE      CODE     ---       #273
      0100E5F8H   LINE      CODE     ---       #274
      0100E5F8H   LINE      CODE     ---       #275
      0100E5FBH   LINE      CODE     ---       #276
      0100E5FBH   LINE      CODE     ---       #280
      0100E60EH   LINE      CODE     ---       #281
      0100E610H   LINE      CODE     ---       #283
      0100E610H   LINE      CODE     ---       #285
      0100E623H   LINE      CODE     ---       #286
LX51 LINKER/LOCATER V4.64.0.0                                                         04/04/2018  09:18:43  PAGE 133


      0100E623H   LINE      CODE     ---       #289
      0100E636H   LINE      CODE     ---       #291
      0100E638H   LINE      CODE     ---       #292
      0100E638H   LINE      CODE     ---       #294
      0100E63AH   LINE      CODE     ---       #295
      ---         BLOCKEND  ---      ---       LVL=0
      00000007H   SYMBOL    DATA     BYTE      chHandle
      00000006H   SYMBOL    DATA     BYTE      status
      00000007H   SYMBOL    DATA     BYTE      chHandle
      00000006H   SYMBOL    DATA     BYTE      status

      0100E7DDH   BLOCK     CODE     ---       LVL=0
      00000004H   SYMBOL    DATA     BYTE      chHandle
      00000005H   SYMBOL    DATA     BYTE      priority
      0100E7DFH   BLOCK     CODE     NEAR LAB  LVL=1
      00000002H   SYMBOL    DATA     BYTE      value
      00000003H   SYMBOL    DATA     BYTE      status
      ---         BLOCKEND  ---      ---       LVL=1
      0100E7DDH   LINE      CODE     ---       #383
      0100E7DFH   LINE      CODE     ---       #384
      0100E7DFH   LINE      CODE     ---       #386
      0100E7E1H   LINE      CODE     ---       #388
      0100E7E7H   LINE      CODE     ---       #389
      0100E7E7H   LINE      CODE     ---       #390
      0100E7FAH   LINE      CODE     ---       #392
      0100E818H   LINE      CODE     ---       #394
      0100E81AH   LINE      CODE     ---       #395
      0100E81AH   LINE      CODE     ---       #397
      0100E81CH   LINE      CODE     ---       #398
      ---         BLOCKEND  ---      ---       LVL=0

      0100DE17H   BLOCK     CODE     ---       LVL=0
      02000008H   SYMBOL    XDATA    BYTE      chHandle
      02000009H   SYMBOL    XDATA    WORD      source
      0200000BH   SYMBOL    XDATA    WORD      destination
      0100DE2AH   BLOCK     CODE     NEAR LAB  LVL=1
      0200000DH   SYMBOL    XDATA    BYTE      status
      0200000EH   SYMBOL    XDATA    ---       convert
      ---         BLOCKEND  ---      ---       LVL=1
      0100DE17H   LINE      CODE     ---       #419
      0100DE2AH   LINE      CODE     ---       #421
      0100DE2AH   LINE      CODE     ---       #422
      0100DE30H   LINE      CODE     ---       #441
      0100DE36H   LINE      CODE     ---       #442
      0100DE36H   LINE      CODE     ---       #444
      0100DE4DH   LINE      CODE     ---       #445
      0100DE5DH   LINE      CODE     ---       #448
      0100DE74H   LINE      CODE     ---       #449
      0100DE84H   LINE      CODE     ---       #450
      0100DE89H   LINE      CODE     ---       #451
      0100DE89H   LINE      CODE     ---       #453
      0100DE8EH   LINE      CODE     ---       #454
      ---         BLOCKEND  ---      ---       LVL=0

      0100EE22H   BLOCK     CODE     ---       LVL=0
      00000007H   SYMBOL    DATA     BYTE      chHandle
      00000005H   SYMBOL    DATA     BYTE      startTd
      0100EE22H   BLOCK     CODE     NEAR LAB  LVL=1
      00000006H   SYMBOL    DATA     BYTE      status
      ---         BLOCKEND  ---      ---       LVL=1
      0100EE22H   LINE      CODE     ---       #474
      0100EE22H   LINE      CODE     ---       #475
      0100EE22H   LINE      CODE     ---       #476
      0100EE24H   LINE      CODE     ---       #478
      0100EE2AH   LINE      CODE     ---       #479
LX51 LINKER/LOCATER V4.64.0.0                                                         04/04/2018  09:18:43  PAGE 134


      0100EE2AH   LINE      CODE     ---       #480
      0100EE3BH   LINE      CODE     ---       #481
      0100EE3DH   LINE      CODE     ---       #482
      0100EE3DH   LINE      CODE     ---       #484
      0100EE3FH   LINE      CODE     ---       #485
      ---         BLOCKEND  ---      ---       LVL=0
      00000007H   SYMBOL    DATA     BYTE      chHandle
      00000005H   SYMBOL    DATA     BYTE      request
      00000006H   SYMBOL    DATA     BYTE      status
      00000007H   SYMBOL    DATA     BYTE      chHandle
      00000003H   SYMBOL    DATA     BYTE      status
      00000007H   SYMBOL    DATA     BYTE      chHandle
      00000006H   SYMBOL    DATA     BYTE      status

      0100DD9EH   BLOCK     CODE     ---       LVL=0
      00000004H   SYMBOL    DATA     BYTE      chHandle
      00000005H   SYMBOL    DATA     BYTE      burstCount
      00000003H   SYMBOL    DATA     BYTE      requestPerBurst
      0200000BH   SYMBOL    XDATA    BYTE      tdDone0
      0200000CH   SYMBOL    XDATA    BYTE      tdDone1
      0200000DH   SYMBOL    XDATA    BYTE      tdStop
      0100DDA0H   BLOCK     CODE     NEAR LAB  LVL=1
      00000002H   SYMBOL    DATA     BYTE      status
      ---         BLOCKEND  ---      ---       LVL=1
      0100DD9EH   LINE      CODE     ---       #647
      0100DDA0H   LINE      CODE     ---       #649
      0100DDA0H   LINE      CODE     ---       #650
      0100DDA2H   LINE      CODE     ---       #652
      0100DDA8H   LINE      CODE     ---       #653
      0100DDA8H   LINE      CODE     ---       #654
      0100DDC6H   LINE      CODE     ---       #655
      0100DDEAH   LINE      CODE     ---       #656
      0100DE02H   LINE      CODE     ---       #657
      0100DE13H   LINE      CODE     ---       #659
      0100DE14H   LINE      CODE     ---       #660
      0100DE14H   LINE      CODE     ---       #662
      0100DE16H   LINE      CODE     ---       #663
      ---         BLOCKEND  ---      ---       LVL=0

      0100E81DH   BLOCK     CODE     ---       LVL=0
      0100E81DH   BLOCK     CODE     NEAR LAB  LVL=1
      00000007H   SYMBOL    DATA     BYTE      interruptState
      02000002H   SYMBOL    XDATA    BYTE      element
      ---         BLOCKEND  ---      ---       LVL=1
      0100E81DH   LINE      CODE     ---       #679
      0100E81DH   LINE      CODE     ---       #680
      0100E81DH   LINE      CODE     ---       #682
      0100E823H   LINE      CODE     ---       #685
      0100E826H   LINE      CODE     ---       #687
      0100E82FH   LINE      CODE     ---       #688
      0100E82FH   LINE      CODE     ---       #690
      0100E838H   LINE      CODE     ---       #693
      0100E83EH   LINE      CODE     ---       #696
      0100E852H   LINE      CODE     ---       #697
      0100E852H   LINE      CODE     ---       #700
      0100E855H   LINE      CODE     ---       #702
      0100E85AH   LINE      CODE     ---       #703
      ---         BLOCKEND  ---      ---       LVL=0

      0100D801H   BLOCK     CODE     ---       LVL=0
      02000002H   SYMBOL    XDATA    BYTE      tdHandle
      02000003H   SYMBOL    XDATA    WORD      transferCount
      02000005H   SYMBOL    XDATA    BYTE      nextTd
      02000006H   SYMBOL    XDATA    BYTE      configuration
      0100D811H   BLOCK     CODE     NEAR LAB  LVL=1
LX51 LINKER/LOCATER V4.64.0.0                                                         04/04/2018  09:18:43  PAGE 135


      02000007H   SYMBOL    XDATA    BYTE      status
      0100D826H   BLOCK     CODE     NEAR LAB  LVL=2
      02000008H   SYMBOL    XDATA    ---       convert
      ---         BLOCKEND  ---      ---       LVL=2
      ---         BLOCKEND  ---      ---       LVL=1
      0100D801H   LINE      CODE     ---       #807
      0100D811H   LINE      CODE     ---       #809
      0100D811H   LINE      CODE     ---       #810
      0100D817H   LINE      CODE     ---       #812
      0100D826H   LINE      CODE     ---       #813
      0100D826H   LINE      CODE     ---       #815
      0100D83DH   LINE      CODE     ---       #816
      0100D84DH   LINE      CODE     ---       #819
      0100D867H   LINE      CODE     ---       #822
      0100D87DH   LINE      CODE     ---       #824
      0100D882H   LINE      CODE     ---       #825
      0100D882H   LINE      CODE     ---       #827
      0100D887H   LINE      CODE     ---       #828
      ---         BLOCKEND  ---      ---       LVL=0

      0100DE8FH   BLOCK     CODE     ---       LVL=0
      02000002H   SYMBOL    XDATA    BYTE      tdHandle
      02000003H   SYMBOL    XDATA    WORD      source
      02000005H   SYMBOL    XDATA    WORD      destination
      0100DEA2H   BLOCK     CODE     NEAR LAB  LVL=1
      02000007H   SYMBOL    XDATA    BYTE      status
      02000008H   SYMBOL    XDATA    ---       convert
      ---         BLOCKEND  ---      ---       LVL=1
      0100DE8FH   LINE      CODE     ---       #922
      0100DEA2H   LINE      CODE     ---       #923
      0100DEA2H   LINE      CODE     ---       #924
      0100DEA8H   LINE      CODE     ---       #927
      0100DEAEH   LINE      CODE     ---       #928
      0100DEAEH   LINE      CODE     ---       #930
      0100DEC5H   LINE      CODE     ---       #931
      0100DED5H   LINE      CODE     ---       #934
      0100DEECH   LINE      CODE     ---       #935
      0100DEFCH   LINE      CODE     ---       #937
      0100DF01H   LINE      CODE     ---       #938
      0100DF01H   LINE      CODE     ---       #940
      0100DF06H   LINE      CODE     ---       #941
      ---         BLOCKEND  ---      ---       LVL=0
      00000007H   SYMBOL    DATA     BYTE      chHandle
      00000005H   SYMBOL    DATA     BYTE      enableRR
      00000006H   SYMBOL    DATA     BYTE      status

      ---         MODULE    ---      ---       CYFLASH
      0200131FH   PUBLIC    XDATA    ---       dieTemperature
      0100EB39H   PUBLIC    CODE     ---       CyEEPROM_Start
      0100EEC2H   PUBLIC    CODE     ---       CySetTemp
      000000CAH   SFRSYM    DATA     BYTE      SFRPRT5SEL
      000000DAH   SFRSYM    DATA     BYTE      SFRPRT6SEL
      000000D0H.6 SFRSYM    DATA     BIT       AC
      000000A8H.7 SFRSYM    DATA     BIT       EA
      000000A8H   SFRSYM    DATA     BYTE      IE
      00000085H   SFRSYM    DATA     BYTE      DPH1
      00000084H   SFRSYM    DATA     BYTE      DPL1
      000000D0H.7 SFRSYM    DATA     BIT       CY
      000000A0H   SFRSYM    DATA     BYTE      P2AX
      00000095H   SFRSYM    DATA     BYTE      DPX1
      00000081H   SFRSYM    DATA     BYTE      SP
      000000D0H.2 SFRSYM    DATA     BIT       OV
      00000080H   SFRSYM    DATA     BYTE      SFRPRT0DR
      00000090H   SFRSYM    DATA     BYTE      SFRPRT1DR
      000000F2H   SFRSYM    DATA     BYTE      SFRPRT12SEL
LX51 LINKER/LOCATER V4.64.0.0                                                         04/04/2018  09:18:43  PAGE 136


      00000098H   SFRSYM    DATA     BYTE      SFRPRT2DR
      000000B0H   SFRSYM    DATA     BYTE      SFRPRT3DR
      000000C0H   SFRSYM    DATA     BYTE      SFRPRT4DR
      000000FAH   SFRSYM    DATA     BYTE      SFRPRT15SEL
      000000C8H   SFRSYM    DATA     BYTE      SFRPRT5DR
      000000D8H   SFRSYM    DATA     BYTE      SFRPRT6DR
      00000089H   SFRSYM    DATA     BYTE      SFRPRT0PS
      00000091H   SFRSYM    DATA     BYTE      SFRPRT1PS
      00000099H   SFRSYM    DATA     BYTE      SFRPRT2PS
      000000B1H   SFRSYM    DATA     BYTE      SFRPRT3PS
      000000C1H   SFRSYM    DATA     BYTE      SFRPRT4PS
      000000C9H   SFRSYM    DATA     BYTE      SFRPRT5PS
      000000D9H   SFRSYM    DATA     BYTE      SFRPRT6PS
      000000EAH   SFRSYM    DATA     BYTE      MXAX
      000000F0H   SFRSYM    DATA     BYTE      B
      000000E0H   SFRSYM    DATA     BYTE      ACC
      000000D0H   SFRSYM    DATA     BIT       P
      000000D0H.3 SFRSYM    DATA     BIT       RS0
      000000D0H.4 SFRSYM    DATA     BIT       RS1
      00000083H   SFRSYM    DATA     BYTE      DPH
      000000E8H   SFRSYM    DATA     BYTE      SFRPRT12DR
      00000082H   SFRSYM    DATA     BYTE      DPL
      000000F8H   SFRSYM    DATA     BYTE      SFRPRT15DR
      00000086H   SFRSYM    DATA     BYTE      DPS
      000000E9H   SFRSYM    DATA     BYTE      SFRPRT12PS
      00000093H   SFRSYM    DATA     BYTE      DPX
      000000F9H   SFRSYM    DATA     BYTE      SFRPRT15PS
      000000D0H.5 SFRSYM    DATA     BIT       F0
      000000D0H.1 SFRSYM    DATA     BIT       F1
      0000008AH   SFRSYM    DATA     BYTE      SFRPRT0SEL
      000000D0H   SFRSYM    DATA     BYTE      PSW
      000000A2H   SFRSYM    DATA     BYTE      SFRPRT1SEL
      0000009AH   SFRSYM    DATA     BYTE      SFRPRT2SEL
      000000B2H   SFRSYM    DATA     BYTE      SFRPRT3SEL
      000000C2H   SFRSYM    DATA     BYTE      SFRPRT4SEL
      0100E504H   SYMBOL    CODE     ---       CyFlashGetSpcAlgorithm
      0100E406H   SYMBOL    CODE     ---       CySetTempInt
      0200131CH   SYMBOL    XDATA    ---       rowBuffer
      00000007H   SYMBOL    DATA     BYTE      interruptState
      00000007H   SYMBOL    DATA     BYTE      interruptState

      0100E406H   BLOCK     CODE     ---       LVL=0
      0100E406H   BLOCK     CODE     NEAR LAB  LVL=1
      02000038H   SYMBOL    XDATA    BYTE      status
      ---         BLOCKEND  ---      ---       LVL=1
      0100E406H   LINE      CODE     ---       #135
      0100E406H   LINE      CODE     ---       #136
      0100E406H   LINE      CODE     ---       #140
      0100E409H   LINE      CODE     ---       #143
      0100E40FH   LINE      CODE     ---       #145
      0100E415H   LINE      CODE     ---       #146
      0100E415H   LINE      CODE     ---       #148
      0100E41FH   LINE      CODE     ---       #149
      0100E41FH   LINE      CODE     ---       #151
      0100E41FH   LINE      CODE     ---       #152
      0100E42EH   LINE      CODE     ---       #153
      0100E42EH   LINE      CODE     ---       #154
      0100E433H   LINE      CODE     ---       #156
      0100E43BH   LINE      CODE     ---       #157
      0100E43BH   LINE      CODE     ---       #159
      0100E441H   LINE      CODE     ---       #160
      0100E443H   LINE      CODE     ---       #161
      0100E443H   LINE      CODE     ---       #162
      0100E443H   LINE      CODE     ---       #164
      0100E44BH   LINE      CODE     ---       #165
LX51 LINKER/LOCATER V4.64.0.0                                                         04/04/2018  09:18:43  PAGE 137


      0100E44BH   LINE      CODE     ---       #167
      0100E44EH   LINE      CODE     ---       #168
      0100E450H   LINE      CODE     ---       #170
      0100E450H   LINE      CODE     ---       #171
      0100E456H   LINE      CODE     ---       #172
      0100E456H   LINE      CODE     ---       #174
      0100E45BH   LINE      CODE     ---       #175
      ---         BLOCKEND  ---      ---       LVL=0

      0100E504H   BLOCK     CODE     ---       LVL=0
      0100E504H   BLOCK     CODE     NEAR LAB  LVL=1
      02000038H   SYMBOL    XDATA    BYTE      status
      ---         BLOCKEND  ---      ---       LVL=1
      0100E504H   LINE      CODE     ---       #191
      0100E504H   LINE      CODE     ---       #192
      0100E504H   LINE      CODE     ---       #196
      0100E507H   LINE      CODE     ---       #198
      0100E50DH   LINE      CODE     ---       #199
      0100E50DH   LINE      CODE     ---       #200
      0100E515H   LINE      CODE     ---       #202
      0100E519H   LINE      CODE     ---       #203
      0100E519H   LINE      CODE     ---       #204
      0100E521H   LINE      CODE     ---       #205
      0100E521H   LINE      CODE     ---       #207
      0100E527H   LINE      CODE     ---       #208
      0100E529H   LINE      CODE     ---       #210
      0100E53FH   LINE      CODE     ---       #211
      0100E53FH   LINE      CODE     ---       #212
      0100E543H   LINE      CODE     ---       #213
      0100E543H   LINE      CODE     ---       #214
      0100E543H   LINE      CODE     ---       #215
      0100E546H   LINE      CODE     ---       #216
      0100E548H   LINE      CODE     ---       #218
      0100E548H   LINE      CODE     ---       #219
      0100E54EH   LINE      CODE     ---       #220
      0100E54EH   LINE      CODE     ---       #222
      0100E553H   LINE      CODE     ---       #223
      ---         BLOCKEND  ---      ---       LVL=0

      0100EEC2H   BLOCK     CODE     ---       LVL=0
      0100EEC2H   BLOCK     CODE     NEAR LAB  LVL=1
      02000037H   SYMBOL    XDATA    BYTE      status
      ---         BLOCKEND  ---      ---       LVL=1
      0100EEC2H   LINE      CODE     ---       #245
      0100EEC2H   LINE      CODE     ---       #246
      0100EEC2H   LINE      CODE     ---       #247
      0100EECAH   LINE      CODE     ---       #249
      0100EECCH   LINE      CODE     ---       #250
      0100EECCH   LINE      CODE     ---       #251
      0100EED4H   LINE      CODE     ---       #252
      0100EED4H   LINE      CODE     ---       #254
      0100EED9H   LINE      CODE     ---       #255
      ---         BLOCKEND  ---      ---       LVL=0
      00000004H   SYMBOL    DATA     WORD      rowAddress
      00000001H   SYMBOL    DATA     ---       rowData
      00000007H   SYMBOL    DATA     BYTE      status
      00000007H   SYMBOL    DATA     BYTE      interruptState

      0100EB39H   BLOCK     CODE     ---       LVL=0
      0100EB39H   BLOCK     CODE     NEAR LAB  LVL=1
      00000007H   SYMBOL    DATA     BYTE      interruptState
      ---         BLOCKEND  ---      ---       LVL=1
      0100EB39H   LINE      CODE     ---       #588
      0100EB39H   LINE      CODE     ---       #589
      0100EB39H   LINE      CODE     ---       #592
LX51 LINKER/LOCATER V4.64.0.0                                                         04/04/2018  09:18:43  PAGE 138


      0100EB3CH   LINE      CODE     ---       #599
      0100EB43H   LINE      CODE     ---       #600
      0100EB4AH   LINE      CODE     ---       #613
      0100EB50H   LINE      CODE     ---       #620
      0100EB57H   LINE      CODE     ---       #621
      0100EB5EH   LINE      CODE     ---       #623
      0100EB66H   LINE      CODE     ---       #624
      0100EB66H   LINE      CODE     ---       #626
      0100EB66H   LINE      CODE     ---       #628
      0100EB69H   LINE      CODE     ---       #629
      ---         BLOCKEND  ---      ---       LVL=0
      00000007H   SYMBOL    DATA     BYTE      interruptState

      ---         MODULE    ---      ---       CYLIB
      02001312H   PUBLIC    XDATA    DWORD     cydelay_32k_ms
      02001311H   PUBLIC    XDATA    BYTE      CyResetStatus
      0200130DH   PUBLIC    XDATA    DWORD     cydelay_freq_hz
      0200130CH   PUBLIC    XDATA    BYTE      cydelay_freq_mhz
      02001308H   PUBLIC    XDATA    DWORD     cydelay_freq_khz
      0100EE90H   PUBLIC    CODE     ---       _CyIntSetPriority
      0100E45CH   PUBLIC    CODE     ---       _CyIntSetVector
      0100EB9AH   PUBLIC    CODE     ---       CyIntInitVectors
      0100F392H   PUBLIC    CODE     ---       IntDefaultHandler
      0100D779H   PUBLIC    CODE     ---       _?CyDelay
      0100F276H   PUBLIC    CODE     ---       CySoftwareReset
      000000CAH   SFRSYM    DATA     BYTE      SFRPRT5SEL
      000000DAH   SFRSYM    DATA     BYTE      SFRPRT6SEL
      000000D0H.6 SFRSYM    DATA     BIT       AC
      000000A8H.7 SFRSYM    DATA     BIT       EA
      000000A8H   SFRSYM    DATA     BYTE      IE
      00000085H   SFRSYM    DATA     BYTE      DPH1
      00000084H   SFRSYM    DATA     BYTE      DPL1
      000000D0H.7 SFRSYM    DATA     BIT       CY
      000000A0H   SFRSYM    DATA     BYTE      P2AX
      00000095H   SFRSYM    DATA     BYTE      DPX1
      00000081H   SFRSYM    DATA     BYTE      SP
      000000D0H.2 SFRSYM    DATA     BIT       OV
      00000080H   SFRSYM    DATA     BYTE      SFRPRT0DR
      00000090H   SFRSYM    DATA     BYTE      SFRPRT1DR
      000000F2H   SFRSYM    DATA     BYTE      SFRPRT12SEL
      00000098H   SFRSYM    DATA     BYTE      SFRPRT2DR
      000000B0H   SFRSYM    DATA     BYTE      SFRPRT3DR
      000000C0H   SFRSYM    DATA     BYTE      SFRPRT4DR
      000000FAH   SFRSYM    DATA     BYTE      SFRPRT15SEL
      000000C8H   SFRSYM    DATA     BYTE      SFRPRT5DR
      000000D8H   SFRSYM    DATA     BYTE      SFRPRT6DR
      00000089H   SFRSYM    DATA     BYTE      SFRPRT0PS
      00000091H   SFRSYM    DATA     BYTE      SFRPRT1PS
      00000099H   SFRSYM    DATA     BYTE      SFRPRT2PS
      000000B1H   SFRSYM    DATA     BYTE      SFRPRT3PS
      000000C1H   SFRSYM    DATA     BYTE      SFRPRT4PS
      000000C9H   SFRSYM    DATA     BYTE      SFRPRT5PS
      000000D9H   SFRSYM    DATA     BYTE      SFRPRT6PS
      000000EAH   SFRSYM    DATA     BYTE      MXAX
      000000F0H   SFRSYM    DATA     BYTE      B
      000000E0H   SFRSYM    DATA     BYTE      ACC
      000000D0H   SFRSYM    DATA     BIT       P
      000000D0H.3 SFRSYM    DATA     BIT       RS0
      000000D0H.4 SFRSYM    DATA     BIT       RS1
      00000083H   SFRSYM    DATA     BYTE      DPH
      000000E8H   SFRSYM    DATA     BYTE      SFRPRT12DR
      00000082H   SFRSYM    DATA     BYTE      DPL
      000000F8H   SFRSYM    DATA     BYTE      SFRPRT15DR
      00000086H   SFRSYM    DATA     BYTE      DPS
      000000E9H   SFRSYM    DATA     BYTE      SFRPRT12PS
LX51 LINKER/LOCATER V4.64.0.0                                                         04/04/2018  09:18:43  PAGE 139


      00000093H   SFRSYM    DATA     BYTE      DPX
      000000F9H   SFRSYM    DATA     BYTE      SFRPRT15PS
      000000D0H.5 SFRSYM    DATA     BIT       F0
      000000D0H.1 SFRSYM    DATA     BIT       F1
      0000008AH   SFRSYM    DATA     BYTE      SFRPRT0SEL
      000000D0H   SFRSYM    DATA     BYTE      PSW
      000000A2H   SFRSYM    DATA     BYTE      SFRPRT1SEL
      0000009AH   SFRSYM    DATA     BYTE      SFRPRT2SEL
      000000B2H   SFRSYM    DATA     BYTE      SFRPRT3SEL
      000000C2H   SFRSYM    DATA     BYTE      SFRPRT4SEL
      00000007H   SYMBOL    DATA     BYTE      wait
      00000007H   SYMBOL    DATA     BYTE      pDiv
      00000005H   SYMBOL    DATA     BYTE      qDiv
      00000003H   SYMBOL    DATA     BYTE      current
      00000007H   SYMBOL    DATA     BYTE      source
      00000007H   SYMBOL    DATA     BYTE      wait
      00000007H   SYMBOL    DATA     BYTE      poweredOn
      00000006H   SYMBOL    DATA     BYTE      freq
      00000007H   SYMBOL    DATA     BYTE      source
      00000007H   SYMBOL    DATA     BYTE      source
      00000007H   SYMBOL    DATA     BYTE      divider
      00000006H   SYMBOL    DATA     WORD      divider
      00000005H   SYMBOL    DATA     BYTE      masterClkDiv
      00000006H   SYMBOL    DATA     WORD      busClkDiv
      00000001H   SYMBOL    DATA     BYTE      interruptState
      00000007H   SYMBOL    DATA     BYTE      divider
      00000007H   SYMBOL    DATA     BYTE      source
      00000007H   SYMBOL    DATA     BYTE      source
      00000007H   SYMBOL    DATA     BYTE      mode
      00000006H   SYMBOL    DATA     BYTE      state
      00000007H   SYMBOL    DATA     BYTE      mode
      00000007H   SYMBOL    DATA     BYTE      wait
      00000007H   SYMBOL    DATA     BYTE      setting
      00000007H   SYMBOL    DATA     BYTE      setting
      00000007H   SYMBOL    DATA     BYTE      setting
      00000000H   SYMBOL    XSTK     BYTE      reason

      0100F276H   BLOCK     CODE     ---       LVL=0
      0100F276H   LINE      CODE     ---       #1438
      0100F276H   LINE      CODE     ---       #1439
      0100F276H   LINE      CODE     ---       #1440
      0100F27DH   LINE      CODE     ---       #1441
      ---         BLOCKEND  ---      ---       LVL=0

      0100D779H   BLOCK     CODE     ---       LVL=0
      00000000H   SYMBOL    XSTK     DWORD     milliseconds
      0100D779H   LINE      CODE     ---       #1459
      0100D782H   LINE      CODE     ---       #1461
      0100D798H   LINE      CODE     ---       #1462
      0100D798H   LINE      CODE     ---       #1467
      0100D7A9H   LINE      CODE     ---       #1468
      0100D7D3H   LINE      CODE     ---       #1469
      0100D7D5H   LINE      CODE     ---       #1471
      0100D7FAH   LINE      CODE     ---       #1472
      ---         BLOCKEND  ---      ---       LVL=0
      00000000H   SYMBOL    XSTK     DWORD     freq
      00000007H   SYMBOL    DATA     BYTE      ticks
      00000005H   SYMBOL    DATA     BYTE      lpMode
      02001307H   SYMBOL    XDATA    BYTE      interruptStatus
      00000005H   SYMBOL    DATA     BYTE      interruptState
      00000005H   SYMBOL    DATA     BYTE      interruptState
      00000003H   SYMBOL    DATA     BYTE      interruptState

      0100F392H   BLOCK     CODE     ---       LVL=0
      0100F392H   LINE      CODE     ---       #2304
LX51 LINKER/LOCATER V4.64.0.0                                                         04/04/2018  09:18:43  PAGE 140


      0100F392H   LINE      CODE     ---       #2310
      0100F392H   LINE      CODE     ---       #2311
      0100F392H   LINE      CODE     ---       #2316
      ---         BLOCKEND  ---      ---       LVL=0

      0100EB9AH   BLOCK     CODE     ---       LVL=0
      0100EB9AH   BLOCK     CODE     NEAR LAB  LVL=1
      02000000H   SYMBOL    XDATA    BYTE      i
      ---         BLOCKEND  ---      ---       LVL=1
      0100EB9AH   LINE      CODE     ---       #2328
      0100EB9AH   LINE      CODE     ---       #2329
      0100EB9AH   LINE      CODE     ---       #2332
      0100EBA9H   LINE      CODE     ---       #2333
      0100EBA9H   LINE      CODE     ---       #2334
      0100EBC1H   LINE      CODE     ---       #2335
      0100EBC9H   LINE      CODE     ---       #2336
      ---         BLOCKEND  ---      ---       LVL=0

      0100E45CH   BLOCK     CODE     ---       LVL=0
      02000002H   SYMBOL    XDATA    BYTE      number
      02000003H   SYMBOL    XDATA    ---       address
      0100E469H   BLOCK     CODE     NEAR LAB  LVL=1
      02000005H   SYMBOL    XDATA    ---       oldIsr
      ---         BLOCKEND  ---      ---       LVL=1
      0100E45CH   LINE      CODE     ---       #2352
      0100E469H   LINE      CODE     ---       #2353
      0100E469H   LINE      CODE     ---       #2359
      0100E487H   LINE      CODE     ---       #2363
      0100E4A7H   LINE      CODE     ---       #2365
      0100E4AFH   LINE      CODE     ---       #2366
      ---         BLOCKEND  ---      ---       LVL=0
      00000007H   SYMBOL    DATA     BYTE      number

      0100EE90H   BLOCK     CODE     ---       LVL=0
      00000004H   SYMBOL    DATA     BYTE      number
      00000005H   SYMBOL    DATA     BYTE      priority
      0100EE90H   LINE      CODE     ---       #2400
      0100EE92H   LINE      CODE     ---       #2401
      0100EE92H   LINE      CODE     ---       #2406
      0100EEA8H   LINE      CODE     ---       #2408
      ---         BLOCKEND  ---      ---       LVL=0
      00000007H   SYMBOL    DATA     BYTE      number
      00000007H   SYMBOL    DATA     BYTE      priority
      00000005H   SYMBOL    DATA     BYTE      number
      00000006H   SYMBOL    DATA     ---       stateReg

      ---         MODULE    ---      ---       LED_BLINK
      02001330H   PUBLIC    XDATA    BYTE      LED_BLINK_initVar
      0100F373H   PUBLIC    CODE     ---       _LED_BLINK_WriteCompare
      0100F36DH   PUBLIC    CODE     ---       _LED_BLINK_WritePeriod
      0100F367H   PUBLIC    CODE     ---       _LED_BLINK_WriteCounter
      0100F27EH   PUBLIC    CODE     ---       LED_BLINK_Enable
      0100ED63H   PUBLIC    CODE     ---       LED_BLINK_Init
      0100F032H   PUBLIC    CODE     ---       LED_BLINK_Start
      000000CAH   SFRSYM    DATA     BYTE      SFRPRT5SEL
      000000DAH   SFRSYM    DATA     BYTE      SFRPRT6SEL
      000000D0H.6 SFRSYM    DATA     BIT       AC
      000000A8H.7 SFRSYM    DATA     BIT       EA
      000000A8H   SFRSYM    DATA     BYTE      IE
      00000085H   SFRSYM    DATA     BYTE      DPH1
      00000084H   SFRSYM    DATA     BYTE      DPL1
      000000D0H.7 SFRSYM    DATA     BIT       CY
      000000A0H   SFRSYM    DATA     BYTE      P2AX
      00000095H   SFRSYM    DATA     BYTE      DPX1
      00000081H   SFRSYM    DATA     BYTE      SP
LX51 LINKER/LOCATER V4.64.0.0                                                         04/04/2018  09:18:43  PAGE 141


      000000D0H.2 SFRSYM    DATA     BIT       OV
      00000080H   SFRSYM    DATA     BYTE      SFRPRT0DR
      00000090H   SFRSYM    DATA     BYTE      SFRPRT1DR
      000000F2H   SFRSYM    DATA     BYTE      SFRPRT12SEL
      00000098H   SFRSYM    DATA     BYTE      SFRPRT2DR
      000000B0H   SFRSYM    DATA     BYTE      SFRPRT3DR
      000000C0H   SFRSYM    DATA     BYTE      SFRPRT4DR
      000000FAH   SFRSYM    DATA     BYTE      SFRPRT15SEL
      000000C8H   SFRSYM    DATA     BYTE      SFRPRT5DR
      000000D8H   SFRSYM    DATA     BYTE      SFRPRT6DR
      00000089H   SFRSYM    DATA     BYTE      SFRPRT0PS
      00000091H   SFRSYM    DATA     BYTE      SFRPRT1PS
      00000099H   SFRSYM    DATA     BYTE      SFRPRT2PS
      000000B1H   SFRSYM    DATA     BYTE      SFRPRT3PS
      000000C1H   SFRSYM    DATA     BYTE      SFRPRT4PS
      000000C9H   SFRSYM    DATA     BYTE      SFRPRT5PS
      000000D9H   SFRSYM    DATA     BYTE      SFRPRT6PS
      000000EAH   SFRSYM    DATA     BYTE      MXAX
      000000F0H   SFRSYM    DATA     BYTE      B
      000000E0H   SFRSYM    DATA     BYTE      ACC
      000000D0H   SFRSYM    DATA     BIT       P
      000000D0H.3 SFRSYM    DATA     BIT       RS0
      000000D0H.4 SFRSYM    DATA     BIT       RS1
      00000083H   SFRSYM    DATA     BYTE      DPH
      000000E8H   SFRSYM    DATA     BYTE      SFRPRT12DR
      00000082H   SFRSYM    DATA     BYTE      DPL
      000000F8H   SFRSYM    DATA     BYTE      SFRPRT15DR
      00000086H   SFRSYM    DATA     BYTE      DPS
      000000E9H   SFRSYM    DATA     BYTE      SFRPRT12PS
      00000093H   SFRSYM    DATA     BYTE      DPX
      000000F9H   SFRSYM    DATA     BYTE      SFRPRT15PS
      000000D0H.5 SFRSYM    DATA     BIT       F0
      000000D0H.1 SFRSYM    DATA     BIT       F1
      0000008AH   SFRSYM    DATA     BYTE      SFRPRT0SEL
      000000D0H   SFRSYM    DATA     BYTE      PSW
      000000A2H   SFRSYM    DATA     BYTE      SFRPRT1SEL
      0000009AH   SFRSYM    DATA     BYTE      SFRPRT2SEL
      000000B2H   SFRSYM    DATA     BYTE      SFRPRT3SEL
      000000C2H   SFRSYM    DATA     BYTE      SFRPRT4SEL

      0100F032H   BLOCK     CODE     ---       LVL=0
      0100F032H   LINE      CODE     ---       #55
      0100F032H   LINE      CODE     ---       #56
      0100F032H   LINE      CODE     ---       #58
      0100F038H   LINE      CODE     ---       #59
      0100F038H   LINE      CODE     ---       #60
      0100F03BH   LINE      CODE     ---       #61
      0100F041H   LINE      CODE     ---       #62
      0100F041H   LINE      CODE     ---       #63
      0100F044H   LINE      CODE     ---       #65
      ---         BLOCKEND  ---      ---       LVL=0

      0100ED63H   BLOCK     CODE     ---       LVL=0
      0100ED63H   BLOCK     CODE     NEAR LAB  LVL=1
      00000007H   SYMBOL    DATA     BYTE      ctrl
      ---         BLOCKEND  ---      ---       LVL=1
      0100ED63H   LINE      CODE     ---       #84
      0100ED63H   LINE      CODE     ---       #85
      0100ED63H   LINE      CODE     ---       #118
      0100ED6AH   LINE      CODE     ---       #120
      0100ED6DH   LINE      CODE     ---       #126
      0100ED74H   LINE      CODE     ---       #133
      0100ED79H   LINE      CODE     ---       #136
      0100ED7EH   LINE      CODE     ---       #139
      0100ED83H   LINE      CODE     ---       #179
LX51 LINKER/LOCATER V4.64.0.0                                                         04/04/2018  09:18:43  PAGE 142


      ---         BLOCKEND  ---      ---       LVL=0

      0100F27EH   BLOCK     CODE     ---       LVL=0
      0100F27EH   LINE      CODE     ---       #199
      0100F27EH   LINE      CODE     ---       #200
      0100F27EH   LINE      CODE     ---       #209
      0100F285H   LINE      CODE     ---       #211
      ---         BLOCKEND  ---      ---       LVL=0

      0100F367H   BLOCK     CODE     ---       LVL=0
      00000007H   SYMBOL    DATA     BYTE      counter
      0100F367H   LINE      CODE     ---       #403
      0100F367H   LINE      CODE     ---       #405
      0100F367H   LINE      CODE     ---       #406
      0100F36CH   LINE      CODE     ---       #407
      ---         BLOCKEND  ---      ---       LVL=0

      0100F36DH   BLOCK     CODE     ---       LVL=0
      00000007H   SYMBOL    DATA     BYTE      period
      0100F36DH   LINE      CODE     ---       #482
      0100F36DH   LINE      CODE     ---       #483
      0100F36DH   LINE      CODE     ---       #487
      0100F372H   LINE      CODE     ---       #489
      ---         BLOCKEND  ---      ---       LVL=0

      0100F373H   BLOCK     CODE     ---       LVL=0
      00000007H   SYMBOL    DATA     BYTE      compare
      0100F373H   LINE      CODE     ---       #516
      0100F373H   LINE      CODE     ---       #518
      0100F373H   LINE      CODE     ---       #522
      0100F378H   LINE      CODE     ---       #532
      ---         BLOCKEND  ---      ---       LVL=0
      00000007H   SYMBOL    DATA     BYTE      result
      00000007H   SYMBOL    DATA     BYTE      control

      ---         MODULE    ---      ---       LED_CTRL
      0100F379H   PUBLIC    CODE     ---       _LED_CTRL_Write

      0100F379H   BLOCK     CODE     ---       LVL=0
      00000007H   SYMBOL    DATA     BYTE      control
      0100F379H   LINE      CODE     ---       #37
      0100F379H   LINE      CODE     ---       #38
      0100F379H   LINE      CODE     ---       #39
      0100F37EH   LINE      CODE     ---       #40
      ---         BLOCKEND  ---      ---       LVL=0

      ---         MODULE    ---      ---       LED_BLINK_EN
      0100F37FH   PUBLIC    CODE     ---       _LED_BLINK_EN_Write

      0100F37FH   BLOCK     CODE     ---       LVL=0
      00000007H   SYMBOL    DATA     BYTE      control
      0100F37FH   LINE      CODE     ---       #37
      0100F37FH   LINE      CODE     ---       #38
      0100F37FH   LINE      CODE     ---       #39
      0100F384H   LINE      CODE     ---       #40
      ---         BLOCKEND  ---      ---       LVL=0

      ---         MODULE    ---      ---       CYBOOTASMKEIL
      0100EF33H   PUBLIC    CODE     NEAR LAB  CyEnterCriticalSection
      0100EA00H   PUBLIC    CODE     NEAR LAB  _CyDelayCycles
      0100EC28H   PUBLIC    CODE     NEAR LAB  _CyDelayUs
      0100EEDAH   PUBLIC    CODE     NEAR LAB  _CyExitCriticalSection

      ---         MODULE    ---      ---       CYMEM
      02000005H   PUBLIC    XDATA    BYTE      ?_cyconfigcpy?BYTE
LX51 LINKER/LOCATER V4.64.0.0                                                         04/04/2018  09:18:43  PAGE 143


      0100EA6FH   PUBLIC    CODE     NEAR LAB  _cyconfigcpy
      0100ECF9H   PUBLIC    CODE     NEAR LAB  _cyconfigcpycode
      0100F0BEH   PUBLIC    CODE     NEAR LAB  _cyread16
      0100F0C0H   PUBLIC    CODE     NEAR LAB  _cyread16_nodpx
      0100F045H   PUBLIC    CODE     NEAR LAB  _cyread24
      0100F047H   PUBLIC    CODE     NEAR LAB  _cyread24_nodpx
      0100F18DH   PUBLIC    CODE     NEAR LAB  _cyread8
      0100F18FH   PUBLIC    CODE     NEAR LAB  _cyread8_nodpx
      0100F0CDH   PUBLIC    CODE     NEAR LAB  _cywrite16
      0100F0CFH   PUBLIC    CODE     NEAR LAB  _cywrite16_nodpx
      0100F06AH   PUBLIC    CODE     NEAR LAB  _cywrite24
      0100F06CH   PUBLIC    CODE     NEAR LAB  _cywrite24_nodpx
      0100F199H   PUBLIC    CODE     NEAR LAB  _cywrite8
      0100F19BH   PUBLIC    CODE     NEAR LAB  _cywrite8_nodpx

      ---         MODULE    ---      ---       ?C_STARTUP
      00000000H   PUBLIC    NUMBER   ---       ?C?XPAGE1RST
      00000093H   PUBLIC    DATA     BYTE      ?C?XPAGE1SFR
      01002600H   PUBLIC    CODE     NEAR LAB  ?C_STARTUP
      0100C872H   PUBLIC    CODE     NEAR LAB  STARTUP1
      01002604H   PUBLIC    CODE     NEAR LAB  _dma_wait

      ---         MODULE    ---      ---       UART_RS485_INT
      0100D2A3H   PUBLIC    CODE     ---       UART_RS485_RXISR
      000000CAH   SFRSYM    DATA     BYTE      SFRPRT5SEL
      000000DAH   SFRSYM    DATA     BYTE      SFRPRT6SEL
      000000D0H.6 SFRSYM    DATA     BIT       AC
      000000A8H.7 SFRSYM    DATA     BIT       EA
      000000A8H   SFRSYM    DATA     BYTE      IE
      00000085H   SFRSYM    DATA     BYTE      DPH1
      00000084H   SFRSYM    DATA     BYTE      DPL1
      000000D0H.7 SFRSYM    DATA     BIT       CY
      000000A0H   SFRSYM    DATA     BYTE      P2AX
      00000095H   SFRSYM    DATA     BYTE      DPX1
      00000081H   SFRSYM    DATA     BYTE      SP
      000000D0H.2 SFRSYM    DATA     BIT       OV
      00000080H   SFRSYM    DATA     BYTE      SFRPRT0DR
      00000090H   SFRSYM    DATA     BYTE      SFRPRT1DR
      000000F2H   SFRSYM    DATA     BYTE      SFRPRT12SEL
      00000098H   SFRSYM    DATA     BYTE      SFRPRT2DR
      000000B0H   SFRSYM    DATA     BYTE      SFRPRT3DR
      000000C0H   SFRSYM    DATA     BYTE      SFRPRT4DR
      000000FAH   SFRSYM    DATA     BYTE      SFRPRT15SEL
      000000C8H   SFRSYM    DATA     BYTE      SFRPRT5DR
      000000D8H   SFRSYM    DATA     BYTE      SFRPRT6DR
      00000089H   SFRSYM    DATA     BYTE      SFRPRT0PS
      00000091H   SFRSYM    DATA     BYTE      SFRPRT1PS
      00000099H   SFRSYM    DATA     BYTE      SFRPRT2PS
      000000B1H   SFRSYM    DATA     BYTE      SFRPRT3PS
      000000C1H   SFRSYM    DATA     BYTE      SFRPRT4PS
      000000C9H   SFRSYM    DATA     BYTE      SFRPRT5PS
      000000D9H   SFRSYM    DATA     BYTE      SFRPRT6PS
      000000EAH   SFRSYM    DATA     BYTE      MXAX
      000000F0H   SFRSYM    DATA     BYTE      B
      000000E0H   SFRSYM    DATA     BYTE      ACC
      000000D0H   SFRSYM    DATA     BIT       P
      000000D0H.3 SFRSYM    DATA     BIT       RS0
      000000D0H.4 SFRSYM    DATA     BIT       RS1
      00000083H   SFRSYM    DATA     BYTE      DPH
      000000E8H   SFRSYM    DATA     BYTE      SFRPRT12DR
      00000082H   SFRSYM    DATA     BYTE      DPL
      000000F8H   SFRSYM    DATA     BYTE      SFRPRT15DR
      00000086H   SFRSYM    DATA     BYTE      DPS
      000000E9H   SFRSYM    DATA     BYTE      SFRPRT12PS
      00000093H   SFRSYM    DATA     BYTE      DPX
LX51 LINKER/LOCATER V4.64.0.0                                                         04/04/2018  09:18:43  PAGE 144


      000000F9H   SFRSYM    DATA     BYTE      SFRPRT15PS
      000000D0H.5 SFRSYM    DATA     BIT       F0
      000000D0H.1 SFRSYM    DATA     BIT       F1
      0000008AH   SFRSYM    DATA     BYTE      SFRPRT0SEL
      000000D0H   SFRSYM    DATA     BYTE      PSW
      000000A2H   SFRSYM    DATA     BYTE      SFRPRT1SEL
      0000009AH   SFRSYM    DATA     BYTE      SFRPRT2SEL
      000000B2H   SFRSYM    DATA     BYTE      SFRPRT3SEL
      000000C2H   SFRSYM    DATA     BYTE      SFRPRT4SEL

      0100D2A3H   BLOCK     CODE     ---       LVL=0
      0100D2C6H   BLOCK     CODE     NEAR LAB  LVL=1
      00000006H   SYMBOL    DATA     BYTE      readData
      00000007H   SYMBOL    DATA     BYTE      readStatus
      00000003H   SYMBOL    DATA     BYTE      increment_pointer
      00000002H   SYMBOL    DATA     BYTE      int_en
      ---         BLOCKEND  ---      ---       LVL=1
      0100D2A3H   LINE      CODE     ---       #59
      0100D2C6H   LINE      CODE     ---       #63
      0100D2C8H   LINE      CODE     ---       #79
      0100D2CCH   LINE      CODE     ---       #80
      0100D2D4H   LINE      CODE     ---       #84
      0100D2D4H   LINE      CODE     ---       #86
      0100D2D9H   LINE      CODE     ---       #90
      0100D2DAH   LINE      CODE     ---       #95
      0100D2DFH   LINE      CODE     ---       #96
      0100D2DFH   LINE      CODE     ---       #101
      0100D2E5H   LINE      CODE     ---       #109
      0100D2E5H   LINE      CODE     ---       #111
      0100D2E9H   LINE      CODE     ---       #112
      0100D2E9H   LINE      CODE     ---       #114
      0100D2EEH   LINE      CODE     ---       #141
      0100D2FDH   LINE      CODE     ---       #142
      0100D2FFH   LINE      CODE     ---       #146
      0100D302H   LINE      CODE     ---       #147
      0100D302H   LINE      CODE     ---       #148
      0100D308H   LINE      CODE     ---       #149
      0100D308H   LINE      CODE     ---       #150
      0100D30EH   LINE      CODE     ---       #151
      0100D30EH   LINE      CODE     ---       #153
      0100D314H   LINE      CODE     ---       #156
      0100D31AH   LINE      CODE     ---       #157
      0100D31AH   LINE      CODE     ---       #158
      0100D31CH   LINE      CODE     ---       #159
      0100D31CH   LINE      CODE     ---       #162
      0100D328H   LINE      CODE     ---       #163
      0100D328H   LINE      CODE     ---       #164
      0100D32EH   LINE      CODE     ---       #172
      0100D32EH   LINE      CODE     ---       #173
      0100D32EH   LINE      CODE     ---       #174
      0100D32EH   LINE      CODE     ---       #175
      0100D332H   LINE      CODE     ---       #187
      0100D339H   LINE      CODE     ---       #189
      ---         BLOCKEND  ---      ---       LVL=0

      ---         MODULE    ---      ---       ADC_INT
      0100F399H   PUBLIC    CODE     ---       ADC_ISR4
      0100F398H   PUBLIC    CODE     ---       ADC_ISR3
      0100F397H   PUBLIC    CODE     ---       ADC_ISR2
      0100F396H   PUBLIC    CODE     ---       ADC_ISR1
      000000CAH   SFRSYM    DATA     BYTE      SFRPRT5SEL
      000000DAH   SFRSYM    DATA     BYTE      SFRPRT6SEL
      000000D0H.6 SFRSYM    DATA     BIT       AC
      000000A8H.7 SFRSYM    DATA     BIT       EA
      000000A8H   SFRSYM    DATA     BYTE      IE
LX51 LINKER/LOCATER V4.64.0.0                                                         04/04/2018  09:18:43  PAGE 145


      00000085H   SFRSYM    DATA     BYTE      DPH1
      00000084H   SFRSYM    DATA     BYTE      DPL1
      000000D0H.7 SFRSYM    DATA     BIT       CY
      000000A0H   SFRSYM    DATA     BYTE      P2AX
      00000095H   SFRSYM    DATA     BYTE      DPX1
      00000081H   SFRSYM    DATA     BYTE      SP
      000000D0H.2 SFRSYM    DATA     BIT       OV
      00000080H   SFRSYM    DATA     BYTE      SFRPRT0DR
      00000090H   SFRSYM    DATA     BYTE      SFRPRT1DR
      000000F2H   SFRSYM    DATA     BYTE      SFRPRT12SEL
      00000098H   SFRSYM    DATA     BYTE      SFRPRT2DR
      000000B0H   SFRSYM    DATA     BYTE      SFRPRT3DR
      000000C0H   SFRSYM    DATA     BYTE      SFRPRT4DR
      000000FAH   SFRSYM    DATA     BYTE      SFRPRT15SEL
      000000C8H   SFRSYM    DATA     BYTE      SFRPRT5DR
      000000D8H   SFRSYM    DATA     BYTE      SFRPRT6DR
      00000089H   SFRSYM    DATA     BYTE      SFRPRT0PS
      00000091H   SFRSYM    DATA     BYTE      SFRPRT1PS
      00000099H   SFRSYM    DATA     BYTE      SFRPRT2PS
      000000B1H   SFRSYM    DATA     BYTE      SFRPRT3PS
      000000C1H   SFRSYM    DATA     BYTE      SFRPRT4PS
      000000C9H   SFRSYM    DATA     BYTE      SFRPRT5PS
      000000D9H   SFRSYM    DATA     BYTE      SFRPRT6PS
      000000EAH   SFRSYM    DATA     BYTE      MXAX
      000000F0H   SFRSYM    DATA     BYTE      B
      000000E0H   SFRSYM    DATA     BYTE      ACC
      000000D0H   SFRSYM    DATA     BIT       P
      000000D0H.3 SFRSYM    DATA     BIT       RS0
      000000D0H.4 SFRSYM    DATA     BIT       RS1
      00000083H   SFRSYM    DATA     BYTE      DPH
      000000E8H   SFRSYM    DATA     BYTE      SFRPRT12DR
      00000082H   SFRSYM    DATA     BYTE      DPL
      000000F8H   SFRSYM    DATA     BYTE      SFRPRT15DR
      00000086H   SFRSYM    DATA     BYTE      DPS
      000000E9H   SFRSYM    DATA     BYTE      SFRPRT12PS
      00000093H   SFRSYM    DATA     BYTE      DPX
      000000F9H   SFRSYM    DATA     BYTE      SFRPRT15PS
      000000D0H.5 SFRSYM    DATA     BIT       F0
      000000D0H.1 SFRSYM    DATA     BIT       F1
      0000008AH   SFRSYM    DATA     BYTE      SFRPRT0SEL
      000000D0H   SFRSYM    DATA     BYTE      PSW
      000000A2H   SFRSYM    DATA     BYTE      SFRPRT1SEL
      0000009AH   SFRSYM    DATA     BYTE      SFRPRT2SEL
      000000B2H   SFRSYM    DATA     BYTE      SFRPRT3SEL
      000000C2H   SFRSYM    DATA     BYTE      SFRPRT4SEL

      0100F396H   BLOCK     CODE     ---       LVL=0
      0100F396H   LINE      CODE     ---       #51
      0100F396H   LINE      CODE     ---       #81
      ---         BLOCKEND  ---      ---       LVL=0

      0100F397H   BLOCK     CODE     ---       LVL=0
      0100F397H   LINE      CODE     ---       #101
      0100F397H   LINE      CODE     ---       #131
      ---         BLOCKEND  ---      ---       LVL=0

      0100F398H   BLOCK     CODE     ---       LVL=0
      0100F398H   LINE      CODE     ---       #151
      0100F398H   LINE      CODE     ---       #181
      ---         BLOCKEND  ---      ---       LVL=0

      0100F399H   BLOCK     CODE     ---       LVL=0
      0100F399H   LINE      CODE     ---       #201
      0100F399H   LINE      CODE     ---       #231
      ---         BLOCKEND  ---      ---       LVL=0
LX51 LINKER/LOCATER V4.64.0.0                                                         04/04/2018  09:18:43  PAGE 146



      ---         MODULE    ---      ---       ADC_AMUX
      0100EEA9H   PUBLIC    CODE     ---       _ADC_AMux_Select
      0100ED84H   PUBLIC    CODE     ---       ADC_AMux_Start
      02001331H   SYMBOL    XDATA    BYTE      ADC_AMux_lastChannel

      0100ED84H   BLOCK     CODE     ---       LVL=0
      0100ED84H   BLOCK     CODE     NEAR LAB  LVL=1
      02000003H   SYMBOL    XDATA    BYTE      chan
      ---         BLOCKEND  ---      ---       LVL=1
      0100ED84H   LINE      CODE     ---       #36
      0100ED84H   LINE      CODE     ---       #37
      0100ED84H   LINE      CODE     ---       #40
      0100ED93H   LINE      CODE     ---       #41
      0100ED93H   LINE      CODE     ---       #43
      0100ED96H   LINE      CODE     ---       #48
      0100ED9EH   LINE      CODE     ---       #50
      0100EDA4H   LINE      CODE     ---       #51
      ---         BLOCKEND  ---      ---       LVL=0

      0100EEA9H   BLOCK     CODE     ---       LVL=0
      02000002H   SYMBOL    XDATA    BYTE      channel
      0100EEA9H   LINE      CODE     ---       #69
      0100EEAEH   LINE      CODE     ---       #70
      0100EEAEH   LINE      CODE     ---       #71
      0100EEB1H   LINE      CODE     ---       #72
      0100EEB9H   LINE      CODE     ---       #73
      0100EEC1H   LINE      CODE     ---       #74
      ---         BLOCKEND  ---      ---       LVL=0

      ---         MODULE    ---      ---       ADC_EXT_CP_CLK
      0100F286H   PUBLIC    CODE     ---       ADC_Ext_CP_Clk_GetSourceRegister
      0100F173H   PUBLIC    CODE     ---       _ADC_Ext_CP_Clk_SetModeRegister
      0100F242H   PUBLIC    CODE     ---       ADC_Ext_CP_Clk_GetDividerRegister
      0100C15AH   PUBLIC    CODE     ---       _ADC_Ext_CP_Clk_SetDividerRegister
      00000007H   SYMBOL    DATA     BYTE      state

      0100C15AH   BLOCK     CODE     ---       LVL=0
      02000002H   SYMBOL    XDATA    WORD      clkDivider
      02000004H   SYMBOL    XDATA    BYTE      restart
      0100C165H   BLOCK     CODE     NEAR LAB  LVL=1
      02000005H   SYMBOL    XDATA    BYTE      enabled
      02000006H   SYMBOL    XDATA    BYTE      currSrc
      02000007H   SYMBOL    XDATA    WORD      oldDivider
      ---         BLOCKEND  ---      ---       LVL=1
      0100C15AH   LINE      CODE     ---       #193
      0100C165H   LINE      CODE     ---       #195
      0100C165H   LINE      CODE     ---       #198
      0100C16DH   LINE      CODE     ---       #199
      0100C178H   LINE      CODE     ---       #201
      0100C18AH   LINE      CODE     ---       #202
      0100C18AH   LINE      CODE     ---       #203
      0100C194H   LINE      CODE     ---       #205
      0100C1A5H   LINE      CODE     ---       #206
      0100C1A5H   LINE      CODE     ---       #208
      0100C1A9H   LINE      CODE     ---       #209
      0100C1A9H   LINE      CODE     ---       #213
      0100C1B2H   LINE      CODE     ---       #214
      0100C1B9H   LINE      CODE     ---       #215
      0100C1BAH   LINE      CODE     ---       #217
      0100C1BAH   LINE      CODE     ---       #220
      0100C1C1H   LINE      CODE     ---       #221
      0100C1D2H   LINE      CODE     ---       #222
      0100C1D2H   LINE      CODE     ---       #223
      0100C1D3H   LINE      CODE     ---       #225
LX51 LINKER/LOCATER V4.64.0.0                                                         04/04/2018  09:18:43  PAGE 147


      0100C1D3H   LINE      CODE     ---       #227
      0100C1D9H   LINE      CODE     ---       #228
      0100C1D9H   LINE      CODE     ---       #229
      0100C1DEH   LINE      CODE     ---       #236
      0100C1E4H   LINE      CODE     ---       #237
      0100C1E9H   LINE      CODE     ---       #240
      0100C1F0H   LINE      CODE     ---       #243
      0100C202H   LINE      CODE     ---       #244
      0100C202H   LINE      CODE     ---       #246
      0100C213H   LINE      CODE     ---       #247
      0100C219H   LINE      CODE     ---       #250
      0100C221H   LINE      CODE     ---       #253
      0100C228H   LINE      CODE     ---       #257
      0100C22DH   LINE      CODE     ---       #259
      0100C22DH   LINE      CODE     ---       #260
      0100C22DH   LINE      CODE     ---       #263
      0100C235H   LINE      CODE     ---       #264
      0100C235H   LINE      CODE     ---       #266
      0100C246H   LINE      CODE     ---       #268
      0100C259H   LINE      CODE     ---       #269
      0100C263H   LINE      CODE     ---       #270
      0100C264H   LINE      CODE     ---       #272
      0100C264H   LINE      CODE     ---       #274
      0100C275H   LINE      CODE     ---       #275
      0100C28AH   LINE      CODE     ---       #276
      0100C28AH   LINE      CODE     ---       #277
      0100C28AH   LINE      CODE     ---       #278
      0100C28AH   LINE      CODE     ---       #279
      ---         BLOCKEND  ---      ---       LVL=0

      0100F242H   BLOCK     CODE     ---       LVL=0
      0100F242H   LINE      CODE     ---       #297
      0100F242H   LINE      CODE     ---       #298
      0100F242H   LINE      CODE     ---       #299
      0100F24BH   LINE      CODE     ---       #300
      ---         BLOCKEND  ---      ---       LVL=0

      0100F173H   BLOCK     CODE     ---       LVL=0
      00000007H   SYMBOL    DATA     BYTE      modeBitMask
      0100F173H   LINE      CODE     ---       #332
      0100F173H   LINE      CODE     ---       #333
      0100F173H   LINE      CODE     ---       #334
      0100F17FH   LINE      CODE     ---       #335
      ---         BLOCKEND  ---      ---       LVL=0
      00000007H   SYMBOL    DATA     BYTE      modeBitMask
      00000007H   SYMBOL    DATA     BYTE      oldSrc

      0100F286H   BLOCK     CODE     ---       LVL=0
      0100F286H   LINE      CODE     ---       #464
      0100F286H   LINE      CODE     ---       #465
      0100F286H   LINE      CODE     ---       #466
      0100F28DH   LINE      CODE     ---       #467
      ---         BLOCKEND  ---      ---       LVL=0

      ---         MODULE    ---      ---       ADC_THEACLK
      0100F28EH   PUBLIC    CODE     ---       ADC_theACLK_GetSourceRegister
      0100F180H   PUBLIC    CODE     ---       _ADC_theACLK_SetModeRegister
      0100F24CH   PUBLIC    CODE     ---       ADC_theACLK_GetDividerRegister
      0100C61AH   PUBLIC    CODE     ---       _ADC_theACLK_SetDividerRegister
      00000007H   SYMBOL    DATA     BYTE      state

      0100C61AH   BLOCK     CODE     ---       LVL=0
      02000002H   SYMBOL    XDATA    WORD      clkDivider
      02000004H   SYMBOL    XDATA    BYTE      restart
      0100C625H   BLOCK     CODE     NEAR LAB  LVL=1
LX51 LINKER/LOCATER V4.64.0.0                                                         04/04/2018  09:18:43  PAGE 148


      02000005H   SYMBOL    XDATA    BYTE      enabled
      02000006H   SYMBOL    XDATA    BYTE      currSrc
      02000007H   SYMBOL    XDATA    WORD      oldDivider
      ---         BLOCKEND  ---      ---       LVL=1
      0100C61AH   LINE      CODE     ---       #193
      0100C625H   LINE      CODE     ---       #195
      0100C625H   LINE      CODE     ---       #198
      0100C62DH   LINE      CODE     ---       #199
      0100C638H   LINE      CODE     ---       #201
      0100C64AH   LINE      CODE     ---       #202
      0100C64AH   LINE      CODE     ---       #203
      0100C654H   LINE      CODE     ---       #205
      0100C665H   LINE      CODE     ---       #206
      0100C665H   LINE      CODE     ---       #208
      0100C669H   LINE      CODE     ---       #209
      0100C669H   LINE      CODE     ---       #213
      0100C671H   LINE      CODE     ---       #214
      0100C678H   LINE      CODE     ---       #215
      0100C679H   LINE      CODE     ---       #217
      0100C679H   LINE      CODE     ---       #220
      0100C680H   LINE      CODE     ---       #221
      0100C691H   LINE      CODE     ---       #222
      0100C691H   LINE      CODE     ---       #223
      0100C692H   LINE      CODE     ---       #225
      0100C692H   LINE      CODE     ---       #227
      0100C698H   LINE      CODE     ---       #228
      0100C698H   LINE      CODE     ---       #229
      0100C69DH   LINE      CODE     ---       #233
      0100C6A2H   LINE      CODE     ---       #234
      0100C6A7H   LINE      CODE     ---       #240
      0100C6AEH   LINE      CODE     ---       #243
      0100C6C0H   LINE      CODE     ---       #244
      0100C6C0H   LINE      CODE     ---       #246
      0100C6D1H   LINE      CODE     ---       #247
      0100C6D7H   LINE      CODE     ---       #250
      0100C6DFH   LINE      CODE     ---       #253
      0100C6E6H   LINE      CODE     ---       #257
      0100C6EBH   LINE      CODE     ---       #259
      0100C6EBH   LINE      CODE     ---       #260
      0100C6EBH   LINE      CODE     ---       #263
      0100C6F3H   LINE      CODE     ---       #264
      0100C6F3H   LINE      CODE     ---       #266
      0100C704H   LINE      CODE     ---       #268
      0100C717H   LINE      CODE     ---       #269
      0100C721H   LINE      CODE     ---       #270
      0100C722H   LINE      CODE     ---       #272
      0100C722H   LINE      CODE     ---       #274
      0100C733H   LINE      CODE     ---       #275
      0100C748H   LINE      CODE     ---       #276
      0100C748H   LINE      CODE     ---       #277
      0100C748H   LINE      CODE     ---       #278
      0100C748H   LINE      CODE     ---       #279
      ---         BLOCKEND  ---      ---       LVL=0

      0100F24CH   BLOCK     CODE     ---       LVL=0
      0100F24CH   LINE      CODE     ---       #297
      0100F24CH   LINE      CODE     ---       #298
      0100F24CH   LINE      CODE     ---       #299
      0100F255H   LINE      CODE     ---       #300
      ---         BLOCKEND  ---      ---       LVL=0

      0100F180H   BLOCK     CODE     ---       LVL=0
      00000007H   SYMBOL    DATA     BYTE      modeBitMask
      0100F180H   LINE      CODE     ---       #332
      0100F180H   LINE      CODE     ---       #333
LX51 LINKER/LOCATER V4.64.0.0                                                         04/04/2018  09:18:43  PAGE 149


      0100F180H   LINE      CODE     ---       #334
      0100F18CH   LINE      CODE     ---       #335
      ---         BLOCKEND  ---      ---       LVL=0
      00000007H   SYMBOL    DATA     BYTE      modeBitMask
      00000007H   SYMBOL    DATA     BYTE      oldSrc

      0100F28EH   BLOCK     CODE     ---       LVL=0
      0100F28EH   LINE      CODE     ---       #464
      0100F28EH   LINE      CODE     ---       #465
      0100F28EH   LINE      CODE     ---       #466
      0100F295H   LINE      CODE     ---       #467
      ---         BLOCKEND  ---      ---       LVL=0
      00000007H   SYMBOL    DATA     BYTE      clkPhase

      ---         MODULE    ---      ---       CYPM
      000000CAH   SFRSYM    DATA     BYTE      SFRPRT5SEL
      000000DAH   SFRSYM    DATA     BYTE      SFRPRT6SEL
      000000D0H.6 SFRSYM    DATA     BIT       AC
      000000A8H.7 SFRSYM    DATA     BIT       EA
      000000A8H   SFRSYM    DATA     BYTE      IE
      00000085H   SFRSYM    DATA     BYTE      DPH1
      00000084H   SFRSYM    DATA     BYTE      DPL1
      000000D0H.7 SFRSYM    DATA     BIT       CY
      000000A0H   SFRSYM    DATA     BYTE      P2AX
      00000095H   SFRSYM    DATA     BYTE      DPX1
      00000081H   SFRSYM    DATA     BYTE      SP
      000000D0H.2 SFRSYM    DATA     BIT       OV
      00000080H   SFRSYM    DATA     BYTE      SFRPRT0DR
      00000090H   SFRSYM    DATA     BYTE      SFRPRT1DR
      000000F2H   SFRSYM    DATA     BYTE      SFRPRT12SEL
      00000098H   SFRSYM    DATA     BYTE      SFRPRT2DR
      000000B0H   SFRSYM    DATA     BYTE      SFRPRT3DR
      000000C0H   SFRSYM    DATA     BYTE      SFRPRT4DR
      000000FAH   SFRSYM    DATA     BYTE      SFRPRT15SEL
      000000C8H   SFRSYM    DATA     BYTE      SFRPRT5DR
      000000D8H   SFRSYM    DATA     BYTE      SFRPRT6DR
      00000089H   SFRSYM    DATA     BYTE      SFRPRT0PS
      00000091H   SFRSYM    DATA     BYTE      SFRPRT1PS
      00000099H   SFRSYM    DATA     BYTE      SFRPRT2PS
      000000B1H   SFRSYM    DATA     BYTE      SFRPRT3PS
      000000C1H   SFRSYM    DATA     BYTE      SFRPRT4PS
      000000C9H   SFRSYM    DATA     BYTE      SFRPRT5PS
      000000D9H   SFRSYM    DATA     BYTE      SFRPRT6PS
      000000EAH   SFRSYM    DATA     BYTE      MXAX
      000000F0H   SFRSYM    DATA     BYTE      B
      000000E0H   SFRSYM    DATA     BYTE      ACC
      000000D0H   SFRSYM    DATA     BIT       P
      000000D0H.3 SFRSYM    DATA     BIT       RS0
      000000D0H.4 SFRSYM    DATA     BIT       RS1
      00000083H   SFRSYM    DATA     BYTE      DPH
      000000E8H   SFRSYM    DATA     BYTE      SFRPRT12DR
      00000082H   SFRSYM    DATA     BYTE      DPL
      000000F8H   SFRSYM    DATA     BYTE      SFRPRT15DR
      00000086H   SFRSYM    DATA     BYTE      DPS
      000000E9H   SFRSYM    DATA     BYTE      SFRPRT12PS
      00000093H   SFRSYM    DATA     BYTE      DPX
      000000F9H   SFRSYM    DATA     BYTE      SFRPRT15PS
      000000D0H.5 SFRSYM    DATA     BIT       F0
      000000D0H.1 SFRSYM    DATA     BIT       F1
      0000008AH   SFRSYM    DATA     BYTE      SFRPRT0SEL
      000000D0H   SFRSYM    DATA     BYTE      PSW
      000000A2H   SFRSYM    DATA     BYTE      SFRPRT1SEL
      0000009AH   SFRSYM    DATA     BYTE      SFRPRT2SEL
      000000B2H   SFRSYM    DATA     BYTE      SFRPRT3SEL
      000000C2H   SFRSYM    DATA     BYTE      SFRPRT4SEL
LX51 LINKER/LOCATER V4.64.0.0                                                         04/04/2018  09:18:43  PAGE 150


      0200128EH   SYMBOL    XDATA    ---       cyPmClockBackup
      0200129EH   SYMBOL    XDATA    ---       cyPmBackup
      00000006H   SYMBOL    DATA     WORD      clkBusDivTmp
      0200128DH   SYMBOL    XDATA    BYTE      interruptStatus
      00000005H   SYMBOL    DATA     BYTE      interruptState

      ---         MODULE    ---      ---       CYSPC
      02001332H   PUBLIC    XDATA    BYTE      SpcLockState
      0100EE5CH   PUBLIC    CODE     ---       CySpcGetAlgorithm
      0100F1A5H   PUBLIC    CODE     ---       CySpcUnlock
      0100EE03H   PUBLIC    CODE     ---       CySpcLock
      0100EBF9H   PUBLIC    CODE     ---       _CySpcGetTemp
      0200003CH   PUBLIC    XDATA    BYTE      ?_CySpcWriteRow?BYTE
      0100E4B0H   PUBLIC    CODE     ---       _CySpcWriteRow
      0200003CH   PUBLIC    XDATA    BYTE      ?_CySpcLoadRow?BYTE
      0100E0DDH   PUBLIC    CODE     ---       _CySpcLoadRow
      0100E2F3H   PUBLIC    CODE     ---       _CySpcReadData
      0100EF48H   PUBLIC    CODE     ---       CySpcStart
      000000CAH   SFRSYM    DATA     BYTE      SFRPRT5SEL
      000000DAH   SFRSYM    DATA     BYTE      SFRPRT6SEL
      000000D0H.6 SFRSYM    DATA     BIT       AC
      000000A8H.7 SFRSYM    DATA     BIT       EA
      000000A8H   SFRSYM    DATA     BYTE      IE
      00000085H   SFRSYM    DATA     BYTE      DPH1
      00000084H   SFRSYM    DATA     BYTE      DPL1
      000000D0H.7 SFRSYM    DATA     BIT       CY
      000000A0H   SFRSYM    DATA     BYTE      P2AX
      00000095H   SFRSYM    DATA     BYTE      DPX1
      00000081H   SFRSYM    DATA     BYTE      SP
      000000D0H.2 SFRSYM    DATA     BIT       OV
      00000080H   SFRSYM    DATA     BYTE      SFRPRT0DR
      00000090H   SFRSYM    DATA     BYTE      SFRPRT1DR
      000000F2H   SFRSYM    DATA     BYTE      SFRPRT12SEL
      00000098H   SFRSYM    DATA     BYTE      SFRPRT2DR
      000000B0H   SFRSYM    DATA     BYTE      SFRPRT3DR
      000000C0H   SFRSYM    DATA     BYTE      SFRPRT4DR
      000000FAH   SFRSYM    DATA     BYTE      SFRPRT15SEL
      000000C8H   SFRSYM    DATA     BYTE      SFRPRT5DR
      000000D8H   SFRSYM    DATA     BYTE      SFRPRT6DR
      00000089H   SFRSYM    DATA     BYTE      SFRPRT0PS
      00000091H   SFRSYM    DATA     BYTE      SFRPRT1PS
      00000099H   SFRSYM    DATA     BYTE      SFRPRT2PS
      000000B1H   SFRSYM    DATA     BYTE      SFRPRT3PS
      000000C1H   SFRSYM    DATA     BYTE      SFRPRT4PS
      000000C9H   SFRSYM    DATA     BYTE      SFRPRT5PS
      000000D9H   SFRSYM    DATA     BYTE      SFRPRT6PS
      000000EAH   SFRSYM    DATA     BYTE      MXAX
      000000F0H   SFRSYM    DATA     BYTE      B
      000000E0H   SFRSYM    DATA     BYTE      ACC
      000000D0H   SFRSYM    DATA     BIT       P
      000000D0H.3 SFRSYM    DATA     BIT       RS0
      000000D0H.4 SFRSYM    DATA     BIT       RS1
      00000083H   SFRSYM    DATA     BYTE      DPH
      000000E8H   SFRSYM    DATA     BYTE      SFRPRT12DR
      00000082H   SFRSYM    DATA     BYTE      DPL
      000000F8H   SFRSYM    DATA     BYTE      SFRPRT15DR
      00000086H   SFRSYM    DATA     BYTE      DPS
      000000E9H   SFRSYM    DATA     BYTE      SFRPRT12PS
      00000093H   SFRSYM    DATA     BYTE      DPX
      000000F9H   SFRSYM    DATA     BYTE      SFRPRT15PS
      000000D0H.5 SFRSYM    DATA     BIT       F0
      000000D0H.1 SFRSYM    DATA     BIT       F1
      0000008AH   SFRSYM    DATA     BYTE      SFRPRT0SEL
      000000D0H   SFRSYM    DATA     BYTE      PSW
      000000A2H   SFRSYM    DATA     BYTE      SFRPRT1SEL
LX51 LINKER/LOCATER V4.64.0.0                                                         04/04/2018  09:18:43  PAGE 151


      0000009AH   SFRSYM    DATA     BYTE      SFRPRT2SEL
      000000B2H   SFRSYM    DATA     BYTE      SFRPRT3SEL
      000000C2H   SFRSYM    DATA     BYTE      SFRPRT4SEL

      0100EF48H   BLOCK     CODE     ---       LVL=0
      0100EF48H   BLOCK     CODE     NEAR LAB  LVL=1
      00000007H   SYMBOL    DATA     BYTE      interruptState
      ---         BLOCKEND  ---      ---       LVL=1
      0100EF48H   LINE      CODE     ---       #71
      0100EF48H   LINE      CODE     ---       #72
      0100EF48H   LINE      CODE     ---       #74
      0100EF4BH   LINE      CODE     ---       #76
      0100EF52H   LINE      CODE     ---       #77
      0100EF59H   LINE      CODE     ---       #80
      0100EF5CH   LINE      CODE     ---       #81
      ---         BLOCKEND  ---      ---       LVL=0
      00000007H   SYMBOL    DATA     BYTE      interruptState

      0100E2F3H   BLOCK     CODE     ---       LVL=0
      02000039H   SYMBOL    XDATA    ---       buffer
      0200003CH   SYMBOL    XDATA    BYTE      size
      0100E301H   BLOCK     CODE     NEAR LAB  LVL=1
      0200003DH   SYMBOL    XDATA    BYTE      i
      ---         BLOCKEND  ---      ---       LVL=1
      0100E2F3H   LINE      CODE     ---       #119
      0100E301H   LINE      CODE     ---       #120
      0100E301H   LINE      CODE     ---       #123
      0100E30FH   LINE      CODE     ---       #124
      0100E30FH   LINE      CODE     ---       #125
      0100E31DH   LINE      CODE     ---       #126
      0100E31DH   LINE      CODE     ---       #127
      0100E324H   LINE      CODE     ---       #128
      0100E326H   LINE      CODE     ---       #129
      0100E345H   LINE      CODE     ---       #130
      0100E34DH   LINE      CODE     ---       #132
      0100E352H   LINE      CODE     ---       #133
      ---         BLOCKEND  ---      ---       LVL=0
      00000005H   SYMBOL    DATA     BYTE      status
      00000007H   SYMBOL    DATA     BYTE      i

      0100E0DDH   BLOCK     CODE     ---       LVL=0
      00000007H   SYMBOL    DATA     BYTE      array
      0200003DH   SYMBOL    XDATA    ---       buffer
      02000040H   SYMBOL    XDATA    WORD      size
      0100E0E8H   BLOCK     CODE     NEAR LAB  LVL=1
      02000042H   SYMBOL    XDATA    BYTE      status
      00000006H   SYMBOL    DATA     WORD      i
      ---         BLOCKEND  ---      ---       LVL=1
      0100E0DDH   LINE      CODE     ---       #238
      0100E0E8H   LINE      CODE     ---       #239
      0100E0E8H   LINE      CODE     ---       #240
      0100E0EEH   LINE      CODE     ---       #244
      0100E0F6H   LINE      CODE     ---       #245
      0100E0F6H   LINE      CODE     ---       #246
      0100E0FCH   LINE      CODE     ---       #247
      0100E0FFH   LINE      CODE     ---       #248
      0100E102H   LINE      CODE     ---       #251
      0100E10AH   LINE      CODE     ---       #252
      0100E10AH   LINE      CODE     ---       #253
      0100E10FH   LINE      CODE     ---       #255
      0100E11FH   LINE      CODE     ---       #256
      0100E11FH   LINE      CODE     ---       #257
      0100E135H   LINE      CODE     ---       #258
      0100E13CH   LINE      CODE     ---       #259
      0100E13CH   LINE      CODE     ---       #261
LX51 LINKER/LOCATER V4.64.0.0                                                         04/04/2018  09:18:43  PAGE 152


      0100E13CH   LINE      CODE     ---       #262
      0100E142H   LINE      CODE     ---       #263
      0100E142H   LINE      CODE     ---       #264
      0100E144H   LINE      CODE     ---       #266
      0100E144H   LINE      CODE     ---       #267
      0100E14AH   LINE      CODE     ---       #268
      0100E14AH   LINE      CODE     ---       #270
      0100E14FH   LINE      CODE     ---       #271
      ---         BLOCKEND  ---      ---       LVL=0

      0100E4B0H   BLOCK     CODE     ---       LVL=0
      00000004H   SYMBOL    DATA     BYTE      array
      0200003DH   SYMBOL    XDATA    WORD      address
      00000003H   SYMBOL    DATA     BYTE      tempPolarity
      02000040H   SYMBOL    XDATA    BYTE      tempMagnitude
      0100E4BAH   BLOCK     CODE     NEAR LAB  LVL=1
      00000005H   SYMBOL    DATA     BYTE      status
      ---         BLOCKEND  ---      ---       LVL=1
      0100E4B0H   LINE      CODE     ---       #440
      0100E4BAH   LINE      CODE     ---       #442
      0100E4BAH   LINE      CODE     ---       #443
      0100E4BCH   LINE      CODE     ---       #446
      0100E4C4H   LINE      CODE     ---       #447
      0100E4C4H   LINE      CODE     ---       #448
      0100E4CAH   LINE      CODE     ---       #449
      0100E4CDH   LINE      CODE     ---       #450
      0100E4D0H   LINE      CODE     ---       #453
      0100E4D8H   LINE      CODE     ---       #454
      0100E4D8H   LINE      CODE     ---       #455
      0100E4DDH   LINE      CODE     ---       #456
      0100E4E5H   LINE      CODE     ---       #457
      0100E4EFH   LINE      CODE     ---       #458
      0100E4F1H   LINE      CODE     ---       #459
      0100E4F9H   LINE      CODE     ---       #460
      0100E4FBH   LINE      CODE     ---       #462
      0100E4FBH   LINE      CODE     ---       #463
      0100E4FDH   LINE      CODE     ---       #464
      0100E4FDH   LINE      CODE     ---       #465
      0100E4FFH   LINE      CODE     ---       #467
      0100E4FFH   LINE      CODE     ---       #468
      0100E501H   LINE      CODE     ---       #469
      0100E501H   LINE      CODE     ---       #471
      0100E503H   LINE      CODE     ---       #472
      ---         BLOCKEND  ---      ---       LVL=0
      00000007H   SYMBOL    DATA     BYTE      array
      00000005H   SYMBOL    DATA     BYTE      sectorNumber
      00000006H   SYMBOL    DATA     BYTE      status

      0100EBF9H   BLOCK     CODE     ---       LVL=0
      00000007H   SYMBOL    DATA     BYTE      numSamples
      0100EBF9H   BLOCK     CODE     NEAR LAB  LVL=1
      00000006H   SYMBOL    DATA     BYTE      status
      ---         BLOCKEND  ---      ---       LVL=1
      0100EBF9H   LINE      CODE     ---       #545
      0100EBF9H   LINE      CODE     ---       #546
      0100EBF9H   LINE      CODE     ---       #547
      0100EBFBH   LINE      CODE     ---       #550
      0100EC03H   LINE      CODE     ---       #551
      0100EC03H   LINE      CODE     ---       #552
      0100EC09H   LINE      CODE     ---       #553
      0100EC0CH   LINE      CODE     ---       #554
      0100EC0FH   LINE      CODE     ---       #557
      0100EC17H   LINE      CODE     ---       #558
      0100EC17H   LINE      CODE     ---       #559
      0100EC1CH   LINE      CODE     ---       #560
LX51 LINKER/LOCATER V4.64.0.0                                                         04/04/2018  09:18:43  PAGE 153


      0100EC1EH   LINE      CODE     ---       #562
      0100EC1EH   LINE      CODE     ---       #563
      0100EC20H   LINE      CODE     ---       #564
      0100EC20H   LINE      CODE     ---       #565
      0100EC22H   LINE      CODE     ---       #567
      0100EC22H   LINE      CODE     ---       #568
      0100EC24H   LINE      CODE     ---       #569
      0100EC24H   LINE      CODE     ---       #571
      0100EC26H   LINE      CODE     ---       #572
      ---         BLOCKEND  ---      ---       LVL=0

      0100EE03H   BLOCK     CODE     ---       LVL=0
      0100EE03H   BLOCK     CODE     NEAR LAB  LVL=1
      0200003CH   SYMBOL    XDATA    BYTE      status
      00000007H   SYMBOL    DATA     BYTE      interruptState
      ---         BLOCKEND  ---      ---       LVL=1
      0100EE03H   LINE      CODE     ---       #586
      0100EE03H   LINE      CODE     ---       #587
      0100EE03H   LINE      CODE     ---       #588
      0100EE09H   LINE      CODE     ---       #592
      0100EE0CH   LINE      CODE     ---       #594
      0100EE12H   LINE      CODE     ---       #595
      0100EE12H   LINE      CODE     ---       #596
      0100EE14H   LINE      CODE     ---       #597
      0100EE19H   LINE      CODE     ---       #615
      0100EE19H   LINE      CODE     ---       #618
      0100EE1CH   LINE      CODE     ---       #620
      0100EE21H   LINE      CODE     ---       #621
      ---         BLOCKEND  ---      ---       LVL=0

      0100F1A5H   BLOCK     CODE     ---       LVL=0
      0100F1A5H   BLOCK     CODE     NEAR LAB  LVL=1
      00000007H   SYMBOL    DATA     BYTE      interruptState
      ---         BLOCKEND  ---      ---       LVL=1
      0100F1A5H   LINE      CODE     ---       #631
      0100F1A5H   LINE      CODE     ---       #632
      0100F1A5H   LINE      CODE     ---       #636
      0100F1A8H   LINE      CODE     ---       #639
      0100F1ADH   LINE      CODE     ---       #659
      0100F1B0H   LINE      CODE     ---       #660
      ---         BLOCKEND  ---      ---       LVL=0

      0100EE5CH   BLOCK     CODE     ---       LVL=0
      0100EE5CH   BLOCK     CODE     NEAR LAB  LVL=1
      00000007H   SYMBOL    DATA     BYTE      status
      ---         BLOCKEND  ---      ---       LVL=1
      0100EE5CH   LINE      CODE     ---       #673
      0100EE5CH   LINE      CODE     ---       #674
      0100EE5CH   LINE      CODE     ---       #675
      0100EE5EH   LINE      CODE     ---       #678
      0100EE66H   LINE      CODE     ---       #679
      0100EE66H   LINE      CODE     ---       #680
      0100EE6CH   LINE      CODE     ---       #681
      0100EE6FH   LINE      CODE     ---       #682
      0100EE72H   LINE      CODE     ---       #683
      0100EE74H   LINE      CODE     ---       #685
      0100EE74H   LINE      CODE     ---       #686
      0100EE76H   LINE      CODE     ---       #687
      0100EE76H   LINE      CODE     ---       #689
      0100EE76H   LINE      CODE     ---       #690
      ---         BLOCKEND  ---      ---       LVL=0

      ---         MODULE    ---      ---       ?C?FPADD
      01008931H   PUBLIC    CODE     ---       ?C?FPADD
      0100892DH   PUBLIC    CODE     ---       ?C?FPSUB
LX51 LINKER/LOCATER V4.64.0.0                                                         04/04/2018  09:18:43  PAGE 154



      ---         MODULE    ---      ---       ?C?FPMUL
      01008A22H   PUBLIC    CODE     ---       ?C?FPMUL

      ---         MODULE    ---      ---       ?C?FPDIV
      01008B2BH   PUBLIC    CODE     ---       ?C?FPDIV

      ---         MODULE    ---      ---       ?C?FPCMP
      01008BCAH   PUBLIC    CODE     ---       ?C?FPCMP
      01008BC8H   PUBLIC    CODE     ---       ?C?FPCMP3

      ---         MODULE    ---      ---       ?C?FCAST
      01008C4BH   PUBLIC    CODE     ---       ?C?FCASTC
      01008C46H   PUBLIC    CODE     ---       ?C?FCASTI
      01008C41H   PUBLIC    CODE     ---       ?C?FCASTL

      ---         MODULE    ---      ---       ?C?CASTF
      01008C7FH   PUBLIC    CODE     ---       ?C?CASTF

      ---         MODULE    ---      ---       PRINTF
      0200072FH   PUBLIC    XDATA    ---       ?_PRINTF?BYTE
      0200072FH   PUBLIC    XDATA    ---       ?_SPRINTF?BYTE
      0100A945H   PUBLIC    CODE     ---       _PRINTF
      0100A93FH   PUBLIC    CODE     ---       _SPRINTF

      ---         MODULE    ---      ---       POW
      02000032H   PUBLIC    XDATA    ---       ?_POW?BYTE
      0100BEA8H   PUBLIC    CODE     ---       _POW

      ---         MODULE    ---      ---       ?C?FPGETOPN
      01008CB6H   PUBLIC    CODE     ---       ?C?FPGETOPN2
      01008CEBH   PUBLIC    CODE     ---       ?C?FPNANRESULT
      01008CF5H   PUBLIC    CODE     ---       ?C?FPOVERFLOW
      01008CCDH   PUBLIC    CODE     ---       ?C?FPRESULT
      01008CE1H   PUBLIC    CODE     ---       ?C?FPRESULT2
      01008CF2H   PUBLIC    CODE     ---       ?C?FPUNDERFLOW

      ---         MODULE    ---      ---       ?C?CHKFLOAT
      01008D00H   PUBLIC    CODE     ---       ?C?CHKFLOAT

      ---         MODULE    ---      ---       ?C?FPNEG
      01008D1AH   PUBLIC    CODE     ---       ?C?FPNEG

      ---         MODULE    ---      ---       ?C?FPROUND
      01008D2BH   PUBLIC    CODE     ---       ?C?FPROUND

      ---         MODULE    ---      ---       ?C?FPCONVERT
      01008D68H   PUBLIC    CODE     ---       ?C?FPCONVERT

      ---         MODULE    ---      ---       EXP
      0100D575H   PUBLIC    CODE     ---       _EXP

      ---         MODULE    ---      ---       LOG
      0100C77DH   PUBLIC    CODE     ---       _LOG
      0100C779H   PUBLIC    CODE     ---       _LOG10

      ---         MODULE    ---      ---       ?C?FTNPWR
      01008E9DH   PUBLIC    CODE     ---       ?C?FTNPWR

      ---         MODULE    ---      ---       ?C?FPSERIES
      01008EDDH   PUBLIC    CODE     ---       ?C?FP2SERIES
      01008EECH   PUBLIC    CODE     ---       ?C?FPSERIES

      ---         MODULE    ---      ---       ?C_INIT
      0100C94DH   PUBLIC    CODE     ---       ?C_START
LX51 LINKER/LOCATER V4.64.0.0                                                         04/04/2018  09:18:43  PAGE 155



      ---         MODULE    ---      ---       ?C?CLDPTR
      01008F2AH   PUBLIC    CODE     ---       ?C?CLDPTR

      ---         MODULE    ---      ---       ?C?CLDOPTR
      01008F43H   PUBLIC    CODE     ---       ?C?CLDOPTR

      ---         MODULE    ---      ---       ?C?CSTPTR
      01008F70H   PUBLIC    CODE     ---       ?C?CSTPTR

      ---         MODULE    ---      ---       ?C?IMUL
      01008F82H   PUBLIC    CODE     ---       ?C?IMUL

      ---         MODULE    ---      ---       ?C?ISTPTR
      01008F94H   PUBLIC    CODE     ---       ?C?ISTPTR

      ---         MODULE    ---      ---       ?C?LMUL
      01008FB3H   PUBLIC    CODE     ---       ?C?LMUL

      ---         MODULE    ---      ---       ?C?ULDIV
      0100903EH   PUBLIC    CODE     ---       ?C?ULDIV

      ---         MODULE    ---      ---       ?C?SLDIV
      0100E715H   PUBLIC    CODE     ---       ?C?SLDIV

      ---         MODULE    ---      ---       ?C?LNOT
      010090D0H   PUBLIC    CODE     ---       ?C?LNOT

      ---         MODULE    ---      ---       ?C?LNEG
      010090DDH   PUBLIC    CODE     ---       ?C?LNEG

      ---         MODULE    ---      ---       ?C?SLCMP
      010090EBH   PUBLIC    CODE     ---       ?C?SLCMP

      ---         MODULE    ---      ---       ?C?ULCMP
      01009101H   PUBLIC    CODE     ---       ?C?ULCMP

      ---         MODULE    ---      ---       ?C?ULSHR
      01009112H   PUBLIC    CODE     ---       ?C?ULSHR

      ---         MODULE    ---      ---       ?C?SLSHR
      01009125H   PUBLIC    CODE     ---       ?C?SLSHR

      ---         MODULE    ---      ---       ?C?LSHL
      01009139H   PUBLIC    CODE     ---       ?C?LSHL

      ---         MODULE    ---      ---       ?C?LLDPTR
      0100914CH   PUBLIC    CODE     ---       ?C?LLDPTR

      ---         MODULE    ---      ---       ?C?LSTPTR
      0100916CH   PUBLIC    CODE     ---       ?C?LSTPTR

      ---         MODULE    ---      ---       ?C?LLDCODE
      01009186H   PUBLIC    CODE     ---       ?C?LLDCODE

      ---         MODULE    ---      ---       ?C?LLDXDATA0
      01009196H   PUBLIC    CODE     ---       ?C?LLDXDATA0

      ---         MODULE    ---      ---       ?C?LLDCODE0
      010091A2H   PUBLIC    CODE     ---       ?C?LLDCODE0

      ---         MODULE    ---      ---       ?C?LSTXDATA
      010091B2H   PUBLIC    CODE     ---       ?C?LSTXDATA

      ---         MODULE    ---      ---       ?C?LSTKXDATA
LX51 LINKER/LOCATER V4.64.0.0                                                         04/04/2018  09:18:43  PAGE 156


      010091BEH   PUBLIC    CODE     ---       ?C?LSTKXDATA

      ---         MODULE    ---      ---       ?C?PLDIXDATA
      010091EFH   PUBLIC    CODE     ---       ?C?PLDIXDATA

      ---         MODULE    ---      ---       ?C?PSTXDATA
      01009206H   PUBLIC    CODE     ---       ?C?PSTXDATA

      ---         MODULE    ---      ---       ?C?CCASE
      0100920FH   PUBLIC    CODE     ---       ?C?CCASE

      ---         MODULE    ---      ---       ?C_XBP
      00000012H   PUBLIC    DATA     ---       ?C_XBP

      ---         MODULE    ---      ---       ?C?ADDXBP
      01009235H   PUBLIC    CODE     ---       ?C?ADDXBP

      ---         MODULE    ---      ---       ?C?LIMUL
      01009259H   PUBLIC    CODE     ---       ?C?LIMUL

      ---         MODULE    ---      ---       PUTCHAR
      0100ECACH   PUBLIC    CODE     ---       _PUTCHAR

      ---         MODULE    ---      ---       ABS
      0100F1B1H   PUBLIC    CODE     ---       _ABS

      ---         MODULE    ---      ---       STRCAT
      02000E09H   PUBLIC    XDATA    ---       ?_STRCAT?BYTE
      0100E227H   PUBLIC    CODE     ---       _STRCAT

      ---         MODULE    ---      ---       STRLEN
      0100EF5DH   PUBLIC    CODE     ---       _STRLEN

      ---         MODULE    ---      ---       ?C?COPYAMD
      01009342H   PUBLIC    CODE     ---       ?C?COPYAMD

      ---         MODULE    ---      ---       ?C?STRCPYAMD
      01009420H   PUBLIC    CODE     ---       ?C?STRCPYAMD

      ---         MODULE    ---      ---       ?C?IILDX
      0100943DH   PUBLIC    CODE     ---       ?C?IILDX

      ---         MODULE    ---      ---       ?C?ILDIX
      01009453H   PUBLIC    CODE     ---       ?C?ILDIX

      ---         MODULE    ---      ---       ?C?LLDIDATA
      01009469H   PUBLIC    CODE     ---       ?C?LLDIDATA

      ---         MODULE    ---      ---       ?C?LLDXDATA
      01009475H   PUBLIC    CODE     ---       ?C?LLDXDATA

      ---         MODULE    ---      ---       ?C?LLDPDATA
      01009481H   PUBLIC    CODE     ---       ?C?LLDPDATA

      ---         MODULE    ---      ---       ?C?LSTIDATA
      0100948DH   PUBLIC    CODE     ---       ?C?LSTIDATA

      ---         MODULE    ---      ---       ?C?LSTPDATA
      01009499H   PUBLIC    CODE     ---       ?C?LSTPDATA



INTER-MODULE CROSS-REFERENCE LISTING


LX51 LINKER/LOCATER V4.64.0.0                                                         04/04/2018  09:18:43  PAGE 157


NAME . . . . . . . . . . . . . . . . . . CLASS    MODULE NAMES
==============================================================

?_Bootloadable_SetFlashByte?BYTE . . . . XDATA    BOOTLOADABLE  
?_calc_turns_fcn?BYTE. . . . . . . . . . XDATA    UTILS  INTERRUPTIONS  
?_commWrite_old_id?BYTE. . . . . . . . . XDATA    COMMAND_PROCESSING  
?_commWriteID?BYTE . . . . . . . . . . . XDATA    COMMAND_PROCESSING  
?_curr_estim?BYTE. . . . . . . . . . . . XDATA    UTILS  COMMAND_PROCESSING  
?_cyconfigcpy?BYTE . . . . . . . . . . . XDATA    CYMEM  CYFITTER_CFG  
?_CyDmaChSetConfiguration?BYTE . . . . . XDATA    CYDMAC  DMA_DMA  
?_CyDmaChStatus?BYTE . . . . . . . . . . XDATA    CYDMAC  
?_CyDmaTdGetAddress?BYTE . . . . . . . . XDATA    CYDMAC  
?_CyDmaTdGetConfiguration?BYTE . . . . . XDATA    CYDMAC  
?_CyDmaTdSetConfiguration?BYTE . . . . . XDATA    CYDMAC  MAIN  
?_CySpcLoadMultiByte?BYTE. . . . . . . . XDATA    CYSPC  EEPROM  
?_CySpcLoadRow?BYTE. . . . . . . . . . . XDATA    CYSPC  EEPROM  
?_CySpcLoadRowFull?BYTE. . . . . . . . . XDATA    CYSPC  CYFLASH  
?_CySpcWriteRow?BYTE . . . . . . . . . . XDATA    CYSPC  CYFLASH  EEPROM  
?_CyWriteRowFull?BYTE. . . . . . . . . . XDATA    CYFLASH  
?_DMA_DmaInitialize?BYTE . . . . . . . . XDATA    DMA_DMA  MAIN  
?_my_mod?BYTE. . . . . . . . . . . . . . XDATA    UTILS  
?_pow?BYTE . . . . . . . . . . . . . . . XDATA    POW  UTILS  
?_PRINTF?BYTE. . . . . . . . . . . . . . XDATA    PRINTF  
?_SPRINTF?BYTE . . . . . . . . . . . . . XDATA    PRINTF  COMMAND_PROCESSING  
?_strcat?BYTE. . . . . . . . . . . . . . XDATA    STRCAT  COMMAND_PROCESSING  
?C?ADDXBP. . . . . . . . . . . . . . . . CODE     ?C?ADDXBP  CYLIB  
?C?CASTF . . . . . . . . . . . . . . . . CODE     ?C?CASTF  ADC  COMMAND_PROCESSING  EXP  INTERRUPTIONS  POW  UTILS  
?C?CCASE . . . . . . . . . . . . . . . . CODE     ?C?CCASE  COMMAND_PROCESSING  PRINTF  
?C?CHKFLOAT. . . . . . . . . . . . . . . CODE     ?C?CHKFLOAT  POW  
?C?CLDOPTR . . . . . . . . . . . . . . . CODE     ?C?CLDOPTR  PRINTF  
?C?CLDPTR. . . . . . . . . . . . . . . . CODE     ?C?CLDPTR  COMMAND_PROCESSING  CYSPC  PRINTF  STRCAT  STRLEN  UART_RS4
                                                  85  UTILS  
?C?CODESEG . . . . . . . . . . . . . . . NUMBER   ** LX51 GENERATED **  
?C?COPYAMD . . . . . . . . . . . . . . . CODE     ?C?COPYAMD  COMMAND_PROCESSING  INTERRUPTIONS  MAIN  
?C?CSTPTR. . . . . . . . . . . . . . . . CODE     ?C?CSTPTR  CYDMAC  CYSPC  PRINTF  STRCAT  
?C?FCASTC. . . . . . . . . . . . . . . . CODE     ?C?FCAST  EXP  
?C?FCASTI. . . . . . . . . . . . . . . . CODE     ?C?FCAST  ADC  COMMAND_PROCESSING  LOG  POW  
?C?FCASTL. . . . . . . . . . . . . . . . CODE     ?C?FCAST  ADC  COMMAND_PROCESSING  INTERRUPTIONS  UTILS  
?C?FP2SERIES . . . . . . . . . . . . . . CODE     ?C?FPSERIES  LOG  
?C?FPADD . . . . . . . . . . . . . . . . CODE     ?C?FPADD  ?C?FPCONVERT  ?C?FPSERIES  EXP  LOG  UTILS  
?C?FPCMP . . . . . . . . . . . . . . . . CODE     ?C?FPCMP  
?C?FPCMP3. . . . . . . . . . . . . . . . CODE     ?C?FPCMP  ADC  INTERRUPTIONS  POW  UTILS  
?C?FPCONVERT . . . . . . . . . . . . . . CODE     ?C?FPCONVERT  PRINTF  
?C?FPDIV . . . . . . . . . . . . . . . . CODE     ?C?FPDIV  ?C?FPCONVERT  ADC  COMMAND_PROCESSING  LOG  UTILS  
?C?FPGETOPN2 . . . . . . . . . . . . . . CODE     ?C?FPGETOPN  ?C?FPADD  ?C?FPDIV  ?C?FPMUL  
?C?FPMUL . . . . . . . . . . . . . . . . CODE     ?C?FPMUL  ?C?FPCONVERT  ?C?FPSERIES  ?C?FTNPWR  ADC  COMMAND_PROCESSIN
                                                  G  EXP  INTERRUPTIONS  LOG  POW  UTILS  
?C?FPNANRESULT . . . . . . . . . . . . . CODE     ?C?FPGETOPN  ?C?FPADD  ?C?FPDIV  ?C?FPMUL  EXP  LOG  
?C?FPNEG . . . . . . . . . . . . . . . . CODE     ?C?FPNEG  POW  
?C?FPOVERFLOW. . . . . . . . . . . . . . CODE     ?C?FPGETOPN  ?C?FPADD  ?C?FPDIV  ?C?FPMUL  EXP  LOG  
?C?FPRESULT. . . . . . . . . . . . . . . CODE     ?C?FPGETOPN  ?C?FPADD  ?C?FPDIV  ?C?FPMUL  
?C?FPRESULT2 . . . . . . . . . . . . . . CODE     ?C?FPGETOPN  ?C?FPDIV  ?C?FPMUL  
?C?FPROUND . . . . . . . . . . . . . . . CODE     ?C?FPROUND  PRINTF  
?C?FPSERIES. . . . . . . . . . . . . . . CODE     ?C?FPSERIES  EXP  
?C?FPSUB . . . . . . . . . . . . . . . . CODE     ?C?FPADD  LOG  POW  
?C?FPUNDERFLOW . . . . . . . . . . . . . CODE     ?C?FPGETOPN  ?C?FPADD  ?C?FPDIV  ?C?FPMUL  EXP  LOG  
?C?FTNPWR. . . . . . . . . . . . . . . . CODE     ?C?FTNPWR  ?C?FPCONVERT  
?C?IILDX . . . . . . . . . . . . . . . . CODE     ?C?IILDX  STRCAT  
?C?ILDIX . . . . . . . . . . . . . . . . CODE     ?C?ILDIX  STRCAT  
?C?IMUL. . . . . . . . . . . . . . . . . CODE     ?C?IMUL  INTERRUPTIONS  
?C?ISTPTR. . . . . . . . . . . . . . . . CODE     ?C?ISTPTR  CYDMAC  
?C?LIMUL . . . . . . . . . . . . . . . . CODE     ?C?LIMUL  COMMAND_PROCESSING  CYSPC  
?C?LLDCODE . . . . . . . . . . . . . . . CODE     ?C?LLDCODE  ?C?FPSERIES  ?C?LLDPTR  LOG  
?C?LLDCODE0. . . . . . . . . . . . . . . CODE     ?C?LLDCODE0  ?C?FPSERIES  LOG  
?C?LLDIDATA. . . . . . . . . . . . . . . CODE     ?C?LLDIDATA  ?C?LLDPTR  
LX51 LINKER/LOCATER V4.64.0.0                                                         04/04/2018  09:18:43  PAGE 158


?C?LLDPDATA. . . . . . . . . . . . . . . CODE     ?C?LLDPDATA  ?C?LLDPTR  
?C?LLDPTR. . . . . . . . . . . . . . . . CODE     ?C?LLDPTR  CYLIB  
?C?LLDXDATA. . . . . . . . . . . . . . . CODE     ?C?LLDXDATA  ?C?LLDPTR  
?C?LLDXDATA0 . . . . . . . . . . . . . . CODE     ?C?LLDXDATA0  LOG  
?C?LMUL. . . . . . . . . . . . . . . . . CODE     ?C?LMUL  ADC  CYLIB  CYPM  INTERRUPTIONS  UTILS  
?C?LNEG. . . . . . . . . . . . . . . . . CODE     ?C?LNEG  ?C?CASTF  ?C?FCAST  COMMAND_PROCESSING  UTILS  
?C?LNOT. . . . . . . . . . . . . . . . . CODE     ?C?LNOT  CYDMAC  
?C?LSHL. . . . . . . . . . . . . . . . . CODE     ?C?LSHL  ADC  COMMAND_PROCESSING  CYDMAC  CYLIB  INTERRUPTIONS  UTILS 
                                                   
?C?LSTIDATA. . . . . . . . . . . . . . . CODE     ?C?LSTIDATA  ?C?LSTPTR  
?C?LSTKXDATA . . . . . . . . . . . . . . CODE     ?C?LSTKXDATA  POW  
?C?LSTPDATA. . . . . . . . . . . . . . . CODE     ?C?LSTPDATA  ?C?LSTPTR  
?C?LSTPTR. . . . . . . . . . . . . . . . CODE     ?C?LSTPTR  CYLIB  
?C?LSTXDATA. . . . . . . . . . . . . . . CODE     ?C?LSTXDATA  ?C?LSTPTR  ADC  BOOTLOADABLE  COMMAND_PROCESSING  CYDMAC 
                                                   CYFITTER_CFG  CYLIB  CYSPC  INTERRUPTIONS  LOG  MAIN  POW  SHIFTREG_E
                                                  NC_1  SHIFTREG_ENC_2  SHIFTREG_ENC_3  UTILS  
?C?PLDIXDATA . . . . . . . . . . . . . . CODE     ?C?PLDIXDATA  PRINTF  
?C?PSTXDATA. . . . . . . . . . . . . . . CODE     ?C?PSTXDATA  PRINTF  
?C?SLCMP . . . . . . . . . . . . . . . . CODE     ?C?SLCMP  COMMAND_PROCESSING  INTERRUPTIONS  UTILS  
?C?SLDIV . . . . . . . . . . . . . . . . CODE     ?C?SLDIV  ADC  INTERRUPTIONS  UTILS  
?C?SLSHR . . . . . . . . . . . . . . . . CODE     ?C?SLSHR  COMMAND_PROCESSING  INTERRUPTIONS  UTILS  
?C?STRCPYAMD . . . . . . . . . . . . . . CODE     ?C?STRCPYAMD  COMMAND_PROCESSING  
?C?ULCMP . . . . . . . . . . . . . . . . CODE     ?C?ULCMP  COMMAND_PROCESSING  CYDMAC  CYFLASH  INTERRUPTIONS  UTILS  
?C?ULDIV . . . . . . . . . . . . . . . . CODE     ?C?ULDIV  ?C?SLDIV  ADC  BOOTLOADABLE  CYLIB  CYPM  INTERRUPTIONS  UTI
                                                  LS  
?C?ULSHR . . . . . . . . . . . . . . . . CODE     ?C?ULSHR  COMMAND_PROCESSING  CYLIB  INTERRUPTIONS  
?C?XDATASEG. . . . . . . . . . . . . . . NUMBER   ** LX51 GENERATED **  
?C?XPAGE1RST . . . . . . . . . . . . . . NUMBER   ?C_STARTUP  ADC_INT  CYLIB  INTERRUPTIONS  ISR_RS485_RX  ISR_WATCHDOG 
                                                   UART_RS485_INT  
?C?XPAGE1SFR . . . . . . . . . . . . . . DATA     ?C_STARTUP  ADC_INT  CYLIB  INTERRUPTIONS  ISR_RS485_RX  ISR_WATCHDOG 
                                                   UART_RS485_INT  
?C_START . . . . . . . . . . . . . . . . CODE     ?C_INIT  ?C_STARTUP  
?C_STARTUP . . . . . . . . . . . . . . . CODE     ?C_STARTUP  MAIN  
?C_XBP . . . . . . . . . . . . . . . . . DATA     ?C_XBP  ?C?ADDXBP  ?C_STARTUP  CYLIB  
_?CyDelay. . . . . . . . . . . . . . . . CODE     CYLIB  COMMAND_PROCESSING  CYBOOTASMKEIL  MAIN  
_?CyDelayFreq. . . . . . . . . . . . . . CODE     CYLIB  
_?CyHalt . . . . . . . . . . . . . . . . CODE     CYLIB  
_ABS . . . . . . . . . . . . . . . . . . CODE     ABS  INTERRUPTIONS  UTILS  
_ADC_AMux_FastSelect . . . . . . . . . . CODE     ADC_AMUX  
_ADC_AMux_Select . . . . . . . . . . . . CODE     ADC_AMUX  ADC  
_ADC_AMux_Set. . . . . . . . . . . . . . CODE     CYFITTER_CFG  ADC_AMUX  
_ADC_AMux_Unset. . . . . . . . . . . . . CODE     CYFITTER_CFG  ADC_AMUX  
_ADC_CountsTo_mVolts . . . . . . . . . . CODE     ADC  
_ADC_CountsTo_uVolts . . . . . . . . . . CODE     ADC  
_ADC_CountsTo_Volts. . . . . . . . . . . CODE     ADC  
_ADC_Ext_CP_Clk_ClearModeRegister. . . . CODE     ADC_EXT_CP_CLK  
_ADC_Ext_CP_Clk_SetDividerRegister . . . CODE     ADC_EXT_CP_CLK  ADC  
_ADC_Ext_CP_Clk_SetModeRegister. . . . . CODE     ADC_EXT_CP_CLK  ADC  
_ADC_Ext_CP_Clk_SetSourceRegister. . . . CODE     ADC_EXT_CP_CLK  
_ADC_Ext_CP_Clk_StandbyPower . . . . . . CODE     ADC_EXT_CP_CLK  
_ADC_IsEndConversion . . . . . . . . . . CODE     ADC  
_ADC_SelectConfiguration . . . . . . . . CODE     ADC  
_ADC_SetBufferGain . . . . . . . . . . . CODE     ADC  
_ADC_SetCoherency. . . . . . . . . . . . CODE     ADC  
_ADC_SetGain . . . . . . . . . . . . . . CODE     ADC  
_ADC_SetGCOR . . . . . . . . . . . . . . CODE     ADC  
_ADC_SetOffset . . . . . . . . . . . . . CODE     ADC  
_ADC_SOC_Write . . . . . . . . . . . . . CODE     ADC_SOC  INTERRUPTIONS  MAIN  
_ADC_STATUS_WriteMask. . . . . . . . . . CODE     ADC_STATUS  
_ADC_theACLK_ClearModeRegister . . . . . CODE     ADC_THEACLK  
_ADC_theACLK_SetDividerRegister. . . . . CODE     ADC_THEACLK  ADC  
_ADC_theACLK_SetModeRegister . . . . . . CODE     ADC_THEACLK  ADC  
_ADC_theACLK_SetPhaseRegister. . . . . . CODE     ADC_THEACLK  
_ADC_theACLK_SetSourceRegister . . . . . CODE     ADC_THEACLK  
_ADC_theACLK_StandbyPower. . . . . . . . CODE     ADC_THEACLK  
LX51 LINKER/LOCATER V4.64.0.0                                                         04/04/2018  09:18:43  PAGE 159


_Bootloadable_SetFlashByte . . . . . . . CODE     BOOTLOADABLE  
_calc_turns_fcn. . . . . . . . . . . . . CODE     UTILS  INTERRUPTIONS  
_cfg_write_bytes . . . . . . . . . . . . CODE     CYMEM  
_cfg_write_bytes_code. . . . . . . . . . CODE     CYMEM  
_check_enc_data. . . . . . . . . . . . . CODE     UTILS  INTERRUPTIONS  
_CLOCK_UART_ClearModeRegister. . . . . . CODE     CLOCK_UART  
_CLOCK_UART_SetDividerRegister . . . . . CODE     CLOCK_UART  COMMAND_PROCESSING  
_CLOCK_UART_SetModeRegister. . . . . . . CODE     CLOCK_UART  
_CLOCK_UART_SetSourceRegister. . . . . . CODE     CLOCK_UART  
_CLOCK_UART_StandbyPower . . . . . . . . CODE     CLOCK_UART  
_commWrite . . . . . . . . . . . . . . . CODE     COMMAND_PROCESSING  
_commWrite_old_id. . . . . . . . . . . . CODE     COMMAND_PROCESSING  
_commWriteID . . . . . . . . . . . . . . CODE     COMMAND_PROCESSING  
_COUNTER_ENC_SetInterruptMode. . . . . . CODE     COUNTER_ENC  
_COUNTER_ENC_WriteCompare. . . . . . . . CODE     COUNTER_ENC  
_COUNTER_ENC_WriteControlRegister. . . . CODE     COUNTER_ENC  
_COUNTER_ENC_WriteCounter. . . . . . . . CODE     COUNTER_ENC  
_COUNTER_ENC_WritePeriod . . . . . . . . CODE     COUNTER_ENC  
_curr_estim. . . . . . . . . . . . . . . CODE     UTILS  COMMAND_PROCESSING  
_CyBusClk_SetDivider . . . . . . . . . . CODE     CYLIB  CYPM  
_cyconfigcpy . . . . . . . . . . . . . . CODE     CYMEM  CYFITTER_CFG  
_cyconfigcpycode . . . . . . . . . . . . CODE     CYMEM  CYFITTER_CFG  
_CyCpuClk_SetDivider . . . . . . . . . . CODE     CYLIB  
_CyDelay . . . . . . . . . . . . . . . . CODE     CYBOOTASMKEIL  
_CyDelayCycles . . . . . . . . . . . . . CODE     CYBOOTASMKEIL  CYFITTER_CFG  CYLIB  CYPM  
_CyDelayUs . . . . . . . . . . . . . . . CODE     CYBOOTASMKEIL  ADC  CYFLASH  CYLIB  CYPM  CYSPC  
_CyDmacClearError. . . . . . . . . . . . CODE     CYDMAC  
_CyDmaChDisable. . . . . . . . . . . . . CODE     CYDMAC  DMA_DMA  
_CyDmaChEnable . . . . . . . . . . . . . CODE     CYDMAC  MAIN  
_CyDmaChFree . . . . . . . . . . . . . . CODE     CYDMAC  
_CyDmaChGetRequest . . . . . . . . . . . CODE     CYDMAC  
_CyDmaChPriority . . . . . . . . . . . . CODE     CYDMAC  DMA_DMA  
_CyDmaChRoundRobin . . . . . . . . . . . CODE     CYDMAC  
_CyDmaChSetConfiguration . . . . . . . . CODE     CYDMAC  DMA_DMA  
_CyDmaChSetExtendedAddress . . . . . . . CODE     CYDMAC  DMA_DMA  
_CyDmaChSetInitialTd . . . . . . . . . . CODE     CYDMAC  MAIN  
_CyDmaChSetRequest . . . . . . . . . . . CODE     CYDMAC  
_CyDmaChStatus . . . . . . . . . . . . . CODE     CYDMAC  
_CyDmaClearPendingDrq. . . . . . . . . . CODE     CYDMAC  
_CyDmaTdFree . . . . . . . . . . . . . . CODE     CYDMAC  
_CyDmaTdGetAddress . . . . . . . . . . . CODE     CYDMAC  
_CyDmaTdGetConfiguration . . . . . . . . CODE     CYDMAC  
_CyDmaTdSetAddress . . . . . . . . . . . CODE     CYDMAC  MAIN  
_CyDmaTdSetConfiguration . . . . . . . . CODE     CYDMAC  MAIN  
_CyEnableInts. . . . . . . . . . . . . . CODE     CYLIB  
_CyExitCriticalSection . . . . . . . . . CODE     CYBOOTASMKEIL  ADC  ADC_STATUS  COUNTER_ENC  CYDMAC  CYFLASH  CYLIB  C
                                                  YPM  CYSPC  EEPROM  FF_STATUS  MY_TIMER  SHIFTREG_ENC_1  SHIFTREG_ENC_
                                                  2  SHIFTREG_ENC_3  UART_RS485  
_CyFlash_SetWaitCycles . . . . . . . . . CODE     CYFLASH  CYPM  
_CyGetUniqueId . . . . . . . . . . . . . CODE     CYLIB  
_CyILO_SetPowerMode. . . . . . . . . . . CODE     CYLIB  CYPM  
_CyILO_SetSource . . . . . . . . . . . . CODE     CYLIB  
_CyIMO_SetFreq . . . . . . . . . . . . . CODE     CYLIB  CYPM  
_CyIMO_SetSource . . . . . . . . . . . . CODE     CYLIB  CYPM  
_CyIMO_Start . . . . . . . . . . . . . . CODE     CYLIB  CYPM  
_CyIntGetPriority. . . . . . . . . . . . CODE     CYLIB  
_CyIntGetState . . . . . . . . . . . . . CODE     CYLIB  
_CyIntGetVector. . . . . . . . . . . . . CODE     CYLIB  
_CyIntSetPriority. . . . . . . . . . . . CODE     CYLIB  ADC  UART_RS485  
_CyIntSetVector. . . . . . . . . . . . . CODE     CYLIB  ADC  UART_RS485  
_CyMasterClk_SetDivider. . . . . . . . . CODE     CYLIB  CYPM  
_CyMasterClk_SetSource . . . . . . . . . CODE     CYLIB  CYPM  
_cymemzero . . . . . . . . . . . . . . . CODE     CYMEM  
_CyPLL_OUT_SetPQ . . . . . . . . . . . . CODE     CYLIB  
_CyPLL_OUT_SetSource . . . . . . . . . . CODE     CYLIB  
LX51 LINKER/LOCATER V4.64.0.0                                                         04/04/2018  09:18:43  PAGE 160


_CyPLL_OUT_Start . . . . . . . . . . . . CODE     CYLIB  CYPM  
_CyPmAltAct. . . . . . . . . . . . . . . CODE     CYPM  
_CyPmCtwSetInterval. . . . . . . . . . . CODE     CYPM  
_CyPmFtwSetInterval. . . . . . . . . . . CODE     CYPM  CYLIB  
_CyPmHibernateEx . . . . . . . . . . . . CODE     CYPM  
_CyPmReadStatus. . . . . . . . . . . . . CODE     CYPM  CYLIB  
_CyPmSleep . . . . . . . . . . . . . . . CODE     CYPM  
_cyread16. . . . . . . . . . . . . . . . CODE     CYMEM  
_cyread16_nodpx. . . . . . . . . . . . . CODE     CYMEM  ADC  ADC_EXT_CP_CLK  ADC_THEACLK  CLOCK_UART  CYDMAC  CYLIB  IS
                                                  R_RS485_RX  ISR_WATCHDOG  PACER_TIMER  WATCHDOG_COUNTER  
_cyread24. . . . . . . . . . . . . . . . CODE     CYMEM  
_cyread24_nodpx. . . . . . . . . . . . . CODE     CYMEM  MY_TIMER  SHIFTREG_ENC_1  SHIFTREG_ENC_2  SHIFTREG_ENC_3  
_cyread32. . . . . . . . . . . . . . . . CODE     CYMEM  
_cyread32_nodpx. . . . . . . . . . . . . CODE     CYMEM  CYDMAC  
_cyread8 . . . . . . . . . . . . . . . . CODE     CYMEM  ADC  CYFITTER_CFG  CYLIB  CYSPC  
_cyread8_nodpx . . . . . . . . . . . . . CODE     CYMEM  
_CySetFlashEEBuffer. . . . . . . . . . . CODE     CYFLASH  
_CySpcEraseSector. . . . . . . . . . . . CODE     CYSPC  EEPROM  
_CySpcGetTemp. . . . . . . . . . . . . . CODE     CYSPC  CYFLASH  
_CySpcLoadMultiByte. . . . . . . . . . . CODE     CYSPC  EEPROM  
_CySpcLoadRow. . . . . . . . . . . . . . CODE     CYSPC  EEPROM  
_CySpcLoadRowFull. . . . . . . . . . . . CODE     CYSPC  CYFLASH  
_CySpcReadData . . . . . . . . . . . . . CODE     CYSPC  CYFLASH  
_CySpcWriteRow . . . . . . . . . . . . . CODE     CYSPC  CYFLASH  EEPROM  
_CyUsbClk_SetSource. . . . . . . . . . . CODE     CYLIB  
_CyVdLvAnalogEnable. . . . . . . . . . . CODE     CYLIB  CYPM  
_CyVdLvDigitEnable . . . . . . . . . . . CODE     CYLIB  CYPM  
_CyVdStickyStatus. . . . . . . . . . . . CODE     CYLIB  
_CyWdtStart. . . . . . . . . . . . . . . CODE     CYLIB  
_cywrite16 . . . . . . . . . . . . . . . CODE     CYMEM  CYFITTER_CFG  
_cywrite16_nodpx . . . . . . . . . . . . CODE     CYMEM  ADC  ADC_EXT_CP_CLK  ADC_THEACLK  CLOCK_UART  CYDMAC  CYFITTER_
                                                  CFG  CYLIB  ISR_RS485_RX  ISR_WATCHDOG  PACER_TIMER  WATCHDOG_COUNTER 
                                                   
_cywrite24 . . . . . . . . . . . . . . . CODE     CYMEM  
_cywrite24_nodpx . . . . . . . . . . . . CODE     CYMEM  MY_TIMER  SHIFTREG_ENC_1  SHIFTREG_ENC_2  SHIFTREG_ENC_3  
_cywrite32 . . . . . . . . . . . . . . . CODE     CYMEM  
_cywrite32_nodpx . . . . . . . . . . . . CODE     CYMEM  
_cywrite8. . . . . . . . . . . . . . . . CODE     CYMEM  CYFITTER_CFG  
_cywrite8_nodpx. . . . . . . . . . . . . CODE     CYMEM  
_CyWriteRowData. . . . . . . . . . . . . CODE     CYFLASH  BOOTLOADABLE  
_CyWriteRowFull. . . . . . . . . . . . . CODE     CYFLASH  
_CyXTAL_32KHZ_SetPowerMode . . . . . . . CODE     CYLIB  
_CyXTAL_SetFbVoltage . . . . . . . . . . CODE     CYLIB  
_CyXTAL_SetStartup . . . . . . . . . . . CODE     CYLIB  
_CyXTAL_SetWdVoltage . . . . . . . . . . CODE     CYLIB  
_CyXTAL_Start. . . . . . . . . . . . . . CODE     CYLIB  CYPM  
_DMA_DmaInitialize . . . . . . . . . . . CODE     DMA_DMA  MAIN  
_dma_wait. . . . . . . . . . . . . . . . CODE     ?C_STARTUP  
_EEPROM_ByteWritePos . . . . . . . . . . CODE     EEPROM  
_EEPROM_EraseSector. . . . . . . . . . . CODE     EEPROM  
_EEPROM_ReadByte . . . . . . . . . . . . CODE     EEPROM  
_EEPROM_StartErase . . . . . . . . . . . CODE     EEPROM  
_EEPROM_StartWrite . . . . . . . . . . . CODE     EEPROM  
_EEPROM_Write. . . . . . . . . . . . . . CODE     EEPROM  COMMAND_PROCESSING  
_EEPROM_WriteByte. . . . . . . . . . . . CODE     EEPROM  
_encoder_reading . . . . . . . . . . . . CODE     INTERRUPTIONS  
_EXP . . . . . . . . . . . . . . . . . . CODE     EXP  POW  
_FF_STATUS_WriteMask . . . . . . . . . . CODE     FF_STATUS  
_filter_acc_1. . . . . . . . . . . . . . CODE     UTILS  INTERRUPTIONS  
_filter_acc_2. . . . . . . . . . . . . . CODE     UTILS  INTERRUPTIONS  
_filter_acc_3. . . . . . . . . . . . . . CODE     UTILS  INTERRUPTIONS  
_filter_ch1. . . . . . . . . . . . . . . CODE     UTILS  INTERRUPTIONS  
_filter_ch2. . . . . . . . . . . . . . . CODE     UTILS  INTERRUPTIONS  
_filter_curr_diff. . . . . . . . . . . . CODE     UTILS  COMMAND_PROCESSING  
_filter_i1 . . . . . . . . . . . . . . . CODE     UTILS  INTERRUPTIONS  
LX51 LINKER/LOCATER V4.64.0.0                                                         04/04/2018  09:18:43  PAGE 161


_filter_v. . . . . . . . . . . . . . . . CODE     UTILS  
_filter_vel_1. . . . . . . . . . . . . . CODE     UTILS  INTERRUPTIONS  
_filter_vel_2. . . . . . . . . . . . . . CODE     UTILS  INTERRUPTIONS  
_filter_vel_3. . . . . . . . . . . . . . CODE     UTILS  INTERRUPTIONS  
_filter_voltage. . . . . . . . . . . . . CODE     UTILS  INTERRUPTIONS  
_FTDI_ENABLE_REG_Write . . . . . . . . . CODE     FTDI_ENABLE_REG  COMMAND_PROCESSING  MAIN  
_get_param_list. . . . . . . . . . . . . CODE     COMMAND_PROCESSING  
_infoGet . . . . . . . . . . . . . . . . CODE     COMMAND_PROCESSING  INTERRUPTIONS  
_infoPrepare . . . . . . . . . . . . . . CODE     COMMAND_PROCESSING  
_ISR_RS485_RX_SetPriority. . . . . . . . CODE     ISR_RS485_RX  
_ISR_RS485_RX_SetVector. . . . . . . . . CODE     ISR_RS485_RX  
_ISR_RS485_RX_StartEx. . . . . . . . . . CODE     ISR_RS485_RX  MAIN  
_ISR_WATCHDOG_SetPriority. . . . . . . . CODE     ISR_WATCHDOG  
_ISR_WATCHDOG_SetVector. . . . . . . . . CODE     ISR_WATCHDOG  
_ISR_WATCHDOG_StartEx. . . . . . . . . . CODE     ISR_WATCHDOG  MAIN  
_LCRChecksum . . . . . . . . . . . . . . CODE     COMMAND_PROCESSING  
_LED_BLINK_EN_Write. . . . . . . . . . . CODE     LED_BLINK_EN  INTERRUPTIONS  MAIN  
_LED_BLINK_WriteCompare. . . . . . . . . CODE     LED_BLINK  MAIN  
_LED_BLINK_WriteControlRegister. . . . . CODE     LED_BLINK  
_LED_BLINK_WriteCounter. . . . . . . . . CODE     LED_BLINK  
_LED_BLINK_WritePeriod . . . . . . . . . CODE     LED_BLINK  
_LED_CTRL_Write. . . . . . . . . . . . . CODE     LED_CTRL  INTERRUPTIONS  MAIN  
_LOG . . . . . . . . . . . . . . . . . . CODE     LOG  POW  
_LOG10 . . . . . . . . . . . . . . . . . CODE     LOG  
_memStore. . . . . . . . . . . . . . . . CODE     COMMAND_PROCESSING  
_MOTOR_DIR_Write . . . . . . . . . . . . CODE     MOTOR_DIR  INTERRUPTIONS  MAIN  
_MOTOR_ON_OFF_Write. . . . . . . . . . . CODE     MOTOR_ON_OFF  COMMAND_PROCESSING  INTERRUPTIONS  MAIN  
_my_mod. . . . . . . . . . . . . . . . . CODE     UTILS  
_my_round. . . . . . . . . . . . . . . . CODE     UTILS  
_MY_TIMER_SetInterruptMode . . . . . . . CODE     MY_TIMER  
_MY_TIMER_WriteControlRegister . . . . . CODE     MY_TIMER  
_MY_TIMER_WriteCounter . . . . . . . . . CODE     MY_TIMER  INTERRUPTIONS  
_MY_TIMER_WritePeriod. . . . . . . . . . CODE     MY_TIMER  
_PACER_TIMER_SetInterruptMode. . . . . . CODE     PACER_TIMER  
_PACER_TIMER_WriteControlRegister. . . . CODE     PACER_TIMER  
_PACER_TIMER_WriteCounter. . . . . . . . CODE     PACER_TIMER  
_PACER_TIMER_WritePeriod . . . . . . . . CODE     PACER_TIMER  
_pow . . . . . . . . . . . . . . . . . . CODE     POW  UTILS  
_PRINTF. . . . . . . . . . . . . . . . . CODE     PRINTF  
_PUTCHAR . . . . . . . . . . . . . . . . CODE     PUTCHAR  PRINTF  
_PWM_MOTORS_WriteCompare1. . . . . . . . CODE     PWM_MOTORS  COMMAND_PROCESSING  INTERRUPTIONS  MAIN  
_PWM_MOTORS_WriteCompare2. . . . . . . . CODE     PWM_MOTORS  COMMAND_PROCESSING  MAIN  
_PWM_MOTORS_WriteControlRegister . . . . CODE     PWM_MOTORS  
_PWM_MOTORS_WriteCounter . . . . . . . . CODE     PWM_MOTORS  
_PWM_MOTORS_WritePeriod. . . . . . . . . CODE     PWM_MOTORS  
_RESET_COUNTERS_Write. . . . . . . . . . CODE     RESET_COUNTERS  MAIN  
_RESET_FF_Write. . . . . . . . . . . . . CODE     RESET_FF  MAIN  
_RS485_CTS_Write . . . . . . . . . . . . CODE     RS485_CTS  COMMAND_PROCESSING  INTERRUPTIONS  MAIN  
_sendAcknowledgment. . . . . . . . . . . CODE     COMMAND_PROCESSING  
_SetAnalogRoutingPumps . . . . . . . . . CODE     CYFITTER_CFG  
_SHIFTREG_ENC_1_GetFIFOStatus. . . . . . CODE     SHIFTREG_ENC_1  
_SHIFTREG_ENC_1_SetIntMode . . . . . . . CODE     SHIFTREG_ENC_1  
_SHIFTREG_ENC_1_WriteRegValue. . . . . . CODE     SHIFTREG_ENC_1  
_SHIFTREG_ENC_2_GetFIFOStatus. . . . . . CODE     SHIFTREG_ENC_2  
_SHIFTREG_ENC_2_SetIntMode . . . . . . . CODE     SHIFTREG_ENC_2  
_SHIFTREG_ENC_2_WriteRegValue. . . . . . CODE     SHIFTREG_ENC_2  
_SHIFTREG_ENC_3_GetFIFOStatus. . . . . . CODE     SHIFTREG_ENC_3  
_SHIFTREG_ENC_3_SetIntMode . . . . . . . CODE     SHIFTREG_ENC_3  
_SHIFTREG_ENC_3_WriteRegValue. . . . . . CODE     SHIFTREG_ENC_3  
_SPRINTF . . . . . . . . . . . . . . . . CODE     PRINTF  COMMAND_PROCESSING  
_strcat. . . . . . . . . . . . . . . . . CODE     STRCAT  COMMAND_PROCESSING  
_STRLEN. . . . . . . . . . . . . . . . . CODE     STRLEN  COMMAND_PROCESSING  
_UART_RS485_PutArray . . . . . . . . . . CODE     UART_RS485  
_UART_RS485_PutChar. . . . . . . . . . . CODE     UART_RS485  COMMAND_PROCESSING  
_UART_RS485_PutCRLF. . . . . . . . . . . CODE     UART_RS485  
LX51 LINKER/LOCATER V4.64.0.0                                                         04/04/2018  09:18:43  PAGE 162


_UART_RS485_PutString. . . . . . . . . . CODE     UART_RS485  COMMAND_PROCESSING  
_UART_RS485_SendBreak. . . . . . . . . . CODE     UART_RS485  
_UART_RS485_SetRxAddress1. . . . . . . . CODE     UART_RS485  
_UART_RS485_SetRxAddress2. . . . . . . . CODE     UART_RS485  
_UART_RS485_SetRxAddressMode . . . . . . CODE     UART_RS485  
_UART_RS485_SetRxInterruptMode . . . . . CODE     UART_RS485  
_UART_RS485_SetTxAddressMode . . . . . . CODE     UART_RS485  
_UART_RS485_SetTxInterruptMode . . . . . CODE     UART_RS485  
_UART_RS485_WriteControlRegister . . . . CODE     UART_RS485  
_UART_RS485_WriteTxData. . . . . . . . . CODE     UART_RS485  
_WATCHDOG_COUNTER_SetInterruptMode . . . CODE     WATCHDOG_COUNTER  
_WATCHDOG_COUNTER_WriteControlRegister . CODE     WATCHDOG_COUNTER  
_WATCHDOG_COUNTER_WriteCounter . . . . . CODE     WATCHDOG_COUNTER  
_WATCHDOG_COUNTER_WritePeriod. . . . . . CODE     WATCHDOG_COUNTER  COMMAND_PROCESSING  
_WATCHDOG_ENABLER_Write. . . . . . . . . CODE     WATCHDOG_ENABLER  COMMAND_PROCESSING  
_WATCHDOG_REFRESH_Write. . . . . . . . . CODE     WATCHDOG_REFRESH  MAIN  
AC . . . . . . . . . . . . . . . . . . . DATA     COMMAND_PROCESSING  
ACC. . . . . . . . . . . . . . . . . . . DATA     COMMAND_PROCESSING  
ADC_AMux__addrTable. . . . . . . . . . . CONST    CYFITTER_CFG  
ADC_AMux__maskTable. . . . . . . . . . . CONST    CYFITTER_CFG  
ADC_AMux_Start . . . . . . . . . . . . . CODE     ADC_AMUX  
ADC_buf. . . . . . . . . . . . . . . . . XDATA    GLOBALS  INTERRUPTIONS  MAIN  
ADC_Config . . . . . . . . . . . . . . . XDATA    ADC  
ADC_convDone . . . . . . . . . . . . . . XDATA    ADC  
ADC_CountsPerVolt. . . . . . . . . . . . XDATA    ADC  
ADC_Enable . . . . . . . . . . . . . . . CODE     ADC  
ADC_Ext_CP_Clk_GetDividerRegister. . . . CODE     ADC_EXT_CP_CLK  
ADC_Ext_CP_Clk_GetModeRegister . . . . . CODE     ADC_EXT_CP_CLK  
ADC_Ext_CP_Clk_GetSourceRegister . . . . CODE     ADC_EXT_CP_CLK  
ADC_Ext_CP_Clk_Start . . . . . . . . . . CODE     ADC_EXT_CP_CLK  
ADC_Ext_CP_Clk_Stop. . . . . . . . . . . CODE     ADC_EXT_CP_CLK  
ADC_Ext_CP_Clk_StopBlock . . . . . . . . CODE     ADC_EXT_CP_CLK  
ADC_GetResult16. . . . . . . . . . . . . CODE     ADC  
ADC_GetResult32. . . . . . . . . . . . . CODE     ADC  
ADC_GetResult8 . . . . . . . . . . . . . CODE     ADC  
ADC_Init . . . . . . . . . . . . . . . . CODE     ADC  
ADC_initVar. . . . . . . . . . . . . . . XDATA    ADC  
ADC_ISR1 . . . . . . . . . . . . . . . . CODE     ADC_INT  ADC  
ADC_ISR2 . . . . . . . . . . . . . . . . CODE     ADC_INT  
ADC_ISR3 . . . . . . . . . . . . . . . . CODE     ADC_INT  
ADC_ISR4 . . . . . . . . . . . . . . . . CODE     ADC_INT  
ADC_Offset . . . . . . . . . . . . . . . XDATA    ADC  
ADC_Read16 . . . . . . . . . . . . . . . CODE     ADC  
ADC_Read32 . . . . . . . . . . . . . . . CODE     ADC  
ADC_Read8. . . . . . . . . . . . . . . . CODE     ADC  
ADC_ReadGCOR . . . . . . . . . . . . . . CODE     ADC  
ADC_SOC_Read . . . . . . . . . . . . . . CODE     ADC_SOC  
ADC_Start. . . . . . . . . . . . . . . . CODE     ADC  MAIN  
ADC_StartConvert . . . . . . . . . . . . CODE     ADC  
ADC_started. . . . . . . . . . . . . . . XDATA    ADC  
ADC_STATUS_InterruptDisable. . . . . . . CODE     ADC_STATUS  
ADC_STATUS_InterruptEnable . . . . . . . CODE     ADC_STATUS  
ADC_STATUS_Read. . . . . . . . . . . . . CODE     ADC_STATUS  INTERRUPTIONS  
ADC_STATUS_ReadMask. . . . . . . . . . . CODE     ADC_STATUS  
ADC_Stop . . . . . . . . . . . . . . . . CODE     ADC  
ADC_stopConversion . . . . . . . . . . . XDATA    ADC  
ADC_StopConvert. . . . . . . . . . . . . CODE     ADC  
ADC_theACLK_GetDividerRegister . . . . . CODE     ADC_THEACLK  
ADC_theACLK_GetModeRegister. . . . . . . CODE     ADC_THEACLK  
ADC_theACLK_GetPhaseRegister . . . . . . CODE     ADC_THEACLK  
ADC_theACLK_GetSourceRegister. . . . . . CODE     ADC_THEACLK  
ADC_theACLK_Start. . . . . . . . . . . . CODE     ADC_THEACLK  
ADC_theACLK_Stop . . . . . . . . . . . . CODE     ADC_THEACLK  
ADC_theACLK_StopBlock. . . . . . . . . . CODE     ADC_THEACLK  
analog_read_end. . . . . . . . . . . . . CODE     INTERRUPTIONS  
LX51 LINKER/LOCATER V4.64.0.0                                                         04/04/2018  09:18:43  PAGE 163


B. . . . . . . . . . . . . . . . . . . . DATA     COMMAND_PROCESSING  
Bootloadable_Load. . . . . . . . . . . . CODE     BOOTLOADABLE  COMMAND_PROCESSING  
c_mem. . . . . . . . . . . . . . . . . . XDATA    GLOBALS  COMMAND_PROCESSING  INTERRUPTIONS  MAIN  UTILS  
calib. . . . . . . . . . . . . . . . . . XDATA    GLOBALS  COMMAND_PROCESSING  INTERRUPTIONS  UTILS  
calibration. . . . . . . . . . . . . . . CODE     UTILS  INTERRUPTIONS  
check_rest_position. . . . . . . . . . . CODE     UTILS  INTERRUPTIONS  
CLOCK_UART_GetDividerRegister. . . . . . CODE     CLOCK_UART  
CLOCK_UART_GetModeRegister . . . . . . . CODE     CLOCK_UART  
CLOCK_UART_GetSourceRegister . . . . . . CODE     CLOCK_UART  
CLOCK_UART_Start . . . . . . . . . . . . CODE     CLOCK_UART  
CLOCK_UART_Stop. . . . . . . . . . . . . CODE     CLOCK_UART  
CLOCK_UART_StopBlock . . . . . . . . . . CODE     CLOCK_UART  
cmd_activate . . . . . . . . . . . . . . CODE     COMMAND_PROCESSING  
cmd_get_activate . . . . . . . . . . . . CODE     COMMAND_PROCESSING  
cmd_get_curr_and_meas. . . . . . . . . . CODE     COMMAND_PROCESSING  
cmd_get_currents . . . . . . . . . . . . CODE     COMMAND_PROCESSING  
cmd_get_emg. . . . . . . . . . . . . . . CODE     COMMAND_PROCESSING  
cmd_get_inputs . . . . . . . . . . . . . CODE     COMMAND_PROCESSING  
cmd_get_measurements . . . . . . . . . . CODE     COMMAND_PROCESSING  
cmd_ping . . . . . . . . . . . . . . . . CODE     COMMAND_PROCESSING  
cmd_set_baudrate . . . . . . . . . . . . CODE     COMMAND_PROCESSING  
cmd_set_inputs . . . . . . . . . . . . . CODE     COMMAND_PROCESSING  
cmd_set_watchdog . . . . . . . . . . . . CODE     COMMAND_PROCESSING  
cmd_store_params . . . . . . . . . . . . CODE     COMMAND_PROCESSING  
commProcess. . . . . . . . . . . . . . . CODE     COMMAND_PROCESSING  INTERRUPTIONS  
commReadMeasFromSH . . . . . . . . . . . CODE     COMMAND_PROCESSING  INTERRUPTIONS  
count_tension_valid. . . . . . . . . . . XDATA    GLOBALS  COMMAND_PROCESSING  INTERRUPTIONS  MAIN  
COUNTER_ENC_ClearFIFO. . . . . . . . . . CODE     COUNTER_ENC  
COUNTER_ENC_Enable . . . . . . . . . . . CODE     COUNTER_ENC  
COUNTER_ENC_Init . . . . . . . . . . . . CODE     COUNTER_ENC  
COUNTER_ENC_initVar. . . . . . . . . . . XDATA    COUNTER_ENC  
COUNTER_ENC_ReadCapture. . . . . . . . . CODE     COUNTER_ENC  
COUNTER_ENC_ReadCompare. . . . . . . . . CODE     COUNTER_ENC  
COUNTER_ENC_ReadControlRegister. . . . . CODE     COUNTER_ENC  
COUNTER_ENC_ReadCounter. . . . . . . . . CODE     COUNTER_ENC  
COUNTER_ENC_ReadPeriod . . . . . . . . . CODE     COUNTER_ENC  
COUNTER_ENC_ReadStatusRegister . . . . . CODE     COUNTER_ENC  
COUNTER_ENC_Start. . . . . . . . . . . . CODE     COUNTER_ENC  MAIN  
COUNTER_ENC_Stop . . . . . . . . . . . . CODE     COUNTER_ENC  
curr_pos_res . . . . . . . . . . . . . . XDATA    GLOBALS  INTERRUPTIONS  UTILS  
CY . . . . . . . . . . . . . . . . . . . DATA     COMMAND_PROCESSING  
cydelay_32k_ms . . . . . . . . . . . . . XDATA    CYLIB  
cydelay_freq_hz. . . . . . . . . . . . . XDATA    CYLIB  
cydelay_freq_khz . . . . . . . . . . . . XDATA    CYLIB  
cydelay_freq_mhz . . . . . . . . . . . . XDATA    CYLIB  CYBOOTASMKEIL  
CyDisableInts. . . . . . . . . . . . . . CODE     CYLIB  
CyDmacConfigure. . . . . . . . . . . . . CODE     CYDMAC  ?C_STARTUP  
CyDmacError. . . . . . . . . . . . . . . CODE     CYDMAC  
CyDmacErrorAddress . . . . . . . . . . . CODE     CYDMAC  
CyDmaChAlloc . . . . . . . . . . . . . . CODE     CYDMAC  
CyDmaTdAllocate. . . . . . . . . . . . . CODE     CYDMAC  MAIN  
CyDmaTdFreeCount . . . . . . . . . . . . CODE     CYDMAC  
CyEEPROM_ReadRelease . . . . . . . . . . CODE     CYFLASH  EEPROM  
CyEEPROM_ReadReserve . . . . . . . . . . CODE     CYFLASH  EEPROM  
CyEEPROM_Start . . . . . . . . . . . . . CODE     CYFLASH  EEPROM  
CyEEPROM_Stop. . . . . . . . . . . . . . CODE     CYFLASH  EEPROM  
CyEnterCriticalSection . . . . . . . . . CODE     CYBOOTASMKEIL  ADC  ADC_STATUS  COUNTER_ENC  CYDMAC  CYFLASH  CYLIB  C
                                                  YPM  CYSPC  EEPROM  FF_STATUS  MY_TIMER  SHIFTREG_ENC_1  SHIFTREG_ENC_
                                                  2  SHIFTREG_ENC_3  UART_RS485  
cyfitter_cfg . . . . . . . . . . . . . . CODE     CYFITTER_CFG  ?C_STARTUP  
CyFlash_Start. . . . . . . . . . . . . . CODE     CYFLASH  
CyFlash_Stop . . . . . . . . . . . . . . CODE     CYFLASH  
CyILO_Disable33K . . . . . . . . . . . . CODE     CYLIB  
CyILO_Enable33K. . . . . . . . . . . . . CODE     CYLIB  
CyILO_Start100K. . . . . . . . . . . . . CODE     CYLIB  CYPM  
LX51 LINKER/LOCATER V4.64.0.0                                                         04/04/2018  09:18:43  PAGE 164


CyILO_Start1K. . . . . . . . . . . . . . CODE     CYLIB  CYPM  
CyILO_Stop100K . . . . . . . . . . . . . CODE     CYLIB  
CyILO_Stop1K . . . . . . . . . . . . . . CODE     CYLIB  
CyIMO_DisableDoubler . . . . . . . . . . CODE     CYLIB  CYPM  
CyIMO_EnableDoubler. . . . . . . . . . . CODE     CYLIB  CYPM  
CyIMO_Stop . . . . . . . . . . . . . . . CODE     CYLIB  CYPM  
CyIntInitVectors . . . . . . . . . . . . CODE     CYLIB  ?C_STARTUP  
CyPLL_OUT_Stop . . . . . . . . . . . . . CODE     CYLIB  CYPM  
CyPmHibernate. . . . . . . . . . . . . . CODE     CYPM  
CyPmOppsSet. . . . . . . . . . . . . . . CODE     CYPM  
CyPmRestoreClocks. . . . . . . . . . . . CODE     CYPM  
CyPmSaveClocks . . . . . . . . . . . . . CODE     CYPM  
CyResetStatus. . . . . . . . . . . . . . XDATA    CYLIB  ?C_STARTUP  
CySetTemp. . . . . . . . . . . . . . . . CODE     CYFLASH  COMMAND_PROCESSING  EEPROM  
CySoftwareReset. . . . . . . . . . . . . CODE     CYLIB  BOOTLOADABLE  
CySpcGetAlgorithm. . . . . . . . . . . . CODE     CYSPC  CYFLASH  
CySpcLock. . . . . . . . . . . . . . . . CODE     CYSPC  CYFLASH  EEPROM  
CySpcStart . . . . . . . . . . . . . . . CODE     CYSPC  CYFLASH  EEPROM  
CySpcStop. . . . . . . . . . . . . . . . CODE     CYSPC  
CySpcUnlock. . . . . . . . . . . . . . . CODE     CYSPC  CYFLASH  EEPROM  
CyVdHvAnalogDisable. . . . . . . . . . . CODE     CYLIB  CYPM  
CyVdHvAnalogEnable . . . . . . . . . . . CODE     CYLIB  CYPM  
CyVdLvAnalogDisable. . . . . . . . . . . CODE     CYLIB  CYPM  
CyVdLvDigitDisable . . . . . . . . . . . CODE     CYLIB  CYPM  
CyVdRealTimeStatus . . . . . . . . . . . CODE     CYLIB  
CyWdtClear . . . . . . . . . . . . . . . CODE     CYLIB  
CyXTAL_32KHZ_ReadStatus. . . . . . . . . CODE     CYLIB  
CyXTAL_32KHZ_Start . . . . . . . . . . . CODE     CYLIB  CYPM  
CyXTAL_32KHZ_Stop. . . . . . . . . . . . CODE     CYLIB  
CyXTAL_DisableErrStatus. . . . . . . . . CODE     CYLIB  
CyXTAL_DisableFaultRecovery. . . . . . . CODE     CYLIB  
CyXTAL_EnableErrStatus . . . . . . . . . CODE     CYLIB  
CyXTAL_EnableFaultRecovery . . . . . . . CODE     CYLIB  
CyXTAL_ReadStatus. . . . . . . . . . . . CODE     CYLIB  
CyXTAL_Stop. . . . . . . . . . . . . . . CODE     CYLIB  CYPM  
deactivate_slaves. . . . . . . . . . . . CODE     COMMAND_PROCESSING  INTERRUPTIONS  
dev_pwm_limit. . . . . . . . . . . . . . XDATA    GLOBALS  COMMAND_PROCESSING  INTERRUPTIONS  MAIN  
dev_tension. . . . . . . . . . . . . . . XDATA    GLOBALS  COMMAND_PROCESSING  INTERRUPTIONS  
dev_tension_f. . . . . . . . . . . . . . XDATA    GLOBALS  COMMAND_PROCESSING  INTERRUPTIONS  
dieTemperature . . . . . . . . . . . . . XDATA    CYFLASH  EEPROM  
DMA_DmaHandle. . . . . . . . . . . . . . XDATA    DMA_DMA  
DMA_DmaRelease . . . . . . . . . . . . . CODE     DMA_DMA  
DPH. . . . . . . . . . . . . . . . . . . DATA     COMMAND_PROCESSING  
DPH1 . . . . . . . . . . . . . . . . . . DATA     COMMAND_PROCESSING  
DPL. . . . . . . . . . . . . . . . . . . DATA     COMMAND_PROCESSING  
DPL1 . . . . . . . . . . . . . . . . . . DATA     COMMAND_PROCESSING  
DPS. . . . . . . . . . . . . . . . . . . DATA     COMMAND_PROCESSING  
DPX. . . . . . . . . . . . . . . . . . . DATA     COMMAND_PROCESSING  
DPX1 . . . . . . . . . . . . . . . . . . DATA     COMMAND_PROCESSING  
drive_force_fb . . . . . . . . . . . . . CODE     COMMAND_PROCESSING  INTERRUPTIONS  
drive_proprio_fb . . . . . . . . . . . . CODE     COMMAND_PROCESSING  INTERRUPTIONS  
drive_SH . . . . . . . . . . . . . . . . CODE     COMMAND_PROCESSING  INTERRUPTIONS  
EA . . . . . . . . . . . . . . . . . . . DATA     COMMAND_PROCESSING  
EEPROM_ADDR. . . . . . . . . . . . . . . XDATA    COMMAND_PROCESSING  
EEPROM_Enable. . . . . . . . . . . . . . CODE     EEPROM  
EEPROM_Query . . . . . . . . . . . . . . CODE     EEPROM  
EEPROM_Start . . . . . . . . . . . . . . CODE     EEPROM  MAIN  
EEPROM_Stop. . . . . . . . . . . . . . . CODE     EEPROM  
EEPROM_UpdateTemperature . . . . . . . . CODE     EEPROM  
F0 . . . . . . . . . . . . . . . . . . . DATA     COMMAND_PROCESSING  
F1 . . . . . . . . . . . . . . . . . . . DATA     COMMAND_PROCESSING  
FF_STATUS_InterruptDisable . . . . . . . CODE     FF_STATUS  
FF_STATUS_InterruptEnable. . . . . . . . CODE     FF_STATUS  
FF_STATUS_Read . . . . . . . . . . . . . CODE     FF_STATUS  MAIN  
FF_STATUS_ReadMask . . . . . . . . . . . CODE     FF_STATUS  
LX51 LINKER/LOCATER V4.64.0.0                                                         04/04/2018  09:18:43  PAGE 165


first_tension_valid. . . . . . . . . . . XDATA    GLOBALS  INTERRUPTIONS  MAIN  
forced_open. . . . . . . . . . . . . . . XDATA    GLOBALS  UTILS  
FTDI_ENABLE_REG_Read . . . . . . . . . . CODE     FTDI_ENABLE_REG  
function_scheduler . . . . . . . . . . . CODE     INTERRUPTIONS  MAIN  
g_meas . . . . . . . . . . . . . . . . . XDATA    GLOBALS  COMMAND_PROCESSING  INTERRUPTIONS  MAIN  UTILS  
g_measOld. . . . . . . . . . . . . . . . XDATA    GLOBALS  COMMAND_PROCESSING  INTERRUPTIONS  
g_mem. . . . . . . . . . . . . . . . . . XDATA    GLOBALS  COMMAND_PROCESSING  INTERRUPTIONS  UTILS  
g_ref. . . . . . . . . . . . . . . . . . XDATA    GLOBALS  COMMAND_PROCESSING  INTERRUPTIONS  MAIN  UTILS  
g_refNew . . . . . . . . . . . . . . . . XDATA    GLOBALS  COMMAND_PROCESSING  INTERRUPTIONS  MAIN  
g_refOld . . . . . . . . . . . . . . . . XDATA    GLOBALS  COMMAND_PROCESSING  INTERRUPTIONS  UTILS  
g_rx . . . . . . . . . . . . . . . . . . XDATA    GLOBALS  COMMAND_PROCESSING  INTERRUPTIONS  MAIN  
IE . . . . . . . . . . . . . . . . . . . DATA     COMMAND_PROCESSING  
infoSend . . . . . . . . . . . . . . . . CODE     COMMAND_PROCESSING  
IntDefaultHandler. . . . . . . . . . . . CODE     CYLIB  
interrupt_flag . . . . . . . . . . . . . BIT      GLOBALS  COMMAND_PROCESSING  INTERRUPTIONS  MAIN  
interrupt_manager. . . . . . . . . . . . CODE     INTERRUPTIONS  COMMAND_PROCESSING  MAIN  
ISR_RS485_RX_ClearPending. . . . . . . . CODE     ISR_RS485_RX  
ISR_RS485_RX_Disable . . . . . . . . . . CODE     ISR_RS485_RX  COMMAND_PROCESSING  
ISR_RS485_RX_Enable. . . . . . . . . . . CODE     ISR_RS485_RX  COMMAND_PROCESSING  
ISR_RS485_RX_ExInterrupt . . . . . . . . CODE     INTERRUPTIONS  MAIN  
ISR_RS485_RX_GetPriority . . . . . . . . CODE     ISR_RS485_RX  
ISR_RS485_RX_GetState. . . . . . . . . . CODE     ISR_RS485_RX  
ISR_RS485_RX_GetVector . . . . . . . . . CODE     ISR_RS485_RX  
ISR_RS485_RX_Interrupt . . . . . . . . . CODE     ISR_RS485_RX  
ISR_RS485_RX_SetPending. . . . . . . . . CODE     ISR_RS485_RX  
ISR_RS485_RX_Start . . . . . . . . . . . CODE     ISR_RS485_RX  
ISR_RS485_RX_Stop. . . . . . . . . . . . CODE     ISR_RS485_RX  
ISR_WATCHDOG_ClearPending. . . . . . . . CODE     ISR_WATCHDOG  
ISR_WATCHDOG_Disable . . . . . . . . . . CODE     ISR_WATCHDOG  
ISR_WATCHDOG_Enable. . . . . . . . . . . CODE     ISR_WATCHDOG  
ISR_WATCHDOG_GetPriority . . . . . . . . CODE     ISR_WATCHDOG  
ISR_WATCHDOG_GetState. . . . . . . . . . CODE     ISR_WATCHDOG  
ISR_WATCHDOG_GetVector . . . . . . . . . CODE     ISR_WATCHDOG  
ISR_WATCHDOG_Handler . . . . . . . . . . CODE     INTERRUPTIONS  MAIN  
ISR_WATCHDOG_Interrupt . . . . . . . . . CODE     ISR_WATCHDOG  
ISR_WATCHDOG_SetPending. . . . . . . . . CODE     ISR_WATCHDOG  
ISR_WATCHDOG_Start . . . . . . . . . . . CODE     ISR_WATCHDOG  
ISR_WATCHDOG_Stop. . . . . . . . . . . . CODE     ISR_WATCHDOG  
LED_BLINK_EN_Read. . . . . . . . . . . . CODE     LED_BLINK_EN  
LED_BLINK_Enable . . . . . . . . . . . . CODE     LED_BLINK  
LED_BLINK_Init . . . . . . . . . . . . . CODE     LED_BLINK  
LED_BLINK_initVar. . . . . . . . . . . . XDATA    LED_BLINK  
LED_BLINK_ReadCapture. . . . . . . . . . CODE     LED_BLINK  
LED_BLINK_ReadCompare. . . . . . . . . . CODE     LED_BLINK  
LED_BLINK_ReadControlRegister. . . . . . CODE     LED_BLINK  
LED_BLINK_ReadCounter. . . . . . . . . . CODE     LED_BLINK  
LED_BLINK_ReadPeriod . . . . . . . . . . CODE     LED_BLINK  
LED_BLINK_Start. . . . . . . . . . . . . CODE     LED_BLINK  MAIN  
LED_BLINK_Stop . . . . . . . . . . . . . CODE     LED_BLINK  
LED_CTRL_Read. . . . . . . . . . . . . . CODE     LED_CTRL  
main . . . . . . . . . . . . . . . . . . CODE     MAIN  ?C_INIT  
master_mode. . . . . . . . . . . . . . . XDATA    GLOBALS  COMMAND_PROCESSING  INTERRUPTIONS  MAIN  
memInit. . . . . . . . . . . . . . . . . CODE     COMMAND_PROCESSING  
memRecall. . . . . . . . . . . . . . . . CODE     COMMAND_PROCESSING  MAIN  
memRestore . . . . . . . . . . . . . . . CODE     COMMAND_PROCESSING  
motor_control. . . . . . . . . . . . . . CODE     INTERRUPTIONS  
MOTOR_DIR_Read . . . . . . . . . . . . . CODE     MOTOR_DIR  
MOTOR_ON_OFF_Read. . . . . . . . . . . . CODE     MOTOR_ON_OFF  
MXAX . . . . . . . . . . . . . . . . . . DATA     COMMAND_PROCESSING  
MY_TIMER_ClearFIFO . . . . . . . . . . . CODE     MY_TIMER  
MY_TIMER_Enable. . . . . . . . . . . . . CODE     MY_TIMER  
MY_TIMER_Init. . . . . . . . . . . . . . CODE     MY_TIMER  
MY_TIMER_initVar . . . . . . . . . . . . XDATA    MY_TIMER  
MY_TIMER_ReadCapture . . . . . . . . . . CODE     MY_TIMER  
MY_TIMER_ReadControlRegister . . . . . . CODE     MY_TIMER  
LX51 LINKER/LOCATER V4.64.0.0                                                         04/04/2018  09:18:43  PAGE 166


MY_TIMER_ReadCounter . . . . . . . . . . CODE     MY_TIMER  COMMAND_PROCESSING  INTERRUPTIONS  
MY_TIMER_ReadPeriod. . . . . . . . . . . CODE     MY_TIMER  
MY_TIMER_ReadStatusRegister. . . . . . . CODE     MY_TIMER  
MY_TIMER_SoftwareCapture . . . . . . . . CODE     MY_TIMER  
MY_TIMER_Start . . . . . . . . . . . . . CODE     MY_TIMER  MAIN  
MY_TIMER_Stop. . . . . . . . . . . . . . CODE     MY_TIMER  
OV . . . . . . . . . . . . . . . . . . . DATA     COMMAND_PROCESSING  
overcurrent_control. . . . . . . . . . . CODE     INTERRUPTIONS  
P. . . . . . . . . . . . . . . . . . . . DATA     COMMAND_PROCESSING  
P2AX . . . . . . . . . . . . . . . . . . DATA     COMMAND_PROCESSING  
PACER_TIMER_Enable . . . . . . . . . . . CODE     PACER_TIMER  
PACER_TIMER_Init . . . . . . . . . . . . CODE     PACER_TIMER  
PACER_TIMER_initVar. . . . . . . . . . . XDATA    PACER_TIMER  
PACER_TIMER_ReadCapture. . . . . . . . . CODE     PACER_TIMER  
PACER_TIMER_ReadControlRegister. . . . . CODE     PACER_TIMER  
PACER_TIMER_ReadCounter. . . . . . . . . CODE     PACER_TIMER  
PACER_TIMER_ReadPeriod . . . . . . . . . CODE     PACER_TIMER  
PACER_TIMER_ReadStatusRegister . . . . . CODE     PACER_TIMER  
PACER_TIMER_SoftwareCapture. . . . . . . CODE     PACER_TIMER  
PACER_TIMER_Start. . . . . . . . . . . . CODE     PACER_TIMER  MAIN  
PACER_TIMER_Stop . . . . . . . . . . . . CODE     PACER_TIMER  
pow_tension. . . . . . . . . . . . . . . XDATA    GLOBALS  COMMAND_PROCESSING  INTERRUPTIONS  MAIN  
PSW. . . . . . . . . . . . . . . . . . . DATA     COMMAND_PROCESSING  
pwm_limit_search . . . . . . . . . . . . CODE     INTERRUPTIONS  
PWM_MOTORS_Enable. . . . . . . . . . . . CODE     PWM_MOTORS  
PWM_MOTORS_Init. . . . . . . . . . . . . CODE     PWM_MOTORS  
PWM_MOTORS_initVar . . . . . . . . . . . XDATA    PWM_MOTORS  
PWM_MOTORS_ReadCapture . . . . . . . . . CODE     PWM_MOTORS  
PWM_MOTORS_ReadCompare1. . . . . . . . . CODE     PWM_MOTORS  
PWM_MOTORS_ReadCompare2. . . . . . . . . CODE     PWM_MOTORS  
PWM_MOTORS_ReadControlRegister . . . . . CODE     PWM_MOTORS  
PWM_MOTORS_ReadCounter . . . . . . . . . CODE     PWM_MOTORS  
PWM_MOTORS_ReadPeriod. . . . . . . . . . CODE     PWM_MOTORS  
PWM_MOTORS_Start . . . . . . . . . . . . CODE     PWM_MOTORS  MAIN  
PWM_MOTORS_Stop. . . . . . . . . . . . . CODE     PWM_MOTORS  
pwm_sign . . . . . . . . . . . . . . . . XDATA    GLOBALS  INTERRUPTIONS  
RESET_COUNTERS_Read. . . . . . . . . . . CODE     RESET_COUNTERS  
RESET_FF_Read. . . . . . . . . . . . . . CODE     RESET_FF  
reset_last_value_flag. . . . . . . . . . BIT      GLOBALS  COMMAND_PROCESSING  INTERRUPTIONS  MAIN  
rest_enabled . . . . . . . . . . . . . . XDATA    GLOBALS  MAIN  UTILS  
rest_pos_curr_ref. . . . . . . . . . . . XDATA    GLOBALS  UTILS  
RS0. . . . . . . . . . . . . . . . . . . DATA     COMMAND_PROCESSING  
RS1. . . . . . . . . . . . . . . . . . . DATA     COMMAND_PROCESSING  
RS485_CTS_Read . . . . . . . . . . . . . CODE     RS485_CTS  
setZeros . . . . . . . . . . . . . . . . CODE     COMMAND_PROCESSING  
SFRPRT0DR. . . . . . . . . . . . . . . . DATA     COMMAND_PROCESSING  
SFRPRT0PS. . . . . . . . . . . . . . . . DATA     COMMAND_PROCESSING  
SFRPRT0SEL . . . . . . . . . . . . . . . DATA     COMMAND_PROCESSING  
SFRPRT12DR . . . . . . . . . . . . . . . DATA     COMMAND_PROCESSING  
SFRPRT12PS . . . . . . . . . . . . . . . DATA     COMMAND_PROCESSING  
SFRPRT12SEL. . . . . . . . . . . . . . . DATA     COMMAND_PROCESSING  
SFRPRT15DR . . . . . . . . . . . . . . . DATA     COMMAND_PROCESSING  
SFRPRT15PS . . . . . . . . . . . . . . . DATA     COMMAND_PROCESSING  
SFRPRT15SEL. . . . . . . . . . . . . . . DATA     COMMAND_PROCESSING  
SFRPRT1DR. . . . . . . . . . . . . . . . DATA     COMMAND_PROCESSING  
SFRPRT1PS. . . . . . . . . . . . . . . . DATA     COMMAND_PROCESSING  
SFRPRT1SEL . . . . . . . . . . . . . . . DATA     COMMAND_PROCESSING  
SFRPRT2DR. . . . . . . . . . . . . . . . DATA     COMMAND_PROCESSING  
SFRPRT2PS. . . . . . . . . . . . . . . . DATA     COMMAND_PROCESSING  
SFRPRT2SEL . . . . . . . . . . . . . . . DATA     COMMAND_PROCESSING  
SFRPRT3DR. . . . . . . . . . . . . . . . DATA     COMMAND_PROCESSING  
SFRPRT3PS. . . . . . . . . . . . . . . . DATA     COMMAND_PROCESSING  
SFRPRT3SEL . . . . . . . . . . . . . . . DATA     COMMAND_PROCESSING  
SFRPRT4DR. . . . . . . . . . . . . . . . DATA     COMMAND_PROCESSING  
SFRPRT4PS. . . . . . . . . . . . . . . . DATA     COMMAND_PROCESSING  
LX51 LINKER/LOCATER V4.64.0.0                                                         04/04/2018  09:18:43  PAGE 167


SFRPRT4SEL . . . . . . . . . . . . . . . DATA     COMMAND_PROCESSING  
SFRPRT5DR. . . . . . . . . . . . . . . . DATA     COMMAND_PROCESSING  
SFRPRT5PS. . . . . . . . . . . . . . . . DATA     COMMAND_PROCESSING  
SFRPRT5SEL . . . . . . . . . . . . . . . DATA     COMMAND_PROCESSING  
SFRPRT6DR. . . . . . . . . . . . . . . . DATA     COMMAND_PROCESSING  
SFRPRT6PS. . . . . . . . . . . . . . . . DATA     COMMAND_PROCESSING  
SFRPRT6SEL . . . . . . . . . . . . . . . DATA     COMMAND_PROCESSING  
SHIFTREG_ENC_1_DisableInt. . . . . . . . CODE     SHIFTREG_ENC_1  
SHIFTREG_ENC_1_Enable. . . . . . . . . . CODE     SHIFTREG_ENC_1  
SHIFTREG_ENC_1_EnableInt . . . . . . . . CODE     SHIFTREG_ENC_1  
SHIFTREG_ENC_1_GetIntStatus. . . . . . . CODE     SHIFTREG_ENC_1  
SHIFTREG_ENC_1_Init. . . . . . . . . . . CODE     SHIFTREG_ENC_1  
SHIFTREG_ENC_1_initVar . . . . . . . . . XDATA    SHIFTREG_ENC_1  
SHIFTREG_ENC_1_ReadData. . . . . . . . . CODE     SHIFTREG_ENC_1  INTERRUPTIONS  
SHIFTREG_ENC_1_ReadRegValue. . . . . . . CODE     SHIFTREG_ENC_1  
SHIFTREG_ENC_1_Start . . . . . . . . . . CODE     SHIFTREG_ENC_1  MAIN  
SHIFTREG_ENC_1_Stop. . . . . . . . . . . CODE     SHIFTREG_ENC_1  
SHIFTREG_ENC_2_DisableInt. . . . . . . . CODE     SHIFTREG_ENC_2  
SHIFTREG_ENC_2_Enable. . . . . . . . . . CODE     SHIFTREG_ENC_2  
SHIFTREG_ENC_2_EnableInt . . . . . . . . CODE     SHIFTREG_ENC_2  
SHIFTREG_ENC_2_GetIntStatus. . . . . . . CODE     SHIFTREG_ENC_2  
SHIFTREG_ENC_2_Init. . . . . . . . . . . CODE     SHIFTREG_ENC_2  
SHIFTREG_ENC_2_initVar . . . . . . . . . XDATA    SHIFTREG_ENC_2  
SHIFTREG_ENC_2_ReadData. . . . . . . . . CODE     SHIFTREG_ENC_2  INTERRUPTIONS  
SHIFTREG_ENC_2_ReadRegValue. . . . . . . CODE     SHIFTREG_ENC_2  
SHIFTREG_ENC_2_Start . . . . . . . . . . CODE     SHIFTREG_ENC_2  MAIN  
SHIFTREG_ENC_2_Stop. . . . . . . . . . . CODE     SHIFTREG_ENC_2  
SHIFTREG_ENC_3_DisableInt. . . . . . . . CODE     SHIFTREG_ENC_3  
SHIFTREG_ENC_3_Enable. . . . . . . . . . CODE     SHIFTREG_ENC_3  
SHIFTREG_ENC_3_EnableInt . . . . . . . . CODE     SHIFTREG_ENC_3  
SHIFTREG_ENC_3_GetIntStatus. . . . . . . CODE     SHIFTREG_ENC_3  
SHIFTREG_ENC_3_Init. . . . . . . . . . . CODE     SHIFTREG_ENC_3  
SHIFTREG_ENC_3_initVar . . . . . . . . . XDATA    SHIFTREG_ENC_3  
SHIFTREG_ENC_3_ReadData. . . . . . . . . CODE     SHIFTREG_ENC_3  INTERRUPTIONS  
SHIFTREG_ENC_3_ReadRegValue. . . . . . . CODE     SHIFTREG_ENC_3  
SHIFTREG_ENC_3_Start . . . . . . . . . . CODE     SHIFTREG_ENC_3  MAIN  
SHIFTREG_ENC_3_Stop. . . . . . . . . . . CODE     SHIFTREG_ENC_3  
SP . . . . . . . . . . . . . . . . . . . DATA     COMMAND_PROCESSING  
SpcLockState . . . . . . . . . . . . . . XDATA    CYSPC  
STARTUP1 . . . . . . . . . . . . . . . . CODE     ?C_STARTUP  
tau_feedback . . . . . . . . . . . . . . XDATA    GLOBALS  
tension_valid. . . . . . . . . . . . . . BIT      GLOBALS  COMMAND_PROCESSING  INTERRUPTIONS  MAIN  
timer_value. . . . . . . . . . . . . . . XDATA    GLOBALS  COMMAND_PROCESSING  INTERRUPTIONS  
timer_value0 . . . . . . . . . . . . . . XDATA    GLOBALS  COMMAND_PROCESSING  INTERRUPTIONS  
UART_RS485_ClearRxBuffer . . . . . . . . CODE     UART_RS485  MAIN  
UART_RS485_ClearTxBuffer . . . . . . . . CODE     UART_RS485  MAIN  
UART_RS485_Enable. . . . . . . . . . . . CODE     UART_RS485  
UART_RS485_errorStatus . . . . . . . . . XDATA    UART_RS485  UART_RS485_INT  
UART_RS485_GetByte . . . . . . . . . . . CODE     UART_RS485  
UART_RS485_GetChar . . . . . . . . . . . CODE     UART_RS485  INTERRUPTIONS  
UART_RS485_GetRxBufferSize . . . . . . . CODE     UART_RS485  INTERRUPTIONS  
UART_RS485_GetTxBufferSize . . . . . . . CODE     UART_RS485  
UART_RS485_Init. . . . . . . . . . . . . CODE     UART_RS485  MAIN  
UART_RS485_initVar . . . . . . . . . . . XDATA    UART_RS485  
UART_RS485_ReadControlRegister . . . . . CODE     UART_RS485  
UART_RS485_ReadRxData. . . . . . . . . . CODE     UART_RS485  
UART_RS485_ReadRxStatus. . . . . . . . . CODE     UART_RS485  MAIN  
UART_RS485_ReadTxStatus. . . . . . . . . CODE     UART_RS485  COMMAND_PROCESSING  
UART_RS485_rxBuffer. . . . . . . . . . . XDATA    UART_RS485  UART_RS485_INT  
UART_RS485_rxBufferLoopDetect. . . . . . XDATA    UART_RS485  UART_RS485_INT  
UART_RS485_rxBufferOverflow. . . . . . . XDATA    UART_RS485  UART_RS485_INT  
UART_RS485_rxBufferRead. . . . . . . . . XDATA    UART_RS485  UART_RS485_INT  
UART_RS485_rxBufferWrite . . . . . . . . XDATA    UART_RS485  UART_RS485_INT  
UART_RS485_RXISR . . . . . . . . . . . . CODE     UART_RS485_INT  UART_RS485  
UART_RS485_Start . . . . . . . . . . . . CODE     UART_RS485  MAIN  
LX51 LINKER/LOCATER V4.64.0.0                                                         04/04/2018  09:18:43  PAGE 168


UART_RS485_Stop. . . . . . . . . . . . . CODE     UART_RS485  MAIN  
WATCHDOG_COUNTER_Enable. . . . . . . . . CODE     WATCHDOG_COUNTER  
WATCHDOG_COUNTER_Init. . . . . . . . . . CODE     WATCHDOG_COUNTER  
WATCHDOG_COUNTER_initVar . . . . . . . . XDATA    WATCHDOG_COUNTER  
WATCHDOG_COUNTER_ReadCapture . . . . . . CODE     WATCHDOG_COUNTER  
WATCHDOG_COUNTER_ReadControlRegister . . CODE     WATCHDOG_COUNTER  
WATCHDOG_COUNTER_ReadCounter . . . . . . CODE     WATCHDOG_COUNTER  
WATCHDOG_COUNTER_ReadPeriod. . . . . . . CODE     WATCHDOG_COUNTER  
WATCHDOG_COUNTER_ReadStatusRegister. . . CODE     WATCHDOG_COUNTER  
WATCHDOG_COUNTER_Start . . . . . . . . . CODE     WATCHDOG_COUNTER  MAIN  
WATCHDOG_COUNTER_Stop. . . . . . . . . . CODE     WATCHDOG_COUNTER  
WATCHDOG_ENABLER_Read. . . . . . . . . . CODE     WATCHDOG_ENABLER  
watchdog_flag. . . . . . . . . . . . . . BIT      GLOBALS  INTERRUPTIONS  MAIN  
WATCHDOG_REFRESH_Read. . . . . . . . . . CODE     WATCHDOG_REFRESH  

Program Size: data=102.1 xdata=4915 const=1955 code=52634
LX51 RUN COMPLETE.  0 WARNING(S),  0 ERROR(S)
