LX51 LINKER/LOCATER V4.64.0.0                                                           02/16/2023  11:05:26  PAGE 1


LX51 LINKER/LOCATER V4.64.0.0, INVOKED BY:
C:\PROGRAM FILES (X86)\CYPRESS\PSOC CREATOR\4.4\PSOC CREATOR\IMPORT\KEIL\PK51\9.51\C51\BIN\LX51.EXE .\DP8051_Keil_951\Re
>> lease\command_processing.obj, .\DP8051_Keil_951\Release\globals.obj, .\DP8051_Keil_951\Release\interruptions.obj, .\D
>> P8051_Keil_951\Release\main.obj, .\DP8051_Keil_951\Release\utils.obj, .\DP8051_Keil_951\Release\cyfitter_cfg.obj, .\D
>> P8051_Keil_951\Release\hand_firmware_micro.lib, C:\Program Files (x86)\Cypress\PSoC Creator\4.4\PSoC Creator\psoc\con
>> tent\cycomponentlibrary\CyComponentLibrary.cylib\DP8051\DP8051_Keil_951\Release\CyComponentLibrary.lib TO .\DP8051_Ke
>> il_951\Release\hand_firmware_micro.omf CODE RU RC (10) DW (16) WL (2) PR (.\DP8051_Keil_951\Release/hand_firmware_mic
>> ro.map) IX CL (XDATA (X:0X0000-X:0X1FFF)) CL (CODE (C:0X2600-C:0XFFBF)) CL (CONST (C:0X2600-C:0XFFBF))


CPU MODE:     8051 MODE
MEMORY MODEL: LARGE WITH FLOATING POINT ARITHMETIC


INPUT MODULES INCLUDED:
  .\DP8051_Keil_951\Release\command_processing.obj (COMMAND_PROCESSING)
         COMMENT TYPE 0: C51 V9.51
  .\DP8051_Keil_951\Release\globals.obj (GLOBALS)
         COMMENT TYPE 0: C51 V9.51
  .\DP8051_Keil_951\Release\interruptions.obj (INTERRUPTIONS)
         COMMENT TYPE 0: C51 V9.51
  .\DP8051_Keil_951\Release\main.obj (MAIN)
         COMMENT TYPE 0: C51 V9.51
  .\DP8051_Keil_951\Release\utils.obj (UTILS)
         COMMENT TYPE 0: C51 V9.51
  .\DP8051_Keil_951\Release\cyfitter_cfg.obj (CYFITTER_CFG)
         COMMENT TYPE 0: C51 V9.51
  .\DP8051_Keil_951\Release\hand_firmware_micro.lib (CLOCK_UART)
         COMMENT TYPE 0: C51 V9.51
  .\DP8051_Keil_951\Release\hand_firmware_micro.lib (ISR_RS485_RX)
         COMMENT TYPE 0: C51 V9.51
  .\DP8051_Keil_951\Release\hand_firmware_micro.lib (PACER_TIMER)
         COMMENT TYPE 0: C51 V9.51
  .\DP8051_Keil_951\Release\hand_firmware_micro.lib (UART_RS485)
         COMMENT TYPE 0: C51 V9.51
  .\DP8051_Keil_951\Release\hand_firmware_micro.lib (EEPROM)
         COMMENT TYPE 0: C51 V9.51
  .\DP8051_Keil_951\Release\hand_firmware_micro.lib (ADC)
         COMMENT TYPE 0: C51 V9.51
  .\DP8051_Keil_951\Release\hand_firmware_micro.lib (RS485_CTS)
         COMMENT TYPE 0: C51 V9.51
  .\DP8051_Keil_951\Release\hand_firmware_micro.lib (BOOTLOADABLE)
         COMMENT TYPE 0: C51 V9.51
  .\DP8051_Keil_951\Release\hand_firmware_micro.lib (FTDI_ENABLE_REG)
         COMMENT TYPE 0: C51 V9.51
  .\DP8051_Keil_951\Release\hand_firmware_micro.lib (RESET_FF)
         COMMENT TYPE 0: C51 V9.51
  .\DP8051_Keil_951\Release\hand_firmware_micro.lib (FF_STATUS)
         COMMENT TYPE 0: C51 V9.51
  .\DP8051_Keil_951\Release\hand_firmware_micro.lib (MY_TIMER)
         COMMENT TYPE 0: C51 V9.51
  .\DP8051_Keil_951\Release\hand_firmware_micro.lib (ADC_STATUS)
         COMMENT TYPE 0: C51 V9.51
  .\DP8051_Keil_951\Release\hand_firmware_micro.lib (DMA_DMA)
         COMMENT TYPE 0: C51 V9.51
  .\DP8051_Keil_951\Release\hand_firmware_micro.lib (ADC_SOC)
         COMMENT TYPE 0: C51 V9.51
  .\DP8051_Keil_951\Release\hand_firmware_micro.lib (CYDMAC)
         COMMENT TYPE 0: C51 V9.51
  .\DP8051_Keil_951\Release\hand_firmware_micro.lib (CYFLASH)
         COMMENT TYPE 0: C51 V9.51
  .\DP8051_Keil_951\Release\hand_firmware_micro.lib (CYLIB)
         COMMENT TYPE 0: C51 V9.51
  .\DP8051_Keil_951\Release\hand_firmware_micro.lib (LED_BLINK)
         COMMENT TYPE 0: C51 V9.51
  .\DP8051_Keil_951\Release\hand_firmware_micro.lib (LED_CTRL)
LX51 LINKER/LOCATER V4.64.0.0                                                         02/16/2023  11:05:26  PAGE 2


         COMMENT TYPE 0: C51 V9.51
  .\DP8051_Keil_951\Release\hand_firmware_micro.lib (LED_BLINK_EN)
         COMMENT TYPE 0: C51 V9.51
  .\DP8051_Keil_951\Release\hand_firmware_micro.lib (CYBOOTASMKEIL)
         COMMENT TYPE 0: AX51 V3.07d
  .\DP8051_Keil_951\Release\hand_firmware_micro.lib (CYMEM)
         COMMENT TYPE 0: AX51 V3.07d
  .\DP8051_Keil_951\Release\hand_firmware_micro.lib (?C_STARTUP)
         COMMENT TYPE 0: AX51 V3.07d
  .\DP8051_Keil_951\Release\hand_firmware_micro.lib (UART_RS485_INT)
         COMMENT TYPE 0: C51 V9.51
  .\DP8051_Keil_951\Release\hand_firmware_micro.lib (ADC_INT)
         COMMENT TYPE 0: C51 V9.51
  .\DP8051_Keil_951\Release\hand_firmware_micro.lib (ADC_AMUX)
         COMMENT TYPE 0: C51 V9.51
  .\DP8051_Keil_951\Release\hand_firmware_micro.lib (ADC_EXT_CP_CLK)
         COMMENT TYPE 0: C51 V9.51
  .\DP8051_Keil_951\Release\hand_firmware_micro.lib (ADC_THEACLK)
         COMMENT TYPE 0: C51 V9.51
  .\DP8051_Keil_951\Release\hand_firmware_micro.lib (CYPM)
         COMMENT TYPE 0: C51 V9.51
  .\DP8051_Keil_951\Release\hand_firmware_micro.lib (CYSPC)
         COMMENT TYPE 0: C51 V9.51
  C:\PROGRAM FILES (X86)\CYPRESS\PSOC CREATOR\4.4\PSOC CREATOR\IMPORT\KEIL\PK51\9.51\C51\LIB\C51FPL.LIB (?C?FPADD)
         COMMENT TYPE 1: A51 / ASM51 Assembler
  C:\PROGRAM FILES (X86)\CYPRESS\PSOC CREATOR\4.4\PSOC CREATOR\IMPORT\KEIL\PK51\9.51\C51\LIB\C51FPL.LIB (?C?FPMUL)
         COMMENT TYPE 1: A51 / ASM51 Assembler
  C:\PROGRAM FILES (X86)\CYPRESS\PSOC CREATOR\4.4\PSOC CREATOR\IMPORT\KEIL\PK51\9.51\C51\LIB\C51FPL.LIB (?C?FPDIV)
         COMMENT TYPE 1: A51 / ASM51 Assembler
  C:\PROGRAM FILES (X86)\CYPRESS\PSOC CREATOR\4.4\PSOC CREATOR\IMPORT\KEIL\PK51\9.51\C51\LIB\C51FPL.LIB (?C?FPCMP)
         COMMENT TYPE 1: A51 / ASM51 Assembler
  C:\PROGRAM FILES (X86)\CYPRESS\PSOC CREATOR\4.4\PSOC CREATOR\IMPORT\KEIL\PK51\9.51\C51\LIB\C51FPL.LIB (?C?FCAST)
         COMMENT TYPE 1: A51 / ASM51 Assembler
  C:\PROGRAM FILES (X86)\CYPRESS\PSOC CREATOR\4.4\PSOC CREATOR\IMPORT\KEIL\PK51\9.51\C51\LIB\C51FPL.LIB (?C?CASTF)
         COMMENT TYPE 1: A51 / ASM51 Assembler
  C:\PROGRAM FILES (X86)\CYPRESS\PSOC CREATOR\4.4\PSOC CREATOR\IMPORT\KEIL\PK51\9.51\C51\LIB\C51FPL.LIB (PRINTF)
         COMMENT TYPE 1: A51 / ASM51 Assembler
  C:\PROGRAM FILES (X86)\CYPRESS\PSOC CREATOR\4.4\PSOC CREATOR\IMPORT\KEIL\PK51\9.51\C51\LIB\C51FPL.LIB (?C?FPGETOPN)
         COMMENT TYPE 1: A51 / ASM51 Assembler
  C:\PROGRAM FILES (X86)\CYPRESS\PSOC CREATOR\4.4\PSOC CREATOR\IMPORT\KEIL\PK51\9.51\C51\LIB\C51FPL.LIB (?C?FPROUND)
         COMMENT TYPE 1: A51 / ASM51 Assembler
  C:\PROGRAM FILES (X86)\CYPRESS\PSOC CREATOR\4.4\PSOC CREATOR\IMPORT\KEIL\PK51\9.51\C51\LIB\C51FPL.LIB (?C?FPCONVERT)
         COMMENT TYPE 1: A51 / ASM51 Assembler
  C:\PROGRAM FILES (X86)\CYPRESS\PSOC CREATOR\4.4\PSOC CREATOR\IMPORT\KEIL\PK51\9.51\C51\LIB\C51FPL.LIB (?C?FTNPWR)
         COMMENT TYPE 1: A51 / ASM51 Assembler
  C:\PROGRAM FILES (X86)\CYPRESS\PSOC CREATOR\4.4\PSOC CREATOR\IMPORT\KEIL\PK51\9.51\C51\LIB\C51L.LIB (?C_INIT)
         COMMENT TYPE 1: A51 / ASM51 Assembler
  C:\PROGRAM FILES (X86)\CYPRESS\PSOC CREATOR\4.4\PSOC CREATOR\IMPORT\KEIL\PK51\9.51\C51\LIB\C51L.LIB (?C?CLDPTR)
         COMMENT TYPE 1: A51 / ASM51 Assembler
  C:\PROGRAM FILES (X86)\CYPRESS\PSOC CREATOR\4.4\PSOC CREATOR\IMPORT\KEIL\PK51\9.51\C51\LIB\C51L.LIB (?C?CLDOPTR)
         COMMENT TYPE 1: A51 / ASM51 Assembler
  C:\PROGRAM FILES (X86)\CYPRESS\PSOC CREATOR\4.4\PSOC CREATOR\IMPORT\KEIL\PK51\9.51\C51\LIB\C51L.LIB (?C?CSTPTR)
         COMMENT TYPE 1: A51 / ASM51 Assembler
  C:\PROGRAM FILES (X86)\CYPRESS\PSOC CREATOR\4.4\PSOC CREATOR\IMPORT\KEIL\PK51\9.51\C51\LIB\C51L.LIB (?C?ISTPTR)
         COMMENT TYPE 1: A51 / ASM51 Assembler
  C:\PROGRAM FILES (X86)\CYPRESS\PSOC CREATOR\4.4\PSOC CREATOR\IMPORT\KEIL\PK51\9.51\C51\LIB\C51L.LIB (?C?LMUL)
         COMMENT TYPE 1: A51 / ASM51 Assembler
  C:\PROGRAM FILES (X86)\CYPRESS\PSOC CREATOR\4.4\PSOC CREATOR\IMPORT\KEIL\PK51\9.51\C51\LIB\C51L.LIB (?C?ULDIV)
         COMMENT TYPE 1: A51 / ASM51 Assembler
  C:\PROGRAM FILES (X86)\CYPRESS\PSOC CREATOR\4.4\PSOC CREATOR\IMPORT\KEIL\PK51\9.51\C51\LIB\C51L.LIB (?C?SLDIV)
         COMMENT TYPE 1: A51 / ASM51 Assembler
  C:\PROGRAM FILES (X86)\CYPRESS\PSOC CREATOR\4.4\PSOC CREATOR\IMPORT\KEIL\PK51\9.51\C51\LIB\C51L.LIB (?C?LNOT)
         COMMENT TYPE 1: A51 / ASM51 Assembler
  C:\PROGRAM FILES (X86)\CYPRESS\PSOC CREATOR\4.4\PSOC CREATOR\IMPORT\KEIL\PK51\9.51\C51\LIB\C51L.LIB (?C?LNEG)
         COMMENT TYPE 1: A51 / ASM51 Assembler
LX51 LINKER/LOCATER V4.64.0.0                                                         02/16/2023  11:05:26  PAGE 3


  C:\PROGRAM FILES (X86)\CYPRESS\PSOC CREATOR\4.4\PSOC CREATOR\IMPORT\KEIL\PK51\9.51\C51\LIB\C51L.LIB (?C?SLCMP)
         COMMENT TYPE 1: A51 / ASM51 Assembler
  C:\PROGRAM FILES (X86)\CYPRESS\PSOC CREATOR\4.4\PSOC CREATOR\IMPORT\KEIL\PK51\9.51\C51\LIB\C51L.LIB (?C?ULCMP)
         COMMENT TYPE 1: A51 / ASM51 Assembler
  C:\PROGRAM FILES (X86)\CYPRESS\PSOC CREATOR\4.4\PSOC CREATOR\IMPORT\KEIL\PK51\9.51\C51\LIB\C51L.LIB (?C?ULSHR)
         COMMENT TYPE 1: A51 / ASM51 Assembler
  C:\PROGRAM FILES (X86)\CYPRESS\PSOC CREATOR\4.4\PSOC CREATOR\IMPORT\KEIL\PK51\9.51\C51\LIB\C51L.LIB (?C?SLSHR)
         COMMENT TYPE 1: A51 / ASM51 Assembler
  C:\PROGRAM FILES (X86)\CYPRESS\PSOC CREATOR\4.4\PSOC CREATOR\IMPORT\KEIL\PK51\9.51\C51\LIB\C51L.LIB (?C?LSHL)
         COMMENT TYPE 1: A51 / ASM51 Assembler
  C:\PROGRAM FILES (X86)\CYPRESS\PSOC CREATOR\4.4\PSOC CREATOR\IMPORT\KEIL\PK51\9.51\C51\LIB\C51L.LIB (?C?LLDPTR)
         COMMENT TYPE 1: A51 / ASM51 Assembler
  C:\PROGRAM FILES (X86)\CYPRESS\PSOC CREATOR\4.4\PSOC CREATOR\IMPORT\KEIL\PK51\9.51\C51\LIB\C51L.LIB (?C?LSTPTR)
         COMMENT TYPE 1: A51 / ASM51 Assembler
  C:\PROGRAM FILES (X86)\CYPRESS\PSOC CREATOR\4.4\PSOC CREATOR\IMPORT\KEIL\PK51\9.51\C51\LIB\C51L.LIB (?C?LSTXDATA)
         COMMENT TYPE 1: A51 / ASM51 Assembler
  C:\PROGRAM FILES (X86)\CYPRESS\PSOC CREATOR\4.4\PSOC CREATOR\IMPORT\KEIL\PK51\9.51\C51\LIB\C51L.LIB (?C?OFFXADD)
         COMMENT TYPE 1: A51 / ASM51 Assembler
  C:\PROGRAM FILES (X86)\CYPRESS\PSOC CREATOR\4.4\PSOC CREATOR\IMPORT\KEIL\PK51\9.51\C51\LIB\C51L.LIB (?C?PLDIXDATA)
         COMMENT TYPE 1: A51 / ASM51 Assembler
  C:\PROGRAM FILES (X86)\CYPRESS\PSOC CREATOR\4.4\PSOC CREATOR\IMPORT\KEIL\PK51\9.51\C51\LIB\C51L.LIB (?C?PSTXDATA)
         COMMENT TYPE 1: A51 / ASM51 Assembler
  C:\PROGRAM FILES (X86)\CYPRESS\PSOC CREATOR\4.4\PSOC CREATOR\IMPORT\KEIL\PK51\9.51\C51\LIB\C51L.LIB (?C?CCASE)
         COMMENT TYPE 1: A51 / ASM51 Assembler
  C:\PROGRAM FILES (X86)\CYPRESS\PSOC CREATOR\4.4\PSOC CREATOR\IMPORT\KEIL\PK51\9.51\C51\LIB\C51L.LIB (?C_XBP)
         COMMENT TYPE 1: A51 / ASM51 Assembler
  C:\PROGRAM FILES (X86)\CYPRESS\PSOC CREATOR\4.4\PSOC CREATOR\IMPORT\KEIL\PK51\9.51\C51\LIB\C51L.LIB (?C?ADDXBP)
         COMMENT TYPE 1: A51 / ASM51 Assembler
  C:\PROGRAM FILES (X86)\CYPRESS\PSOC CREATOR\4.4\PSOC CREATOR\IMPORT\KEIL\PK51\9.51\C51\LIB\C51L.LIB (?C?LIMUL)
         COMMENT TYPE 1: A51 / ASM51 Assembler
  C:\PROGRAM FILES (X86)\CYPRESS\PSOC CREATOR\4.4\PSOC CREATOR\IMPORT\KEIL\PK51\9.51\C51\LIB\C51L.LIB (PUTCHAR)
         COMMENT TYPE 1: A51 / ASM51 Assembler
  C:\PROGRAM FILES (X86)\CYPRESS\PSOC CREATOR\4.4\PSOC CREATOR\IMPORT\KEIL\PK51\9.51\C51\LIB\C51L.LIB (STRCAT)
         COMMENT TYPE 1: C51 Compiler
  C:\PROGRAM FILES (X86)\CYPRESS\PSOC CREATOR\4.4\PSOC CREATOR\IMPORT\KEIL\PK51\9.51\C51\LIB\C51L.LIB (STRLEN)
         COMMENT TYPE 1: A51 / ASM51 Assembler
  C:\PROGRAM FILES (X86)\CYPRESS\PSOC CREATOR\4.4\PSOC CREATOR\IMPORT\KEIL\PK51\9.51\C51\LIB\C51L.LIB (?C?COPYAMD)
         COMMENT TYPE 1: A51 / ASM51 Assembler
  C:\PROGRAM FILES (X86)\CYPRESS\PSOC CREATOR\4.4\PSOC CREATOR\IMPORT\KEIL\PK51\9.51\C51\LIB\C51L.LIB (?C?STRCPYAMD)
         COMMENT TYPE 1: A51 / ASM51 Assembler
  C:\PROGRAM FILES (X86)\CYPRESS\PSOC CREATOR\4.4\PSOC CREATOR\IMPORT\KEIL\PK51\9.51\C51\LIB\C51L.LIB (?C?IILDX)
         COMMENT TYPE 1: A51 / ASM51 Assembler
  C:\PROGRAM FILES (X86)\CYPRESS\PSOC CREATOR\4.4\PSOC CREATOR\IMPORT\KEIL\PK51\9.51\C51\LIB\C51L.LIB (?C?ILDIX)
         COMMENT TYPE 1: A51 / ASM51 Assembler
  C:\PROGRAM FILES (X86)\CYPRESS\PSOC CREATOR\4.4\PSOC CREATOR\IMPORT\KEIL\PK51\9.51\C51\LIB\C51L.LIB (?C?LLDIDATA)
         COMMENT TYPE 1: A51 / ASM51 Assembler
  C:\PROGRAM FILES (X86)\CYPRESS\PSOC CREATOR\4.4\PSOC CREATOR\IMPORT\KEIL\PK51\9.51\C51\LIB\C51L.LIB (?C?LLDXDATA)
         COMMENT TYPE 1: A51 / ASM51 Assembler
  C:\PROGRAM FILES (X86)\CYPRESS\PSOC CREATOR\4.4\PSOC CREATOR\IMPORT\KEIL\PK51\9.51\C51\LIB\C51L.LIB (?C?LLDPDATA)
         COMMENT TYPE 1: A51 / ASM51 Assembler
  C:\PROGRAM FILES (X86)\CYPRESS\PSOC CREATOR\4.4\PSOC CREATOR\IMPORT\KEIL\PK51\9.51\C51\LIB\C51L.LIB (?C?LLDCODE)
         COMMENT TYPE 1: A51 / ASM51 Assembler
  C:\PROGRAM FILES (X86)\CYPRESS\PSOC CREATOR\4.4\PSOC CREATOR\IMPORT\KEIL\PK51\9.51\C51\LIB\C51L.LIB (?C?LSTIDATA)
         COMMENT TYPE 1: A51 / ASM51 Assembler
  C:\PROGRAM FILES (X86)\CYPRESS\PSOC CREATOR\4.4\PSOC CREATOR\IMPORT\KEIL\PK51\9.51\C51\LIB\C51L.LIB (?C?LSTPDATA)
         COMMENT TYPE 1: A51 / ASM51 Assembler


ACTIVE MEMORY CLASSES OF MODULE:  .\DP8051_Keil_951\Release\hand_firmware_micro.omf (COMMAND_PROCESSING)

BASE        START       END         USED      MEMORY CLASS
==========================================================
X:000000H   X:000000H   X:001FFFH   00107FH   XDATA
C:000000H   C:002600H   C:00FFBFH   00A09DH   CODE
C:000000H   C:002600H   C:00FFBFH   00027BH   CONST
LX51 LINKER/LOCATER V4.64.0.0                                                         02/16/2023  11:05:26  PAGE 4


I:000000H   I:000000H   I:00007FH   000049H   DATA
I:000020H.0 I:000020H.0 I:00002FH.7 000001H.6 BIT
I:000000H   I:000000H   I:0000FFH   000001H   IDATA


MEMORY MAP OF MODULE:  .\DP8051_Keil_951\Release\hand_firmware_micro.omf (COMMAND_PROCESSING)


START     STOP      LENGTH    ALIGN  RELOC    MEMORY CLASS   SEGMENT NAME
=========================================================================

* * * * * * * * * * *   D A T A   M E M O R Y   * * * * * * * * * * * * *
000000H   000007H   000008H   ---    AT..     DATA           "REG BANK 0"
000008H   00001DH   000016H   BYTE   UNIT     DATA           ?DT?INTERRUPTIONS
00001EH   00001FH   000002H   BYTE   UNIT     DATA           ?DT?COMMAND_PROCESSING
000020H.0 000021H.1 000001H.2 BIT    UNIT     BIT            _BIT_GROUP_
000021H.2 000021H.5 000000H.4 BIT    UNIT     BIT            ?BI?GLOBALS
000021H.6 000021H   000000H.2 ---    ---      **GAP**
000022H   000048H   000027H   BYTE   UNIT     DATA           _DATA_GROUP_
000049H   00004AH   000002H   BYTE   UNIT     DATA           ?C?LIB_DATA
00004BH   00004BH   000001H   BYTE   UNIT     IDATA          ?STACK

* * * * * * * * * * *   C O D E   M E M O R Y   * * * * * * * * * * * * *
002600H   002619H   00001AH   ---    OFFS..   CODE           ?CO?KEILSTART?3
00261AH   003F26H   00190DH   BYTE   UNIT     CODE           ?CO?COMMAND_PROCESSING
003F27H   005717H   0017F1H   BYTE   UNIT     CODE           ?PR?_GET_PARAM_LIST?COMMAND_PROCESSING
005718H   0065EDH   000ED6H   BYTE   UNIT     CODE           ?PR?_INFOPREPARE?COMMAND_PROCESSING
0065EEH   00709DH   000AB0H   BYTE   UNIT     CODE           ?C?LIB_CODE
00709EH   007A7BH   0009DEH   BYTE   UNIT     CODE           ?PR?ANALOG_READ_END?INTERRUPTIONS
007A7CH   00822FH   0007B4H   BYTE   UNIT     CODE           ?PR?MOTOR_CONTROL?INTERRUPTIONS
008230H   0086C0H   000491H   BYTE   UNIT     CODE           ?PR?CHECK_REST_POSITION?UTILS
0086C1H   008B43H   000483H   BYTE   UNIT     CODE           ?PR?PRINTF?PRINTF
008B44H   008E4BH   000308H   BYTE   UNIT     CODE           ?PR?CMD_STORE_PARAMS?COMMAND_PROCESSING
008E4CH   00910BH   0002C0H   BYTE   UNIT     CODE           ?PR?COMMREADIMUSFROMSH?COMMAND_PROCESSING
00910CH   0092FAH   0001EFH   BYTE   UNIT     CODE           ?PR?DRIVE_FORCE_PROPRIO_FB?COMMAND_PROCESSING
0092FBH   0094BDH   0001C3H   BYTE   UNIT     CODE           ?PR?MEMINIT?COMMAND_PROCESSING
0094BEH   00967FH   0001C2H   BYTE   UNIT     CODE           ?PR?MAIN?MAIN
009680H   009820H   0001A1H   BYTE   UNIT     CODE           ?PR?COMMPROCESS?COMMAND_PROCESSING
009821H   0099C1H   0001A1H   BYTE   UNIT     CODE           ?PR?_ADC_GAINCOMPENSATION?ADC
0099C2H   009B4FH   00018EH   BYTE   UNIT     CODE           ?PR?FUNCTION_SCHEDULER?INTERRUPTIONS
009B50H   009CAFH   000160H   BYTE   UNIT     CODE           ?PR?CLOCKSETUP?CYFITTER_CFG
009CB0H   009DF5H   000146H   BYTE   UNIT     CODE           ?PR?CYFITTER_CFG?CYFITTER_CFG
009DF6H   009F37H   000142H   BYTE   UNIT     CODE           ?PR?CMD_SET_INPUTS?COMMAND_PROCESSING
009F38H   00A072H   00013BH   BYTE   UNIT     CODE           ?PR?INTERRUPT_MANAGER?INTERRUPTIONS
00A073H   00A1A3H   000131H   BYTE   UNIT     CODE           ?PR?_ADC_EXT_CP_CLK_SETDIVIDERREGISTER?ADC_EXT_CP_CLK
00A1A4H   00A2D3H   000130H   BYTE   UNIT     CODE           ?PR?CALIBRATION?UTILS
00A2D4H   00A403H   000130H   BYTE   UNIT     CODE           ?PR?_CLOCK_UART_SETDIVIDERREGISTER?CLOCK_UART
00A404H   00A532H   00012FH   BYTE   UNIT     CODE           ?PR?_ADC_THEACLK_SETDIVIDERREGISTER?ADC_THEACLK
00A533H   00A652H   000120H   BYTE   UNIT     CODE           ?C_C51STARTUP
00A653H   00A75AH   000108H   BYTE   UNIT     CODE           ?PR?DRIVE_FORCE_FB?COMMAND_PROCESSING
00A75BH   00A83BH   0000E1H   BYTE   UNIT     CODE           ?C_INITSEG
00A83CH   00A91AH   0000DFH   BYTE   UNIT     CODE           ?PR?_EEPROM_WRITE?EEPROM
00A91BH   00A9F5H   0000DBH   BYTE   UNIT     CODE           ?PR?CFG_DMA_INIT?CYFITTER_CFG
00A9F6H   00AACFH   0000DAH   BYTE   UNIT     CODE           ?PR?COMMREADRESCURRFROMSH?COMMAND_PROCESSING
00AAD0H   00AB9AH   0000CBH   BYTE   UNIT     CODE           ?PR?COMMREADMEASFROMSH?COMMAND_PROCESSING
00AB9BH   00AC4FH   0000B5H   BYTE   UNIT     CODE           ?PR?_FILTER_CH1?UTILS
00AC50H   00AD04H   0000B5H   BYTE   UNIT     CODE           ?PR?_FILTER_CH2?UTILS
00AD05H   00ADB8H   0000B4H   BYTE   UNIT     CODE           ?PR?CMD_SET_EXT_IMU_READINGS?COMMAND_PROCESSING
00ADB9H   00AE6AH   0000B2H   BYTE   UNIT     CODE           ?PR?DRIVE_PROPRIO_FB?COMMAND_PROCESSING
00AE6BH   00AF1BH   0000B1H   BYTE   UNIT     CODE           ?PR?ADC_INIT?ADC
00AF1CH   00AFCCH   0000B1H   BYTE   UNIT     CODE           ?PR?UART_RS485_RXISR?UART_RS485_INT
00AFCDH   00B07AH   0000AEH   BYTE   UNIT     CODE           ?PR?_MEMSTORE?COMMAND_PROCESSING
00B07BH   00B128H   0000AEH   BYTE   UNIT     CODE           ?PR?_ADC_INITCONFIG?ADC
00B129H   00B1D2H   0000AAH   BYTE   UNIT     CODE           ?PR?DRIVE_SH?COMMAND_PROCESSING
00B1D3H   00B25FH   00008DH   BYTE   UNIT     CODE           ?PR?_COMMWRITE_OLD_ID?COMMAND_PROCESSING
LX51 LINKER/LOCATER V4.64.0.0                                                         02/16/2023  11:05:26  PAGE 5


00B260H   00B2ECH   00008DH   BYTE   UNIT     CODE           ?PR?_COMMWRITE?COMMAND_PROCESSING
00B2EDH   00B374H   000088H   BYTE   UNIT     CODE           ?PR?ADC_ENABLE?ADC
00B375H   00B3FCH   000088H   BYTE   UNIT     CODE           ?PR?_?CYDELAY?CYLIB
00B3FDH   00B483H   000087H   BYTE   UNIT     CODE           ?PR?_CYDMATDSETCONFIGURATION?CYDMAC
00B484H   00B506H   000083H   BYTE   UNIT     CODE           ?PR?SETZEROS?COMMAND_PROCESSING
00B507H   00B589H   000083H   BYTE   UNIT     CODE           ?PR?_COMMWRITEID?COMMAND_PROCESSING
00B58AH   00B606H   00007DH   BYTE   UNIT     CODE           ?PR?_FILTER_VOLTAGE?UTILS
00B607H   00B67FH   000079H   BYTE   UNIT     CODE           ?PR?_CYDMACHSETCONFIGURATION?CYDMAC
00B680H   00B6F7H   000078H   BYTE   UNIT     CODE           ?PR?_CYDMACHSETEXTENDEDADDRESS?CYDMAC
00B6F8H   00B76FH   000078H   BYTE   UNIT     CODE           ?PR?_CYDMATDSETADDRESS?CYDMAC
00B770H   00B7E2H   000073H   BYTE   UNIT     CODE           ?PR?_CYSPCLOADROW?CYSPC
00B7E3H   00B84EH   00006CH   BYTE   UNIT     CODE           ?PR?CMD_GET_MEASUREMENTS?COMMAND_PROCESSING
00B84FH   00B8B9H   00006BH   BYTE   UNIT     CODE           ?PR?_STRCAT?STRCAT
00B8BAH   00B91AH   000061H   BYTE   UNIT     CODE           ?PR?CMD_GET_INPUTS?COMMAND_PROCESSING
00B91BH   00B97AH   000060H   BYTE   UNIT     CODE           ?PR?_CYSPCREADDATA?CYSPC
00B97BH   00B9D5H   00005BH   BYTE   UNIT     CODE           ?PR?UART_RS485_GETCHAR?UART_RS485
00B9D6H   00BA2DH   000058H   BYTE   UNIT     CODE           ?PR?DEACTIVATE_SLAVES?COMMAND_PROCESSING
00BA2EH   00BA83H   000056H   BYTE   UNIT     CODE           ?PR?CYSETTEMPINT?CYFLASH
00BA84H   00BAD7H   000054H   BYTE   UNIT     CODE           ?PR?_CYINTSETVECTOR?CYLIB
00BAD8H   00BB2BH   000054H   BYTE   UNIT     CODE           ?PR?_CYSPCWRITEROW?CYSPC
00BB2CH   00BB7BH   000050H   BYTE   UNIT     CODE           ?PR?CYFLASHGETSPCALGORITHM?CYFLASH
00BB7CH   00BBCAH   00004FH   BYTE   UNIT     CODE           ?PR?UART_RS485_GETRXBUFFERSIZE?UART_RS485
00BBCBH   00BC17H   00004DH   BYTE   UNIT     CODE           ?PR?MEMRECALL?COMMAND_PROCESSING
00BC18H   00BC62H   00004BH   BYTE   UNIT     CODE           ?PR?_CYDMACHENABLE?CYDMAC
00BC63H   00BCACH   00004AH   BYTE   UNIT     CODE           ?PR?_DMA_DMAINITIALIZE?DMA_DMA
00BCADH   00BCF5H   000049H   BYTE   UNIT     CODE           ?PR?CMD_GET_EMG?COMMAND_PROCESSING
00BCF6H   00BD3DH   000048H   BYTE   UNIT     CODE           ?PR?MEMRESTORE?COMMAND_PROCESSING
00BD3EH   00BD81H   000044H   BYTE   UNIT     CODE           ?C?LDIV
00BD82H   00BDC2H   000041H   BYTE   UNIT     CODE           ?PR?CMD_GET_JOYSTICK?COMMAND_PROCESSING
00BDC3H   00BE02H   000040H   BYTE   UNIT     CODE           ?PR?_CYDMACHPRIORITY?CYDMAC
00BE03H   00BE40H   00003EH   BYTE   UNIT     CODE           ?PR?CYDMATDALLOCATE?CYDMAC
00BE41H   00BE7DH   00003DH   BYTE   UNIT     CODE           ?PR?_ADC_SETDSMREF0REG?ADC
00BE7EH   00BEB9H   00003CH   BYTE   UNIT     CODE           ?PR?PACER_TIMER_INIT?PACER_TIMER
00BEBAH   00BEF4H   00003BH   BYTE   UNIT     CODE           ?PR?_INFOGET?COMMAND_PROCESSING
00BEF5H   00BF2FH   00003BH   BYTE   UNIT     CODE           ?PR?ANALOGSETDEFAULT?CYFITTER_CFG
00BF30H   00BF65H   000036H   BYTE   UNIT     CODE           ?PR?CYDMACCONFIGURE?CYDMAC
00BF66H   00BF99H   000034H   BYTE   UNIT     CODE           ?PR?_UART_RS485_PUTSTRING?UART_RS485
00BF9AH   00BFCDH   000034H   BYTE   UNIT     CODE           ?PR?_CYCONFIGCPY?CYMEM
00BFCEH   00BFFFH   000032H   BYTE   UNIT     CODE           ?PR?_LCRCHECKSUM?COMMAND_PROCESSING
00C000H   00C03AH   00003BH   PAGE   UNIT     CODE           ?PR?CYDELAYCYCLES?CYBOOTASMKEIL
00C03BH   00C06DH   000033H   BYTE   UNIT     CODE           ?PR?UART_RS485_INIT?UART_RS485
00C06EH   00C09EH   000031H   BYTE   UNIT     CODE           ?PR?_ADC_AMUX_UNSET?CYFITTER_CFG
00C09FH   00C0CFH   000031H   BYTE   UNIT     CODE           ?PR?CYEEPROM_START?CYFLASH
00C0D0H   00C0FFH   000030H   BYTE   UNIT     CODE           ?PR?_ADC_AMUX_SET?CYFITTER_CFG
00C100H   00C12FH   000030H   BYTE   UNIT     CODE           ?PR?CYINTINITVECTORS?CYLIB
00C130H   00C15EH   00002FH   BYTE   UNIT     CODE           ?PR?UART_RS485_CLEARRXBUFFER?UART_RS485
00C15FH   00C18CH   00002EH   BYTE   UNIT     CODE           ?PR?_CYSPCGETTEMP?CYSPC
00C18DH   00C18FH   000003H   BYTE   UNIT     CODE           ?PR?ISR_RS485_RX_EXINTERRUPT?INTERRUPTIONS
00C190H   00C1BCH   00002DH   DWORD  UNIT     CODE           ?PR?CYDELAYUS?CYBOOTASMKEIL
00C1BDH   00C1E8H   00002CH   BYTE   UNIT     CODE           ?PR?MY_TIMER_INIT?MY_TIMER
00C1E9H   00C211H   000029H   BYTE   UNIT     CODE           ?PR?CMD_ACTIVATE?COMMAND_PROCESSING
00C212H   00C238H   000027H   BYTE   UNIT     CODE           ?PR?PUTCHAR?PUTCHAR
00C239H   00C25AH   000022H   BYTE   UNIT     CODE           ?PR?UART_RS485_ENABLE?UART_RS485
00C25BH   00C27CH   000022H   BYTE   UNIT     CODE           ?PR?UART_RS485_STOP?UART_RS485
00C27DH   00C29DH   000021H   BYTE   UNIT     CODE           ?PR?LED_BLINK_INIT?LED_BLINK
00C29EH   00C2BEH   000021H   BYTE   UNIT     CODE           ?PR?ADC_AMUX_START?ADC_AMUX
00C2BFH   00C2DEH   000020H   BYTE   UNIT     CODE           ?PR?CMD_SET_BAUDRATE?COMMAND_PROCESSING
00C2DFH   00C2FDH   00001FH   BYTE   UNIT     CODE           ?PR?_ISR_RS485_RX_STARTEX?ISR_RS485_RX
00C2FEH   00C31CH   00001FH   BYTE   UNIT     CODE           ?PR?CYSPCLOCK?CYSPC
00C31DH   00C33AH   00001EH   BYTE   UNIT     CODE           ?PR?_CYDMACHSETINITIALTD?CYDMAC
00C33BH   00C355H   00001BH   BYTE   UNIT     CODE           ?PR?CYSPCGETALGORITHM?CYSPC
00C356H   00C36EH   000019H   BYTE   UNIT     CODE           ?PR?ADC_START?ADC
00C36FH   00C387H   000019H   BYTE   UNIT     CODE           ?PR?_CYINTSETPRIORITY?CYLIB
00C388H   00C3A0H   000019H   BYTE   UNIT     CODE           ?PR?_ADC_AMUX_SELECT?ADC_AMUX
00C3A1H   00C3B8H   000018H   BYTE   UNIT     CODE           ?PR?CYSETTEMP?CYFLASH
LX51 LINKER/LOCATER V4.64.0.0                                                         02/16/2023  11:05:26  PAGE 6


00C3B9H   00C3D0H   000018H   BYTE   UNIT     CODE           ?PR?CYEXITCRITICALSECTION?CYBOOTASMKEIL
00C3D1H   00C3E6H   000016H   BYTE   UNIT     CODE           ?PR?PACER_TIMER_ENABLE?PACER_TIMER
00C3E7H   00C3FBH   000015H   BYTE   UNIT     CODE           ?PR?_SENDACKNOWLEDGMENT?COMMAND_PROCESSING
00C3FCH   00C410H   000015H   BYTE   UNIT     CODE           ?PR?CYENTERCRITICALSECTION?CYBOOTASMKEIL
00C411H   00C425H   000015H   BYTE   UNIT     CODE           ?PR?CYSPCSTART?CYSPC
00C426H   00C43AH   000015H   BYTE   UNIT     CODE           ?PR?_STRLEN?STRLEN
00C43BH   00C44EH   000014H   BYTE   UNIT     CODE           ?PR?CMD_PING?COMMAND_PROCESSING
00C44FH   00C462H   000014H   BYTE   UNIT     CODE           ?PR?UART_RS485_READRXSTATUS?UART_RS485
00C463H   00C475H   000013H   BYTE   UNIT     CODE           ?PR?PACER_TIMER_START?PACER_TIMER
00C476H   00C488H   000013H   BYTE   UNIT     CODE           ?PR?UART_RS485_START?UART_RS485
00C489H   00C49BH   000013H   BYTE   UNIT     CODE           ?PR?MY_TIMER_START?MY_TIMER
00C49CH   00C4AEH   000013H   BYTE   UNIT     CODE           ?PR?LED_BLINK_START?LED_BLINK
00C4AFH   00C4C1H   000013H   BYTE   UNIT     CODE           ?PR?CYREAD24?CYMEM
00C4C2H   00C4D3H   000012H   BYTE   UNIT     CODE           ?PR?UART_RS485_CLEARTXBUFFER?UART_RS485
00C4D4H   00C4E5H   000012H   BYTE   UNIT     CODE           ?PR?CYWRITE24?CYMEM
00C4E6H   00C4F4H   00000FH   BYTE   UNIT     CODE           ?PR?MY_TIMER_READCOUNTER?MY_TIMER
00C4F5H   00C503H   00000FH   BYTE   UNIT     CODE           ?PR?CYREAD16?CYMEM
00C504H   00C512H   00000FH   BYTE   UNIT     CODE           ?PR?CYWRITE16?CYMEM
00C513H   00C520H   00000EH   BYTE   UNIT     CODE           ?PR?_ISR_RS485_RX_SETVECTOR?ISR_RS485_RX
00C521H   00C52EH   00000EH   BYTE   UNIT     CODE           ?PR?_PACER_TIMER_WRITEPERIOD?PACER_TIMER
00C52FH   00C53CH   00000EH   BYTE   UNIT     CODE           ?PR?_PACER_TIMER_WRITECOUNTER?PACER_TIMER
00C53DH   00C549H   00000DH   BYTE   UNIT     CODE           ?PR?_UART_RS485_PUTCHAR?UART_RS485
00C54AH   00C556H   00000DH   BYTE   UNIT     CODE           ?PR?MY_TIMER_CLEARFIFO?MY_TIMER
00C557H   00C563H   00000DH   BYTE   UNIT     CODE           ?PR?_ADC_EXT_CP_CLK_SETMODEREGISTER?ADC_EXT_CP_CLK
00C564H   00C570H   00000DH   BYTE   UNIT     CODE           ?PR?_ADC_THEACLK_SETMODEREGISTER?ADC_THEACLK
00C571H   00C57CH   00000CH   BYTE   UNIT     CODE           ?PR?CYREAD8?CYMEM
00C57DH   00C588H   00000CH   BYTE   UNIT     CODE           ?PR?CYWRITE8?CYMEM
00C589H   00C594H   00000CH   BYTE   UNIT     CODE           ?PR?CYSPCUNLOCK?CYSPC
00C595H   00C59EH   00000AH   BYTE   UNIT     CODE           ?PR?DRIVE_VIBROTACTILE_FB?COMMAND_PROCESSING
00C59FH   00C5A8H   00000AH   BYTE   UNIT     CODE           ?PR?CLOCK_UART_GETDIVIDERREGISTER?CLOCK_UART
00C5A9H   00C5B2H   00000AH   BYTE   UNIT     CODE           ?PR?_ISR_RS485_RX_SETPRIORITY?ISR_RS485_RX
00C5B3H   00C5BCH   00000AH   BYTE   UNIT     CODE           ?PR?BOOTLOADABLE_LOAD?BOOTLOADABLE
00C5BDH   00C5C6H   00000AH   BYTE   UNIT     CODE           ?PR?_MY_TIMER_WRITEPERIOD?MY_TIMER
00C5C7H   00C5D0H   00000AH   BYTE   UNIT     CODE           ?PR?MY_TIMER_READCAPTURE?MY_TIMER
00C5D1H   00C5DAH   00000AH   BYTE   UNIT     CODE           ?PR?_MY_TIMER_WRITECOUNTER?MY_TIMER
00C5DBH   00C5E4H   00000AH   BYTE   UNIT     CODE           ?PR?ADC_EXT_CP_CLK_GETDIVIDERREGISTER?ADC_EXT_CP_CLK
00C5E5H   00C5EEH   00000AH   BYTE   UNIT     CODE           ?PR?ADC_THEACLK_GETDIVIDERREGISTER?ADC_THEACLK
00C5EFH   00C5F6H   000008H   BYTE   UNIT     CODE           ?PR?CLOCK_UART_GETSOURCEREGISTER?CLOCK_UART
00C5F7H   00C5FEH   000008H   BYTE   UNIT     CODE           ?PR?MY_TIMER_ENABLE?MY_TIMER
00C5FFH   00C606H   000008H   BYTE   UNIT     CODE           ?PR?CYSOFTWARERESET?CYLIB
00C607H   00C60EH   000008H   BYTE   UNIT     CODE           ?PR?LED_BLINK_ENABLE?LED_BLINK
00C60FH   00C616H   000008H   BYTE   UNIT     CODE           ?PR?ADC_EXT_CP_CLK_GETSOURCEREGISTER?ADC_EXT_CP_CLK
00C617H   00C61EH   000008H   BYTE   UNIT     CODE           ?PR?ADC_THEACLK_GETSOURCEREGISTER?ADC_THEACLK
00C61FH   00C625H   000007H   BYTE   UNIT     CODE           ?PR?ISR_RS485_RX_ENABLE?ISR_RS485_RX
00C626H   00C62CH   000007H   BYTE   UNIT     CODE           ?PR?ISR_RS485_RX_DISABLE?ISR_RS485_RX
00C62DH   00C633H   000007H   BYTE   UNIT     CODE           ?PR?EEPROM_ENABLE?EEPROM
00C634H   00C639H   000006H   BYTE   UNIT     CODE           ?PR?_PACER_TIMER_SETINTERRUPTMODE?PACER_TIMER
00C63AH   00C63FH   000006H   BYTE   UNIT     CODE           ?PR?UART_RS485_READTXSTATUS?UART_RS485
00C640H   00C645H   000006H   BYTE   UNIT     CODE           ?PR?_RS485_CTS_WRITE?RS485_CTS
00C646H   00C64BH   000006H   BYTE   UNIT     CODE           ?PR?_FTDI_ENABLE_REG_WRITE?FTDI_ENABLE_REG
00C64CH   00C651H   000006H   BYTE   UNIT     CODE           ?PR?_RESET_FF_WRITE?RESET_FF
00C652H   00C657H   000006H   BYTE   UNIT     CODE           ?PR?FF_STATUS_READ?FF_STATUS
00C658H   00C65DH   000006H   BYTE   UNIT     CODE           ?PR?_MY_TIMER_SETINTERRUPTMODE?MY_TIMER
00C65EH   00C663H   000006H   BYTE   UNIT     CODE           ?PR?MY_TIMER_READSTATUSREGISTER?MY_TIMER
00C664H   00C669H   000006H   BYTE   UNIT     CODE           ?PR?ADC_STATUS_READ?ADC_STATUS
00C66AH   00C66FH   000006H   BYTE   UNIT     CODE           ?PR?_ADC_SOC_WRITE?ADC_SOC
00C670H   00C675H   000006H   BYTE   UNIT     CODE           ?PR?_LED_BLINK_WRITECOUNTER?LED_BLINK
00C676H   00C67BH   000006H   BYTE   UNIT     CODE           ?PR?_LED_BLINK_WRITEPERIOD?LED_BLINK
00C67CH   00C681H   000006H   BYTE   UNIT     CODE           ?PR?_LED_BLINK_WRITECOMPARE?LED_BLINK
00C682H   00C687H   000006H   BYTE   UNIT     CODE           ?PR?_LED_CTRL_WRITE?LED_CTRL
00C688H   00C68DH   000006H   BYTE   UNIT     CODE           ?PR?_LED_BLINK_EN_WRITE?LED_BLINK_EN
00C68EH   00C691H   000004H   BYTE   UNIT     CODE           ?PR?EEPROM_START?EEPROM
00C692H   00C694H   000003H   BYTE   UNIT     CODE           ?PR?_CYCLOCKSTARTUPERROR?CYFITTER_CFG
00C695H   00C697H   000003H   BYTE   UNIT     CODE           ?PR?INTDEFAULTHANDLER?CYLIB
00C698H   00C698H   000001H   BYTE   UNIT     CODE           ?PR?ISR_RS485_RX_INTERRUPT?ISR_RS485_RX
LX51 LINKER/LOCATER V4.64.0.0                                                         02/16/2023  11:05:26  PAGE 7


00C699H   00C699H   000001H   BYTE   UNIT     CODE           ?PR?ADC_ISR1?ADC_INT
00C69AH   00C69AH   000001H   BYTE   UNIT     CODE           ?PR?ADC_ISR2?ADC_INT
00C69BH   00C69BH   000001H   BYTE   UNIT     CODE           ?PR?ADC_ISR3?ADC_INT
00C69CH   00C69CH   000001H   BYTE   UNIT     CODE           ?PR?ADC_ISR4?ADC_INT
00C69DH   00C917H   00027BH   BYTE   UNIT     CONST          ?CO?CYFITTER_CFG

* * * * * * * * * * *  X D A T A   M E M O R Y  * * * * * * * * * * * * *
000000H   000CB0H   000CB1H   BYTE   UNIT     XDATA          _XDATA_GROUP_
000CB1H   000EE1H   000231H   BYTE   UNIT     XDATA          ?XD?GLOBALS
000EE2H   000F6DH   00008CH   BYTE   UNIT     XDATA          ?XD?INTERRUPTIONS
000F6EH   000FDEH   000071H   BYTE   UNIT     XDATA          ?XD?UTILS
000FDFH   001021H   000043H   BYTE   UNIT     XDATA          ?XD?CYPM
001022H   001048H   000027H   BYTE   UNIT     XDATA          ?XD?UART_RS485
001049H   001058H   000010H   BYTE   UNIT     XDATA          ?XD?ADC
001059H   001067H   00000FH   BYTE   UNIT     XDATA          ?XD?CYLIB
001068H   00106DH   000006H   BYTE   UNIT     XDATA          ?XD?CYDMAC
00106EH   001072H   000005H   BYTE   UNIT     XDATA          ?XD?CYFLASH
001073H   001076H   000004H   BYTE   UNIT     XDATA          ?XD?CYFITTER_CFG
001077H   001078H   000002H   BYTE   UNIT     XDATA          ?XD?COMMAND_PROCESSING
001079H   001079H   000001H   BYTE   UNIT     XDATA          ?XD?PACER_TIMER
00107AH   00107AH   000001H   BYTE   UNIT     XDATA          ?XD?MY_TIMER
00107BH   00107BH   000001H   BYTE   UNIT     XDATA          ?XD?DMA_DMA
00107CH   00107CH   000001H   BYTE   UNIT     XDATA          ?XD?LED_BLINK
00107DH   00107DH   000001H   BYTE   UNIT     XDATA          ?XD?ADC_AMUX
00107EH   00107EH   000001H   BYTE   UNIT     XDATA          ?XD?CYSPC

* * * * * * * * *   R E M O V E D     S E G M E N T S   * * * * * * * *
   *DEL*:           000013H   BYTE   UNIT     CODE           ?PR?INFOSEND?COMMAND_PROCESSING
   *DEL*:           000640H   BYTE   UNIT     XDATA          ?XD?INFOSEND?COMMAND_PROCESSING
   *DEL*:           000075H   BYTE   UNIT     CODE           ?PR?_FILTER_V?UTILS
   *DEL*:           000075H   BYTE   UNIT     CODE           ?PR?_FILTER_I1?UTILS
   *DEL*:           000083H   BYTE   UNIT     CODE           ?PR?_FILTER_VEL_1?UTILS
   *DEL*:           000004H   BYTE   UNIT     XDATA          ?XD?_FILTER_VEL_1?UTILS
   *DEL*:           000083H   BYTE   UNIT     CODE           ?PR?_FILTER_VEL_2?UTILS
   *DEL*:           000004H   BYTE   UNIT     XDATA          ?XD?_FILTER_VEL_2?UTILS
   *DEL*:           000083H   BYTE   UNIT     CODE           ?PR?_FILTER_VEL_3?UTILS
   *DEL*:           000004H   BYTE   UNIT     XDATA          ?XD?_FILTER_VEL_3?UTILS
   *DEL*:           000083H   BYTE   UNIT     CODE           ?PR?_FILTER_ACC_1?UTILS
   *DEL*:           000004H   BYTE   UNIT     XDATA          ?XD?_FILTER_ACC_1?UTILS
   *DEL*:           000083H   BYTE   UNIT     CODE           ?PR?_FILTER_ACC_2?UTILS
   *DEL*:           000004H   BYTE   UNIT     XDATA          ?XD?_FILTER_ACC_2?UTILS
   *DEL*:           000083H   BYTE   UNIT     CODE           ?PR?_FILTER_ACC_3?UTILS
   *DEL*:           000004H   BYTE   UNIT     XDATA          ?XD?_FILTER_ACC_3?UTILS
   *DEL*:           00006BH   BYTE   UNIT     CODE           ?PR?_CHECK_ENC_DATA?UTILS
   *DEL*:           000054H   BYTE   UNIT     CODE           ?PR?_MY_ROUND?UTILS
   *DEL*:           000004H   BYTE   UNIT     XDATA          ?XD?_MY_ROUND?UTILS
   *DEL*:           000081H   BYTE   UNIT     CODE           ?PR?_MY_MOD?UTILS
   *DEL*:           000008H   BYTE   UNIT     XDATA          ?XD?_MY_MOD?UTILS
   *DEL*:           0000DBH   BYTE   UNIT     CODE           ?PR?_CALC_TURNS_FCN?UTILS
   *DEL*:           000008H   BYTE   UNIT     XDATA          ?XD?_CALC_TURNS_FCN?UTILS
   *DEL*:           000003H   BYTE   UNIT     IDATA          ?ID?_CHECK_ENC_DATA?UTILS
   *DEL*:           000001H   BYTE   UNIT     DATA           ?DT?_CHECK_ENC_DATA?UTILS
   *DEL*:           00001AH   BYTE   UNIT     CODE           ?PR?_SETANALOGROUTINGPUMPS?CYFITTER_CFG
   *DEL*:           00000FH   BYTE   UNIT     CODE           ?PR?CLOCK_UART_START?CLOCK_UART
   *DEL*:           00000FH   BYTE   UNIT     CODE           ?PR?CLOCK_UART_STOP?CLOCK_UART
   *DEL*:           00006DH   BYTE   UNIT     CODE           ?PR?CLOCK_UART_STOPBLOCK?CLOCK_UART
   *DEL*:           000002H   BYTE   UNIT     XDATA          ?XD?CLOCK_UART_STOPBLOCK?CLOCK_UART
   *DEL*:           000013H   BYTE   UNIT     CODE           ?PR?_CLOCK_UART_STANDBYPOWER?CLOCK_UART
   *DEL*:           00000DH   BYTE   UNIT     CODE           ?PR?_CLOCK_UART_SETMODEREGISTER?CLOCK_UART
   *DEL*:           00000EH   BYTE   UNIT     CODE           ?PR?_CLOCK_UART_CLEARMODEREGISTER?CLOCK_UART
   *DEL*:           000008H   BYTE   UNIT     CODE           ?PR?CLOCK_UART_GETMODEREGISTER?CLOCK_UART
   *DEL*:           000062H   BYTE   UNIT     CODE           ?PR?_CLOCK_UART_SETSOURCEREGISTER?CLOCK_UART
   *DEL*:           000003H   BYTE   UNIT     XDATA          ?XD?_CLOCK_UART_SETSOURCEREGISTER?CLOCK_UART
   *DEL*:           000013H   BYTE   UNIT     CODE           ?PR?ISR_RS485_RX_START?ISR_RS485_RX
   *DEL*:           000004H   BYTE   UNIT     CODE           ?PR?ISR_RS485_RX_STOP?ISR_RS485_RX
LX51 LINKER/LOCATER V4.64.0.0                                                         02/16/2023  11:05:26  PAGE 8


   *DEL*:           00000AH   BYTE   UNIT     CODE           ?PR?ISR_RS485_RX_GETVECTOR?ISR_RS485_RX
   *DEL*:           00000BH   BYTE   UNIT     CODE           ?PR?ISR_RS485_RX_GETPRIORITY?ISR_RS485_RX
   *DEL*:           00000EH   BYTE   UNIT     CODE           ?PR?ISR_RS485_RX_GETSTATE?ISR_RS485_RX
   *DEL*:           000007H   BYTE   UNIT     CODE           ?PR?ISR_RS485_RX_SETPENDING?ISR_RS485_RX
   *DEL*:           000007H   BYTE   UNIT     CODE           ?PR?ISR_RS485_RX_CLEARPENDING?ISR_RS485_RX
   *DEL*:           000016H   BYTE   UNIT     CODE           ?PR?PACER_TIMER_STOP?PACER_TIMER
   *DEL*:           00000AH   BYTE   UNIT     CODE           ?PR?PACER_TIMER_SOFTWARECAPTURE?PACER_TIMER
   *DEL*:           000006H   BYTE   UNIT     CODE           ?PR?PACER_TIMER_READSTATUSREGISTER?PACER_TIMER
   *DEL*:           000006H   BYTE   UNIT     CODE           ?PR?PACER_TIMER_READCONTROLREGISTER?PACER_TIMER
   *DEL*:           000006H   BYTE   UNIT     CODE           ?PR?_PACER_TIMER_WRITECONTROLREGISTER?PACER_TIMER
   *DEL*:           00000AH   BYTE   UNIT     CODE           ?PR?PACER_TIMER_READPERIOD?PACER_TIMER
   *DEL*:           00000AH   BYTE   UNIT     CODE           ?PR?PACER_TIMER_READCAPTURE?PACER_TIMER
   *DEL*:           000013H   BYTE   UNIT     CODE           ?PR?PACER_TIMER_READCOUNTER?PACER_TIMER
   *DEL*:           000003H   BYTE   UNIT     CODE           ?PR?UART_RS485_READCONTROLREGISTER?UART_RS485
   *DEL*:           000006H   BYTE   UNIT     CODE           ?PR?_UART_RS485_WRITECONTROLREGISTER?UART_RS485
   *DEL*:           000001H   BYTE   UNIT     XDATA          ?XD?_UART_RS485_WRITECONTROLREGISTER?UART_RS485
   *DEL*:           000006H   BYTE   UNIT     CODE           ?PR?_UART_RS485_SETRXINTERRUPTMODE?UART_RS485
   *DEL*:           00004AH   BYTE   UNIT     CODE           ?PR?UART_RS485_READRXDATA?UART_RS485
   *DEL*:           00001FH   BYTE   UNIT     CODE           ?PR?UART_RS485_GETBYTE?UART_RS485
   *DEL*:           000006H   BYTE   UNIT     CODE           ?PR?_UART_RS485_SETRXADDRESSMODE?UART_RS485
   *DEL*:           000001H   BYTE   UNIT     XDATA          ?XD?_UART_RS485_SETRXADDRESSMODE?UART_RS485
   *DEL*:           000006H   BYTE   UNIT     CODE           ?PR?_UART_RS485_SETRXADDRESS1?UART_RS485
   *DEL*:           000006H   BYTE   UNIT     CODE           ?PR?_UART_RS485_SETRXADDRESS2?UART_RS485
   *DEL*:           000006H   BYTE   UNIT     CODE           ?PR?_UART_RS485_SETTXINTERRUPTMODE?UART_RS485
   *DEL*:           00000CH   BYTE   UNIT     CODE           ?PR?_UART_RS485_WRITETXDATA?UART_RS485
   *DEL*:           000032H   BYTE   UNIT     CODE           ?PR?_UART_RS485_PUTARRAY?UART_RS485
   *DEL*:           000003H   BYTE   UNIT     XDATA          ?XD?_UART_RS485_PUTARRAY?UART_RS485
   *DEL*:           000014H   BYTE   UNIT     CODE           ?PR?_UART_RS485_PUTCRLF?UART_RS485
   *DEL*:           000017H   BYTE   UNIT     CODE           ?PR?UART_RS485_GETTXBUFFERSIZE?UART_RS485
   *DEL*:           000059H   BYTE   UNIT     CODE           ?PR?_UART_RS485_SENDBREAK?UART_RS485
   *DEL*:           000001H   BYTE   UNIT     XDATA          ?XD?_UART_RS485_SENDBREAK?UART_RS485
   *DEL*:           000006H   BYTE   UNIT     CODE           ?PR?_UART_RS485_SETTXADDRESSMODE?UART_RS485
   *DEL*:           000001H   BYTE   UNIT     XDATA          ?XD?_UART_RS485_SETTXADDRESSMODE?UART_RS485
   *DEL*:           000004H   BYTE   UNIT     CODE           ?PR?EEPROM_STOP?EEPROM
   *DEL*:           000124H   BYTE   UNIT     CODE           ?PR?_EEPROM_WRITEBYTE?EEPROM
   *DEL*:           000008H   BYTE   UNIT     XDATA          ?XD?_EEPROM_WRITEBYTE?EEPROM
   *DEL*:           00003AH   BYTE   UNIT     CODE           ?PR?_EEPROM_READBYTE?EEPROM
   *DEL*:           000004H   BYTE   UNIT     XDATA          ?XD?_EEPROM_READBYTE?EEPROM
   *DEL*:           000004H   BYTE   UNIT     CODE           ?PR?EEPROM_UPDATETEMPERATURE?EEPROM
   *DEL*:           00006FH   BYTE   UNIT     CODE           ?PR?_EEPROM_ERASESECTOR?EEPROM
   *DEL*:           000002H   BYTE   UNIT     XDATA          ?XD?_EEPROM_ERASESECTOR?EEPROM
   *DEL*:           0000B9H   BYTE   UNIT     CODE           ?PR?_EEPROM_STARTWRITE?EEPROM
   *DEL*:           000005H   BYTE   UNIT     XDATA          ?XD?_EEPROM_STARTWRITE?EEPROM
   *DEL*:           000046H   BYTE   UNIT     CODE           ?PR?_EEPROM_STARTERASE?EEPROM
   *DEL*:           000002H   BYTE   UNIT     XDATA          ?XD?_EEPROM_STARTERASE?EEPROM
   *DEL*:           00003BH   BYTE   UNIT     CODE           ?PR?EEPROM_QUERY?EEPROM
   *DEL*:           000001H   BYTE   UNIT     XDATA          ?XD?EEPROM_QUERY?EEPROM
   *DEL*:           0000E5H   BYTE   UNIT     CODE           ?PR?_EEPROM_BYTEWRITEPOS?EEPROM
   *DEL*:           000004H   BYTE   UNIT     XDATA          ?XD?_EEPROM_BYTEWRITEPOS?EEPROM
   *DEL*:           000088H   BYTE   UNIT     CODE           ?PR?ADC_STOP?ADC
   *DEL*:           000001H   BYTE   UNIT     XDATA          ?XD?ADC_STOP?ADC
   *DEL*:           000012H   BYTE   UNIT     CODE           ?PR?_ADC_SETBUFFERGAIN?ADC
   *DEL*:           00000EH   BYTE   UNIT     CODE           ?PR?_ADC_SETCOHERENCY?ADC
   *DEL*:           0000F2H   BYTE   UNIT     CODE           ?PR?_ADC_SETGCOR?ADC
   *DEL*:           00000BH   BYTE   UNIT     XDATA          ?XD?_ADC_SETGCOR?ADC
   *DEL*:           000039H   BYTE   UNIT     CODE           ?PR?ADC_READGCOR?ADC
   *DEL*:           000001H   BYTE   UNIT     XDATA          ?XD?ADC_READGCOR?ADC
   *DEL*:           000008H   BYTE   UNIT     CODE           ?PR?ADC_STARTCONVERT?ADC
   *DEL*:           000008H   BYTE   UNIT     CODE           ?PR?ADC_STOPCONVERT?ADC
   *DEL*:           00001FH   BYTE   UNIT     CODE           ?PR?_ADC_ISENDCONVERSION?ADC
   *DEL*:           00002CH   BYTE   UNIT     CODE           ?PR?ADC_GETRESULT8?ADC
   *DEL*:           000060H   BYTE   UNIT     CODE           ?PR?ADC_GETRESULT16?ADC
   *DEL*:           000003H   BYTE   UNIT     XDATA          ?XD?ADC_GETRESULT16?ADC
   *DEL*:           0001B4H   BYTE   UNIT     CODE           ?PR?ADC_GETRESULT32?ADC
   *DEL*:           000007H   BYTE   UNIT     XDATA          ?XD?ADC_GETRESULT32?ADC
LX51 LINKER/LOCATER V4.64.0.0                                                         02/16/2023  11:05:26  PAGE 9


   *DEL*:           000007H   BYTE   UNIT     CODE           ?PR?_ADC_SETOFFSET?ADC
   *DEL*:           000007H   BYTE   UNIT     CODE           ?PR?_ADC_SETGAIN?ADC
   *DEL*:           00005FH   BYTE   UNIT     CODE           ?PR?_ADC_COUNTSTO_MVOLTS?ADC
   *DEL*:           000004H   BYTE   UNIT     XDATA          ?XD?_ADC_COUNTSTO_MVOLTS?ADC
   *DEL*:           00006DH   BYTE   UNIT     CODE           ?PR?_ADC_COUNTSTO_VOLTS?ADC
   *DEL*:           000004H   BYTE   UNIT     XDATA          ?XD?_ADC_COUNTSTO_VOLTS?ADC
   *DEL*:           000137H   BYTE   UNIT     CODE           ?PR?_ADC_COUNTSTO_UVOLTS?ADC
   *DEL*:           00000DH   BYTE   UNIT     XDATA          ?XD?_ADC_COUNTSTO_UVOLTS?ADC
   *DEL*:           000072H   BYTE   UNIT     CODE           ?PR?_ADC_SELECTCONFIGURATION?ADC
   *DEL*:           000002H   BYTE   UNIT     XDATA          ?XD?_ADC_SELECTCONFIGURATION?ADC
   *DEL*:           000016H   BYTE   UNIT     CODE           ?PR?ADC_READ8?ADC
   *DEL*:           000016H   BYTE   UNIT     CODE           ?PR?ADC_READ16?ADC
   *DEL*:           000016H   BYTE   UNIT     CODE           ?PR?ADC_READ32?ADC
   *DEL*:           000006H   BYTE   UNIT     CODE           ?PR?RS485_CTS_READ?RS485_CTS
   *DEL*:           0000FBH   BYTE   UNIT     CODE           ?PR?_BOOTLOADABLE_SETFLASHBYTE?BOOTLOADABLE
   *DEL*:           000110H   BYTE   UNIT     XDATA          ?XD?_BOOTLOADABLE_SETFLASHBYTE?BOOTLOADABLE
   *DEL*:           000006H   BYTE   UNIT     CODE           ?PR?FTDI_ENABLE_REG_READ?FTDI_ENABLE_REG
   *DEL*:           000006H   BYTE   UNIT     CODE           ?PR?RESET_FF_READ?RESET_FF
   *DEL*:           00000EH   BYTE   UNIT     CODE           ?PR?FF_STATUS_INTERRUPTENABLE?FF_STATUS
   *DEL*:           00000EH   BYTE   UNIT     CODE           ?PR?FF_STATUS_INTERRUPTDISABLE?FF_STATUS
   *DEL*:           000009H   BYTE   UNIT     CODE           ?PR?_FF_STATUS_WRITEMASK?FF_STATUS
   *DEL*:           000006H   BYTE   UNIT     CODE           ?PR?FF_STATUS_READMASK?FF_STATUS
   *DEL*:           000008H   BYTE   UNIT     CODE           ?PR?MY_TIMER_STOP?MY_TIMER
   *DEL*:           000006H   BYTE   UNIT     CODE           ?PR?MY_TIMER_SOFTWARECAPTURE?MY_TIMER
   *DEL*:           000006H   BYTE   UNIT     CODE           ?PR?MY_TIMER_READCONTROLREGISTER?MY_TIMER
   *DEL*:           000006H   BYTE   UNIT     CODE           ?PR?_MY_TIMER_WRITECONTROLREGISTER?MY_TIMER
   *DEL*:           00000AH   BYTE   UNIT     CODE           ?PR?MY_TIMER_READPERIOD?MY_TIMER
   *DEL*:           00000EH   BYTE   UNIT     CODE           ?PR?ADC_STATUS_INTERRUPTENABLE?ADC_STATUS
   *DEL*:           00000EH   BYTE   UNIT     CODE           ?PR?ADC_STATUS_INTERRUPTDISABLE?ADC_STATUS
   *DEL*:           000009H   BYTE   UNIT     CODE           ?PR?_ADC_STATUS_WRITEMASK?ADC_STATUS
   *DEL*:           000006H   BYTE   UNIT     CODE           ?PR?ADC_STATUS_READMASK?ADC_STATUS
   *DEL*:           000009H   BYTE   UNIT     CODE           ?PR?DMA_DMARELEASE?DMA_DMA
   *DEL*:           000006H   BYTE   UNIT     CODE           ?PR?ADC_SOC_READ?ADC_SOC
   *DEL*:           000012H   BYTE   UNIT     CODE           ?PR?CYDMACERROR?CYDMAC
   *DEL*:           000010H   BYTE   UNIT     CODE           ?PR?_CYDMACCLEARERROR?CYDMAC
   *DEL*:           00000AH   BYTE   UNIT     CODE           ?PR?CYDMACERRORADDRESS?CYDMAC
   *DEL*:           0000BEH   BYTE   UNIT     CODE           ?PR?CYDMACHALLOC?CYDMAC
   *DEL*:           000006H   BYTE   UNIT     XDATA          ?XD?CYDMACHALLOC?CYDMAC
   *DEL*:           000064H   BYTE   UNIT     CODE           ?PR?_CYDMACHFREE?CYDMAC
   *DEL*:           000003H   BYTE   UNIT     XDATA          ?XD?_CYDMACHFREE?CYDMAC
   *DEL*:           000033H   BYTE   UNIT     CODE           ?PR?_CYDMACHDISABLE?CYDMAC
   *DEL*:           000033H   BYTE   UNIT     CODE           ?PR?_CYDMACLEARPENDINGDRQ?CYDMAC
   *DEL*:           000025H   BYTE   UNIT     CODE           ?PR?_CYDMACHSETREQUEST?CYDMAC
   *DEL*:           000024H   BYTE   UNIT     CODE           ?PR?_CYDMACHGETREQUEST?CYDMAC
   *DEL*:           000072H   BYTE   UNIT     CODE           ?PR?_CYDMACHSTATUS?CYDMAC
   *DEL*:           000007H   BYTE   UNIT     XDATA          ?XD?_CYDMACHSTATUS?CYDMAC
   *DEL*:           00003EH   BYTE   UNIT     CODE           ?PR?_CYDMATDFREE?CYDMAC
   *DEL*:           000002H   BYTE   UNIT     XDATA          ?XD?_CYDMATDFREE?CYDMAC
   *DEL*:           000009H   BYTE   UNIT     CODE           ?PR?CYDMATDFREECOUNT?CYDMAC
   *DEL*:           0000C9H   BYTE   UNIT     CODE           ?PR?_CYDMATDGETCONFIGURATION?CYDMAC
   *DEL*:           00000DH   BYTE   UNIT     XDATA          ?XD?_CYDMATDGETCONFIGURATION?CYDMAC
   *DEL*:           0000A6H   BYTE   UNIT     CODE           ?PR?_CYDMATDGETADDRESS?CYDMAC
   *DEL*:           00000AH   BYTE   UNIT     XDATA          ?XD?_CYDMATDGETADDRESS?CYDMAC
   *DEL*:           000038H   BYTE   UNIT     CODE           ?PR?_CYDMACHROUNDROBIN?CYDMAC
   *DEL*:           000031H   BYTE   UNIT     CODE           ?PR?CYFLASH_START?CYFLASH
   *DEL*:           000015H   BYTE   UNIT     CODE           ?PR?CYFLASH_STOP?CYFLASH
   *DEL*:           0000AFH   BYTE   UNIT     CODE           ?PR?_CYFLASH_ERASEROW?CYFLASH
   *DEL*:           000004H   BYTE   UNIT     XDATA          ?XD?_CYFLASH_ERASEROW?CYFLASH
   *DEL*:           00007DH   BYTE   UNIT     CODE           ?PR?_CYSETFLASHEEBUFFER?CYFLASH
   *DEL*:           000004H   BYTE   UNIT     XDATA          ?XD?_CYSETFLASHEEBUFFER?CYFLASH
   *DEL*:           000034H   BYTE   UNIT     CODE           ?PR?_CYWRITEROWDATA?CYFLASH
   *DEL*:           000003H   BYTE   UNIT     XDATA          ?XD?_CYWRITEROWDATA?CYFLASH
   *DEL*:           000190H   BYTE   UNIT     CODE           ?PR?_CYWRITEROWFULL?CYFLASH
   *DEL*:           000009H   BYTE   UNIT     XDATA          ?XD?_CYWRITEROWFULL?CYFLASH
   *DEL*:           000044H   BYTE   UNIT     CODE           ?PR?_CYFLASH_SETWAITCYCLES?CYFLASH
LX51 LINKER/LOCATER V4.64.0.0                                                         02/16/2023  11:05:26  PAGE 10


   *DEL*:           000001H   BYTE   UNIT     XDATA          ?XD?_CYFLASH_SETWAITCYCLES?CYFLASH
   *DEL*:           000015H   BYTE   UNIT     CODE           ?PR?CYEEPROM_STOP?CYFLASH
   *DEL*:           000010H   BYTE   UNIT     CODE           ?PR?CYEEPROM_READRESERVE?CYFLASH
   *DEL*:           000008H   BYTE   UNIT     CODE           ?PR?CYEEPROM_READRELEASE?CYFLASH
   *DEL*:           00006EH   BYTE   UNIT     CODE           ?PR?_CYPLL_OUT_START?CYLIB
   *DEL*:           000004H   BYTE   UNIT     XDATA          ?XD?_CYPLL_OUT_START?CYLIB
   *DEL*:           000008H   BYTE   UNIT     CODE           ?PR?CYPLL_OUT_STOP?CYLIB
   *DEL*:           000036H   BYTE   UNIT     CODE           ?PR?_CYPLL_OUT_SETPQ?CYLIB
   *DEL*:           000010H   BYTE   UNIT     CODE           ?PR?_CYPLL_OUT_SETSOURCE?CYLIB
   *DEL*:           000053H   BYTE   UNIT     CODE           ?PR?_CYIMO_START?CYLIB
   *DEL*:           000003H   BYTE   UNIT     XDATA          ?XD?_CYIMO_START?CYLIB
   *DEL*:           00000FH   BYTE   UNIT     CODE           ?PR?CYIMO_STOP?CYLIB
   *DEL*:           000027H   BYTE   UNIT     CODE           ?PR?CYUSB_POWERONCHECK?CYLIB
   *DEL*:           0000B6H   BYTE   UNIT     CODE           ?PR?_CYIMO_SETTRIMVALUE?CYLIB
   *DEL*:           000001H   BYTE   UNIT     XDATA          ?XD?_CYIMO_SETTRIMVALUE?CYLIB
   *DEL*:           000118H   BYTE   UNIT     CODE           ?PR?_CYIMO_SETFREQ?CYLIB
   *DEL*:           000003H   BYTE   UNIT     XDATA          ?XD?_CYIMO_SETFREQ?CYLIB
   *DEL*:           00002FH   BYTE   UNIT     CODE           ?PR?_CYIMO_SETSOURCE?CYLIB
   *DEL*:           000008H   BYTE   UNIT     CODE           ?PR?CYIMO_ENABLEDOUBLER?CYLIB
   *DEL*:           000008H   BYTE   UNIT     CODE           ?PR?CYIMO_DISABLEDOUBLER?CYLIB
   *DEL*:           00000DH   BYTE   UNIT     CODE           ?PR?_CYMASTERCLK_SETSOURCE?CYLIB
   *DEL*:           000006H   BYTE   UNIT     CODE           ?PR?_CYMASTERCLK_SETDIVIDER?CYLIB
   *DEL*:           000023H   BYTE   UNIT     CODE           ?PR?_CYBUSCLK_INTERNAL_SETDIVIDER?CYLIB
   *DEL*:           00007AH   BYTE   UNIT     CODE           ?PR?_CYBUSCLK_SETDIVIDER?CYLIB
   *DEL*:           000002H   BYTE   UNIT     XDATA          ?XD?_CYBUSCLK_SETDIVIDER?CYLIB
   *DEL*:           00000EH   BYTE   UNIT     CODE           ?PR?_CYCPUCLK_SETDIVIDER?CYLIB
   *DEL*:           00000DH   BYTE   UNIT     CODE           ?PR?_CYUSBCLK_SETSOURCE?CYLIB
   *DEL*:           000008H   BYTE   UNIT     CODE           ?PR?CYILO_START1K?CYLIB
   *DEL*:           000008H   BYTE   UNIT     CODE           ?PR?CYILO_STOP1K?CYLIB
   *DEL*:           000008H   BYTE   UNIT     CODE           ?PR?CYILO_START100K?CYLIB
   *DEL*:           000008H   BYTE   UNIT     CODE           ?PR?CYILO_STOP100K?CYLIB
   *DEL*:           000008H   BYTE   UNIT     CODE           ?PR?CYILO_ENABLE33K?CYLIB
   *DEL*:           000008H   BYTE   UNIT     CODE           ?PR?CYILO_DISABLE33K?CYLIB
   *DEL*:           000011H   BYTE   UNIT     CODE           ?PR?_CYILO_SETSOURCE?CYLIB
   *DEL*:           000029H   BYTE   UNIT     CODE           ?PR?_CYILO_SETPOWERMODE?CYLIB
   *DEL*:           00005EH   BYTE   UNIT     CODE           ?PR?CYXTAL_32KHZ_START?CYLIB
   *DEL*:           000002H   BYTE   UNIT     XDATA          ?XD?CYXTAL_32KHZ_START?CYLIB
   *DEL*:           000020H   BYTE   UNIT     CODE           ?PR?CYXTAL_32KHZ_STOP?CYLIB
   *DEL*:           000008H   BYTE   UNIT     CODE           ?PR?CYXTAL_32KHZ_READSTATUS?CYLIB
   *DEL*:           000066H   BYTE   UNIT     CODE           ?PR?_CYXTAL_32KHZ_SETPOWERMODE?CYLIB
   *DEL*:           000001H   BYTE   UNIT     XDATA          ?XD?_CYXTAL_32KHZ_SETPOWERMODE?CYLIB
   *DEL*:           0000A0H   BYTE   UNIT     CODE           ?PR?_CYXTAL_START?CYLIB
   *DEL*:           000006H   BYTE   UNIT     XDATA          ?XD?_CYXTAL_START?CYLIB
   *DEL*:           000008H   BYTE   UNIT     CODE           ?PR?CYXTAL_STOP?CYLIB
   *DEL*:           000008H   BYTE   UNIT     CODE           ?PR?CYXTAL_ENABLEERRSTATUS?CYLIB
   *DEL*:           000008H   BYTE   UNIT     CODE           ?PR?CYXTAL_DISABLEERRSTATUS?CYLIB
   *DEL*:           00000FH   BYTE   UNIT     CODE           ?PR?CYXTAL_READSTATUS?CYLIB
   *DEL*:           000008H   BYTE   UNIT     CODE           ?PR?CYXTAL_ENABLEFAULTRECOVERY?CYLIB
   *DEL*:           000008H   BYTE   UNIT     CODE           ?PR?CYXTAL_DISABLEFAULTRECOVERY?CYLIB
   *DEL*:           00000DH   BYTE   UNIT     CODE           ?PR?_CYXTAL_SETSTARTUP?CYLIB
   *DEL*:           00000DH   BYTE   UNIT     CODE           ?PR?_CYXTAL_SETFBVOLTAGE?CYLIB
   *DEL*:           00000EH   BYTE   UNIT     CODE           ?PR?_CYXTAL_SETWDVOLTAGE?CYLIB
   *DEL*:           000015H   BYTE   UNIT     CODE           ?PR?_?CYHALT?CYLIB
   *DEL*:           0000B8H   BYTE   UNIT     CODE           ?PR?_?CYDELAYFREQ?CYLIB
   *DEL*:           000026H   BYTE   UNIT     CODE           ?PR?_CYWDTSTART?CYLIB
   *DEL*:           000007H   BYTE   UNIT     CODE           ?PR?CYWDTCLEAR?CYLIB
   *DEL*:           000084H   BYTE   UNIT     CODE           ?PR?_CYVDLVDIGITENABLE?CYLIB
   *DEL*:           000007H   BYTE   UNIT     XDATA          ?XD?_CYVDLVDIGITENABLE?CYLIB
   *DEL*:           000083H   BYTE   UNIT     CODE           ?PR?_CYVDLVANALOGENABLE?CYLIB
   *DEL*:           000007H   BYTE   UNIT     XDATA          ?XD?_CYVDLVANALOGENABLE?CYLIB
   *DEL*:           00001DH   BYTE   UNIT     CODE           ?PR?CYVDLVDIGITDISABLE?CYLIB
   *DEL*:           000018H   BYTE   UNIT     CODE           ?PR?CYVDLVANALOGDISABLE?CYLIB
   *DEL*:           000056H   BYTE   UNIT     CODE           ?PR?CYVDHVANALOGENABLE?CYLIB
   *DEL*:           000005H   BYTE   UNIT     XDATA          ?XD?CYVDHVANALOGENABLE?CYLIB
   *DEL*:           000011H   BYTE   UNIT     CODE           ?PR?CYVDHVANALOGDISABLE?CYLIB
LX51 LINKER/LOCATER V4.64.0.0                                                         02/16/2023  11:05:26  PAGE 11


   *DEL*:           000039H   BYTE   UNIT     CODE           ?PR?_CYVDSTICKYSTATUS?CYLIB
   *DEL*:           000002H   BYTE   UNIT     XDATA          ?XD?_CYVDSTICKYSTATUS?CYLIB
   *DEL*:           000018H   BYTE   UNIT     CODE           ?PR?CYVDREALTIMESTATUS?CYLIB
   *DEL*:           000001H   BYTE   UNIT     XDATA          ?XD?CYVDREALTIMESTATUS?CYLIB
   *DEL*:           0000D0H   BYTE   UNIT     CODE           ?PR?CYDISABLEINTS?CYLIB
   *DEL*:           000005H   BYTE   UNIT     XDATA          ?XD?CYDISABLEINTS?CYLIB
   *DEL*:           000067H   BYTE   UNIT     CODE           ?PR?_CYENABLEINTS?CYLIB
   *DEL*:           000004H   BYTE   UNIT     XDATA          ?XD?_CYENABLEINTS?CYLIB
   *DEL*:           000018H   BYTE   UNIT     CODE           ?PR?_CYINTGETVECTOR?CYLIB
   *DEL*:           000014H   BYTE   UNIT     CODE           ?PR?_CYINTGETPRIORITY?CYLIB
   *DEL*:           000036H   BYTE   UNIT     CODE           ?PR?_CYINTGETSTATE?CYLIB
   *DEL*:           000248H   BYTE   UNIT     CODE           ?PR?_CYGETUNIQUEID?CYLIB
   *DEL*:           000003H   BYTE   UNIT     XDATA          ?XD?_CYGETUNIQUEID?CYLIB
   *DEL*:           000008H   BYTE   UNIT     CODE           ?PR?LED_BLINK_STOP?LED_BLINK
   *DEL*:           00000BH   BYTE   UNIT     CODE           ?PR?LED_BLINK_READCOUNTER?LED_BLINK
   *DEL*:           000006H   BYTE   UNIT     CODE           ?PR?LED_BLINK_READCONTROLREGISTER?LED_BLINK
   *DEL*:           000006H   BYTE   UNIT     CODE           ?PR?_LED_BLINK_WRITECONTROLREGISTER?LED_BLINK
   *DEL*:           000006H   BYTE   UNIT     CODE           ?PR?LED_BLINK_READCAPTURE?LED_BLINK
   *DEL*:           000006H   BYTE   UNIT     CODE           ?PR?LED_BLINK_READCOMPARE?LED_BLINK
   *DEL*:           000006H   BYTE   UNIT     CODE           ?PR?LED_BLINK_READPERIOD?LED_BLINK
   *DEL*:           000006H   BYTE   UNIT     CODE           ?PR?LED_CTRL_READ?LED_CTRL
   *DEL*:           000006H   BYTE   UNIT     CODE           ?PR?LED_BLINK_EN_READ?LED_BLINK_EN
   *DEL*:           000004H   BYTE   UNIT     CODE           ?PR?_CyDelay?CYBOOTASMKEIL
   *DEL*:           000019H   BYTE   UNIT     CODE           ?PR?CYMEMZERO?CYMEM
   *DEL*:           000026H   BYTE   UNIT     CODE           ?PR?CYCONFIGCPYCODE?CYMEM
   *DEL*:           00002DH   BYTE   UNIT     CODE           ?PR?CFG_WRITE_BYTES?CYMEM
   *DEL*:           00002EH   BYTE   UNIT     CODE           ?PR?CY_WRITE_BYTES_CODE?CYMEM
   *DEL*:           000015H   BYTE   UNIT     CODE           ?PR?CYREAD32?CYMEM
   *DEL*:           000015H   BYTE   UNIT     CODE           ?PR?CYWRITE32?CYMEM
   *DEL*:           000021H   BYTE   UNIT     CODE           ?PR?_ADC_AMUX_FASTSELECT?ADC_AMUX
   *DEL*:           000001H   BYTE   UNIT     XDATA          ?XD?_ADC_AMUX_FASTSELECT?ADC_AMUX
   *DEL*:           00000FH   BYTE   UNIT     CODE           ?PR?ADC_EXT_CP_CLK_START?ADC_EXT_CP_CLK
   *DEL*:           00000FH   BYTE   UNIT     CODE           ?PR?ADC_EXT_CP_CLK_STOP?ADC_EXT_CP_CLK
   *DEL*:           00006EH   BYTE   UNIT     CODE           ?PR?ADC_EXT_CP_CLK_STOPBLOCK?ADC_EXT_CP_CLK
   *DEL*:           000002H   BYTE   UNIT     XDATA          ?XD?ADC_EXT_CP_CLK_STOPBLOCK?ADC_EXT_CP_CLK
   *DEL*:           000013H   BYTE   UNIT     CODE           ?PR?_ADC_EXT_CP_CLK_STANDBYPOWER?ADC_EXT_CP_CLK
   *DEL*:           00000EH   BYTE   UNIT     CODE           ?PR?_ADC_EXT_CP_CLK_CLEARMODEREGISTER?ADC_EXT_CP_CLK
   *DEL*:           000008H   BYTE   UNIT     CODE           ?PR?ADC_EXT_CP_CLK_GETMODEREGISTER?ADC_EXT_CP_CLK
   *DEL*:           000062H   BYTE   UNIT     CODE           ?PR?_ADC_EXT_CP_CLK_SETSOURCEREGISTER?ADC_EXT_CP_CLK
   *DEL*:           000003H   BYTE   UNIT     XDATA          ?XD?_ADC_EXT_CP_CLK_SETSOURCEREGISTER?ADC_EXT_CP_CLK
   *DEL*:           00000FH   BYTE   UNIT     CODE           ?PR?ADC_THEACLK_START?ADC_THEACLK
   *DEL*:           00000FH   BYTE   UNIT     CODE           ?PR?ADC_THEACLK_STOP?ADC_THEACLK
   *DEL*:           00006CH   BYTE   UNIT     CODE           ?PR?ADC_THEACLK_STOPBLOCK?ADC_THEACLK
   *DEL*:           000002H   BYTE   UNIT     XDATA          ?XD?ADC_THEACLK_STOPBLOCK?ADC_THEACLK
   *DEL*:           000013H   BYTE   UNIT     CODE           ?PR?_ADC_THEACLK_STANDBYPOWER?ADC_THEACLK
   *DEL*:           00000EH   BYTE   UNIT     CODE           ?PR?_ADC_THEACLK_CLEARMODEREGISTER?ADC_THEACLK
   *DEL*:           000008H   BYTE   UNIT     CODE           ?PR?ADC_THEACLK_GETMODEREGISTER?ADC_THEACLK
   *DEL*:           000062H   BYTE   UNIT     CODE           ?PR?_ADC_THEACLK_SETSOURCEREGISTER?ADC_THEACLK
   *DEL*:           000003H   BYTE   UNIT     XDATA          ?XD?_ADC_THEACLK_SETSOURCEREGISTER?ADC_THEACLK
   *DEL*:           000008H   BYTE   UNIT     CODE           ?PR?_ADC_THEACLK_SETPHASEREGISTER?ADC_THEACLK
   *DEL*:           000008H   BYTE   UNIT     CODE           ?PR?ADC_THEACLK_GETPHASEREGISTER?ADC_THEACLK
   *DEL*:           0001A9H   BYTE   UNIT     CODE           ?PR?CYPMSAVECLOCKS?CYPM
   *DEL*:           00024CH   BYTE   UNIT     CODE           ?PR?CYPMRESTORECLOCKS?CYPM
   *DEL*:           000003H   BYTE   UNIT     XDATA          ?XD?CYPMRESTORECLOCKS?CYPM
   *DEL*:           0000E0H   BYTE   UNIT     CODE           ?PR?_CYPMALTACT?CYPM
   *DEL*:           000004H   BYTE   UNIT     XDATA          ?XD?_CYPMALTACT?CYPM
   *DEL*:           000160H   BYTE   UNIT     CODE           ?PR?_CYPMSLEEP?CYPM
   *DEL*:           000004H   BYTE   UNIT     XDATA          ?XD?_CYPMSLEEP?CYPM
   *DEL*:           000008H   BYTE   UNIT     CODE           ?PR?CYPMHIBERNATE?CYPM
   *DEL*:           0000D6H   BYTE   UNIT     CODE           ?PR?_CYPMHIBERNATEEX?CYPM
   *DEL*:           000003H   BYTE   UNIT     XDATA          ?XD?_CYPMHIBERNATEEX?CYPM
   *DEL*:           000039H   BYTE   UNIT     CODE           ?PR?_CYPMREADSTATUS?CYPM
   *DEL*:           000002H   BYTE   UNIT     XDATA          ?XD?_CYPMREADSTATUS?CYPM
   *DEL*:           000076H   BYTE   UNIT     CODE           ?PR?CYPMHIBSAVESET?CYPM
   *DEL*:           000040H   BYTE   UNIT     CODE           ?PR?CYPMHIBRESTORE?CYPM
LX51 LINKER/LOCATER V4.64.0.0                                                         02/16/2023  11:05:26  PAGE 12


   *DEL*:           000049H   BYTE   UNIT     CODE           ?PR?_CYPMCTWSETINTERVAL?CYPM
   *DEL*:           000001H   BYTE   UNIT     XDATA          ?XD?_CYPMCTWSETINTERVAL?CYPM
   *DEL*:           000017H   BYTE   UNIT     CODE           ?PR?CYPMOPPSSET?CYPM
   *DEL*:           00004DH   BYTE   UNIT     CODE           ?PR?_CYPMFTWSETINTERVAL?CYPM
   *DEL*:           000001H   BYTE   UNIT     XDATA          ?XD?_CYPMFTWSETINTERVAL?CYPM
   *DEL*:           00018CH   BYTE   UNIT     CODE           ?PR?CYPMHIBSLPSAVESET?CYPM
   *DEL*:           00010DH   BYTE   UNIT     CODE           ?PR?CYPMHIBSLPRESTORE?CYPM
   *DEL*:           000082H   BYTE   UNIT     CODE           ?PR?CYPMHVILVISAVEDISABLE?CYPM
   *DEL*:           000033H   BYTE   UNIT     CODE           ?PR?CYPMHVILVIRESTORE?CYPM
   *DEL*:           00000EH   BYTE   UNIT     CONST          ?CO?CYPM
   *DEL*:           000015H   BYTE   UNIT     CODE           ?PR?CYSPCSTOP?CYSPC
   *DEL*:           0000A7H   BYTE   UNIT     CODE           ?PR?_CYSPCLOADMULTIBYTE?CYSPC
   *DEL*:           000007H   BYTE   UNIT     XDATA          ?XD?_CYSPCLOADMULTIBYTE?CYSPC
   *DEL*:           000143H   BYTE   UNIT     CODE           ?PR?_CYSPCLOADROWFULL?CYSPC
   *DEL*:           00000FH   BYTE   UNIT     XDATA          ?XD?_CYSPCLOADROWFULL?CYSPC
   *DEL*:           000030H   BYTE   UNIT     CODE           ?PR?_CYSPCERASESECTOR?CYSPC
   *DEL*:           000054H   BYTE   UNIT     CODE           ?PR?_CYSPCERASEROW?CYSPC
   *DEL*:           000005H   BYTE   UNIT     XDATA          ?XD?_CYSPCERASEROW?CYSPC



OVERLAY MAP OF MODULE:   .\DP8051_Keil_951\Release\hand_firmware_micro.omf (COMMAND_PROCESSING)


FUNCTION/MODULE                                BIT_GROUP   DATA_GROUP   XDATA_GROUP
--> CALLED FUNCTION/MODULE                    START  STOP  START  STOP  START  STOP
===================================================================================
ISR_RS485_RX_EXINTERRUPT/INTERRUPTIONS        ----- -----  ----- -----  ----- -----

*** NEW ROOT ********************************

ISR_RS485_RX_INTERRUPT/ISR_RS485_RX           ----- -----  ----- -----  ----- -----

*** NEW ROOT ********************************

INTDEFAULTHANDLER/CYLIB                       ----- -----  ----- -----  ----- -----

*** NEW ROOT ********************************

?C_C51STARTUP                                 ----- -----  ----- -----  ----- -----
  +--> ?CO?KEILSTART?3
  +--> CYINTINITVECTORS/CYLIB
  +--> CYFITTER_CFG/CYFITTER_CFG
  +--> CYDMACCONFIGURE/CYDMAC
  +--> MAIN/MAIN
  +--> ?C_INITSEG

?CO?KEILSTART?3                               ----- -----  ----- -----  ----- -----

CYINTINITVECTORS/CYLIB                        ----- -----  ----- -----  0000H 0000H
  +--> CYWRITE16/CYMEM

CYWRITE16/CYMEM                               ----- -----  ----- -----  ----- -----

CYFITTER_CFG/CYFITTER_CFG                     ----- -----  ----- -----  ----- -----
  +--> CYREAD8/CYMEM
  +--> CYWRITE8/CYMEM
  +--> CFG_DMA_INIT/CYFITTER_CFG
  +--> _CYCONFIGCPY/CYMEM
  +--> CLOCKSETUP/CYFITTER_CFG
  +--> ANALOGSETDEFAULT/CYFITTER_CFG

CYREAD8/CYMEM                                 ----- -----  ----- -----  ----- -----

CYWRITE8/CYMEM                                ----- -----  ----- -----  ----- -----
LX51 LINKER/LOCATER V4.64.0.0                                                         02/16/2023  11:05:26  PAGE 13



CFG_DMA_INIT/CYFITTER_CFG                     ----- -----  ----- -----  ----- -----
  +--> CYWRITE16/CYMEM
  +--> ?CO?CYFITTER_CFG
  +--> _CYCONFIGCPY/CYMEM

?CO?CYFITTER_CFG                              ----- -----  ----- -----  ----- -----

_CYCONFIGCPY/CYMEM                            ----- -----  ----- -----  0005H 000CH

CLOCKSETUP/CYFITTER_CFG                       ----- -----  ----- -----  0000H 0004H
  +--> CYWRITE16/CYMEM
  +--> _CYCONFIGCPY/CYMEM
  +--> CYREAD8/CYMEM
  +--> CYDELAYCYCLES/CYBOOTASMKEIL
  +--> _CYCLOCKSTARTUPERROR/CYFITTER_CFG

CYDELAYCYCLES/CYBOOTASMKEIL                   ----- -----  ----- -----  ----- -----

_CYCLOCKSTARTUPERROR/CYFITTER_CFG             ----- -----  ----- -----  ----- -----

ANALOGSETDEFAULT/CYFITTER_CFG                 ----- -----  ----- -----  ----- -----
  +--> CYREAD8/CYMEM

CYDMACCONFIGURE/CYDMAC                        ----- -----  ----- -----  ----- -----

MAIN/MAIN                                     ----- -----  ----- -----  0000H 0002H
  +--> EEPROM_START/EEPROM
  +--> MEMRECALL/COMMAND_PROCESSING
  +--> _?CYDELAY/CYLIB
  +--> _FTDI_ENABLE_REG_WRITE/FTDI_ENABLE_REG
  +--> _LED_CTRL_WRITE/LED_CTRL
  +--> _LED_BLINK_EN_WRITE/LED_BLINK_EN
  +--> LED_BLINK_START/LED_BLINK
  +--> _LED_BLINK_WRITECOMPARE/LED_BLINK
  +--> UART_RS485_STOP/UART_RS485
  +--> UART_RS485_START/UART_RS485
  +--> UART_RS485_INIT/UART_RS485
  +--> UART_RS485_CLEARRXBUFFER/UART_RS485
  +--> UART_RS485_CLEARTXBUFFER/UART_RS485
  +--> _ISR_RS485_RX_STARTEX/ISR_RS485_RX
  +--> ADC_START/ADC
  +--> _ADC_SOC_WRITE/ADC_SOC
  +--> _DMA_DMAINITIALIZE/DMA_DMA
  +--> CYDMATDALLOCATE/CYDMAC
  +--> _CYDMATDSETCONFIGURATION/CYDMAC
  +--> _CYDMATDSETADDRESS/CYDMAC
  +--> _CYDMACHSETINITIALTD/CYDMAC
  +--> _CYDMACHENABLE/CYDMAC
  +--> _RS485_CTS_WRITE/RS485_CTS
  +--> MY_TIMER_START/MY_TIMER
  +--> PACER_TIMER_START/PACER_TIMER
  +--> _RESET_FF_WRITE/RESET_FF
  +--> FUNCTION_SCHEDULER/INTERRUPTIONS
  +--> FF_STATUS_READ/FF_STATUS
  +--> INTERRUPT_MANAGER/INTERRUPTIONS
  +--> UART_RS485_READRXSTATUS/UART_RS485

EEPROM_START/EEPROM                           ----- -----  ----- -----  ----- -----
  +--> EEPROM_ENABLE/EEPROM

EEPROM_ENABLE/EEPROM                          ----- -----  ----- -----  ----- -----
  +--> CYSETTEMP/CYFLASH
  +--> CYEEPROM_START/CYFLASH

LX51 LINKER/LOCATER V4.64.0.0                                                         02/16/2023  11:05:26  PAGE 14


CYSETTEMP/CYFLASH                             ----- -----  ----- -----  004EH 004EH
  +--> CYFLASHGETSPCALGORITHM/CYFLASH
  +--> CYSETTEMPINT/CYFLASH

CYFLASHGETSPCALGORITHM/CYFLASH                ----- -----  ----- -----  004FH 004FH
  +--> CYSPCSTART/CYSPC
  +--> CYSPCLOCK/CYSPC
  +--> CYSPCGETALGORITHM/CYSPC
  +--> CYDELAYUS/CYBOOTASMKEIL
  +--> CYSPCUNLOCK/CYSPC

CYSPCSTART/CYSPC                              ----- -----  ----- -----  ----- -----
  +--> CYENTERCRITICALSECTION/CYBOOTASMKEIL
  +--> CYEXITCRITICALSECTION/CYBOOTASMKEIL

CYENTERCRITICALSECTION/CYBOOTASMKEIL          ----- -----  ----- -----  ----- -----

CYEXITCRITICALSECTION/CYBOOTASMKEIL           ----- -----  ----- -----  ----- -----

CYSPCLOCK/CYSPC                               ----- -----  ----- -----  0053H 0053H
  +--> CYENTERCRITICALSECTION/CYBOOTASMKEIL
  +--> CYEXITCRITICALSECTION/CYBOOTASMKEIL

CYSPCGETALGORITHM/CYSPC                       ----- -----  ----- -----  ----- -----

CYDELAYUS/CYBOOTASMKEIL                       ----- -----  ----- -----  ----- -----
  +--> CYDELAYCYCLES/CYBOOTASMKEIL

CYSPCUNLOCK/CYSPC                             ----- -----  ----- -----  ----- -----
  +--> CYENTERCRITICALSECTION/CYBOOTASMKEIL
  +--> CYEXITCRITICALSECTION/CYBOOTASMKEIL

CYSETTEMPINT/CYFLASH                          ----- -----  ----- -----  004FH 004FH
  +--> CYSPCSTART/CYSPC
  +--> CYSPCLOCK/CYSPC
  +--> _CYSPCGETTEMP/CYSPC
  +--> _CYSPCREADDATA/CYSPC
  +--> CYDELAYUS/CYBOOTASMKEIL
  +--> CYSPCUNLOCK/CYSPC

_CYSPCGETTEMP/CYSPC                           ----- -----  ----- -----  ----- -----

_CYSPCREADDATA/CYSPC                          ----- -----  ----- -----  0050H 0054H
  +--> CYDELAYUS/CYBOOTASMKEIL

CYEEPROM_START/CYFLASH                        ----- -----  ----- -----  ----- -----
  +--> CYENTERCRITICALSECTION/CYBOOTASMKEIL
  +--> CYEXITCRITICALSECTION/CYBOOTASMKEIL

MEMRECALL/COMMAND_PROCESSING                  ----- -----  ----- -----  ----- -----
  +--> MEMRESTORE/COMMAND_PROCESSING

MEMRESTORE/COMMAND_PROCESSING                 ----- -----  ----- -----  ----- -----
  +--> MEMINIT/COMMAND_PROCESSING
  +--> _MEMSTORE/COMMAND_PROCESSING

MEMINIT/COMMAND_PROCESSING                    ----- -----  ----- -----  ----- -----
  +--> _MEMSTORE/COMMAND_PROCESSING

_MEMSTORE/COMMAND_PROCESSING                  ----- -----  ----- -----  0047H 004DH
  +--> ISR_RS485_RX_DISABLE/ISR_RS485_RX
  +--> CYSETTEMP/CYFLASH
  +--> _EEPROM_WRITE/EEPROM
  +--> ISR_RS485_RX_ENABLE/ISR_RS485_RX

LX51 LINKER/LOCATER V4.64.0.0                                                         02/16/2023  11:05:26  PAGE 15


ISR_RS485_RX_DISABLE/ISR_RS485_RX             ----- -----  ----- -----  ----- -----

_EEPROM_WRITE/EEPROM                          ----- -----  ----- -----  004EH 0052H
  +--> CYSPCSTART/CYSPC
  +--> CYSPCLOCK/CYSPC
  +--> _CYSPCLOADROW/CYSPC
  +--> _CYSPCWRITEROW/CYSPC
  +--> CYSPCUNLOCK/CYSPC

_CYSPCLOADROW/CYSPC                           ----- -----  ----- -----  0053H 0059H

_CYSPCWRITEROW/CYSPC                          ----- -----  ----- -----  0053H 0057H

ISR_RS485_RX_ENABLE/ISR_RS485_RX              ----- -----  ----- -----  ----- -----

_?CYDELAY/CYLIB                               ----- -----  ----- -----  ----- -----
  +--> CYDELAYCYCLES/CYBOOTASMKEIL

_FTDI_ENABLE_REG_WRITE/FTDI_ENABLE_REG        ----- -----  ----- -----  ----- -----

_LED_CTRL_WRITE/LED_CTRL                      ----- -----  ----- -----  ----- -----

_LED_BLINK_EN_WRITE/LED_BLINK_EN              ----- -----  ----- -----  ----- -----

LED_BLINK_START/LED_BLINK                     ----- -----  ----- -----  ----- -----
  +--> LED_BLINK_INIT/LED_BLINK
  +--> LED_BLINK_ENABLE/LED_BLINK

LED_BLINK_INIT/LED_BLINK                      ----- -----  ----- -----  ----- -----
  +--> _LED_BLINK_WRITECOUNTER/LED_BLINK
  +--> _LED_BLINK_WRITEPERIOD/LED_BLINK
  +--> _LED_BLINK_WRITECOMPARE/LED_BLINK

_LED_BLINK_WRITECOUNTER/LED_BLINK             ----- -----  ----- -----  ----- -----

_LED_BLINK_WRITEPERIOD/LED_BLINK              ----- -----  ----- -----  ----- -----

_LED_BLINK_WRITECOMPARE/LED_BLINK             ----- -----  ----- -----  ----- -----

LED_BLINK_ENABLE/LED_BLINK                    ----- -----  ----- -----  ----- -----

UART_RS485_STOP/UART_RS485                    ----- -----  ----- -----  ----- -----
  +--> CYENTERCRITICALSECTION/CYBOOTASMKEIL
  +--> CYEXITCRITICALSECTION/CYBOOTASMKEIL

UART_RS485_START/UART_RS485                   ----- -----  ----- -----  ----- -----
  +--> UART_RS485_INIT/UART_RS485
  +--> UART_RS485_ENABLE/UART_RS485

UART_RS485_INIT/UART_RS485                    ----- -----  ----- -----  ----- -----
  +--> _CYINTSETVECTOR/CYLIB
  +--> _CYINTSETPRIORITY/CYLIB

_CYINTSETVECTOR/CYLIB                         ----- -----  ----- -----  0003H 0007H
  +--> CYREAD16/CYMEM
  +--> CYWRITE16/CYMEM

CYREAD16/CYMEM                                ----- -----  ----- -----  ----- -----

_CYINTSETPRIORITY/CYLIB                       ----- -----  ----- -----  ----- -----

UART_RS485_ENABLE/UART_RS485                  ----- -----  ----- -----  ----- -----
  +--> CYENTERCRITICALSECTION/CYBOOTASMKEIL
  +--> CYEXITCRITICALSECTION/CYBOOTASMKEIL

LX51 LINKER/LOCATER V4.64.0.0                                                         02/16/2023  11:05:26  PAGE 16


UART_RS485_CLEARRXBUFFER/UART_RS485           ----- -----  ----- -----  ----- -----
  +--> CYENTERCRITICALSECTION/CYBOOTASMKEIL
  +--> CYEXITCRITICALSECTION/CYBOOTASMKEIL

UART_RS485_CLEARTXBUFFER/UART_RS485           ----- -----  ----- -----  ----- -----
  +--> CYENTERCRITICALSECTION/CYBOOTASMKEIL
  +--> CYEXITCRITICALSECTION/CYBOOTASMKEIL

_ISR_RS485_RX_STARTEX/ISR_RS485_RX            ----- -----  ----- -----  0003H 0004H
  +--> ISR_RS485_RX_DISABLE/ISR_RS485_RX
  +--> _ISR_RS485_RX_SETVECTOR/ISR_RS485_RX
  +--> _ISR_RS485_RX_SETPRIORITY/ISR_RS485_RX
  +--> ISR_RS485_RX_ENABLE/ISR_RS485_RX

_ISR_RS485_RX_SETVECTOR/ISR_RS485_RX          ----- -----  ----- -----  ----- -----
  +--> CYWRITE16/CYMEM

_ISR_RS485_RX_SETPRIORITY/ISR_RS485_RX        ----- -----  ----- -----  ----- -----

ADC_START/ADC                                 ----- -----  ----- -----  ----- -----
  +--> ADC_INIT/ADC
  +--> ADC_ENABLE/ADC

ADC_INIT/ADC                                  ----- -----  ----- -----  ----- -----
  +--> _ADC_EXT_CP_CLK_SETMODEREGISTER/ADC_EXT_CP_CLK
  +--> _ADC_THEACLK_SETMODEREGISTER/ADC_THEACLK
  +--> _CYINTSETPRIORITY/CYLIB
  +--> _ADC_GAINCOMPENSATION/ADC
  +--> CYWRITE16/CYMEM
  +--> _ADC_INITCONFIG/ADC

_ADC_EXT_CP_CLK_SETMODEREGISTER/ADC_EXT_+     ----- -----  ----- -----  ----- -----
... CP_CLK

_ADC_THEACLK_SETMODEREGISTER/ADC_THEACLK      ----- -----  ----- -----  ----- -----

_ADC_GAINCOMPENSATION/ADC                     ----- -----  ----- -----  0003H 000AH
  +--> CYREAD8/CYMEM

_ADC_INITCONFIG/ADC                           ----- -----  ----- -----  ----- -----
  +--> _ADC_SETDSMREF0REG/ADC
  +--> _ADC_AMUX_SELECT/ADC_AMUX
  +--> _ADC_EXT_CP_CLK_SETDIVIDERREGISTER/ADC_EXT_CP_CLK
  +--> _ADC_THEACLK_SETDIVIDERREGISTER/ADC_THEACLK
  +--> _CYINTSETVECTOR/CYLIB

_ADC_SETDSMREF0REG/ADC                        ----- -----  ----- -----  0003H 0004H
  +--> CYENTERCRITICALSECTION/CYBOOTASMKEIL
  +--> CYDELAYUS/CYBOOTASMKEIL
  +--> CYEXITCRITICALSECTION/CYBOOTASMKEIL

_ADC_AMUX_SELECT/ADC_AMUX                     ----- -----  ----- -----  0003H 0003H
  +--> ADC_AMUX_START/ADC_AMUX
  +--> _ADC_AMUX_SET/CYFITTER_CFG

ADC_AMUX_START/ADC_AMUX                       ----- -----  ----- -----  0004H 0004H
  +--> _ADC_AMUX_UNSET/CYFITTER_CFG

_ADC_AMUX_UNSET/CYFITTER_CFG                  ----- -----  ----- -----  ----- -----
  +--> ?CO?CYFITTER_CFG

_ADC_AMUX_SET/CYFITTER_CFG                    ----- -----  ----- -----  ----- -----
  +--> ?CO?CYFITTER_CFG

_ADC_EXT_CP_CLK_SETDIVIDERREGISTER/ADC_E+     ----- -----  ----- -----  0003H 0009H
LX51 LINKER/LOCATER V4.64.0.0                                                         02/16/2023  11:05:26  PAGE 17


... XT_CP_CLK
  +--> ADC_EXT_CP_CLK_GETSOURCEREGISTER/ADC_EXT_CP_CLK
  +--> ADC_EXT_CP_CLK_GETDIVIDERREGISTER/ADC_EXT_CP_CLK
  +--> CYWRITE16/CYMEM

ADC_EXT_CP_CLK_GETSOURCEREGISTER/ADC_EXT+     ----- -----  ----- -----  ----- -----
... _CP_CLK

ADC_EXT_CP_CLK_GETDIVIDERREGISTER/ADC_EX+     ----- -----  ----- -----  ----- -----
... T_CP_CLK
  +--> CYREAD16/CYMEM

_ADC_THEACLK_SETDIVIDERREGISTER/ADC_THEA+     ----- -----  ----- -----  0003H 0009H
... CLK
  +--> ADC_THEACLK_GETSOURCEREGISTER/ADC_THEACLK
  +--> ADC_THEACLK_GETDIVIDERREGISTER/ADC_THEACLK
  +--> CYWRITE16/CYMEM

ADC_THEACLK_GETSOURCEREGISTER/ADC_THEACL+     ----- -----  ----- -----  ----- -----
... K

ADC_THEACLK_GETDIVIDERREGISTER/ADC_THEAC+     ----- -----  ----- -----  ----- -----
... LK
  +--> CYREAD16/CYMEM

ADC_ENABLE/ADC                                ----- -----  ----- -----  0003H 0004H
  +--> CYENTERCRITICALSECTION/CYBOOTASMKEIL
  +--> CYDELAYUS/CYBOOTASMKEIL
  +--> CYEXITCRITICALSECTION/CYBOOTASMKEIL

_ADC_SOC_WRITE/ADC_SOC                        ----- -----  ----- -----  ----- -----

_DMA_DMAINITIALIZE/DMA_DMA                    ----- -----  ----- -----  0003H 0008H
  +--> _CYDMACHSETCONFIGURATION/CYDMAC
  +--> _CYDMACHSETEXTENDEDADDRESS/CYDMAC
  +--> _CYDMACHPRIORITY/CYDMAC

_CYDMACHSETCONFIGURATION/CYDMAC               ----- -----  ----- -----  0009H 000EH

_CYDMACHSETEXTENDEDADDRESS/CYDMAC             ----- -----  ----- -----  0009H 0010H
  +--> CYWRITE16/CYMEM

_CYDMACHPRIORITY/CYDMAC                       ----- -----  ----- -----  ----- -----

CYDMATDALLOCATE/CYDMAC                        ----- -----  ----- -----  0003H 0003H
  +--> CYENTERCRITICALSECTION/CYBOOTASMKEIL
  +--> CYEXITCRITICALSECTION/CYBOOTASMKEIL

_CYDMATDSETCONFIGURATION/CYDMAC               ----- -----  ----- -----  0003H 000AH
  +--> CYWRITE16/CYMEM

_CYDMATDSETADDRESS/CYDMAC                     ----- -----  ----- -----  0003H 000AH
  +--> CYWRITE16/CYMEM

_CYDMACHSETINITIALTD/CYDMAC                   ----- -----  ----- -----  ----- -----

_CYDMACHENABLE/CYDMAC                         ----- -----  ----- -----  ----- -----

_RS485_CTS_WRITE/RS485_CTS                    ----- -----  ----- -----  ----- -----

MY_TIMER_START/MY_TIMER                       ----- -----  ----- -----  ----- -----
  +--> MY_TIMER_INIT/MY_TIMER
  +--> MY_TIMER_ENABLE/MY_TIMER

MY_TIMER_INIT/MY_TIMER                        ----- -----  ----- -----  ----- -----
LX51 LINKER/LOCATER V4.64.0.0                                                         02/16/2023  11:05:26  PAGE 18


  +--> _MY_TIMER_WRITEPERIOD/MY_TIMER
  +--> _MY_TIMER_WRITECOUNTER/MY_TIMER
  +--> CYENTERCRITICALSECTION/CYBOOTASMKEIL
  +--> CYEXITCRITICALSECTION/CYBOOTASMKEIL
  +--> MY_TIMER_CLEARFIFO/MY_TIMER
  +--> _MY_TIMER_SETINTERRUPTMODE/MY_TIMER

_MY_TIMER_WRITEPERIOD/MY_TIMER                ----- -----  ----- -----  ----- -----
  +--> CYWRITE24/CYMEM

CYWRITE24/CYMEM                               ----- -----  ----- -----  ----- -----

_MY_TIMER_WRITECOUNTER/MY_TIMER               ----- -----  ----- -----  ----- -----
  +--> CYWRITE24/CYMEM

MY_TIMER_CLEARFIFO/MY_TIMER                   ----- -----  ----- -----  ----- -----
  +--> MY_TIMER_READSTATUSREGISTER/MY_TIMER
  +--> MY_TIMER_READCAPTURE/MY_TIMER

MY_TIMER_READSTATUSREGISTER/MY_TIMER          ----- -----  ----- -----  ----- -----

MY_TIMER_READCAPTURE/MY_TIMER                 ----- -----  ----- -----  ----- -----
  +--> CYREAD24/CYMEM

CYREAD24/CYMEM                                ----- -----  ----- -----  ----- -----

_MY_TIMER_SETINTERRUPTMODE/MY_TIMER           ----- -----  ----- -----  ----- -----

MY_TIMER_ENABLE/MY_TIMER                      ----- -----  ----- -----  ----- -----

PACER_TIMER_START/PACER_TIMER                 ----- -----  ----- -----  ----- -----
  +--> PACER_TIMER_INIT/PACER_TIMER
  +--> PACER_TIMER_ENABLE/PACER_TIMER

PACER_TIMER_INIT/PACER_TIMER                  ----- -----  ----- -----  ----- -----
  +--> _PACER_TIMER_WRITEPERIOD/PACER_TIMER
  +--> _PACER_TIMER_WRITECOUNTER/PACER_TIMER
  +--> _PACER_TIMER_SETINTERRUPTMODE/PACER_TIMER

_PACER_TIMER_WRITEPERIOD/PACER_TIMER          ----- -----  ----- -----  ----- -----
  +--> CYWRITE16/CYMEM

_PACER_TIMER_WRITECOUNTER/PACER_TIMER         ----- -----  ----- -----  ----- -----
  +--> CYWRITE16/CYMEM

_PACER_TIMER_SETINTERRUPTMODE/PACER_TIME+     ----- -----  ----- -----  ----- -----
... R

PACER_TIMER_ENABLE/PACER_TIMER                ----- -----  ----- -----  ----- -----

_RESET_FF_WRITE/RESET_FF                      ----- -----  ----- -----  ----- -----

FUNCTION_SCHEDULER/INTERRUPTIONS              ----- -----  ----- -----  ----- -----
  +--> MY_TIMER_READCOUNTER/MY_TIMER
  +--> _ADC_SOC_WRITE/ADC_SOC
  +--> INTERRUPT_MANAGER/INTERRUPTIONS
  +--> MOTOR_CONTROL/INTERRUPTIONS
  +--> ANALOG_READ_END/INTERRUPTIONS
  +--> COMMREADMEASFROMSH/COMMAND_PROCESSING
  +--> CHECK_REST_POSITION/UTILS
  +--> DRIVE_SH/COMMAND_PROCESSING
  +--> DRIVE_FORCE_PROPRIO_FB/COMMAND_PROCESSING
  +--> DRIVE_FORCE_FB/COMMAND_PROCESSING
  +--> DRIVE_PROPRIO_FB/COMMAND_PROCESSING
  +--> DRIVE_VIBROTACTILE_FB/COMMAND_PROCESSING
LX51 LINKER/LOCATER V4.64.0.0                                                         02/16/2023  11:05:26  PAGE 19


  +--> CALIBRATION/UTILS
  +--> _MY_TIMER_WRITECOUNTER/MY_TIMER

MY_TIMER_READCOUNTER/MY_TIMER                 ----- -----  ----- -----  ----- -----
  +--> CYREAD24/CYMEM

INTERRUPT_MANAGER/INTERRUPTIONS               20H.0 20H.0  0028H 0029H  ----- -----
  +--> UART_RS485_GETRXBUFFERSIZE/UART_RS485
  +--> UART_RS485_GETCHAR/UART_RS485
  +--> _INFOGET/COMMAND_PROCESSING
  +--> COMMPROCESS/COMMAND_PROCESSING
  +--> _RS485_CTS_WRITE/RS485_CTS

UART_RS485_GETRXBUFFERSIZE/UART_RS485         ----- -----  ----- -----  ----- -----

UART_RS485_GETCHAR/UART_RS485                 ----- -----  ----- -----  ----- -----

_INFOGET/COMMAND_PROCESSING                   ----- -----  ----- -----  0037H 0740H
  +--> ?CO?COMMAND_PROCESSING
  +--> _INFOPREPARE/COMMAND_PROCESSING
  +--> _UART_RS485_PUTSTRING/UART_RS485

?CO?COMMAND_PROCESSING                        ----- -----  ----- -----  ----- -----

_INFOPREPARE/COMMAND_PROCESSING               ----- -----  ----- -----  0741H 07A9H
  +--> ?CO?COMMAND_PROCESSING
  +--> _STRCAT/STRCAT
  +--> PRINTF/PRINTF

_STRCAT/STRCAT                                ----- -----  ----- -----  0CA8H 0CB0H

PRINTF/PRINTF                                 20H.1 21H.1  002BH 002FH  07AAH 07D9H
  +--> PUTCHAR/PUTCHAR

PUTCHAR/PUTCHAR                               ----- -----  ----- -----  ----- -----

_UART_RS485_PUTSTRING/UART_RS485              ----- -----  ----- -----  0741H 0743H
  +--> _UART_RS485_PUTCHAR/UART_RS485

_UART_RS485_PUTCHAR/UART_RS485                ----- -----  ----- -----  ----- -----

COMMPROCESS/COMMAND_PROCESSING                ----- -----  002AH 002AH  ----- -----
  +--> _LCRCHECKSUM/COMMAND_PROCESSING
  +--> CMD_ACTIVATE/COMMAND_PROCESSING
  +--> CMD_SET_INPUTS/COMMAND_PROCESSING
  +--> CMD_GET_MEASUREMENTS/COMMAND_PROCESSING
  +--> CMD_GET_JOYSTICK/COMMAND_PROCESSING
  +--> CMD_SET_EXT_IMU_READINGS/COMMAND_PROCESSING
  +--> CMD_GET_EMG/COMMAND_PROCESSING
  +--> CMD_SET_BAUDRATE/COMMAND_PROCESSING
  +--> CMD_GET_INPUTS/COMMAND_PROCESSING
  +--> _INFOGET/COMMAND_PROCESSING
  +--> SETZEROS/COMMAND_PROCESSING
  +--> _GET_PARAM_LIST/COMMAND_PROCESSING
  +--> CMD_PING/COMMAND_PROCESSING
  +--> CMD_STORE_PARAMS/COMMAND_PROCESSING
  +--> _MEMSTORE/COMMAND_PROCESSING
  +--> _SENDACKNOWLEDGMENT/COMMAND_PROCESSING
  +--> MEMRESTORE/COMMAND_PROCESSING
  +--> MEMINIT/COMMAND_PROCESSING
  +--> _?CYDELAY/CYLIB
  +--> _FTDI_ENABLE_REG_WRITE/FTDI_ENABLE_REG
  +--> BOOTLOADABLE_LOAD/BOOTLOADABLE

_LCRCHECKSUM/COMMAND_PROCESSING               ----- -----  0047H 0048H  0CA8H 0CAAH
LX51 LINKER/LOCATER V4.64.0.0                                                         02/16/2023  11:05:26  PAGE 20



CMD_ACTIVATE/COMMAND_PROCESSING               ----- -----  ----- -----  ----- -----

CMD_SET_INPUTS/COMMAND_PROCESSING             ----- -----  ----- -----  ----- -----

CMD_GET_MEASUREMENTS/COMMAND_PROCESSING       ----- -----  002BH 002BH  0037H 003EH
  +--> _LCRCHECKSUM/COMMAND_PROCESSING
  +--> _COMMWRITE/COMMAND_PROCESSING

_COMMWRITE/COMMAND_PROCESSING                 ----- -----  0047H 0048H  0CA8H 0CACH
  +--> _UART_RS485_PUTCHAR/UART_RS485
  +--> UART_RS485_READTXSTATUS/UART_RS485
  +--> _RS485_CTS_WRITE/RS485_CTS

UART_RS485_READTXSTATUS/UART_RS485            ----- -----  ----- -----  ----- -----

CMD_GET_JOYSTICK/COMMAND_PROCESSING           ----- -----  ----- -----  0037H 003CH
  +--> _LCRCHECKSUM/COMMAND_PROCESSING
  +--> _COMMWRITE/COMMAND_PROCESSING

CMD_SET_EXT_IMU_READINGS/COMMAND_PROCESS+     ----- -----  ----- -----  ----- -----
... ING

CMD_GET_EMG/COMMAND_PROCESSING                ----- -----  ----- -----  0037H 003CH
  +--> _LCRCHECKSUM/COMMAND_PROCESSING
  +--> _COMMWRITE/COMMAND_PROCESSING

CMD_SET_BAUDRATE/COMMAND_PROCESSING           ----- -----  ----- -----  ----- -----
  +--> _CLOCK_UART_SETDIVIDERREGISTER/CLOCK_UART

_CLOCK_UART_SETDIVIDERREGISTER/CLOCK_UAR+     ----- -----  ----- -----  0037H 003DH
... T
  +--> CLOCK_UART_GETSOURCEREGISTER/CLOCK_UART
  +--> CLOCK_UART_GETDIVIDERREGISTER/CLOCK_UART
  +--> CYWRITE16/CYMEM

CLOCK_UART_GETSOURCEREGISTER/CLOCK_UART       ----- -----  ----- -----  ----- -----

CLOCK_UART_GETDIVIDERREGISTER/CLOCK_UART      ----- -----  ----- -----  ----- -----
  +--> CYREAD16/CYMEM

CMD_GET_INPUTS/COMMAND_PROCESSING             ----- -----  ----- -----  0037H 003CH
  +--> _LCRCHECKSUM/COMMAND_PROCESSING
  +--> _COMMWRITE/COMMAND_PROCESSING

SETZEROS/COMMAND_PROCESSING                   ----- -----  002BH 002BH  ----- -----
  +--> _SENDACKNOWLEDGMENT/COMMAND_PROCESSING

_SENDACKNOWLEDGMENT/COMMAND_PROCESSING        ----- -----  ----- -----  0047H 0048H
  +--> _COMMWRITE/COMMAND_PROCESSING

_GET_PARAM_LIST/COMMAND_PROCESSING            ----- -----  002BH 0046H  0037H 0CA7H
  +--> ?CO?COMMAND_PROCESSING
  +--> _STRLEN/STRLEN
  +--> _STRCAT/STRCAT
  +--> _LCRCHECKSUM/COMMAND_PROCESSING
  +--> _COMMWRITE/COMMAND_PROCESSING

_STRLEN/STRLEN                                ----- -----  ----- -----  ----- -----

CMD_PING/COMMAND_PROCESSING                   ----- -----  ----- -----  0037H 0038H
  +--> _COMMWRITE/COMMAND_PROCESSING

CMD_STORE_PARAMS/COMMAND_PROCESSING           ----- -----  002BH 002EH  0037H 0046H
  +--> _MEMSTORE/COMMAND_PROCESSING
LX51 LINKER/LOCATER V4.64.0.0                                                         02/16/2023  11:05:26  PAGE 21


  +--> _COMMWRITE_OLD_ID/COMMAND_PROCESSING
  +--> _SENDACKNOWLEDGMENT/COMMAND_PROCESSING

_COMMWRITE_OLD_ID/COMMAND_PROCESSING          ----- -----  002FH 0030H  0047H 004CH
  +--> _UART_RS485_PUTCHAR/UART_RS485
  +--> UART_RS485_READTXSTATUS/UART_RS485
  +--> _RS485_CTS_WRITE/RS485_CTS

BOOTLOADABLE_LOAD/BOOTLOADABLE                ----- -----  ----- -----  ----- -----
  +--> CYSOFTWARERESET/CYLIB

CYSOFTWARERESET/CYLIB                         ----- -----  ----- -----  ----- -----

MOTOR_CONTROL/INTERRUPTIONS                   ----- -----  0022H 0031H  ----- -----

ANALOG_READ_END/INTERRUPTIONS                 ----- -----  0022H 0025H  ----- -----
  +--> ADC_STATUS_READ/ADC_STATUS
  +--> INTERRUPT_MANAGER/INTERRUPTIONS
  +--> _FILTER_VOLTAGE/UTILS
  +--> _FILTER_CH1/UTILS
  +--> _LED_CTRL_WRITE/LED_CTRL
  +--> _LED_BLINK_EN_WRITE/LED_BLINK_EN
  +--> _FILTER_CH2/UTILS
  +--> DEACTIVATE_SLAVES/COMMAND_PROCESSING

ADC_STATUS_READ/ADC_STATUS                    ----- -----  ----- -----  ----- -----

_FILTER_VOLTAGE/UTILS                         ----- -----  ----- -----  ----- -----

_FILTER_CH1/UTILS                             ----- -----  ----- -----  0003H 0006H

_FILTER_CH2/UTILS                             ----- -----  ----- -----  0003H 0006H

DEACTIVATE_SLAVES/COMMAND_PROCESSING          ----- -----  ----- -----  0003H 000DH
  +--> _LCRCHECKSUM/COMMAND_PROCESSING
  +--> _COMMWRITE/COMMAND_PROCESSING

COMMREADMEASFROMSH/COMMAND_PROCESSING         ----- -----  ----- -----  0007H 001CH
  +--> _COMMWRITEID/COMMAND_PROCESSING
  +--> MY_TIMER_READCOUNTER/MY_TIMER
  +--> INTERRUPT_MANAGER/INTERRUPTIONS

_COMMWRITEID/COMMAND_PROCESSING               ----- -----  ----- -----  0037H 003CH
  +--> _UART_RS485_PUTCHAR/UART_RS485
  +--> UART_RS485_READTXSTATUS/UART_RS485

CHECK_REST_POSITION/UTILS                     ----- -----  ----- -----  0003H 000AH

DRIVE_SH/COMMAND_PROCESSING                   ----- -----  ----- -----  0003H 0009H
  +--> _LCRCHECKSUM/COMMAND_PROCESSING
  +--> _COMMWRITEID/COMMAND_PROCESSING

DRIVE_FORCE_PROPRIO_FB/COMMAND_PROCESSIN+     ----- -----  0022H 0027H  0003H 0018H
... G
  +--> COMMREADRESCURRFROMSH/COMMAND_PROCESSING
  +--> _LCRCHECKSUM/COMMAND_PROCESSING
  +--> _COMMWRITEID/COMMAND_PROCESSING

COMMREADRESCURRFROMSH/COMMAND_PROCESSING      ----- -----  ----- -----  0019H 0036H
  +--> _COMMWRITEID/COMMAND_PROCESSING
  +--> MY_TIMER_READCOUNTER/MY_TIMER
  +--> INTERRUPT_MANAGER/INTERRUPTIONS

DRIVE_FORCE_FB/COMMAND_PROCESSING             ----- -----  0022H 0027H  0003H 000EH
  +--> COMMREADRESCURRFROMSH/COMMAND_PROCESSING
LX51 LINKER/LOCATER V4.64.0.0                                                         02/16/2023  11:05:26  PAGE 22


  +--> _LCRCHECKSUM/COMMAND_PROCESSING
  +--> _COMMWRITEID/COMMAND_PROCESSING

DRIVE_PROPRIO_FB/COMMAND_PROCESSING           ----- -----  0022H 0027H  0003H 0006H
  +--> COMMREADMEASFROMSH/COMMAND_PROCESSING
  +--> _LCRCHECKSUM/COMMAND_PROCESSING
  +--> _COMMWRITEID/COMMAND_PROCESSING

DRIVE_VIBROTACTILE_FB/COMMAND_PROCESSING      ----- -----  ----- -----  ----- -----
  +--> COMMREADIMUSFROMSH/COMMAND_PROCESSING

COMMREADIMUSFROMSH/COMMAND_PROCESSING         ----- -----  ----- -----  0003H 0032H
  +--> _COMMWRITEID/COMMAND_PROCESSING
  +--> MY_TIMER_READCOUNTER/MY_TIMER
  +--> INTERRUPT_MANAGER/INTERRUPTIONS

CALIBRATION/UTILS                             ----- -----  ----- -----  ----- -----

FF_STATUS_READ/FF_STATUS                      ----- -----  ----- -----  ----- -----

UART_RS485_READRXSTATUS/UART_RS485            ----- -----  ----- -----  ----- -----

?C_INITSEG                                    ----- -----  ----- -----  ----- -----

*** NEW ROOT ********************************

UART_RS485_RXISR/UART_RS485_INT               ----- -----  ----- -----  ----- -----

*** NEW ROOT ********************************

ADC_ISR1/ADC_INT                              ----- -----  ----- -----  ----- -----

*** NEW ROOT ********************************

ADC_ISR2/ADC_INT                              ----- -----  ----- -----  ----- -----

*** NEW ROOT ********************************

ADC_ISR3/ADC_INT                              ----- -----  ----- -----  ----- -----

*** NEW ROOT ********************************

ADC_ISR4/ADC_INT                              ----- -----  ----- -----  ----- -----



PUBLIC SYMBOLS OF MODULE:  .\DP8051_Keil_951\Release\hand_firmware_micro.omf (COMMAND_PROCESSING)


      VALUE       CLASS    TYPE      PUBLIC SYMBOL NAME
      =================================================
*DEL*:00000000H   XDATA    BYTE      ?_Bootloadable_SetFlashByte?BYTE
*DEL*:00000000H   XDATA    BYTE      ?_calc_turns_fcn?BYTE
      02000047H   XDATA    BYTE      ?_commWrite_old_id?BYTE
      02000037H   XDATA    BYTE      ?_commWriteID?BYTE
      02000005H   XDATA    BYTE      ?_cyconfigcpy?BYTE
      02000009H   XDATA    BYTE      ?_CyDmaChSetConfiguration?BYTE
*DEL*:00000000H   XDATA    BYTE      ?_CyDmaChStatus?BYTE
*DEL*:00000000H   XDATA    BYTE      ?_CyDmaTdGetAddress?BYTE
*DEL*:00000000H   XDATA    BYTE      ?_CyDmaTdGetConfiguration?BYTE
      02000003H   XDATA    BYTE      ?_CyDmaTdSetConfiguration?BYTE
*DEL*:00000000H   XDATA    BYTE      ?_CySpcEraseRow?BYTE
*DEL*:00000000H   XDATA    BYTE      ?_CySpcLoadMultiByte?BYTE
      02000053H   XDATA    BYTE      ?_CySpcLoadRow?BYTE
*DEL*:00000000H   XDATA    BYTE      ?_CySpcLoadRowFull?BYTE
LX51 LINKER/LOCATER V4.64.0.0                                                         02/16/2023  11:05:26  PAGE 23


      02000053H   XDATA    BYTE      ?_CySpcWriteRow?BYTE
*DEL*:00000000H   XDATA    BYTE      ?_CyWriteRowFull?BYTE
      02000003H   XDATA    BYTE      ?_DMA_DmaInitialize?BYTE
*DEL*:00000000H   XDATA    BYTE      ?_my_mod?BYTE
      020007AAH   XDATA    ---       ?_PRINTF?BYTE
      020007AAH   XDATA    ---       ?_SPRINTF?BYTE
      02000CA8H   XDATA    ---       ?_strcat?BYTE
      01006E1EH   CODE     ---       ?C?ADDXBP
      01006943H   CODE     ---       ?C?CASTF
      01006DF8H   CODE     ---       ?C?CCASE
      01006B8FH   CODE     ---       ?C?CLDOPTR
      01006B76H   CODE     ---       ?C?CLDPTR
      00000000H   NUMBER   ---       ?C?CODESEG
      01006F2BH   CODE     ---       ?C?COPYAMD
      01006BBCH   CODE     ---       ?C?CSTPTR
      0100690FH   CODE     ---       ?C?FCASTC
      0100690AH   CODE     ---       ?C?FCASTI
      01006905H   CODE     ---       ?C?FCASTL
      010065F5H   CODE     ---       ?C?FPADD
      0100688EH   CODE     ---       ?C?FPCMP
      0100688CH   CODE     ---       ?C?FPCMP3
      01006A01H   CODE     ---       ?C?FPCONVERT
      010067EFH   CODE     ---       ?C?FPDIV
      0100697AH   CODE     ---       ?C?FPGETOPN2
      010066E6H   CODE     ---       ?C?FPMUL
      010069AFH   CODE     ---       ?C?FPNANRESULT
      010069B9H   CODE     ---       ?C?FPOVERFLOW
      01006991H   CODE     ---       ?C?FPRESULT
      010069A5H   CODE     ---       ?C?FPRESULT2
      010069C4H   CODE     ---       ?C?FPROUND
      010065F1H   CODE     ---       ?C?FPSUB
      010069B6H   CODE     ---       ?C?FPUNDERFLOW
      01006B36H   CODE     ---       ?C?FTNPWR
      01007026H   CODE     ---       ?C?IILDX
      0100703CH   CODE     ---       ?C?ILDIX
      01006BCEH   CODE     ---       ?C?ISTPTR
      01006E42H   CODE     ---       ?C?LIMUL
      01007076H   CODE     ---       ?C?LLDCODE
      01007052H   CODE     ---       ?C?LLDIDATA
      0100706AH   CODE     ---       ?C?LLDPDATA
      01006D86H   CODE     ---       ?C?LLDPTR
      0100705EH   CODE     ---       ?C?LLDXDATA
      01006BEDH   CODE     ---       ?C?LMUL
      01006D17H   CODE     ---       ?C?LNEG
      01006D0AH   CODE     ---       ?C?LNOT
      01006D73H   CODE     ---       ?C?LSHL
      01007086H   CODE     ---       ?C?LSTIDATA
      01007092H   CODE     ---       ?C?LSTPDATA
      01006DA6H   CODE     ---       ?C?LSTPTR
      01006DC0H   CODE     ---       ?C?LSTXDATA
      01006DCCH   CODE     ---       ?C?OFFXADD
      01006DD8H   CODE     ---       ?C?PLDIXDATA
      01006DEFH   CODE     ---       ?C?PSTXDATA
      01006D25H   CODE     ---       ?C?SLCMP
      0100BD3EH   CODE     ---       ?C?SLDIV
      01006D5FH   CODE     ---       ?C?SLSHR
      01007009H   CODE     ---       ?C?STRCPYAMD
      01006D3BH   CODE     ---       ?C?ULCMP
      01006C78H   CODE     ---       ?C?ULDIV
      01006D4CH   CODE     ---       ?C?ULSHR
      00000000H   NUMBER   ---       ?C?XDATASEG
      00000000H   NUMBER   ---       ?C?XPAGE1RST
      00000093H   DATA     BYTE      ?C?XPAGE1SFR
      0100A60EH   CODE     ---       ?C_START
      01002600H   CODE     NEAR LAB  ?C_STARTUP
LX51 LINKER/LOCATER V4.64.0.0                                                         02/16/2023  11:05:26  PAGE 24


      00000049H   DATA     ---       ?C_XBP
      0100B375H   CODE     ---       _?CyDelay
*DEL*:00000000H   CODE     ---       _?CyDelayFreq
*DEL*:00000000H   CODE     ---       _?CyHalt
*DEL*:00000000H   CODE     ---       _ADC_AMux_FastSelect
      0100C388H   CODE     ---       _ADC_AMux_Select
      0100C0D0H   CODE     ---       _ADC_AMux_Set
      0100C06EH   CODE     ---       _ADC_AMux_Unset
*DEL*:00000000H   CODE     ---       _ADC_CountsTo_mVolts
*DEL*:00000000H   CODE     ---       _ADC_CountsTo_uVolts
*DEL*:00000000H   CODE     ---       _ADC_CountsTo_Volts
*DEL*:00000000H   CODE     ---       _ADC_Ext_CP_Clk_ClearModeRegister
      0100A073H   CODE     ---       _ADC_Ext_CP_Clk_SetDividerRegister
      0100C557H   CODE     ---       _ADC_Ext_CP_Clk_SetModeRegister
*DEL*:00000000H   CODE     ---       _ADC_Ext_CP_Clk_SetSourceRegister
*DEL*:00000000H   CODE     ---       _ADC_Ext_CP_Clk_StandbyPower
*DEL*:00000000H   CODE     ---       _ADC_IsEndConversion
*DEL*:00000000H   CODE     ---       _ADC_SelectConfiguration
*DEL*:00000000H   CODE     ---       _ADC_SetBufferGain
*DEL*:00000000H   CODE     ---       _ADC_SetCoherency
*DEL*:00000000H   CODE     ---       _ADC_SetGain
*DEL*:00000000H   CODE     ---       _ADC_SetGCOR
*DEL*:00000000H   CODE     ---       _ADC_SetOffset
      0100C66AH   CODE     ---       _ADC_SOC_Write
*DEL*:00000000H   CODE     ---       _ADC_STATUS_WriteMask
*DEL*:00000000H   CODE     ---       _ADC_theACLK_ClearModeRegister
      0100A404H   CODE     ---       _ADC_theACLK_SetDividerRegister
      0100C564H   CODE     ---       _ADC_theACLK_SetModeRegister
*DEL*:00000000H   CODE     ---       _ADC_theACLK_SetPhaseRegister
*DEL*:00000000H   CODE     ---       _ADC_theACLK_SetSourceRegister
*DEL*:00000000H   CODE     ---       _ADC_theACLK_StandbyPower
*DEL*:00000000H   CODE     ---       _Bootloadable_SetFlashByte
*DEL*:00000000H   CODE     ---       _calc_turns_fcn
*DEL*:00000000H   CODE     NEAR LAB  _cfg_write_bytes
*DEL*:00000000H   CODE     NEAR LAB  _cfg_write_bytes_code
*DEL*:00000000H   CODE     ---       _check_enc_data
*DEL*:00000000H   CODE     ---       _CLOCK_UART_ClearModeRegister
      0100A2D4H   CODE     ---       _CLOCK_UART_SetDividerRegister
*DEL*:00000000H   CODE     ---       _CLOCK_UART_SetModeRegister
*DEL*:00000000H   CODE     ---       _CLOCK_UART_SetSourceRegister
*DEL*:00000000H   CODE     ---       _CLOCK_UART_StandbyPower
      0100B260H   CODE     ---       _commWrite
      0100B1D3H   CODE     ---       _commWrite_old_id
      0100B507H   CODE     ---       _commWriteID
*DEL*:00000000H   CODE     ---       _CyBusClk_SetDivider
      0100BF9AH   CODE     NEAR LAB  _cyconfigcpy
*DEL*:00000000H   CODE     NEAR LAB  _cyconfigcpycode
*DEL*:00000000H   CODE     ---       _CyCpuClk_SetDivider
*DEL*:00000000H   CODE     NEAR LAB  _CyDelay
      0100C000H   CODE     NEAR LAB  _CyDelayCycles
      0100C190H   CODE     NEAR LAB  _CyDelayUs
*DEL*:00000000H   CODE     ---       _CyDmacClearError
*DEL*:00000000H   CODE     ---       _CyDmaChDisable
      0100BC18H   CODE     ---       _CyDmaChEnable
*DEL*:00000000H   CODE     ---       _CyDmaChFree
*DEL*:00000000H   CODE     ---       _CyDmaChGetRequest
      0100BDC3H   CODE     ---       _CyDmaChPriority
*DEL*:00000000H   CODE     ---       _CyDmaChRoundRobin
      0100B607H   CODE     ---       _CyDmaChSetConfiguration
      0100B680H   CODE     ---       _CyDmaChSetExtendedAddress
      0100C31DH   CODE     ---       _CyDmaChSetInitialTd
*DEL*:00000000H   CODE     ---       _CyDmaChSetRequest
*DEL*:00000000H   CODE     ---       _CyDmaChStatus
*DEL*:00000000H   CODE     ---       _CyDmaClearPendingDrq
*DEL*:00000000H   CODE     ---       _CyDmaTdFree
LX51 LINKER/LOCATER V4.64.0.0                                                         02/16/2023  11:05:26  PAGE 25


*DEL*:00000000H   CODE     ---       _CyDmaTdGetAddress
*DEL*:00000000H   CODE     ---       _CyDmaTdGetConfiguration
      0100B6F8H   CODE     ---       _CyDmaTdSetAddress
      0100B3FDH   CODE     ---       _CyDmaTdSetConfiguration
*DEL*:00000000H   CODE     ---       _CyEnableInts
      0100C3B9H   CODE     NEAR LAB  _CyExitCriticalSection
*DEL*:00000000H   CODE     ---       _CyFlash_EraseRow
*DEL*:00000000H   CODE     ---       _CyFlash_SetWaitCycles
*DEL*:00000000H   CODE     ---       _CyGetUniqueId
*DEL*:00000000H   CODE     ---       _CyILO_SetPowerMode
*DEL*:00000000H   CODE     ---       _CyILO_SetSource
*DEL*:00000000H   CODE     ---       _CyIMO_SetFreq
*DEL*:00000000H   CODE     ---       _CyIMO_SetSource
*DEL*:00000000H   CODE     ---       _CyIMO_Start
*DEL*:00000000H   CODE     ---       _CyIntGetPriority
*DEL*:00000000H   CODE     ---       _CyIntGetState
*DEL*:00000000H   CODE     ---       _CyIntGetVector
      0100C36FH   CODE     ---       _CyIntSetPriority
      0100BA84H   CODE     ---       _CyIntSetVector
*DEL*:00000000H   CODE     ---       _CyMasterClk_SetDivider
*DEL*:00000000H   CODE     ---       _CyMasterClk_SetSource
*DEL*:00000000H   CODE     NEAR LAB  _cymemzero
*DEL*:00000000H   CODE     ---       _CyPLL_OUT_SetPQ
*DEL*:00000000H   CODE     ---       _CyPLL_OUT_SetSource
*DEL*:00000000H   CODE     ---       _CyPLL_OUT_Start
*DEL*:00000000H   CODE     ---       _CyPmAltAct
*DEL*:00000000H   CODE     ---       _CyPmCtwSetInterval
*DEL*:00000000H   CODE     ---       _CyPmFtwSetInterval
*DEL*:00000000H   CODE     ---       _CyPmHibernateEx
*DEL*:00000000H   CODE     ---       _CyPmReadStatus
*DEL*:00000000H   CODE     ---       _CyPmSleep
      0100C4F5H   CODE     NEAR LAB  _cyread16
      0100C4F7H   CODE     NEAR LAB  _cyread16_nodpx
      0100C4AFH   CODE     NEAR LAB  _cyread24
      0100C4B1H   CODE     NEAR LAB  _cyread24_nodpx
*DEL*:00000000H   CODE     NEAR LAB  _cyread32
*DEL*:00000002H   CODE     NEAR LAB  _cyread32_nodpx
      0100C571H   CODE     NEAR LAB  _cyread8
      0100C573H   CODE     NEAR LAB  _cyread8_nodpx
*DEL*:00000000H   CODE     ---       _CySetFlashEEBuffer
*DEL*:00000000H   CODE     ---       _CySpcEraseRow
*DEL*:00000000H   CODE     ---       _CySpcEraseSector
      0100C15FH   CODE     ---       _CySpcGetTemp
*DEL*:00000000H   CODE     ---       _CySpcLoadMultiByte
      0100B770H   CODE     ---       _CySpcLoadRow
*DEL*:00000000H   CODE     ---       _CySpcLoadRowFull
      0100B91BH   CODE     ---       _CySpcReadData
      0100BAD8H   CODE     ---       _CySpcWriteRow
*DEL*:00000000H   CODE     ---       _CyUsbClk_SetSource
*DEL*:00000000H   CODE     ---       _CyVdLvAnalogEnable
*DEL*:00000000H   CODE     ---       _CyVdLvDigitEnable
*DEL*:00000000H   CODE     ---       _CyVdStickyStatus
*DEL*:00000000H   CODE     ---       _CyWdtStart
      0100C504H   CODE     NEAR LAB  _cywrite16
      0100C506H   CODE     NEAR LAB  _cywrite16_nodpx
      0100C4D4H   CODE     NEAR LAB  _cywrite24
      0100C4D6H   CODE     NEAR LAB  _cywrite24_nodpx
*DEL*:00000000H   CODE     NEAR LAB  _cywrite32
*DEL*:00000002H   CODE     NEAR LAB  _cywrite32_nodpx
      0100C57DH   CODE     NEAR LAB  _cywrite8
      0100C57FH   CODE     NEAR LAB  _cywrite8_nodpx
*DEL*:00000000H   CODE     ---       _CyWriteRowData
*DEL*:00000000H   CODE     ---       _CyWriteRowFull
*DEL*:00000000H   CODE     ---       _CyXTAL_32KHZ_SetPowerMode
*DEL*:00000000H   CODE     ---       _CyXTAL_SetFbVoltage
LX51 LINKER/LOCATER V4.64.0.0                                                         02/16/2023  11:05:26  PAGE 26


*DEL*:00000000H   CODE     ---       _CyXTAL_SetStartup
*DEL*:00000000H   CODE     ---       _CyXTAL_SetWdVoltage
*DEL*:00000000H   CODE     ---       _CyXTAL_Start
      0100BC63H   CODE     ---       _DMA_DmaInitialize
      01002604H   CODE     NEAR LAB  _dma_wait
*DEL*:00000000H   CODE     ---       _EEPROM_ByteWritePos
*DEL*:00000000H   CODE     ---       _EEPROM_EraseSector
*DEL*:00000000H   CODE     ---       _EEPROM_ReadByte
*DEL*:00000000H   CODE     ---       _EEPROM_StartErase
*DEL*:00000000H   CODE     ---       _EEPROM_StartWrite
      0100A83CH   CODE     ---       _EEPROM_Write
*DEL*:00000000H   CODE     ---       _EEPROM_WriteByte
*DEL*:00000000H   CODE     ---       _FF_STATUS_WriteMask
*DEL*:00000000H   CODE     ---       _filter_acc_1
*DEL*:00000000H   CODE     ---       _filter_acc_2
*DEL*:00000000H   CODE     ---       _filter_acc_3
      0100AB9BH   CODE     ---       _filter_ch1
      0100AC50H   CODE     ---       _filter_ch2
*DEL*:00000000H   CODE     ---       _filter_i1
*DEL*:00000000H   CODE     ---       _filter_v
*DEL*:00000000H   CODE     ---       _filter_vel_1
*DEL*:00000000H   CODE     ---       _filter_vel_2
*DEL*:00000000H   CODE     ---       _filter_vel_3
      0100B58AH   CODE     ---       _filter_voltage
      0100C646H   CODE     ---       _FTDI_ENABLE_REG_Write
      01003F27H   CODE     ---       _get_param_list
      0100BEBAH   CODE     ---       _infoGet
      01005718H   CODE     ---       _infoPrepare
      0100C5A9H   CODE     ---       _ISR_RS485_RX_SetPriority
      0100C513H   CODE     ---       _ISR_RS485_RX_SetVector
      0100C2DFH   CODE     ---       _ISR_RS485_RX_StartEx
      0100BFCEH   CODE     ---       _LCRChecksum
      0100C688H   CODE     ---       _LED_BLINK_EN_Write
      0100C67CH   CODE     ---       _LED_BLINK_WriteCompare
*DEL*:00000000H   CODE     ---       _LED_BLINK_WriteControlRegister
      0100C670H   CODE     ---       _LED_BLINK_WriteCounter
      0100C676H   CODE     ---       _LED_BLINK_WritePeriod
      0100C682H   CODE     ---       _LED_CTRL_Write
      0100AFCDH   CODE     ---       _memStore
*DEL*:00000000H   CODE     ---       _my_mod
*DEL*:00000000H   CODE     ---       _my_round
      0100C658H   CODE     ---       _MY_TIMER_SetInterruptMode
*DEL*:00000000H   CODE     ---       _MY_TIMER_WriteControlRegister
      0100C5D1H   CODE     ---       _MY_TIMER_WriteCounter
      0100C5BDH   CODE     ---       _MY_TIMER_WritePeriod
      0100C634H   CODE     ---       _PACER_TIMER_SetInterruptMode
*DEL*:00000000H   CODE     ---       _PACER_TIMER_WriteControlRegister
      0100C52FH   CODE     ---       _PACER_TIMER_WriteCounter
      0100C521H   CODE     ---       _PACER_TIMER_WritePeriod
      0100872CH   CODE     ---       _PRINTF
      0100C212H   CODE     ---       _PUTCHAR
      0100C64CH   CODE     ---       _RESET_FF_Write
      0100C640H   CODE     ---       _RS485_CTS_Write
      0100C3E7H   CODE     ---       _sendAcknowledgment
*DEL*:00000000H   CODE     ---       _SetAnalogRoutingPumps
      01008726H   CODE     ---       _SPRINTF
      0100B84FH   CODE     ---       _strcat
      0100C426H   CODE     ---       _STRLEN
*DEL*:00000000H   CODE     ---       _UART_RS485_PutArray
      0100C53DH   CODE     ---       _UART_RS485_PutChar
*DEL*:00000000H   CODE     ---       _UART_RS485_PutCRLF
      0100BF66H   CODE     ---       _UART_RS485_PutString
*DEL*:00000000H   CODE     ---       _UART_RS485_SendBreak
*DEL*:00000000H   CODE     ---       _UART_RS485_SetRxAddress1
*DEL*:00000000H   CODE     ---       _UART_RS485_SetRxAddress2
LX51 LINKER/LOCATER V4.64.0.0                                                         02/16/2023  11:05:26  PAGE 27


*DEL*:00000000H   CODE     ---       _UART_RS485_SetRxAddressMode
*DEL*:00000000H   CODE     ---       _UART_RS485_SetRxInterruptMode
*DEL*:00000000H   CODE     ---       _UART_RS485_SetTxAddressMode
*DEL*:00000000H   CODE     ---       _UART_RS485_SetTxInterruptMode
*DEL*:00000000H   CODE     ---       _UART_RS485_WriteControlRegister
*DEL*:00000000H   CODE     ---       _UART_RS485_WriteTxData
*SFR* 000000D0H.6 DATA     BIT       AC
*SFR* 000000E0H   DATA     BYTE      ACC
      0100C912H   CONST    ---       ADC_AMux__addrTable
      0100C916H   CONST    ---       ADC_AMux__maskTable
      0100C29EH   CODE     ---       ADC_AMux_Start
      02000E9CH   XDATA    ---       ADC_buf
      02001049H   XDATA    BYTE      ADC_Config
      02001054H   XDATA    BYTE      ADC_convDone
      02001055H   XDATA    LONG      ADC_CountsPerVolt
      0100B2EDH   CODE     ---       ADC_Enable
      0100C5DBH   CODE     ---       ADC_Ext_CP_Clk_GetDividerRegister
*DEL*:00000000H   CODE     ---       ADC_Ext_CP_Clk_GetModeRegister
      0100C60FH   CODE     ---       ADC_Ext_CP_Clk_GetSourceRegister
*DEL*:00000000H   CODE     ---       ADC_Ext_CP_Clk_Start
*DEL*:00000000H   CODE     ---       ADC_Ext_CP_Clk_Stop
*DEL*:00000000H   CODE     ---       ADC_Ext_CP_Clk_StopBlock
*DEL*:00000000H   CODE     ---       ADC_GetResult16
*DEL*:00000000H   CODE     ---       ADC_GetResult32
*DEL*:00000000H   CODE     ---       ADC_GetResult8
      0100AE6BH   CODE     ---       ADC_Init
      0200104AH   XDATA    BYTE      ADC_initVar
      0100C699H   CODE     ---       ADC_ISR1
      0100C69AH   CODE     ---       ADC_ISR2
      0100C69BH   CODE     ---       ADC_ISR3
      0100C69CH   CODE     ---       ADC_ISR4
      0200104BH   XDATA    LONG      ADC_Offset
*DEL*:00000000H   CODE     ---       ADC_Read16
*DEL*:00000000H   CODE     ---       ADC_Read32
*DEL*:00000000H   CODE     ---       ADC_Read8
*DEL*:00000000H   CODE     ---       ADC_ReadGCOR
*DEL*:00000000H   CODE     ---       ADC_SOC_Read
      0100C356H   CODE     ---       ADC_Start
*DEL*:00000000H   CODE     ---       ADC_StartConvert
      02001050H   XDATA    BYTE      ADC_started
*DEL*:00000000H   CODE     ---       ADC_STATUS_InterruptDisable
*DEL*:00000000H   CODE     ---       ADC_STATUS_InterruptEnable
      0100C664H   CODE     ---       ADC_STATUS_Read
*DEL*:00000000H   CODE     ---       ADC_STATUS_ReadMask
*DEL*:00000000H   CODE     ---       ADC_Stop
      0200104FH   XDATA    BYTE      ADC_stopConversion
*DEL*:00000000H   CODE     ---       ADC_StopConvert
      0100C5E5H   CODE     ---       ADC_theACLK_GetDividerRegister
*DEL*:00000000H   CODE     ---       ADC_theACLK_GetModeRegister
*DEL*:00000000H   CODE     ---       ADC_theACLK_GetPhaseRegister
      0100C617H   CODE     ---       ADC_theACLK_GetSourceRegister
*DEL*:00000000H   CODE     ---       ADC_theACLK_Start
*DEL*:00000000H   CODE     ---       ADC_theACLK_Stop
*DEL*:00000000H   CODE     ---       ADC_theACLK_StopBlock
      0100709EH   CODE     ---       analog_read_end
*SFR* 000000F0H   DATA     BYTE      B
      0100C5B3H   CODE     ---       Bootloadable_Load
      02000CB1H   XDATA    ---       c_mem
      02000EDCH   XDATA    ---       calib
      0100A1A4H   CODE     ---       calibration
      01008230H   CODE     ---       check_rest_position
      0100C59FH   CODE     ---       CLOCK_UART_GetDividerRegister
*DEL*:00000000H   CODE     ---       CLOCK_UART_GetModeRegister
      0100C5EFH   CODE     ---       CLOCK_UART_GetSourceRegister
*DEL*:00000000H   CODE     ---       CLOCK_UART_Start
LX51 LINKER/LOCATER V4.64.0.0                                                         02/16/2023  11:05:26  PAGE 28


*DEL*:00000000H   CODE     ---       CLOCK_UART_Stop
*DEL*:00000000H   CODE     ---       CLOCK_UART_StopBlock
      0100C1E9H   CODE     ---       cmd_activate
      0100BCADH   CODE     ---       cmd_get_emg
      0100B8BAH   CODE     ---       cmd_get_inputs
      0100BD82H   CODE     ---       cmd_get_joystick
      0100B7E3H   CODE     ---       cmd_get_measurements
      0100C43BH   CODE     ---       cmd_ping
      0100C2BFH   CODE     ---       cmd_set_baudrate
      0100AD05H   CODE     ---       cmd_set_ext_imu_readings
      01009DF6H   CODE     ---       cmd_set_inputs
      01008B44H   CODE     ---       cmd_store_params
      01009680H   CODE     ---       commProcess
      01008E4CH   CODE     ---       commReadIMUsFromSH
      0100AAD0H   CODE     ---       commReadMeasFromSH
      0100A9F6H   CODE     ---       commReadResCurrFromSH
      02000D22H   XDATA    DWORD     count_tension_valid
      02000DD3H   XDATA    LONG      curr_pos_res
*SFR* 000000D0H.7 DATA     BIT       CY
      02001064H   XDATA    DWORD     cydelay_32k_ms
      0200105FH   XDATA    DWORD     cydelay_freq_hz
      0200105AH   XDATA    DWORD     cydelay_freq_khz
      0200105EH   XDATA    BYTE      cydelay_freq_mhz
*DEL*:00000000H   CODE     ---       CyDisableInts
      0100BF30H   CODE     ---       CyDmacConfigure
*DEL*:00000000H   CODE     ---       CyDmacError
*DEL*:00000000H   CODE     ---       CyDmacErrorAddress
*DEL*:00000000H   CODE     ---       CyDmaChAlloc
      0100BE03H   CODE     ---       CyDmaTdAllocate
*DEL*:00000000H   CODE     ---       CyDmaTdFreeCount
*DEL*:00000000H   CODE     ---       CyEEPROM_ReadRelease
*DEL*:00000000H   CODE     ---       CyEEPROM_ReadReserve
      0100C09FH   CODE     ---       CyEEPROM_Start
*DEL*:00000000H   CODE     ---       CyEEPROM_Stop
      0100C3FCH   CODE     NEAR LAB  CyEnterCriticalSection
      01009CB0H   CODE     ---       cyfitter_cfg
*DEL*:00000000H   CODE     ---       CyFlash_Start
*DEL*:00000000H   CODE     ---       CyFlash_Stop
      0100BB2CH   CODE     ---       CyFlashGetSpcAlgorithm
*DEL*:00000000H   CODE     ---       CyILO_Disable33K
*DEL*:00000000H   CODE     ---       CyILO_Enable33K
*DEL*:00000000H   CODE     ---       CyILO_Start100K
*DEL*:00000000H   CODE     ---       CyILO_Start1K
*DEL*:00000000H   CODE     ---       CyILO_Stop100K
*DEL*:00000000H   CODE     ---       CyILO_Stop1K
*DEL*:00000000H   CODE     ---       CyIMO_DisableDoubler
*DEL*:00000000H   CODE     ---       CyIMO_EnableDoubler
*DEL*:00000000H   CODE     ---       CyIMO_Stop
      0100C100H   CODE     ---       CyIntInitVectors
*DEL*:00000000H   CODE     ---       CyPLL_OUT_Stop
*DEL*:00000000H   CODE     ---       CyPmHibernate
*DEL*:00000000H   CODE     ---       CyPmOppsSet
*DEL*:00000000H   CODE     ---       CyPmRestoreClocks
*DEL*:00000000H   CODE     ---       CyPmSaveClocks
      02001063H   XDATA    BYTE      CyResetStatus
      0100C3A1H   CODE     ---       CySetTemp
      0100C5FFH   CODE     ---       CySoftwareReset
      0100C33BH   CODE     ---       CySpcGetAlgorithm
      0100C2FEH   CODE     ---       CySpcLock
      0100C411H   CODE     ---       CySpcStart
*DEL*:00000000H   CODE     ---       CySpcStop
      0100C589H   CODE     ---       CySpcUnlock
*DEL*:00000000H   CODE     ---       CyVdHvAnalogDisable
*DEL*:00000000H   CODE     ---       CyVdHvAnalogEnable
*DEL*:00000000H   CODE     ---       CyVdLvAnalogDisable
LX51 LINKER/LOCATER V4.64.0.0                                                         02/16/2023  11:05:26  PAGE 29


*DEL*:00000000H   CODE     ---       CyVdLvDigitDisable
*DEL*:00000000H   CODE     ---       CyVdRealTimeStatus
*DEL*:00000000H   CODE     ---       CyWdtClear
*DEL*:00000000H   CODE     ---       CyXTAL_32KHZ_ReadStatus
*DEL*:00000000H   CODE     ---       CyXTAL_32KHZ_Start
*DEL*:00000000H   CODE     ---       CyXTAL_32KHZ_Stop
*DEL*:00000000H   CODE     ---       CyXTAL_DisableErrStatus
*DEL*:00000000H   CODE     ---       CyXTAL_DisableFaultRecovery
*DEL*:00000000H   CODE     ---       CyXTAL_EnableErrStatus
*DEL*:00000000H   CODE     ---       CyXTAL_EnableFaultRecovery
*DEL*:00000000H   CODE     ---       CyXTAL_ReadStatus
*DEL*:00000000H   CODE     ---       CyXTAL_Stop
      0100B9D6H   CODE     ---       deactivate_slaves
      02000DDBH   XDATA    LONG      dev_tension
      02000EA4H   XDATA    LONG      dev_tension_f
      02001071H   XDATA    ---       dieTemperature
      0200107BH   XDATA    BYTE      DMA_DmaHandle
*DEL*:00000000H   CODE     ---       DMA_DmaRelease
*SFR* 00000083H   DATA     BYTE      DPH
*SFR* 00000085H   DATA     BYTE      DPH1
*SFR* 00000082H   DATA     BYTE      DPL
*SFR* 00000084H   DATA     BYTE      DPL1
*SFR* 00000086H   DATA     BYTE      DPS
*SFR* 00000093H   DATA     BYTE      DPX
*SFR* 00000095H   DATA     BYTE      DPX1
      0100A653H   CODE     ---       drive_force_fb
      0100910CH   CODE     ---       drive_force_proprio_fb
      0100ADB9H   CODE     ---       drive_proprio_fb
      0100B129H   CODE     ---       drive_SH
      0100C595H   CODE     ---       drive_vibrotactile_fb
*SFR* 000000A8H.7 DATA     BIT       EA
      02001077H   XDATA    ---       EEPROM_ADDR
      0100C62DH   CODE     ---       EEPROM_Enable
*DEL*:00000000H   CODE     ---       EEPROM_Query
      0100C68EH   CODE     ---       EEPROM_Start
*DEL*:00000000H   CODE     ---       EEPROM_Stop
*DEL*:00000000H   CODE     ---       EEPROM_UpdateTemperature
*SFR* 000000D0H.5 DATA     BIT       F0
*SFR* 000000D0H.1 DATA     BIT       F1
*DEL*:00000000H   CODE     ---       FF_STATUS_InterruptDisable
*DEL*:00000000H   CODE     ---       FF_STATUS_InterruptEnable
      0100C652H   CODE     ---       FF_STATUS_Read
*DEL*:00000000H   CODE     ---       FF_STATUS_ReadMask
      02000D21H   XDATA    BYTE      first_tension_valid
      02000D9EH   XDATA    BYTE      forced_open
*DEL*:00000000H   CODE     ---       FTDI_ENABLE_REG_Read
      010099C2H   CODE     ---       function_scheduler
      02000EA8H   XDATA    ---       g_meas
      02000D9FH   XDATA    ---       g_measOld
      02000D2EH   XDATA    ---       g_mem
      02000D26H   XDATA    ---       g_ref
      02000E6CH   XDATA    ---       g_refNew
      02000DDFH   XDATA    ---       g_refOld
      02000DE7H   XDATA    ---       g_rx
*SFR* 000000A8H   DATA     BYTE      IE
      02000E7CH   XDATA    ---       imu_values
*DEL*:00000000H   CODE     ---       infoSend
      0100C695H   CODE     ---       IntDefaultHandler
      00000021H.4 BIT      BIT       interrupt_flag
      01009F38H   CODE     ---       interrupt_manager
*DEL*:00000000H   CODE     ---       ISR_RS485_RX_ClearPending
      0100C626H   CODE     ---       ISR_RS485_RX_Disable
      0100C61FH   CODE     ---       ISR_RS485_RX_Enable
      0100C18DH   CODE     ---       ISR_RS485_RX_ExInterrupt
*DEL*:00000000H   CODE     ---       ISR_RS485_RX_GetPriority
LX51 LINKER/LOCATER V4.64.0.0                                                         02/16/2023  11:05:26  PAGE 30


*DEL*:00000000H   CODE     ---       ISR_RS485_RX_GetState
*DEL*:00000000H   CODE     ---       ISR_RS485_RX_GetVector
      0100C698H   CODE     ---       ISR_RS485_RX_Interrupt
*DEL*:00000000H   CODE     ---       ISR_RS485_RX_SetPending
*DEL*:00000000H   CODE     ---       ISR_RS485_RX_Start
*DEL*:00000000H   CODE     ---       ISR_RS485_RX_Stop
*DEL*:00000000H   CODE     ---       LED_BLINK_EN_Read
      0100C607H   CODE     ---       LED_BLINK_Enable
      0100C27DH   CODE     ---       LED_BLINK_Init
      0200107CH   XDATA    BYTE      LED_BLINK_initVar
*DEL*:00000000H   CODE     ---       LED_BLINK_ReadCapture
*DEL*:00000000H   CODE     ---       LED_BLINK_ReadCompare
*DEL*:00000000H   CODE     ---       LED_BLINK_ReadControlRegister
*DEL*:00000000H   CODE     ---       LED_BLINK_ReadCounter
*DEL*:00000000H   CODE     ---       LED_BLINK_ReadPeriod
      0100C49CH   CODE     ---       LED_BLINK_Start
*DEL*:00000000H   CODE     ---       LED_BLINK_Stop
*DEL*:00000000H   CODE     ---       LED_CTRL_Read
      010094BEH   CODE     ---       main
      02000DD2H   XDATA    BYTE      master_mode
      010092FBH   CODE     ---       memInit
      0100BBCBH   CODE     ---       memRecall
      0100BCF6H   CODE     ---       memRestore
      01007A7CH   CODE     ---       motor_control
*SFR* 000000EAH   DATA     BYTE      MXAX
      0100C54AH   CODE     ---       MY_TIMER_ClearFIFO
      0100C5F7H   CODE     ---       MY_TIMER_Enable
      0100C1BDH   CODE     ---       MY_TIMER_Init
      0200107AH   XDATA    BYTE      MY_TIMER_initVar
      0100C5C7H   CODE     ---       MY_TIMER_ReadCapture
*DEL*:00000000H   CODE     ---       MY_TIMER_ReadControlRegister
      0100C4E6H   CODE     ---       MY_TIMER_ReadCounter
*DEL*:00000000H   CODE     ---       MY_TIMER_ReadPeriod
      0100C65EH   CODE     ---       MY_TIMER_ReadStatusRegister
*DEL*:00000000H   CODE     ---       MY_TIMER_SoftwareCapture
      0100C489H   CODE     ---       MY_TIMER_Start
*DEL*:00000000H   CODE     ---       MY_TIMER_Stop
*SFR* 000000D0H.2 DATA     BIT       OV
*SFR* 000000D0H   DATA     BIT       P
*SFR* 000000A0H   DATA     BYTE      P2AX
      0100C3D1H   CODE     ---       PACER_TIMER_Enable
      0100BE7EH   CODE     ---       PACER_TIMER_Init
      02001079H   XDATA    BYTE      PACER_TIMER_initVar
*DEL*:00000000H   CODE     ---       PACER_TIMER_ReadCapture
*DEL*:00000000H   CODE     ---       PACER_TIMER_ReadControlRegister
*DEL*:00000000H   CODE     ---       PACER_TIMER_ReadCounter
*DEL*:00000000H   CODE     ---       PACER_TIMER_ReadPeriod
*DEL*:00000000H   CODE     ---       PACER_TIMER_ReadStatusRegister
*DEL*:00000000H   CODE     ---       PACER_TIMER_SoftwareCapture
      0100C463H   CODE     ---       PACER_TIMER_Start
*DEL*:00000000H   CODE     ---       PACER_TIMER_Stop
      02000E78H   XDATA    LONG      pow_tension
*SFR* 000000D0H   DATA     BYTE      PSW
*DEL*:00000000H   CODE     ---       RESET_FF_Read
      00000021H.2 BIT      BIT       reset_last_value_flag
      02000EDBH   XDATA    BYTE      rest_enabled
      02000E74H   XDATA    LONG      rest_pos_curr_ref
*SFR* 000000D0H.3 DATA     BIT       RS0
*SFR* 000000D0H.4 DATA     BIT       RS1
*DEL*:00000000H   CODE     ---       RS485_CTS_Read
      0100B484H   CODE     ---       setZeros
*SFR* 00000080H   DATA     BYTE      SFRPRT0DR
*SFR* 00000089H   DATA     BYTE      SFRPRT0PS
*SFR* 0000008AH   DATA     BYTE      SFRPRT0SEL
*SFR* 000000E8H   DATA     BYTE      SFRPRT12DR
LX51 LINKER/LOCATER V4.64.0.0                                                         02/16/2023  11:05:26  PAGE 31


*SFR* 000000E9H   DATA     BYTE      SFRPRT12PS
*SFR* 000000F2H   DATA     BYTE      SFRPRT12SEL
*SFR* 000000F8H   DATA     BYTE      SFRPRT15DR
*SFR* 000000F9H   DATA     BYTE      SFRPRT15PS
*SFR* 000000FAH   DATA     BYTE      SFRPRT15SEL
*SFR* 00000090H   DATA     BYTE      SFRPRT1DR
*SFR* 00000091H   DATA     BYTE      SFRPRT1PS
*SFR* 000000A2H   DATA     BYTE      SFRPRT1SEL
*SFR* 00000098H   DATA     BYTE      SFRPRT2DR
*SFR* 00000099H   DATA     BYTE      SFRPRT2PS
*SFR* 0000009AH   DATA     BYTE      SFRPRT2SEL
*SFR* 000000B0H   DATA     BYTE      SFRPRT3DR
*SFR* 000000B1H   DATA     BYTE      SFRPRT3PS
*SFR* 000000B2H   DATA     BYTE      SFRPRT3SEL
*SFR* 000000C0H   DATA     BYTE      SFRPRT4DR
*SFR* 000000C1H   DATA     BYTE      SFRPRT4PS
*SFR* 000000C2H   DATA     BYTE      SFRPRT4SEL
*SFR* 000000C8H   DATA     BYTE      SFRPRT5DR
*SFR* 000000C9H   DATA     BYTE      SFRPRT5PS
*SFR* 000000CAH   DATA     BYTE      SFRPRT5SEL
*SFR* 000000D8H   DATA     BYTE      SFRPRT6DR
*SFR* 000000D9H   DATA     BYTE      SFRPRT6PS
*SFR* 000000DAH   DATA     BYTE      SFRPRT6SEL
      02000E98H   XDATA    LONG      SH_current_position
*SFR* 00000081H   DATA     BYTE      SP
      0200107EH   XDATA    BYTE      SpcLockState
      0100A533H   CODE     NEAR LAB  STARTUP1
      00000021H.5 BIT      BIT       tension_valid
      02000DD7H   XDATA    DWORD     timer_value
      02000E94H   XDATA    DWORD     timer_value0
      0100C130H   CODE     ---       UART_RS485_ClearRxBuffer
      0100C4C2H   CODE     ---       UART_RS485_ClearTxBuffer
      0100C239H   CODE     ---       UART_RS485_Enable
      02001048H   XDATA    BYTE      UART_RS485_errorStatus
*DEL*:00000000H   CODE     ---       UART_RS485_GetByte
      0100B97BH   CODE     ---       UART_RS485_GetChar
      0100BB7CH   CODE     ---       UART_RS485_GetRxBufferSize
*DEL*:00000000H   CODE     ---       UART_RS485_GetTxBufferSize
      0100C03BH   CODE     ---       UART_RS485_Init
      02001046H   XDATA    BYTE      UART_RS485_initVar
*DEL*:00000000H   CODE     ---       UART_RS485_ReadControlRegister
*DEL*:00000000H   CODE     ---       UART_RS485_ReadRxData
      0100C44FH   CODE     ---       UART_RS485_ReadRxStatus
      0100C63AH   CODE     ---       UART_RS485_ReadTxStatus
      02001025H   XDATA    ---       UART_RS485_rxBuffer
      02001023H   XDATA    BYTE      UART_RS485_rxBufferLoopDetect
      02001047H   XDATA    BYTE      UART_RS485_rxBufferOverflow
      02001024H   XDATA    BYTE      UART_RS485_rxBufferRead
      02001045H   XDATA    BYTE      UART_RS485_rxBufferWrite
      0100AF1CH   CODE     ---       UART_RS485_RXISR
      0100C476H   CODE     ---       UART_RS485_Start
      0100C25BH   CODE     ---       UART_RS485_Stop
      00000021H.3 BIT      BIT       watchdog_flag



SYMBOL TABLE OF MODULE:  .\DP8051_Keil_951\Release\hand_firmware_micro.omf (COMMAND_PROCESSING)

      VALUE       REP       CLASS    TYPE      SYMBOL NAME
      ====================================================
      ---         MODULE    ---      ---       COMMAND_PROCESSING
      02001077H   PUBLIC    XDATA    ---       EEPROM_ADDR
      0100BCADH   PUBLIC    CODE     ---       cmd_get_emg
      01008B44H   PUBLIC    CODE     ---       cmd_store_params
      0100B8BAH   PUBLIC    CODE     ---       cmd_get_inputs
LX51 LINKER/LOCATER V4.64.0.0                                                         02/16/2023  11:05:26  PAGE 32


      0100C43BH   PUBLIC    CODE     ---       cmd_ping
      0100C2BFH   PUBLIC    CODE     ---       cmd_set_baudrate
      0100AD05H   PUBLIC    CODE     ---       cmd_set_ext_IMU_readings
      0100BD82H   PUBLIC    CODE     ---       cmd_get_joystick
      0100C1E9H   PUBLIC    CODE     ---       cmd_activate
      01009DF6H   PUBLIC    CODE     ---       cmd_set_inputs
      0100B7E3H   PUBLIC    CODE     ---       cmd_get_measurements
      010092FBH   PUBLIC    CODE     ---       memInit
      0100BCF6H   PUBLIC    CODE     ---       memRestore
      0100BBCBH   PUBLIC    CODE     ---       memRecall
      0100AFCDH   PUBLIC    CODE     ---       _memStore
      0100C3E7H   PUBLIC    CODE     ---       _sendAcknowledgment
      0100BFCEH   PUBLIC    CODE     ---       _LCRChecksum
      0100B9D6H   PUBLIC    CODE     ---       deactivate_slaves
      0100C595H   PUBLIC    CODE     ---       drive_vibrotactile_fb
      0100910CH   PUBLIC    CODE     ---       drive_force_proprio_fb
      0100ADB9H   PUBLIC    CODE     ---       drive_proprio_fb
      0100A653H   PUBLIC    CODE     ---       drive_force_fb
      0100B129H   PUBLIC    CODE     ---       drive_SH
      02000037H   PUBLIC    XDATA    BYTE      ?_commWriteID?BYTE
      0100B507H   PUBLIC    CODE     ---       _commWriteID
      01008E4CH   PUBLIC    CODE     ---       commReadIMUsFromSH
      0100A9F6H   PUBLIC    CODE     ---       commReadResCurrFromSH
      0100AAD0H   PUBLIC    CODE     ---       commReadMeasFromSH
      0100B260H   PUBLIC    CODE     ---       _commWrite
      02000047H   PUBLIC    XDATA    BYTE      ?_commWrite_old_id?BYTE
      0100B1D3H   PUBLIC    CODE     ---       _commWrite_old_id
      01005718H   PUBLIC    CODE     ---       _infoPrepare
      0100B484H   PUBLIC    CODE     ---       setZeros
      01003F27H   PUBLIC    CODE     ---       _get_param_list
      0100BEBAH   PUBLIC    CODE     ---       _infoGet
      01009680H   PUBLIC    CODE     ---       commProcess
      000000CAH   SFRSYM    DATA     BYTE      SFRPRT5SEL
      000000DAH   SFRSYM    DATA     BYTE      SFRPRT6SEL
      000000D0H.6 SFRSYM    DATA     BIT       AC
      000000A8H.7 SFRSYM    DATA     BIT       EA
      000000A8H   SFRSYM    DATA     BYTE      IE
      00000085H   SFRSYM    DATA     BYTE      DPH1
      00000084H   SFRSYM    DATA     BYTE      DPL1
      000000D0H.7 SFRSYM    DATA     BIT       CY
      000000A0H   SFRSYM    DATA     BYTE      P2AX
      00000095H   SFRSYM    DATA     BYTE      DPX1
      00000081H   SFRSYM    DATA     BYTE      SP
      000000D0H.2 SFRSYM    DATA     BIT       OV
      00000080H   SFRSYM    DATA     BYTE      SFRPRT0DR
      00000090H   SFRSYM    DATA     BYTE      SFRPRT1DR
      000000F2H   SFRSYM    DATA     BYTE      SFRPRT12SEL
      00000098H   SFRSYM    DATA     BYTE      SFRPRT2DR
      000000B0H   SFRSYM    DATA     BYTE      SFRPRT3DR
      000000C0H   SFRSYM    DATA     BYTE      SFRPRT4DR
      000000FAH   SFRSYM    DATA     BYTE      SFRPRT15SEL
      000000C8H   SFRSYM    DATA     BYTE      SFRPRT5DR
      000000D8H   SFRSYM    DATA     BYTE      SFRPRT6DR
      00000089H   SFRSYM    DATA     BYTE      SFRPRT0PS
      00000091H   SFRSYM    DATA     BYTE      SFRPRT1PS
      00000099H   SFRSYM    DATA     BYTE      SFRPRT2PS
      000000B1H   SFRSYM    DATA     BYTE      SFRPRT3PS
      000000C1H   SFRSYM    DATA     BYTE      SFRPRT4PS
      000000C9H   SFRSYM    DATA     BYTE      SFRPRT5PS
      000000D9H   SFRSYM    DATA     BYTE      SFRPRT6PS
      000000EAH   SFRSYM    DATA     BYTE      MXAX
      000000F0H   SFRSYM    DATA     BYTE      B
      000000E0H   SFRSYM    DATA     BYTE      ACC
      000000D0H   SFRSYM    DATA     BIT       P
      000000D0H.3 SFRSYM    DATA     BIT       RS0
LX51 LINKER/LOCATER V4.64.0.0                                                         02/16/2023  11:05:26  PAGE 33


      000000D0H.4 SFRSYM    DATA     BIT       RS1
      00000083H   SFRSYM    DATA     BYTE      DPH
      000000E8H   SFRSYM    DATA     BYTE      SFRPRT12DR
      00000082H   SFRSYM    DATA     BYTE      DPL
      000000F8H   SFRSYM    DATA     BYTE      SFRPRT15DR
      00000086H   SFRSYM    DATA     BYTE      DPS
      000000E9H   SFRSYM    DATA     BYTE      SFRPRT12PS
      00000093H   SFRSYM    DATA     BYTE      DPX
      000000F9H   SFRSYM    DATA     BYTE      SFRPRT15PS
      000000D0H.5 SFRSYM    DATA     BIT       F0
      000000D0H.1 SFRSYM    DATA     BIT       F1
      0000008AH   SFRSYM    DATA     BYTE      SFRPRT0SEL
      000000D0H   SFRSYM    DATA     BYTE      PSW
      000000A2H   SFRSYM    DATA     BYTE      SFRPRT1SEL
      0000009AH   SFRSYM    DATA     BYTE      SFRPRT2SEL
      000000B2H   SFRSYM    DATA     BYTE      SFRPRT3SEL
      000000C2H   SFRSYM    DATA     BYTE      SFRPRT4SEL
      01002BB7H   SYMBOL    CODE     ---       _?ix1000
      01003BB1H   SYMBOL    CODE     ---       _?ix1010
      010032BFH   SYMBOL    CODE     ---       _?ix1001
      01003CB2H   SYMBOL    CODE     ---       _?ix1020
      01003BD5H   SYMBOL    CODE     ---       _?ix1011
      01003AF4H   SYMBOL    CODE     ---       _?ix1002
      01003E27H   SYMBOL    CODE     ---       _?ix1030
      01003CDAH   SYMBOL    CODE     ---       _?ix1021
      01003BEAH   SYMBOL    CODE     ---       _?ix1012
      01003B03H   SYMBOL    CODE     ---       _?ix1003
      01003E39H   SYMBOL    CODE     ---       _?ix1031
      01003CFDH   SYMBOL    CODE     ---       _?ix1022
      01003BFFH   SYMBOL    CODE     ---       _?ix1013
      01003B25H   SYMBOL    CODE     ---       _?ix1004
      01003E4FH   SYMBOL    CODE     ---       _?ix1032
      01003D25H   SYMBOL    CODE     ---       _?ix1023
      01003C13H   SYMBOL    CODE     ---       _?ix1014
      01003B36H   SYMBOL    CODE     ---       _?ix1005
      01003E6EH   SYMBOL    CODE     ---       _?ix1033
      01003D51H   SYMBOL    CODE     ---       _?ix1024
      01003C2CH   SYMBOL    CODE     ---       _?ix1015
      01003B4FH   SYMBOL    CODE     ---       _?ix1006
      01003E83H   SYMBOL    CODE     ---       _?ix1034
      01003D71H   SYMBOL    CODE     ---       _?ix1025
      01003C49H   SYMBOL    CODE     ---       _?ix1016
      01003B60H   SYMBOL    CODE     ---       _?ix1007
      01003EE7H   SYMBOL    CODE     ---       _?ix1035
      01003D94H   SYMBOL    CODE     ---       _?ix1026
      01003C5DH   SYMBOL    CODE     ---       _?ix1017
      01003B7BH   SYMBOL    CODE     ---       _?ix1008
      01003EFDH   SYMBOL    CODE     ---       _?ix1036
      01003DB9H   SYMBOL    CODE     ---       _?ix1027
      01003C81H   SYMBOL    CODE     ---       _?ix1018
      01003B97H   SYMBOL    CODE     ---       _?ix1009
      01003DDCH   SYMBOL    CODE     ---       _?ix1028
      01003C9EH   SYMBOL    CODE     ---       _?ix1019
      01003E03H   SYMBOL    CODE     ---       _?ix1029

      01009680H   BLOCK     CODE     ---       LVL=0
      01009680H   BLOCK     CODE     NEAR LAB  LVL=1
      0000002AH   SYMBOL    DATA     BYTE      rx_cmd
      ---         BLOCKEND  ---      ---       LVL=1
      01009680H   LINE      CODE     ---       #67
      01009680H   LINE      CODE     ---       #71
      01009686H   LINE      CODE     ---       #75
      010096B1H   LINE      CODE     ---       #77
      010096B7H   LINE      CODE     ---       #79
      010096B7H   LINE      CODE     ---       #81
LX51 LINKER/LOCATER V4.64.0.0                                                         02/16/2023  11:05:26  PAGE 34


      010096F6H   LINE      CODE     ---       #84
      010096F6H   LINE      CODE     ---       #85
      010096F9H   LINE      CODE     ---       #86
      010096FAH   LINE      CODE     ---       #90
      010096FAH   LINE      CODE     ---       #91
      010096FDH   LINE      CODE     ---       #92
      010096FEH   LINE      CODE     ---       #96
      010096FEH   LINE      CODE     ---       #97
      01009701H   LINE      CODE     ---       #98
      01009702H   LINE      CODE     ---       #102
      01009702H   LINE      CODE     ---       #103
      01009705H   LINE      CODE     ---       #104
      01009706H   LINE      CODE     ---       #108
      01009706H   LINE      CODE     ---       #109
      01009709H   LINE      CODE     ---       #110
      0100970AH   LINE      CODE     ---       #114
      0100970AH   LINE      CODE     ---       #115
      0100970DH   LINE      CODE     ---       #116
      0100970EH   LINE      CODE     ---       #120
      0100970EH   LINE      CODE     ---       #121
      01009711H   LINE      CODE     ---       #122
      01009712H   LINE      CODE     ---       #126
      01009712H   LINE      CODE     ---       #127
      01009715H   LINE      CODE     ---       #128
      01009716H   LINE      CODE     ---       #132
      01009716H   LINE      CODE     ---       #133
      01009721H   LINE      CODE     ---       #134
      01009722H   LINE      CODE     ---       #138
      01009722H   LINE      CODE     ---       #139
      01009725H   LINE      CODE     ---       #140
      01009726H   LINE      CODE     ---       #144
      01009726H   LINE      CODE     ---       #145
      01009731H   LINE      CODE     ---       #146
      01009732H   LINE      CODE     ---       #150
      01009732H   LINE      CODE     ---       #151
      01009735H   LINE      CODE     ---       #152
      01009736H   LINE      CODE     ---       #156
      01009736H   LINE      CODE     ---       #157
      01009739H   LINE      CODE     ---       #158
      0100973AH   LINE      CODE     ---       #162
      0100973AH   LINE      CODE     ---       #163
      01009744H   LINE      CODE     ---       #164
      0100974AH   LINE      CODE     ---       #166
      0100974FH   LINE      CODE     ---       #167
      01009750H   LINE      CODE     ---       #171
      01009750H   LINE      CODE     ---       #172
      01009756H   LINE      CODE     ---       #173
      0100975CH   LINE      CODE     ---       #175
      01009761H   LINE      CODE     ---       #176
      01009762H   LINE      CODE     ---       #180
      01009762H   LINE      CODE     ---       #181
      01009768H   LINE      CODE     ---       #182
      0100976EH   LINE      CODE     ---       #184
      01009773H   LINE      CODE     ---       #185
      01009774H   LINE      CODE     ---       #189
      01009774H   LINE      CODE     ---       #191
      01009779H   LINE      CODE     ---       #192
      01009783H   LINE      CODE     ---       #193
      01009788H   LINE      CODE     ---       #194
      01009792H   LINE      CODE     ---       #195
      01009795H   LINE      CODE     ---       #196
      01009796H   LINE      CODE     ---       #200
      01009796H   LINE      CODE     ---       #201
      010097A5H   LINE      CODE     ---       #202
      010097B4H   LINE      CODE     ---       #205
LX51 LINKER/LOCATER V4.64.0.0                                                         02/16/2023  11:05:26  PAGE 35


      010097C4H   LINE      CODE     ---       #206
      010097CBH   LINE      CODE     ---       #207
      010097D8H   LINE      CODE     ---       #208
      010097E1H   LINE      CODE     ---       #209
      010097E1H   LINE      CODE     ---       #210
      010097F1H   LINE      CODE     ---       #211
      010097F8H   LINE      CODE     ---       #212
      01009805H   LINE      CODE     ---       #213
      0100980FH   LINE      CODE     ---       #214
      0100980FH   LINE      CODE     ---       #216
      0100981AH   LINE      CODE     ---       #217
      01009820H   LINE      CODE     ---       #218
      01009820H   LINE      CODE     ---       #221
      01009820H   LINE      CODE     ---       #222
      01009820H   LINE      CODE     ---       #224
      01009820H   LINE      CODE     ---       #225
      ---         BLOCKEND  ---      ---       LVL=0

      0100BEBAH   BLOCK     CODE     ---       LVL=0
      02000037H   SYMBOL    XDATA    WORD      info_type
      0100BEC2H   BLOCK     CODE     NEAR LAB  LVL=1
      02000039H   SYMBOL    XDATA    ---       packet_string
      ---         BLOCKEND  ---      ---       LVL=1
      0100BEBAH   LINE      CODE     ---       #243
      0100BEC2H   LINE      CODE     ---       #244
      0100BED5H   LINE      CODE     ---       #248
      0100BEE2H   LINE      CODE     ---       #249
      0100BEE2H   LINE      CODE     ---       #250
      0100BEEBH   LINE      CODE     ---       #251
      0100BEF4H   LINE      CODE     ---       #252
      0100BEF4H   LINE      CODE     ---       #254
      0100BEF4H   LINE      CODE     ---       #255
      0100BEF4H   LINE      CODE     ---       #256
      0100BEF4H   LINE      CODE     ---       #257
      ---         BLOCKEND  ---      ---       LVL=0

      01003F27H   BLOCK     CODE     ---       LVL=0
      02000037H   SYMBOL    XDATA    WORD      index
      01003F2FH   BLOCK     CODE     NEAR LAB  LVL=1
      02000039H   SYMBOL    XDATA    ---       packet_data
      0200086EH   SYMBOL    XDATA    WORD      packet_lenght
      0000002BH   SYMBOL    DATA     BYTE      i
      0000002CH   SYMBOL    DATA     BYTE      string_lenght
      02000870H   SYMBOL    XDATA    LONG      aux_int
      02000874H   SYMBOL    XDATA    BYTE      aux_uchar
      02000875H   SYMBOL    XDATA    ---       id_str
      02000884H   SYMBOL    XDATA    ---       input_str
      020008A6H   SYMBOL    XDATA    ---       res_str
      020008B7H   SYMBOL    XDATA    ---       m_off_str
      020008D0H   SYMBOL    XDATA    ---       mult_str
      020008E1H   SYMBOL    XDATA    ---       pos_lim_flag_str
      020008FCH   SYMBOL    XDATA    ---       pos_lim_str
      02000918H   SYMBOL    XDATA    ---       max_step_str
      02000932H   SYMBOL    XDATA    ---       emg_flag_str
      02000956H   SYMBOL    XDATA    ---       emg_thr_str
      0200096BH   SYMBOL    XDATA    ---       emg_max_val_str
      02000980H   SYMBOL    XDATA    ---       emg_max_speed_str
      02000994H   SYMBOL    XDATA    ---       handle_ratio_str
      020009ADH   SYMBOL    XDATA    ---       joystick_closure_speed_str
      020009CAH   SYMBOL    XDATA    ---       joystick_gains_str
      020009DEH   SYMBOL    XDATA    ---       myo2_master_str
      02000A02H   SYMBOL    XDATA    ---       rest_pos_flag_str
      02000A1FH   SYMBOL    XDATA    ---       rest_pos_str
      02000A33H   SYMBOL    XDATA    ---       rest_pos_delay_str
      02000A5BH   SYMBOL    XDATA    ---       rest_vel_str
LX51 LINKER/LOCATER V4.64.0.0                                                         02/16/2023  11:05:26  PAGE 36


      02000A7EH   SYMBOL    XDATA    ---       curr_prop_gain_str
      02000AA6H   SYMBOL    XDATA    ---       curr_sat_str
      02000AD2H   SYMBOL    XDATA    ---       curr_dead_zone_str
      02000AF2H   SYMBOL    XDATA    ---       max_slide_str
      02000B15H   SYMBOL    XDATA    ---       max_SH_pos_str
      02000B3AH   SYMBOL    XDATA    ---       master_mode_force_str
      02000B5DH   SYMBOL    XDATA    ---       master_mode_proprio_str
      02000B84H   SYMBOL    XDATA    ---       master_mode_vibrot_str
      02000BA8H   SYMBOL    XDATA    ---       SH_ID_str
      02000BBAH   SYMBOL    XDATA    ---       FF_ID_str
      02000BD0H   SYMBOL    XDATA    ---       PF_ID_str
      02000BEFH   SYMBOL    XDATA    ---       F_right_left_par_str
      02000C04H   SYMBOL    XDATA    ---       input_mode_menu
      02000C68H   SYMBOL    XDATA    ---       F_right_left_menu
      02000C7EH   SYMBOL    XDATA    ---       yes_no_menu
      0000002DH   SYMBOL    DATA     BYTE      id_str_len
      0000002EH   SYMBOL    DATA     BYTE      res_str_len
      0000002FH   SYMBOL    DATA     BYTE      m_off_str_len
      00000030H   SYMBOL    DATA     BYTE      mult_str_len
      00000031H   SYMBOL    DATA     BYTE      pos_lim_str_len
      00000032H   SYMBOL    DATA     BYTE      max_step_str_len
      00000033H   SYMBOL    DATA     BYTE      emg_thr_str_len
      00000034H   SYMBOL    DATA     BYTE      emg_max_val_str_len
      00000035H   SYMBOL    DATA     BYTE      emg_max_speed_str_len
      00000036H   SYMBOL    DATA     BYTE      handle_ratio_str_len
      00000037H   SYMBOL    DATA     BYTE      joystick_closure_speed_str_len
      00000038H   SYMBOL    DATA     BYTE      joystick_gains_str_len
      00000039H   SYMBOL    DATA     BYTE      rest_pos_str_len
      0000003AH   SYMBOL    DATA     BYTE      rest_pos_delay_str_len
      0000003BH   SYMBOL    DATA     BYTE      rest_vel_str_len
      0000003CH   SYMBOL    DATA     BYTE      curr_prop_gain_str_len
      0000003DH   SYMBOL    DATA     BYTE      curr_sat_str_len
      0000003EH   SYMBOL    DATA     BYTE      curr_dead_zone_str_len
      0000003FH   SYMBOL    DATA     BYTE      max_slide_str_len
      00000040H   SYMBOL    DATA     BYTE      max_SH_pos_str_len
      00000041H   SYMBOL    DATA     BYTE      SH_ID_str_len
      00000042H   SYMBOL    DATA     BYTE      FF_ID_str_len
      00000043H   SYMBOL    DATA     BYTE      PF_ID_str_len
      00000044H   SYMBOL    DATA     BYTE      input_mode_menu_len
      00000045H   SYMBOL    DATA     BYTE      F_right_left_menu_len
      00000046H   SYMBOL    DATA     BYTE      yes_no_menu_len
      ---         BLOCKEND  ---      ---       LVL=1
      01003F27H   LINE      CODE     ---       #263
      01003F2FH   LINE      CODE     ---       #265
      01003F42H   LINE      CODE     ---       #266
      01003F4CH   LINE      CODE     ---       #275
      01003F5FH   LINE      CODE     ---       #276
      01003F72H   LINE      CODE     ---       #277
      01003F85H   LINE      CODE     ---       #278
      01003F98H   LINE      CODE     ---       #279
      01003FABH   LINE      CODE     ---       #280
      01003FBEH   LINE      CODE     ---       #281
      01003FD1H   LINE      CODE     ---       #282
      01003FE4H   LINE      CODE     ---       #283
      01003FF7H   LINE      CODE     ---       #284
      0100400AH   LINE      CODE     ---       #285
      0100401DH   LINE      CODE     ---       #286
      01004030H   LINE      CODE     ---       #287
      01004043H   LINE      CODE     ---       #288
      01004056H   LINE      CODE     ---       #289
      01004069H   LINE      CODE     ---       #290
      0100407CH   LINE      CODE     ---       #291
      0100408FH   LINE      CODE     ---       #292
      010040A2H   LINE      CODE     ---       #293
      010040B5H   LINE      CODE     ---       #294
LX51 LINKER/LOCATER V4.64.0.0                                                         02/16/2023  11:05:26  PAGE 37


      010040C8H   LINE      CODE     ---       #295
      010040DBH   LINE      CODE     ---       #296
      010040EEH   LINE      CODE     ---       #297
      01004101H   LINE      CODE     ---       #298
      01004114H   LINE      CODE     ---       #299
      01004127H   LINE      CODE     ---       #300
      0100413AH   LINE      CODE     ---       #301
      0100414DH   LINE      CODE     ---       #302
      01004160H   LINE      CODE     ---       #303
      01004173H   LINE      CODE     ---       #304
      01004186H   LINE      CODE     ---       #305
      01004199H   LINE      CODE     ---       #306
      010041ACH   LINE      CODE     ---       #309
      010041BFH   LINE      CODE     ---       #310
      010041D2H   LINE      CODE     ---       #311
      010041E5H   LINE      CODE     ---       #315
      010041F0H   LINE      CODE     ---       #316
      010041FBH   LINE      CODE     ---       #317
      01004206H   LINE      CODE     ---       #318
      01004211H   LINE      CODE     ---       #319
      0100421CH   LINE      CODE     ---       #320
      01004227H   LINE      CODE     ---       #321
      01004232H   LINE      CODE     ---       #322
      0100423DH   LINE      CODE     ---       #323
      01004248H   LINE      CODE     ---       #324
      01004253H   LINE      CODE     ---       #325
      0100425EH   LINE      CODE     ---       #326
      01004269H   LINE      CODE     ---       #327
      01004274H   LINE      CODE     ---       #328
      0100427FH   LINE      CODE     ---       #329
      0100428AH   LINE      CODE     ---       #330
      01004295H   LINE      CODE     ---       #331
      010042A0H   LINE      CODE     ---       #332
      010042ABH   LINE      CODE     ---       #333
      010042B6H   LINE      CODE     ---       #334
      010042C1H   LINE      CODE     ---       #335
      010042CCH   LINE      CODE     ---       #336
      010042D7H   LINE      CODE     ---       #337
      010042E2H   LINE      CODE     ---       #339
      010042EDH   LINE      CODE     ---       #340
      010042F8H   LINE      CODE     ---       #341
      01004303H   LINE      CODE     ---       #343
      01004309H   LINE      CODE     ---       #344
      0100430DH   LINE      CODE     ---       #346
      0100438EH   LINE      CODE     ---       #347
      0100438EH   LINE      CODE     ---       #350
      01004394H   LINE      CODE     ---       #351
      01004397H   LINE      CODE     ---       #352
      0100439FH   LINE      CODE     ---       #353
      010043A6H   LINE      CODE     ---       #354
      010043D8H   LINE      CODE     ---       #358
      010043DDH   LINE      CODE     ---       #359
      010043E0H   LINE      CODE     ---       #360
      010043E8H   LINE      CODE     ---       #361
      0100440FH   LINE      CODE     ---       #362
      0100440FH   LINE      CODE     ---       #363
      01004426H   LINE      CODE     ---       #364
      01004429H   LINE      CODE     ---       #365
      0100442CH   LINE      CODE     ---       #366
      0100442CH   LINE      CODE     ---       #367
      01004443H   LINE      CODE     ---       #368
      01004446H   LINE      CODE     ---       #369
      01004449H   LINE      CODE     ---       #370
      01004449H   LINE      CODE     ---       #371
      01004460H   LINE      CODE     ---       #372
LX51 LINKER/LOCATER V4.64.0.0                                                         02/16/2023  11:05:26  PAGE 38


      01004463H   LINE      CODE     ---       #373
      01004465H   LINE      CODE     ---       #374
      01004465H   LINE      CODE     ---       #375
      0100447CH   LINE      CODE     ---       #376
      0100447FH   LINE      CODE     ---       #377
      01004481H   LINE      CODE     ---       #378
      01004481H   LINE      CODE     ---       #379
      01004498H   LINE      CODE     ---       #380
      0100449BH   LINE      CODE     ---       #381
      0100449DH   LINE      CODE     ---       #382
      0100449DH   LINE      CODE     ---       #383
      010044B4H   LINE      CODE     ---       #384
      010044B7H   LINE      CODE     ---       #385
      010044B9H   LINE      CODE     ---       #386
      010044B9H   LINE      CODE     ---       #387
      010044D0H   LINE      CODE     ---       #388
      010044D3H   LINE      CODE     ---       #389
      010044D3H   LINE      CODE     ---       #390
      010044D3H   LINE      CODE     ---       #391
      010044DAH   LINE      CODE     ---       #392
      0100450CH   LINE      CODE     ---       #394
      0100451AH   LINE      CODE     ---       #398
      0100451FH   LINE      CODE     ---       #399
      01004522H   LINE      CODE     ---       #400
      0100452CH   LINE      CODE     ---       #401
      0100454AH   LINE      CODE     ---       #402
      01004551H   LINE      CODE     ---       #403
      01004583H   LINE      CODE     ---       #407
      01004589H   LINE      CODE     ---       #408
      0100458BH   LINE      CODE     ---       #409
      01004595H   LINE      CODE     ---       #410
      010045D9H   LINE      CODE     ---       #411
      010045E0H   LINE      CODE     ---       #412
      01004612H   LINE      CODE     ---       #416
      01004618H   LINE      CODE     ---       #417
      0100461CH   LINE      CODE     ---       #418
      01004626H   LINE      CODE     ---       #419
      01004657H   LINE      CODE     ---       #420
      0100465EH   LINE      CODE     ---       #421
      01004690H   LINE      CODE     ---       #425
      01004695H   LINE      CODE     ---       #426
      01004698H   LINE      CODE     ---       #427
      010046A0H   LINE      CODE     ---       #428
      010046A5H   LINE      CODE     ---       #429
      010046BCH   LINE      CODE     ---       #430
      010046BFH   LINE      CODE     ---       #431
      010046C1H   LINE      CODE     ---       #432
      010046C1H   LINE      CODE     ---       #433
      010046D8H   LINE      CODE     ---       #434
      010046DBH   LINE      CODE     ---       #435
      010046DBH   LINE      CODE     ---       #436
      010046E2H   LINE      CODE     ---       #437
      01004714H   LINE      CODE     ---       #439
      01004722H   LINE      CODE     ---       #443
      01004728H   LINE      CODE     ---       #444
      0100472CH   LINE      CODE     ---       #445
      01004739H   LINE      CODE     ---       #446
      01004777H   LINE      CODE     ---       #447
      010047B5H   LINE      CODE     ---       #448
      010047BAH   LINE      CODE     ---       #449
      010047C1H   LINE      CODE     ---       #450
      010047F3H   LINE      CODE     ---       #454
      010047F9H   LINE      CODE     ---       #455
      010047FDH   LINE      CODE     ---       #456
      01004811H   LINE      CODE     ---       #457
LX51 LINKER/LOCATER V4.64.0.0                                                         02/16/2023  11:05:26  PAGE 39


      01004825H   LINE      CODE     ---       #458
      0100482CH   LINE      CODE     ---       #459
      0100485EH   LINE      CODE     ---       #463
      01004863H   LINE      CODE     ---       #464
      01004866H   LINE      CODE     ---       #465
      0100486EH   LINE      CODE     ---       #466
      01004873H   LINE      CODE     ---       #467
      0100488AH   LINE      CODE     ---       #468
      0100488DH   LINE      CODE     ---       #469
      0100488FH   LINE      CODE     ---       #470
      0100488FH   LINE      CODE     ---       #471
      010048A6H   LINE      CODE     ---       #472
      010048A9H   LINE      CODE     ---       #473
      010048A9H   LINE      CODE     ---       #474
      010048B0H   LINE      CODE     ---       #475
      010048E2H   LINE      CODE     ---       #477
      010048F0H   LINE      CODE     ---       #481
      010048F5H   LINE      CODE     ---       #482
      010048F9H   LINE      CODE     ---       #483
      01004908H   LINE      CODE     ---       #484
      01004917H   LINE      CODE     ---       #485
      0100491EH   LINE      CODE     ---       #486
      01004950H   LINE      CODE     ---       #490
      01004956H   LINE      CODE     ---       #491
      0100495AH   LINE      CODE     ---       #492
      0100496EH   LINE      CODE     ---       #493
      01004982H   LINE      CODE     ---       #494
      01004989H   LINE      CODE     ---       #495
      010049BBH   LINE      CODE     ---       #499
      010049C1H   LINE      CODE     ---       #500
      010049C4H   LINE      CODE     ---       #501
      010049CCH   LINE      CODE     ---       #502
      010049D3H   LINE      CODE     ---       #503
      01004A05H   LINE      CODE     ---       #507
      01004A0BH   LINE      CODE     ---       #508
      01004A0DH   LINE      CODE     ---       #509
      01004A15H   LINE      CODE     ---       #510
      01004A1CH   LINE      CODE     ---       #511
      01004A4EH   LINE      CODE     ---       #515
      01004A54H   LINE      CODE     ---       #516
      01004A58H   LINE      CODE     ---       #517
      01004A67H   LINE      CODE     ---       #518
      01004A6EH   LINE      CODE     ---       #519
      01004AA0H   LINE      CODE     ---       #523
      01004AA6H   LINE      CODE     ---       #524
      01004AAAH   LINE      CODE     ---       #525
      01004AB9H   LINE      CODE     ---       #526
      01004AC0H   LINE      CODE     ---       #527
      01004AF2H   LINE      CODE     ---       #531
      01004AF7H   LINE      CODE     ---       #532
      01004AFAH   LINE      CODE     ---       #533
      01004B02H   LINE      CODE     ---       #534
      01004B07H   LINE      CODE     ---       #535
      01004B1EH   LINE      CODE     ---       #536
      01004B21H   LINE      CODE     ---       #537
      01004B23H   LINE      CODE     ---       #538
      01004B23H   LINE      CODE     ---       #539
      01004B3AH   LINE      CODE     ---       #540
      01004B3DH   LINE      CODE     ---       #541
      01004B3DH   LINE      CODE     ---       #542
      01004B44H   LINE      CODE     ---       #543
      01004B76H   LINE      CODE     ---       #545
      01004B84H   LINE      CODE     ---       #549
      01004B89H   LINE      CODE     ---       #550
      01004B8CH   LINE      CODE     ---       #551
LX51 LINKER/LOCATER V4.64.0.0                                                         02/16/2023  11:05:26  PAGE 40


      01004B94H   LINE      CODE     ---       #552
      01004B99H   LINE      CODE     ---       #553
      01004BB0H   LINE      CODE     ---       #554
      01004BB3H   LINE      CODE     ---       #555
      01004BB5H   LINE      CODE     ---       #556
      01004BB5H   LINE      CODE     ---       #557
      01004BCCH   LINE      CODE     ---       #558
      01004BCFH   LINE      CODE     ---       #559
      01004BCFH   LINE      CODE     ---       #560
      01004BD6H   LINE      CODE     ---       #561
      01004C08H   LINE      CODE     ---       #563
      01004C16H   LINE      CODE     ---       #567
      01004C1CH   LINE      CODE     ---       #568
      01004C20H   LINE      CODE     ---       #569
      01004C3DH   LINE      CODE     ---       #570
      01004C44H   LINE      CODE     ---       #571
      01004C76H   LINE      CODE     ---       #575
      01004C7CH   LINE      CODE     ---       #576
      01004C80H   LINE      CODE     ---       #577
      01004C94H   LINE      CODE     ---       #578
      01004C9BH   LINE      CODE     ---       #579
      01004CCDH   LINE      CODE     ---       #583
      01004CD3H   LINE      CODE     ---       #584
      01004CD7H   LINE      CODE     ---       #585
      01004CEBH   LINE      CODE     ---       #586
      01004CF2H   LINE      CODE     ---       #587
      01004D24H   LINE      CODE     ---       #591
      01004D2AH   LINE      CODE     ---       #592
      01004D2EH   LINE      CODE     ---       #593
      01004D42H   LINE      CODE     ---       #594
      01004D49H   LINE      CODE     ---       #595
      01004D7BH   LINE      CODE     ---       #599
      01004D81H   LINE      CODE     ---       #600
      01004D85H   LINE      CODE     ---       #601
      01004D94H   LINE      CODE     ---       #602
      01004D9BH   LINE      CODE     ---       #603
      01004DCDH   LINE      CODE     ---       #607
      01004DD3H   LINE      CODE     ---       #608
      01004DD7H   LINE      CODE     ---       #609
      01004DE6H   LINE      CODE     ---       #610
      01004DEDH   LINE      CODE     ---       #611
      01004E1FH   LINE      CODE     ---       #615
      01004E25H   LINE      CODE     ---       #616
      01004E29H   LINE      CODE     ---       #617
      01004E3DH   LINE      CODE     ---       #618
      01004E44H   LINE      CODE     ---       #619
      01004E76H   LINE      CODE     ---       #623
      01004E7CH   LINE      CODE     ---       #624
      01004E80H   LINE      CODE     ---       #625
      01004E94H   LINE      CODE     ---       #626
      01004E9BH   LINE      CODE     ---       #627
      01004ECDH   LINE      CODE     ---       #631
      01004ED2H   LINE      CODE     ---       #632
      01004ED5H   LINE      CODE     ---       #633
      01004EDDH   LINE      CODE     ---       #634
      01004EE2H   LINE      CODE     ---       #635
      01004EF9H   LINE      CODE     ---       #636
      01004EFCH   LINE      CODE     ---       #637
      01004EFEH   LINE      CODE     ---       #638
      01004EFEH   LINE      CODE     ---       #639
      01004F15H   LINE      CODE     ---       #640
      01004F18H   LINE      CODE     ---       #641
      01004F18H   LINE      CODE     ---       #642
      01004F1FH   LINE      CODE     ---       #643
      01004F51H   LINE      CODE     ---       #645
LX51 LINKER/LOCATER V4.64.0.0                                                         02/16/2023  11:05:26  PAGE 41


      01004F5FH   LINE      CODE     ---       #649
      01004F64H   LINE      CODE     ---       #650
      01004F67H   LINE      CODE     ---       #651
      01004F6FH   LINE      CODE     ---       #652
      01004F74H   LINE      CODE     ---       #653
      01004F8BH   LINE      CODE     ---       #654
      01004F8EH   LINE      CODE     ---       #655
      01004F90H   LINE      CODE     ---       #656
      01004F90H   LINE      CODE     ---       #657
      01004FA7H   LINE      CODE     ---       #658
      01004FAAH   LINE      CODE     ---       #659
      01004FAAH   LINE      CODE     ---       #660
      01004FB1H   LINE      CODE     ---       #661
      01004FE3H   LINE      CODE     ---       #663
      01004FF1H   LINE      CODE     ---       #667
      01004FF6H   LINE      CODE     ---       #668
      01004FF9H   LINE      CODE     ---       #669
      01005001H   LINE      CODE     ---       #670
      01005006H   LINE      CODE     ---       #671
      0100501DH   LINE      CODE     ---       #672
      01005020H   LINE      CODE     ---       #673
      01005022H   LINE      CODE     ---       #674
      01005022H   LINE      CODE     ---       #675
      01005039H   LINE      CODE     ---       #676
      0100503CH   LINE      CODE     ---       #677
      0100503CH   LINE      CODE     ---       #678
      01005043H   LINE      CODE     ---       #679
      01005075H   LINE      CODE     ---       #681
      01005083H   LINE      CODE     ---       #685
      01005088H   LINE      CODE     ---       #686
      0100508BH   LINE      CODE     ---       #687
      01005093H   LINE      CODE     ---       #688
      0100509AH   LINE      CODE     ---       #689
      010050CCH   LINE      CODE     ---       #693
      010050D2H   LINE      CODE     ---       #694
      010050D5H   LINE      CODE     ---       #695
      010050DDH   LINE      CODE     ---       #696
      010050E4H   LINE      CODE     ---       #697
      01005116H   LINE      CODE     ---       #701
      0100511CH   LINE      CODE     ---       #702
      0100511FH   LINE      CODE     ---       #703
      01005127H   LINE      CODE     ---       #704
      0100512EH   LINE      CODE     ---       #705
      01005160H   LINE      CODE     ---       #709
      01005165H   LINE      CODE     ---       #710
      01005168H   LINE      CODE     ---       #711
      01005170H   LINE      CODE     ---       #712
      01005175H   LINE      CODE     ---       #713
      0100518CH   LINE      CODE     ---       #714
      0100518FH   LINE      CODE     ---       #715
      01005191H   LINE      CODE     ---       #716
      01005191H   LINE      CODE     ---       #717
      010051A8H   LINE      CODE     ---       #718
      010051ABH   LINE      CODE     ---       #719
      010051ABH   LINE      CODE     ---       #720
      010051B2H   LINE      CODE     ---       #721
      010051E4H   LINE      CODE     ---       #723
      010051F2H   LINE      CODE     ---       #727
      010051F9H   LINE      CODE     ---       #728
      0100522BH   LINE      CODE     ---       #730
      01005232H   LINE      CODE     ---       #731
      01005264H   LINE      CODE     ---       #733
      0100526BH   LINE      CODE     ---       #734
      0100529DH   LINE      CODE     ---       #736
      010052C1H   LINE      CODE     ---       #737
LX51 LINKER/LOCATER V4.64.0.0                                                         02/16/2023  11:05:26  PAGE 42


      010052CAH   LINE      CODE     ---       #738
      010052CBH   LINE      CODE     ---       #741
      010052CBH   LINE      CODE     ---       #742
      010052D3H   LINE      CODE     ---       #743
      010052D4H   LINE      CODE     ---       #746
      010052D4H   LINE      CODE     ---       #747
      010052DCH   LINE      CODE     ---       #748
      010052DDH   LINE      CODE     ---       #751
      010052DDH   LINE      CODE     ---       #752
      010052EAH   LINE      CODE     ---       #753
      01005304H   LINE      CODE     ---       #754
      01005308H   LINE      CODE     ---       #755
      01005308H   LINE      CODE     ---       #758
      01005308H   LINE      CODE     ---       #759
      01005312H   LINE      CODE     ---       #760
      0100533CH   LINE      CODE     ---       #761
      01005372H   LINE      CODE     ---       #763
      0100537FH   LINE      CODE     ---       #764
      01005383H   LINE      CODE     ---       #765
      01005385H   LINE      CODE     ---       #766
      01005386H   LINE      CODE     ---       #769
      01005386H   LINE      CODE     ---       #770
      01005393H   LINE      CODE     ---       #771
      010053C3H   LINE      CODE     ---       #772
      010053C3H   LINE      CODE     ---       #775
      010053C3H   LINE      CODE     ---       #776
      010053CBH   LINE      CODE     ---       #777
      010053CCH   LINE      CODE     ---       #780
      010053CCH   LINE      CODE     ---       #781
      010053D9H   LINE      CODE     ---       #782
      01005405H   LINE      CODE     ---       #783
      01005431H   LINE      CODE     ---       #785
      01005467H   LINE      CODE     ---       #786
      0100549DH   LINE      CODE     ---       #787
      010054A2H   LINE      CODE     ---       #788
      010054A2H   LINE      CODE     ---       #791
      010054A2H   LINE      CODE     ---       #792
      010054B6H   LINE      CODE     ---       #793
      010054CFH   LINE      CODE     ---       #794
      010054E3H   LINE      CODE     ---       #796
      010054F7H   LINE      CODE     ---       #797
      01005513H   LINE      CODE     ---       #798
      01005527H   LINE      CODE     ---       #800
      01005528H   LINE      CODE     ---       #803
      01005528H   LINE      CODE     ---       #804
      01005530H   LINE      CODE     ---       #805
      01005531H   LINE      CODE     ---       #808
      01005531H   LINE      CODE     ---       #809
      01005540H   LINE      CODE     ---       #810
      0100554FH   LINE      CODE     ---       #811
      01005550H   LINE      CODE     ---       #814
      01005550H   LINE      CODE     ---       #815
      01005564H   LINE      CODE     ---       #816
      01005578H   LINE      CODE     ---       #817
      01005579H   LINE      CODE     ---       #820
      01005579H   LINE      CODE     ---       #821
      01005581H   LINE      CODE     ---       #822
      01005582H   LINE      CODE     ---       #825
      01005582H   LINE      CODE     ---       #826
      0100558AH   LINE      CODE     ---       #827
      0100558BH   LINE      CODE     ---       #829
      0100558BH   LINE      CODE     ---       #830
      0100559AH   LINE      CODE     ---       #831
      0100559BH   LINE      CODE     ---       #833
      0100559BH   LINE      CODE     ---       #834
LX51 LINKER/LOCATER V4.64.0.0                                                         02/16/2023  11:05:26  PAGE 43


      010055AAH   LINE      CODE     ---       #835
      010055ABH   LINE      CODE     ---       #837
      010055ABH   LINE      CODE     ---       #838
      010055B3H   LINE      CODE     ---       #839
      010055B5H   LINE      CODE     ---       #840
      010055BBH   LINE      CODE     ---       #841
      010055BCH   LINE      CODE     ---       #842
      010055C1H   LINE      CODE     ---       #843
      010055C1H   LINE      CODE     ---       #844
      010055C2H   LINE      CODE     ---       #846
      010055C2H   LINE      CODE     ---       #847
      010055CAH   LINE      CODE     ---       #848
      010055CBH   LINE      CODE     ---       #850
      010055CBH   LINE      CODE     ---       #851
      010055DFH   LINE      CODE     ---       #852
      010055FCH   LINE      CODE     ---       #853
      010055FDH   LINE      CODE     ---       #855
      010055FDH   LINE      CODE     ---       #856
      01005611H   LINE      CODE     ---       #857
      0100563AH   LINE      CODE     ---       #858
      0100563BH   LINE      CODE     ---       #860
      0100563BH   LINE      CODE     ---       #861
      0100564FH   LINE      CODE     ---       #862
      01005650H   LINE      CODE     ---       #864
      01005650H   LINE      CODE     ---       #865
      01005664H   LINE      CODE     ---       #866
      01005665H   LINE      CODE     ---       #868
      01005665H   LINE      CODE     ---       #869
      01005674H   LINE      CODE     ---       #870
      01005675H   LINE      CODE     ---       #872
      01005675H   LINE      CODE     ---       #873
      01005684H   LINE      CODE     ---       #874
      01005685H   LINE      CODE     ---       #876
      01005685H   LINE      CODE     ---       #877
      01005699H   LINE      CODE     ---       #878
      0100569AH   LINE      CODE     ---       #880
      0100569AH   LINE      CODE     ---       #881
      010056AEH   LINE      CODE     ---       #882
      010056AFH   LINE      CODE     ---       #884
      010056AFH   LINE      CODE     ---       #885
      010056B7H   LINE      CODE     ---       #886
      010056B9H   LINE      CODE     ---       #887
      010056BFH   LINE      CODE     ---       #888
      010056C0H   LINE      CODE     ---       #889
      010056C5H   LINE      CODE     ---       #890
      010056C5H   LINE      CODE     ---       #891
      010056C6H   LINE      CODE     ---       #893
      010056C6H   LINE      CODE     ---       #894
      010056CEH   LINE      CODE     ---       #895
      010056D0H   LINE      CODE     ---       #896
      010056D6H   LINE      CODE     ---       #897
      010056D7H   LINE      CODE     ---       #898
      010056DCH   LINE      CODE     ---       #899
      010056DCH   LINE      CODE     ---       #900
      010056DDH   LINE      CODE     ---       #902
      010056DDH   LINE      CODE     ---       #903
      010056E5H   LINE      CODE     ---       #904
      010056E7H   LINE      CODE     ---       #905
      010056EDH   LINE      CODE     ---       #906
      010056EEH   LINE      CODE     ---       #907
      010056F3H   LINE      CODE     ---       #908
      010056F3H   LINE      CODE     ---       #909
      010056F4H   LINE      CODE     ---       #911
      010056F4H   LINE      CODE     ---       #912
      010056FCH   LINE      CODE     ---       #913
LX51 LINKER/LOCATER V4.64.0.0                                                         02/16/2023  11:05:26  PAGE 44


      010056FDH   LINE      CODE     ---       #915
      010056FDH   LINE      CODE     ---       #916
      01005705H   LINE      CODE     ---       #917
      01005706H   LINE      CODE     ---       #919
      01005706H   LINE      CODE     ---       #920
      0100570EH   LINE      CODE     ---       #921
      0100570FH   LINE      CODE     ---       #923
      0100570FH   LINE      CODE     ---       #924
      01005717H   LINE      CODE     ---       #925
      01005717H   LINE      CODE     ---       #926
      01005717H   LINE      CODE     ---       #927
      ---         BLOCKEND  ---      ---       LVL=0

      0100B484H   BLOCK     CODE     ---       LVL=0
      0100B484H   BLOCK     CODE     NEAR LAB  LVL=1
      0000002BH   SYMBOL    DATA     BYTE      i
      ---         BLOCKEND  ---      ---       LVL=1
      0100B484H   LINE      CODE     ---       #933
      0100B484H   LINE      CODE     ---       #934
      0100B484H   LINE      CODE     ---       #937
      0100B48EH   LINE      CODE     ---       #938
      0100B4B8H   LINE      CODE     ---       #939
      0100B4EEH   LINE      CODE     ---       #941
      0100B4FBH   LINE      CODE     ---       #942
      0100B4FFH   LINE      CODE     ---       #943
      0100B501H   LINE      CODE     ---       #945
      0100B506H   LINE      CODE     ---       #946
      ---         BLOCKEND  ---      ---       LVL=0

      01005718H   BLOCK     CODE     ---       LVL=0
      02000741H   SYMBOL    XDATA    ---       info_string
      01005723H   BLOCK     CODE     NEAR LAB  LVL=1
      02000744H   SYMBOL    XDATA    INT       i
      0100572EH   BLOCK     CODE     NEAR LAB  LVL=2
      02000746H   SYMBOL    XDATA    ---       str
      ---         BLOCKEND  ---      ---       LVL=2
      ---         BLOCKEND  ---      ---       LVL=1
      01005718H   LINE      CODE     ---       #952
      01005723H   LINE      CODE     ---       #953
      01005723H   LINE      CODE     ---       #955
      0100572EH   LINE      CODE     ---       #957
      01005746H   LINE      CODE     ---       #958
      01005762H   LINE      CODE     ---       #959
      0100577EH   LINE      CODE     ---       #960
      0100579AH   LINE      CODE     ---       #961
      010057B6H   LINE      CODE     ---       #963
      010057D2H   LINE      CODE     ---       #964
      010057F6H   LINE      CODE     ---       #965
      01005812H   LINE      CODE     ---       #967
      0100582EH   LINE      CODE     ---       #968
      0100584AH   LINE      CODE     ---       #969
      01005865H   LINE      CODE     ---       #971
      010058CEH   LINE      CODE     ---       #972
      010058EAH   LINE      CODE     ---       #973
      01005906H   LINE      CODE     ---       #974
      01005917H   LINE      CODE     ---       #976
      01005942H   LINE      CODE     ---       #977
      0100595EH   LINE      CODE     ---       #978
      0100597AH   LINE      CODE     ---       #980
      010059A5H   LINE      CODE     ---       #981
      010059C1H   LINE      CODE     ---       #982
      010059DDH   LINE      CODE     ---       #984
      010059F9H   LINE      CODE     ---       #986
      01005A21H   LINE      CODE     ---       #987
      01005A21H   LINE      CODE     ---       #988
LX51 LINKER/LOCATER V4.64.0.0                                                         02/16/2023  11:05:26  PAGE 45


      01005A3DH   LINE      CODE     ---       #989
      01005A40H   LINE      CODE     ---       #990
      01005A40H   LINE      CODE     ---       #991
      01005A5CH   LINE      CODE     ---       #992
      01005A5FH   LINE      CODE     ---       #993
      01005A5FH   LINE      CODE     ---       #994
      01005A7BH   LINE      CODE     ---       #995
      01005A7DH   LINE      CODE     ---       #996
      01005A7DH   LINE      CODE     ---       #997
      01005A99H   LINE      CODE     ---       #998
      01005A9BH   LINE      CODE     ---       #999
      01005A9BH   LINE      CODE     ---       #1000
      01005AB7H   LINE      CODE     ---       #1001
      01005AB9H   LINE      CODE     ---       #1002
      01005AB9H   LINE      CODE     ---       #1003
      01005AD5H   LINE      CODE     ---       #1004
      01005AD7H   LINE      CODE     ---       #1005
      01005AD7H   LINE      CODE     ---       #1006
      01005AF3H   LINE      CODE     ---       #1007
      01005AF3H   LINE      CODE     ---       #1008
      01005AF3H   LINE      CODE     ---       #1010
      01005B19H   LINE      CODE     ---       #1011
      01005B35H   LINE      CODE     ---       #1015
      01005B51H   LINE      CODE     ---       #1016
      01005B6CH   LINE      CODE     ---       #1017
      01005BABH   LINE      CODE     ---       #1018
      01005BC7H   LINE      CODE     ---       #1019
      01005BE3H   LINE      CODE     ---       #1020
      01005BF4H   LINE      CODE     ---       #1023
      01005C10H   LINE      CODE     ---       #1024
      01005C2BH   LINE      CODE     ---       #1025
      01005C92H   LINE      CODE     ---       #1026
      01005CAEH   LINE      CODE     ---       #1027
      01005CCAH   LINE      CODE     ---       #1028
      01005CDBH   LINE      CODE     ---       #1030
      01005CF7H   LINE      CODE     ---       #1031
      01005D12H   LINE      CODE     ---       #1032
      01005D63H   LINE      CODE     ---       #1033
      01005D7FH   LINE      CODE     ---       #1034
      01005D9BH   LINE      CODE     ---       #1035
      01005DACH   LINE      CODE     ---       #1037
      01005DD0H   LINE      CODE     ---       #1038
      01005DECH   LINE      CODE     ---       #1039
      01005E08H   LINE      CODE     ---       #1041
      01005E23H   LINE      CODE     ---       #1043
      01005E8AH   LINE      CODE     ---       #1044
      01005EA6H   LINE      CODE     ---       #1047
      01005EFAH   LINE      CODE     ---       #1048
      01005F16H   LINE      CODE     ---       #1049
      01005F27H   LINE      CODE     ---       #1051
      01005F64H   LINE      CODE     ---       #1052
      01005F80H   LINE      CODE     ---       #1053
      01005F9CH   LINE      CODE     ---       #1055
      01005FC2H   LINE      CODE     ---       #1056
      01005FDEH   LINE      CODE     ---       #1057
      01005FFAH   LINE      CODE     ---       #1058
      01006020H   LINE      CODE     ---       #1059
      0100603CH   LINE      CODE     ---       #1060
      01006058H   LINE      CODE     ---       #1062
      0100608DH   LINE      CODE     ---       #1063
      010060A9H   LINE      CODE     ---       #1064
      010060C5H   LINE      CODE     ---       #1066
      01006104H   LINE      CODE     ---       #1067
      01006120H   LINE      CODE     ---       #1068
      0100613CH   LINE      CODE     ---       #1070
LX51 LINKER/LOCATER V4.64.0.0                                                         02/16/2023  11:05:26  PAGE 46


      01006142H   LINE      CODE     ---       #1071
      0100615EH   LINE      CODE     ---       #1072
      01006160H   LINE      CODE     ---       #1073
      0100617CH   LINE      CODE     ---       #1074
      0100617CH   LINE      CODE     ---       #1076
      010061A0H   LINE      CODE     ---       #1077
      010061BCH   LINE      CODE     ---       #1078
      010061D8H   LINE      CODE     ---       #1080
      01006202H   LINE      CODE     ---       #1081
      0100621EH   LINE      CODE     ---       #1082
      0100623AH   LINE      CODE     ---       #1084
      01006264H   LINE      CODE     ---       #1085
      01006280H   LINE      CODE     ---       #1086
      0100629CH   LINE      CODE     ---       #1088
      010062D2H   LINE      CODE     ---       #1089
      010062EEH   LINE      CODE     ---       #1090
      0100630AH   LINE      CODE     ---       #1092
      01006310H   LINE      CODE     ---       #1093
      0100632CH   LINE      CODE     ---       #1094
      0100632EH   LINE      CODE     ---       #1095
      0100634AH   LINE      CODE     ---       #1096
      0100634AH   LINE      CODE     ---       #1098
      01006350H   LINE      CODE     ---       #1099
      0100636CH   LINE      CODE     ---       #1100
      0100636EH   LINE      CODE     ---       #1101
      0100638AH   LINE      CODE     ---       #1102
      0100638AH   LINE      CODE     ---       #1104
      01006390H   LINE      CODE     ---       #1105
      010063ACH   LINE      CODE     ---       #1106
      010063AEH   LINE      CODE     ---       #1107
      010063CAH   LINE      CODE     ---       #1108
      010063CAH   LINE      CODE     ---       #1110
      010063D0H   LINE      CODE     ---       #1111
      010063ECH   LINE      CODE     ---       #1112
      010063EEH   LINE      CODE     ---       #1113
      0100640AH   LINE      CODE     ---       #1114
      0100640AH   LINE      CODE     ---       #1116
      01006413H   LINE      CODE     ---       #1117
      0100642FH   LINE      CODE     ---       #1118
      0100644AH   LINE      CODE     ---       #1119
      010064E8H   LINE      CODE     ---       #1120
      01006504H   LINE      CODE     ---       #1121
      01006515H   LINE      CODE     ---       #1122
      01006531H   LINE      CODE     ---       #1123
      01006531H   LINE      CODE     ---       #1125
      01006537H   LINE      CODE     ---       #1126
      01006553H   LINE      CODE     ---       #1127
      01006555H   LINE      CODE     ---       #1128
      01006571H   LINE      CODE     ---       #1129
      01006571H   LINE      CODE     ---       #1131
      010065B5H   LINE      CODE     ---       #1132
      010065D1H   LINE      CODE     ---       #1133
      010065EDH   LINE      CODE     ---       #1134
      010065EDH   LINE      CODE     ---       #1135
      ---         BLOCKEND  ---      ---       LVL=0

      0100B1D3H   BLOCK     CODE     ---       LVL=0
      02000047H   SYMBOL    XDATA    ---       packet_data
      0200004AH   SYMBOL    XDATA    WORD      packet_lenght
      0200004CH   SYMBOL    XDATA    BYTE      old_id
      0100B1E4H   BLOCK     CODE     NEAR LAB  LVL=1
      0000002FH   SYMBOL    DATA     WORD      index
      ---         BLOCKEND  ---      ---       LVL=1
      0100B1D3H   LINE      CODE     ---       #1141
      0100B1E4H   LINE      CODE     ---       #1142
LX51 LINKER/LOCATER V4.64.0.0                                                         02/16/2023  11:05:26  PAGE 47


      0100B1E4H   LINE      CODE     ---       #1146
      0100B1E9H   LINE      CODE     ---       #1147
      0100B1EEH   LINE      CODE     ---       #1150
      0100B1F6H   LINE      CODE     ---       #1155
      0100B200H   LINE      CODE     ---       #1157
      0100B214H   LINE      CODE     ---       #1158
      0100B22CH   LINE      CODE     ---       #1159
      0100B236H   LINE      CODE     ---       #1161
      0100B23BH   LINE      CODE     ---       #1163
      0100B255H   LINE      CODE     ---       #1165
      0100B25AH   LINE      CODE     ---       #1166
      0100B25FH   LINE      CODE     ---       #1167
      ---         BLOCKEND  ---      ---       LVL=0

      0100B260H   BLOCK     CODE     ---       LVL=0
      02000CA8H   SYMBOL    XDATA    ---       packet_data
      02000CABH   SYMBOL    XDATA    WORD      packet_lenght
      0100B271H   BLOCK     CODE     NEAR LAB  LVL=1
      00000047H   SYMBOL    DATA     WORD      index
      ---         BLOCKEND  ---      ---       LVL=1
      0100B260H   LINE      CODE     ---       #1169
      0100B271H   LINE      CODE     ---       #1170
      0100B271H   LINE      CODE     ---       #1174
      0100B276H   LINE      CODE     ---       #1175
      0100B27BH   LINE      CODE     ---       #1177
      0100B283H   LINE      CODE     ---       #1179
      0100B28DH   LINE      CODE     ---       #1181
      0100B2A1H   LINE      CODE     ---       #1182
      0100B2B9H   LINE      CODE     ---       #1183
      0100B2C3H   LINE      CODE     ---       #1185
      0100B2C8H   LINE      CODE     ---       #1187
      0100B2E2H   LINE      CODE     ---       #1189
      0100B2E7H   LINE      CODE     ---       #1190
      0100B2ECH   LINE      CODE     ---       #1191
      ---         BLOCKEND  ---      ---       LVL=0

      0100AAD0H   BLOCK     CODE     ---       LVL=0
      0100AAD0H   BLOCK     CODE     NEAR LAB  LVL=1
      02000007H   SYMBOL    XDATA    ---       packet_data
      00000007H   SYMBOL    DATA     BYTE      packet_lenght
      02000011H   SYMBOL    XDATA    LONG      aux_val
      02000015H   SYMBOL    XDATA    DWORD     t_start
      02000019H   SYMBOL    XDATA    DWORD     t_end
      ---         BLOCKEND  ---      ---       LVL=1
      0100AAD0H   LINE      CODE     ---       #1197
      0100AAD0H   LINE      CODE     ---       #1198
      0100AAD0H   LINE      CODE     ---       #1201
      0100AADBH   LINE      CODE     ---       #1204
      0100AADDH   LINE      CODE     ---       #1205
      0100AAE3H   LINE      CODE     ---       #1206
      0100AAE5H   LINE      CODE     ---       #1207
      0100AAFAH   LINE      CODE     ---       #1209
      0100AB03H   LINE      CODE     ---       #1210
      0100AB0BH   LINE      CODE     ---       #1211
      0100AB0EH   LINE      CODE     ---       #1212
      0100AB10H   LINE      CODE     ---       #1213
      0100AB13H   LINE      CODE     ---       #1214
      0100AB13H   LINE      CODE     ---       #1216
      0100AB1CH   LINE      CODE     ---       #1217
      0100AB51H   LINE      CODE     ---       #1219
      0100AB53H   LINE      CODE     ---       #1220
      0100AB53H   LINE      CODE     ---       #1221
      0100AB55H   LINE      CODE     ---       #1223
      0100AB5BH   LINE      CODE     ---       #1224
      0100AB6FH   LINE      CODE     ---       #1226
LX51 LINKER/LOCATER V4.64.0.0                                                         02/16/2023  11:05:26  PAGE 48


      0100AB8CH   LINE      CODE     ---       #1227
      0100AB8CH   LINE      CODE     ---       #1229
      0100AB9AH   LINE      CODE     ---       #1230
      ---         BLOCKEND  ---      ---       LVL=0

      0100A9F6H   BLOCK     CODE     ---       LVL=0
      0100A9F6H   BLOCK     CODE     NEAR LAB  LVL=1
      02000019H   SYMBOL    XDATA    ---       packet_data
      00000007H   SYMBOL    DATA     BYTE      packet_lenght
      02000029H   SYMBOL    XDATA    INT       curr_diff
      0200002BH   SYMBOL    XDATA    DWORD     t_start
      0200002FH   SYMBOL    XDATA    DWORD     t_end
      02000033H   SYMBOL    XDATA    LONG      aux_val
      ---         BLOCKEND  ---      ---       LVL=1
      0100A9F6H   LINE      CODE     ---       #1237
      0100A9F6H   LINE      CODE     ---       #1238
      0100A9F6H   LINE      CODE     ---       #1241
      0100A9FDH   LINE      CODE     ---       #1243
      0100AA07H   LINE      CODE     ---       #1245
      0100AA09H   LINE      CODE     ---       #1246
      0100AA0FH   LINE      CODE     ---       #1247
      0100AA11H   LINE      CODE     ---       #1248
      0100AA26H   LINE      CODE     ---       #1250
      0100AA2FH   LINE      CODE     ---       #1251
      0100AA37H   LINE      CODE     ---       #1252
      0100AA3AH   LINE      CODE     ---       #1253
      0100AA3CH   LINE      CODE     ---       #1254
      0100AA3FH   LINE      CODE     ---       #1255
      0100AA3FH   LINE      CODE     ---       #1257
      0100AA48H   LINE      CODE     ---       #1258
      0100AA7DH   LINE      CODE     ---       #1260
      0100AA7FH   LINE      CODE     ---       #1261
      0100AA7FH   LINE      CODE     ---       #1262
      0100AA81H   LINE      CODE     ---       #1264
      0100AA87H   LINE      CODE     ---       #1265
      0100AA96H   LINE      CODE     ---       #1267
      0100AAAAH   LINE      CODE     ---       #1268
      0100AAC7H   LINE      CODE     ---       #1269
      0100AAC7H   LINE      CODE     ---       #1271
      0100AACFH   LINE      CODE     ---       #1272
      ---         BLOCKEND  ---      ---       LVL=0

      01008E4CH   BLOCK     CODE     ---       LVL=0
      01008E4CH   BLOCK     CODE     NEAR LAB  LVL=1
      02000003H   SYMBOL    XDATA    ---       packet_data
      00000007H   SYMBOL    DATA     BYTE      packet_length
      02000013H   SYMBOL    XDATA    DWORD     t_start
      02000017H   SYMBOL    XDATA    DWORD     t_end
      0200001BH   SYMBOL    XDATA    FLOAT     acc_sf
      0200001FH   SYMBOL    XDATA    ---       values
      02000022H   SYMBOL    XDATA    ---       aux_float
      0200002EH   SYMBOL    XDATA    INT       aux_si
      02000030H   SYMBOL    XDATA    WORD      c
      02000032H   SYMBOL    XDATA    BYTE      i
      ---         BLOCKEND  ---      ---       LVL=1
      01008E4CH   LINE      CODE     ---       #1278
      01008E4CH   LINE      CODE     ---       #1279
      01008E4CH   LINE      CODE     ---       #1283
      01008E5AH   LINE      CODE     ---       #1287
      01008E61H   LINE      CODE     ---       #1288
      01008E63H   LINE      CODE     ---       #1290
      01008E65H   LINE      CODE     ---       #1291
      01008E6BH   LINE      CODE     ---       #1292
      01008E6DH   LINE      CODE     ---       #1293
      01008E82H   LINE      CODE     ---       #1295
LX51 LINKER/LOCATER V4.64.0.0                                                         02/16/2023  11:05:26  PAGE 49


      01008E8BH   LINE      CODE     ---       #1296
      01008E93H   LINE      CODE     ---       #1297
      01008E96H   LINE      CODE     ---       #1298
      01008E98H   LINE      CODE     ---       #1299
      01008E9BH   LINE      CODE     ---       #1300
      01008E9BH   LINE      CODE     ---       #1302
      01008EA4H   LINE      CODE     ---       #1303
      01008ED9H   LINE      CODE     ---       #1305
      01008EDBH   LINE      CODE     ---       #1306
      01008EDBH   LINE      CODE     ---       #1307
      01008EDDH   LINE      CODE     ---       #1309
      01008EE6H   LINE      CODE     ---       #1310
      01008EF4H   LINE      CODE     ---       #1312
      01008F05H   LINE      CODE     ---       #1313
      01008F28H   LINE      CODE     ---       #1314
      01008F4BH   LINE      CODE     ---       #1315
      01008F69H   LINE      CODE     ---       #1316
      01008F8CH   LINE      CODE     ---       #1317
      01008FB2H   LINE      CODE     ---       #1318
      01008FD0H   LINE      CODE     ---       #1319
      01008FF3H   LINE      CODE     ---       #1320
      01009019H   LINE      CODE     ---       #1321
      01009037H   LINE      CODE     ---       #1322
      0100905AH   LINE      CODE     ---       #1324
      0100907DH   LINE      CODE     ---       #1325
      0100909CH   LINE      CODE     ---       #1326
      010090BBH   LINE      CODE     ---       #1327
      010090C9H   LINE      CODE     ---       #1329
      010090D5H   LINE      CODE     ---       #1330
      010090D5H   LINE      CODE     ---       #1331
      010090F4H   LINE      CODE     ---       #1332
      01009102H   LINE      CODE     ---       #1333
      01009102H   LINE      CODE     ---       #1334
      01009102H   LINE      CODE     ---       #1335
      01009102H   LINE      CODE     ---       #1336
      0100910BH   LINE      CODE     ---       #1337
      0100910BH   LINE      CODE     ---       #1338
      ---         BLOCKEND  ---      ---       LVL=0

      0100B507H   BLOCK     CODE     ---       LVL=0
      02000037H   SYMBOL    XDATA    ---       packet_data
      0200003AH   SYMBOL    XDATA    WORD      packet_lenght
      0200003CH   SYMBOL    XDATA    BYTE      id
      0100B518H   BLOCK     CODE     NEAR LAB  LVL=1
      0000001EH   SYMBOL    DATA     WORD      i
      ---         BLOCKEND  ---      ---       LVL=1
      0100B507H   LINE      CODE     ---       #1344
      0100B518H   LINE      CODE     ---       #1345
      0100B518H   LINE      CODE     ---       #1349
      0100B51DH   LINE      CODE     ---       #1350
      0100B522H   LINE      CODE     ---       #1352
      0100B52AH   LINE      CODE     ---       #1354
      0100B534H   LINE      CODE     ---       #1356
      0100B548H   LINE      CODE     ---       #1357
      0100B560H   LINE      CODE     ---       #1358
      0100B56AH   LINE      CODE     ---       #1360
      0100B56FH   LINE      CODE     ---       #1362
      0100B589H   LINE      CODE     ---       #1363
      ---         BLOCKEND  ---      ---       LVL=0

      0100B129H   BLOCK     CODE     ---       LVL=0
      0100B129H   BLOCK     CODE     NEAR LAB  LVL=1
      02000003H   SYMBOL    XDATA    ---       packet_data
      02000009H   SYMBOL    XDATA    BYTE      packet_lenght
      ---         BLOCKEND  ---      ---       LVL=1
LX51 LINKER/LOCATER V4.64.0.0                                                         02/16/2023  11:05:26  PAGE 50


      0100B129H   LINE      CODE     ---       #1369
      0100B129H   LINE      CODE     ---       #1374
      0100B14BH   LINE      CODE     ---       #1379
      0100B14BH   LINE      CODE     ---       #1380
      0100B151H   LINE      CODE     ---       #1382
      0100B151H   LINE      CODE     ---       #1384
      0100B16CH   LINE      CODE     ---       #1385
      0100B172H   LINE      CODE     ---       #1387
      0100B172H   LINE      CODE     ---       #1391
      0100B178H   LINE      CODE     ---       #1392
      0100B197H   LINE      CODE     ---       #1393
      0100B19CH   LINE      CODE     ---       #1394
      0100B1A2H   LINE      CODE     ---       #1395
      0100B1BDH   LINE      CODE     ---       #1396
      0100B1D2H   LINE      CODE     ---       #1398
      ---         BLOCKEND  ---      ---       LVL=0

      0100A653H   BLOCK     CODE     ---       LVL=0
      0100A653H   BLOCK     CODE     NEAR LAB  LVL=1
      00000022H   SYMBOL    DATA     ---       packet_data
      00000006H   SYMBOL    DATA     INT       curr_diff
      02000003H   SYMBOL    XDATA    LONG      aux_val
      02000007H   SYMBOL    XDATA    LONG      aux_p1
      0200000BH   SYMBOL    XDATA    LONG      aux_p2
      ---         BLOCKEND  ---      ---       LVL=1
      0100A653H   LINE      CODE     ---       #1406
      0100A653H   LINE      CODE     ---       #1412
      0100A656H   LINE      CODE     ---       #1415
      0100A669H   LINE      CODE     ---       #1416
      0100A66EH   LINE      CODE     ---       #1418
      0100A681H   LINE      CODE     ---       #1419
      0100A686H   LINE      CODE     ---       #1421
      0100A695H   LINE      CODE     ---       #1423
      0100A6CCH   LINE      CODE     ---       #1425
      0100A6ECH   LINE      CODE     ---       #1426
      0100A709H   LINE      CODE     ---       #1429
      0100A70CH   LINE      CODE     ---       #1430
      0100A723H   LINE      CODE     ---       #1431
      0100A738H   LINE      CODE     ---       #1432
      0100A745H   LINE      CODE     ---       #1433
      0100A75AH   LINE      CODE     ---       #1435
      ---         BLOCKEND  ---      ---       LVL=0

      0100ADB9H   BLOCK     CODE     ---       LVL=0
      0100ADB9H   BLOCK     CODE     NEAR LAB  LVL=1
      00000022H   SYMBOL    DATA     ---       packet_data
      02000003H   SYMBOL    XDATA    LONG      aux_val
      ---         BLOCKEND  ---      ---       LVL=1
      0100ADB9H   LINE      CODE     ---       #1442
      0100ADB9H   LINE      CODE     ---       #1447
      0100ADC2H   LINE      CODE     ---       #1449
      0100ADDFH   LINE      CODE     ---       #1450
      0100AE15H   LINE      CODE     ---       #1452
      0100AE1BH   LINE      CODE     ---       #1454
      0100AE32H   LINE      CODE     ---       #1455
      0100AE32H   LINE      CODE     ---       #1458
      0100AE35H   LINE      CODE     ---       #1459
      0100AE44H   LINE      CODE     ---       #1460
      0100AE48H   LINE      CODE     ---       #1461
      0100AE55H   LINE      CODE     ---       #1462
      0100AE6AH   LINE      CODE     ---       #1464
      ---         BLOCKEND  ---      ---       LVL=0

      0100910CH   BLOCK     CODE     ---       LVL=0
      0100910CH   BLOCK     CODE     NEAR LAB  LVL=1
LX51 LINKER/LOCATER V4.64.0.0                                                         02/16/2023  11:05:26  PAGE 51


      00000022H   SYMBOL    DATA     ---       packet_data
      02000003H   SYMBOL    XDATA    INT       curr_diff
      02000005H   SYMBOL    XDATA    LONG      aux_val
      02000009H   SYMBOL    XDATA    LONG      aux_p1
      0200000DH   SYMBOL    XDATA    LONG      aux_p2
      02000011H   SYMBOL    XDATA    LONG      ref_slide
      02000015H   SYMBOL    XDATA    LONG      ref_force
      ---         BLOCKEND  ---      ---       LVL=1
      0100910CH   LINE      CODE     ---       #1473
      0100910CH   LINE      CODE     ---       #1480
      01009117H   LINE      CODE     ---       #1483
      0100912BH   LINE      CODE     ---       #1484
      01009133H   LINE      CODE     ---       #1486
      0100914FH   LINE      CODE     ---       #1487
      01009158H   LINE      CODE     ---       #1489
      0100916DH   LINE      CODE     ---       #1492
      0100918AH   LINE      CODE     ---       #1493
      010091C0H   LINE      CODE     ---       #1496
      010091FBH   LINE      CODE     ---       #1498
      01009201H   LINE      CODE     ---       #1500
      01009231H   LINE      CODE     ---       #1501
      0100925EH   LINE      CODE     ---       #1502
      01009260H   LINE      CODE     ---       #1503
      01009260H   LINE      CODE     ---       #1505
      0100928DH   LINE      CODE     ---       #1506
      010092B9H   LINE      CODE     ---       #1507
      010092B9H   LINE      CODE     ---       #1510
      010092BCH   LINE      CODE     ---       #1511
      010092CBH   LINE      CODE     ---       #1512
      010092D8H   LINE      CODE     ---       #1513
      010092E5H   LINE      CODE     ---       #1514
      010092FAH   LINE      CODE     ---       #1516
      ---         BLOCKEND  ---      ---       LVL=0

      0100C595H   BLOCK     CODE     ---       LVL=0
      0100C595H   LINE      CODE     ---       #1523
      0100C595H   LINE      CODE     ---       #1528
      0100C59BH   LINE      CODE     ---       #1530
      0100C59EH   LINE      CODE     ---       #1531
      0100C59EH   LINE      CODE     ---       #1532
      0100C59EH   LINE      CODE     ---       #1535
      0100C59EH   LINE      CODE     ---       #1540
      ---         BLOCKEND  ---      ---       LVL=0

      0100B9D6H   BLOCK     CODE     ---       LVL=0
      0100B9D6H   BLOCK     CODE     NEAR LAB  LVL=1
      02000003H   SYMBOL    XDATA    ---       packet_data
      0200000DH   SYMBOL    XDATA    BYTE      packet_lenght
      ---         BLOCKEND  ---      ---       LVL=1
      0100B9D6H   LINE      CODE     ---       #1546
      0100B9D6H   LINE      CODE     ---       #1551
      0100B9EEH   LINE      CODE     ---       #1554
      0100B9EEH   LINE      CODE     ---       #1555
      0100B9F4H   LINE      CODE     ---       #1557
      0100B9F4H   LINE      CODE     ---       #1560
      0100B9FAH   LINE      CODE     ---       #1562
      0100B9FFH   LINE      CODE     ---       #1563
      0100BA05H   LINE      CODE     ---       #1564
      0100BA20H   LINE      CODE     ---       #1566
      0100BA2DH   LINE      CODE     ---       #1568
      ---         BLOCKEND  ---      ---       LVL=0

      0100BFCEH   BLOCK     CODE     ---       LVL=0
      02000CA8H   SYMBOL    XDATA    ---       data_array
      00000005H   SYMBOL    DATA     BYTE      data_length
LX51 LINKER/LOCATER V4.64.0.0                                                         02/16/2023  11:05:26  PAGE 52


      0100BFD9H   BLOCK     CODE     NEAR LAB  LVL=1
      00000047H   SYMBOL    DATA     BYTE      i
      00000048H   SYMBOL    DATA     BYTE      checksum
      ---         BLOCKEND  ---      ---       LVL=1
      0100BFCEH   LINE      CODE     ---       #1576
      0100BFD9H   LINE      CODE     ---       #1579
      0100BFDCH   LINE      CODE     ---       #1581
      0100BFE4H   LINE      CODE     ---       #1582
      0100BFFDH   LINE      CODE     ---       #1584
      0100BFFFH   LINE      CODE     ---       #1585
      ---         BLOCKEND  ---      ---       LVL=0

      0100C3E7H   BLOCK     CODE     ---       LVL=0
      00000007H   SYMBOL    DATA     BYTE      value
      0100C3E7H   BLOCK     CODE     NEAR LAB  LVL=1
      00000004H   SYMBOL    DATA     INT       packet_lenght
      02000047H   SYMBOL    XDATA    ---       packet_data
      ---         BLOCKEND  ---      ---       LVL=1
      0100C3E7H   LINE      CODE     ---       #1592
      0100C3E7H   LINE      CODE     ---       #1593
      0100C3EBH   LINE      CODE     ---       #1596
      0100C3F0H   LINE      CODE     ---       #1597
      0100C3F2H   LINE      CODE     ---       #1599
      0100C3FBH   LINE      CODE     ---       #1600
      ---         BLOCKEND  ---      ---       LVL=0

      0100AFCDH   BLOCK     CODE     ---       LVL=0
      02000047H   SYMBOL    XDATA    INT       displacement
      0100AFD5H   BLOCK     CODE     NEAR LAB  LVL=1
      02000049H   SYMBOL    XDATA    INT       i
      00000007H   SYMBOL    DATA     BYTE      writeStatus
      0200004BH   SYMBOL    XDATA    INT       pages
      0200004DH   SYMBOL    XDATA    BYTE      ret_val
      ---         BLOCKEND  ---      ---       LVL=1
      0100AFCDH   LINE      CODE     ---       #1607
      0100AFD5H   LINE      CODE     ---       #1608
      0100AFD5H   LINE      CODE     ---       #1612
      0100AFDBH   LINE      CODE     ---       #1615
      0100AFDEH   LINE      CODE     ---       #1618
      0100AFE1H   LINE      CODE     ---       #1620
      0100AFF4H   LINE      CODE     ---       #1622
      0100AFFDH   LINE      CODE     ---       #1624
      0100B020H   LINE      CODE     ---       #1625
      0100B045H   LINE      CODE     ---       #1626
      0100B048H   LINE      CODE     ---       #1627
      0100B04DH   LINE      CODE     ---       #1628
      0100B04FH   LINE      CODE     ---       #1629
      0100B04FH   LINE      CODE     ---       #1630
      0100B05FH   LINE      CODE     ---       #1632
      0100B072H   LINE      CODE     ---       #1635
      0100B075H   LINE      CODE     ---       #1637
      0100B07AH   LINE      CODE     ---       #1638
      ---         BLOCKEND  ---      ---       LVL=0

      0100BBCBH   BLOCK     CODE     ---       LVL=0
      0100BBCBH   BLOCK     CODE     NEAR LAB  LVL=1
      00000006H   SYMBOL    DATA     WORD      i
      ---         BLOCKEND  ---      ---       LVL=1
      0100BBCBH   LINE      CODE     ---       #1646
      0100BBCBH   LINE      CODE     ---       #1647
      0100BBCBH   LINE      CODE     ---       #1650
      0100BBD7H   LINE      CODE     ---       #1651
      0100BBF3H   LINE      CODE     ---       #1652
      0100BBFAH   LINE      CODE     ---       #1655
      0100BC00H   LINE      CODE     ---       #1656
LX51 LINKER/LOCATER V4.64.0.0                                                         02/16/2023  11:05:26  PAGE 53


      0100BC03H   LINE      CODE     ---       #1657
      0100BC04H   LINE      CODE     ---       #1658
      0100BC17H   LINE      CODE     ---       #1659
      0100BC17H   LINE      CODE     ---       #1660
      ---         BLOCKEND  ---      ---       LVL=0

      0100BCF6H   BLOCK     CODE     ---       LVL=0
      0100BCF6H   BLOCK     CODE     NEAR LAB  LVL=1
      00000006H   SYMBOL    DATA     WORD      i
      ---         BLOCKEND  ---      ---       LVL=1
      0100BCF6H   LINE      CODE     ---       #1668
      0100BCF6H   LINE      CODE     ---       #1671
      0100BD02H   LINE      CODE     ---       #1672
      0100BD26H   LINE      CODE     ---       #1673
      0100BD2DH   LINE      CODE     ---       #1676
      0100BD33H   LINE      CODE     ---       #1677
      0100BD37H   LINE      CODE     ---       #1678
      0100BD37H   LINE      CODE     ---       #1679
      0100BD3DH   LINE      CODE     ---       #1680
      0100BD3DH   LINE      CODE     ---       #1681
      ---         BLOCKEND  ---      ---       LVL=0

      010092FBH   BLOCK     CODE     ---       LVL=0
      010092FBH   BLOCK     CODE     NEAR LAB  LVL=1
      00000003H   SYMBOL    DATA     BYTE      i
      ---         BLOCKEND  ---      ---       LVL=1
      010092FBH   LINE      CODE     ---       #1687
      010092FBH   LINE      CODE     ---       #1688
      010092FBH   LINE      CODE     ---       #1692
      01009301H   LINE      CODE     ---       #1694
      01009305H   LINE      CODE     ---       #1696
      0100930BH   LINE      CODE     ---       #1698
      01009311H   LINE      CODE     ---       #1699
      01009313H   LINE      CODE     ---       #1700
      01009315H   LINE      CODE     ---       #1702
      0100931DH   LINE      CODE     ---       #1703
      01009333H   LINE      CODE     ---       #1704
      01009354H   LINE      CODE     ---       #1705
      01009357H   LINE      CODE     ---       #1707
      0100935FH   LINE      CODE     ---       #1708
      0100935FH   LINE      CODE     ---       #1709
      01009377H   LINE      CODE     ---       #1710
      0100939DH   LINE      CODE     ---       #1711
      010093A0H   LINE      CODE     ---       #1713
      010093ABH   LINE      CODE     ---       #1714
      010093B2H   LINE      CODE     ---       #1715
      010093B6H   LINE      CODE     ---       #1717
      010093C0H   LINE      CODE     ---       #1718
      010093CBH   LINE      CODE     ---       #1721
      010093D0H   LINE      CODE     ---       #1723
      010093D9H   LINE      CODE     ---       #1724
      010093E5H   LINE      CODE     ---       #1726
      010093EEH   LINE      CODE     ---       #1727
      010093F5H   LINE      CODE     ---       #1729
      010093F9H   LINE      CODE     ---       #1731
      010093FDH   LINE      CODE     ---       #1732
      01009406H   LINE      CODE     ---       #1733
      0100940DH   LINE      CODE     ---       #1736
      01009411H   LINE      CODE     ---       #1737
      01009426H   LINE      CODE     ---       #1738
      01009432H   LINE      CODE     ---       #1739
      0100943FH   LINE      CODE     ---       #1741
      01009444H   LINE      CODE     ---       #1742
      01009446H   LINE      CODE     ---       #1743
      01009448H   LINE      CODE     ---       #1744
LX51 LINKER/LOCATER V4.64.0.0                                                         02/16/2023  11:05:26  PAGE 54


      0100944BH   LINE      CODE     ---       #1746
      01009457H   LINE      CODE     ---       #1747
      01009461H   LINE      CODE     ---       #1748
      01009468H   LINE      CODE     ---       #1749
      01009473H   LINE      CODE     ---       #1750
      01009490H   LINE      CODE     ---       #1752
      01009496H   LINE      CODE     ---       #1753
      01009499H   LINE      CODE     ---       #1754
      0100949CH   LINE      CODE     ---       #1755
      0100949FH   LINE      CODE     ---       #1758
      010094A4H   LINE      CODE     ---       #1761
      010094BDH   LINE      CODE     ---       #1762
      ---         BLOCKEND  ---      ---       LVL=0

      0100B7E3H   BLOCK     CODE     ---       LVL=0
      0100B7E3H   BLOCK     CODE     NEAR LAB  LVL=1
      0000002BH   SYMBOL    DATA     BYTE      index
      02000037H   SYMBOL    XDATA    ---       packet_data
      ---         BLOCKEND  ---      ---       LVL=1
      0100B7E3H   LINE      CODE     ---       #1771
      0100B7E3H   LINE      CODE     ---       #1780
      0100B7E9H   LINE      CODE     ---       #1782
      0100B7F3H   LINE      CODE     ---       #1783
      0100B832H   LINE      CODE     ---       #1787
      0100B842H   LINE      CODE     ---       #1789
      0100B84EH   LINE      CODE     ---       #1791
      ---         BLOCKEND  ---      ---       LVL=0

      01009DF6H   BLOCK     CODE     ---       LVL=0
      01009DF6H   LINE      CODE     ---       #1793
      01009DF6H   LINE      CODE     ---       #1797
      01009E0AH   LINE      CODE     ---       #1798
      01009E27H   LINE      CODE     ---       #1800
      01009E3BH   LINE      CODE     ---       #1801
      01009E58H   LINE      CODE     ---       #1805
      01009E61H   LINE      CODE     ---       #1807
      01009E81H   LINE      CODE     ---       #1808
      01009E95H   LINE      CODE     ---       #1809
      01009EB7H   LINE      CODE     ---       #1810
      01009ECBH   LINE      CODE     ---       #1812
      01009EEDH   LINE      CODE     ---       #1813
      01009F01H   LINE      CODE     ---       #1814
      01009F23H   LINE      CODE     ---       #1815
      01009F37H   LINE      CODE     ---       #1816
      01009F37H   LINE      CODE     ---       #1817
      ---         BLOCKEND  ---      ---       LVL=0

      0100C1E9H   BLOCK     CODE     ---       LVL=0
      0100C1E9H   LINE      CODE     ---       #1819
      0100C1E9H   LINE      CODE     ---       #1822
      0100C1FDH   LINE      CODE     ---       #1823
      0100C211H   LINE      CODE     ---       #1824
      ---         BLOCKEND  ---      ---       LVL=0

      0100BD82H   BLOCK     CODE     ---       LVL=0
      0100BD82H   BLOCK     CODE     NEAR LAB  LVL=1
      02000037H   SYMBOL    XDATA    ---       packet_data
      ---         BLOCKEND  ---      ---       LVL=1
      0100BD82H   LINE      CODE     ---       #1826
      0100BD82H   LINE      CODE     ---       #1830
      0100BD88H   LINE      CODE     ---       #1832
      0100BD97H   LINE      CODE     ---       #1833
      0100BDA6H   LINE      CODE     ---       #1835
      0100BDB6H   LINE      CODE     ---       #1837
      0100BDC2H   LINE      CODE     ---       #1838
LX51 LINKER/LOCATER V4.64.0.0                                                         02/16/2023  11:05:26  PAGE 55


      ---         BLOCKEND  ---      ---       LVL=0

      0100AD05H   BLOCK     CODE     ---       LVL=0
      0100AD05H   BLOCK     CODE     NEAR LAB  LVL=1
      00000002H   SYMBOL    DATA     WORD      i
      ---         BLOCKEND  ---      ---       LVL=1
      0100AD05H   LINE      CODE     ---       #1840
      0100AD05H   LINE      CODE     ---       #1842
      0100AD08H   LINE      CODE     ---       #1844
      0100AD14H   LINE      CODE     ---       #1845
      0100AD48H   LINE      CODE     ---       #1846
      0100AD7CH   LINE      CODE     ---       #1847
      0100ADB0H   LINE      CODE     ---       #1848
      0100ADB8H   LINE      CODE     ---       #1849
      ---         BLOCKEND  ---      ---       LVL=0

      0100C2BFH   BLOCK     CODE     ---       LVL=0
      0100C2BFH   LINE      CODE     ---       #1851
      0100C2BFH   LINE      CODE     ---       #1854
      0100C2C7H   LINE      CODE     ---       #1856
      0100C2CBH   LINE      CODE     ---       #1857
      0100C2CBH   LINE      CODE     ---       #1858
      0100C2D4H   LINE      CODE     ---       #1859
      0100C2D5H   LINE      CODE     ---       #1860
      0100C2D5H   LINE      CODE     ---       #1861
      0100C2DEH   LINE      CODE     ---       #1862
      0100C2DEH   LINE      CODE     ---       #1863
      ---         BLOCKEND  ---      ---       LVL=0

      0100C43BH   BLOCK     CODE     ---       LVL=0
      0100C43BH   BLOCK     CODE     NEAR LAB  LVL=1
      02000037H   SYMBOL    XDATA    ---       packet_data
      ---         BLOCKEND  ---      ---       LVL=1
      0100C43BH   LINE      CODE     ---       #1865
      0100C43BH   LINE      CODE     ---       #1870
      0100C440H   LINE      CODE     ---       #1873
      0100C442H   LINE      CODE     ---       #1876
      0100C44EH   LINE      CODE     ---       #1877
      ---         BLOCKEND  ---      ---       LVL=0

      0100B8BAH   BLOCK     CODE     ---       LVL=0
      0100B8BAH   BLOCK     CODE     NEAR LAB  LVL=1
      02000037H   SYMBOL    XDATA    ---       packet_data
      ---         BLOCKEND  ---      ---       LVL=1
      0100B8BAH   LINE      CODE     ---       #1879
      0100B8BAH   LINE      CODE     ---       #1887
      0100B8C0H   LINE      CODE     ---       #1889
      0100B8DFH   LINE      CODE     ---       #1890
      0100B8FEH   LINE      CODE     ---       #1894
      0100B90EH   LINE      CODE     ---       #1896
      0100B91AH   LINE      CODE     ---       #1897
      ---         BLOCKEND  ---      ---       LVL=0

      01008B44H   BLOCK     CODE     ---       LVL=0
      01008B44H   BLOCK     CODE     NEAR LAB  LVL=1
      02000037H   SYMBOL    XDATA    DWORD     off_1
      0200003BH   SYMBOL    XDATA    DWORD     off_2
      0200003FH   SYMBOL    XDATA    FLOAT     mult_1
      02000043H   SYMBOL    XDATA    FLOAT     mult_2
      0000002BH   SYMBOL    DATA     BYTE      packet_lenght
      0000002CH   SYMBOL    DATA     ---       packet_data
      0000002EH   SYMBOL    DATA     BYTE      old_id
      ---         BLOCKEND  ---      ---       LVL=1
      01008B44H   LINE      CODE     ---       #1899
      01008B44H   LINE      CODE     ---       #1904
LX51 LINKER/LOCATER V4.64.0.0                                                         02/16/2023  11:05:26  PAGE 56


      01008B47H   LINE      CODE     ---       #1908
      01008B50H   LINE      CODE     ---       #1909
      01008B64H   LINE      CODE     ---       #1910
      01008B78H   LINE      CODE     ---       #1911
      01008B8CH   LINE      CODE     ---       #1912
      01008BA0H   LINE      CODE     ---       #1914
      01008BCCH   LINE      CODE     ---       #1915
      01008BF8H   LINE      CODE     ---       #1917
      01008C24H   LINE      CODE     ---       #1918
      01008C50H   LINE      CODE     ---       #1920
      01008CAEH   LINE      CODE     ---       #1921
      01008D0CH   LINE      CODE     ---       #1925
      01008D15H   LINE      CODE     ---       #1926
      01008D35H   LINE      CODE     ---       #1927
      01008D49H   LINE      CODE     ---       #1928
      01008D6BH   LINE      CODE     ---       #1929
      01008D7FH   LINE      CODE     ---       #1931
      01008DA1H   LINE      CODE     ---       #1932
      01008DB5H   LINE      CODE     ---       #1933
      01008DD7H   LINE      CODE     ---       #1934
      01008DEBH   LINE      CODE     ---       #1935
      01008DEBH   LINE      CODE     ---       #1936
      01008DEBH   LINE      CODE     ---       #1939
      01008DF8H   LINE      CODE     ---       #1940
      01008DFAH   LINE      CODE     ---       #1941
      01008E03H   LINE      CODE     ---       #1942
      01008E06H   LINE      CODE     ---       #1943
      01008E09H   LINE      CODE     ---       #1944
      01008E1DH   LINE      CODE     ---       #1945
      01008E1EH   LINE      CODE     ---       #1946
      01008E1EH   LINE      CODE     ---       #1947
      01008E21H   LINE      CODE     ---       #1948
      01008E23H   LINE      CODE     ---       #1949
      01008E36H   LINE      CODE     ---       #1950
      01008E36H   LINE      CODE     ---       #1951
      01008E37H   LINE      CODE     ---       #1952
      01008E37H   LINE      CODE     ---       #1953
      01008E40H   LINE      CODE     ---       #1954
      01008E46H   LINE      CODE     ---       #1956
      01008E4BH   LINE      CODE     ---       #1957
      01008E4BH   LINE      CODE     ---       #1958
      ---         BLOCKEND  ---      ---       LVL=0

      0100BCADH   BLOCK     CODE     ---       LVL=0
      0100BCADH   BLOCK     CODE     NEAR LAB  LVL=1
      02000037H   SYMBOL    XDATA    ---       packet_data
      ---         BLOCKEND  ---      ---       LVL=1
      0100BCADH   LINE      CODE     ---       #1960
      0100BCADH   LINE      CODE     ---       #1965
      0100BCB3H   LINE      CODE     ---       #1967
      0100BCC6H   LINE      CODE     ---       #1968
      0100BCD9H   LINE      CODE     ---       #1970
      0100BCE9H   LINE      CODE     ---       #1972
      0100BCF5H   LINE      CODE     ---       #1974
      ---         BLOCKEND  ---      ---       LVL=0

      ---         MODULE    ---      ---       GLOBALS
      02000EDCH   PUBLIC    XDATA    ---       calib
      00000021H.5 PUBLIC    BIT      BIT       tension_valid
      00000021H.4 PUBLIC    BIT      BIT       interrupt_flag
      02000EDBH   PUBLIC    XDATA    BYTE      rest_enabled
      02000EA8H   PUBLIC    XDATA    ---       g_meas
      02000EA4H   PUBLIC    XDATA    LONG      dev_tension_f
      02000E9CH   PUBLIC    XDATA    ---       ADC_buf
      02000E98H   PUBLIC    XDATA    LONG      SH_current_position
LX51 LINKER/LOCATER V4.64.0.0                                                         02/16/2023  11:05:26  PAGE 57


      02000E94H   PUBLIC    XDATA    DWORD     timer_value0
      00000021H.3 PUBLIC    BIT      BIT       watchdog_flag
      02000E7CH   PUBLIC    XDATA    ---       imu_values
      02000E78H   PUBLIC    XDATA    LONG      pow_tension
      00000021H.2 PUBLIC    BIT      BIT       reset_last_value_flag
      02000E74H   PUBLIC    XDATA    LONG      rest_pos_curr_ref
      02000E6CH   PUBLIC    XDATA    ---       g_refNew
      02000DE7H   PUBLIC    XDATA    ---       g_rx
      02000DDFH   PUBLIC    XDATA    ---       g_refOld
      02000DDBH   PUBLIC    XDATA    LONG      dev_tension
      02000DD7H   PUBLIC    XDATA    DWORD     timer_value
      02000DD3H   PUBLIC    XDATA    LONG      curr_pos_res
      02000DD2H   PUBLIC    XDATA    BYTE      master_mode
      02000D9FH   PUBLIC    XDATA    ---       g_measOld
      02000D9EH   PUBLIC    XDATA    BYTE      forced_open
      02000D2EH   PUBLIC    XDATA    ---       g_mem
      02000D26H   PUBLIC    XDATA    ---       g_ref
      02000D22H   PUBLIC    XDATA    DWORD     count_tension_valid
      02000D21H   PUBLIC    XDATA    BYTE      first_tension_valid
      02000CB1H   PUBLIC    XDATA    ---       c_mem
      000000CAH   SFRSYM    DATA     BYTE      SFRPRT5SEL
      000000DAH   SFRSYM    DATA     BYTE      SFRPRT6SEL
      000000D0H.6 SFRSYM    DATA     BIT       AC
      000000A8H.7 SFRSYM    DATA     BIT       EA
      000000A8H   SFRSYM    DATA     BYTE      IE
      00000085H   SFRSYM    DATA     BYTE      DPH1
      00000084H   SFRSYM    DATA     BYTE      DPL1
      000000D0H.7 SFRSYM    DATA     BIT       CY
      000000A0H   SFRSYM    DATA     BYTE      P2AX
      00000095H   SFRSYM    DATA     BYTE      DPX1
      00000081H   SFRSYM    DATA     BYTE      SP
      000000D0H.2 SFRSYM    DATA     BIT       OV
      00000080H   SFRSYM    DATA     BYTE      SFRPRT0DR
      00000090H   SFRSYM    DATA     BYTE      SFRPRT1DR
      000000F2H   SFRSYM    DATA     BYTE      SFRPRT12SEL
      00000098H   SFRSYM    DATA     BYTE      SFRPRT2DR
      000000B0H   SFRSYM    DATA     BYTE      SFRPRT3DR
      000000C0H   SFRSYM    DATA     BYTE      SFRPRT4DR
      000000FAH   SFRSYM    DATA     BYTE      SFRPRT15SEL
      000000C8H   SFRSYM    DATA     BYTE      SFRPRT5DR
      000000D8H   SFRSYM    DATA     BYTE      SFRPRT6DR
      00000089H   SFRSYM    DATA     BYTE      SFRPRT0PS
      00000091H   SFRSYM    DATA     BYTE      SFRPRT1PS
      00000099H   SFRSYM    DATA     BYTE      SFRPRT2PS
      000000B1H   SFRSYM    DATA     BYTE      SFRPRT3PS
      000000C1H   SFRSYM    DATA     BYTE      SFRPRT4PS
      000000C9H   SFRSYM    DATA     BYTE      SFRPRT5PS
      000000D9H   SFRSYM    DATA     BYTE      SFRPRT6PS
      000000EAH   SFRSYM    DATA     BYTE      MXAX
      000000F0H   SFRSYM    DATA     BYTE      B
      000000E0H   SFRSYM    DATA     BYTE      ACC
      000000D0H   SFRSYM    DATA     BIT       P
      000000D0H.3 SFRSYM    DATA     BIT       RS0
      000000D0H.4 SFRSYM    DATA     BIT       RS1
      00000083H   SFRSYM    DATA     BYTE      DPH
      000000E8H   SFRSYM    DATA     BYTE      SFRPRT12DR
      00000082H   SFRSYM    DATA     BYTE      DPL
      000000F8H   SFRSYM    DATA     BYTE      SFRPRT15DR
      00000086H   SFRSYM    DATA     BYTE      DPS
      000000E9H   SFRSYM    DATA     BYTE      SFRPRT12PS
      00000093H   SFRSYM    DATA     BYTE      DPX
      000000F9H   SFRSYM    DATA     BYTE      SFRPRT15PS
      000000D0H.5 SFRSYM    DATA     BIT       F0
      000000D0H.1 SFRSYM    DATA     BIT       F1
      0000008AH   SFRSYM    DATA     BYTE      SFRPRT0SEL
LX51 LINKER/LOCATER V4.64.0.0                                                         02/16/2023  11:05:26  PAGE 58


      000000D0H   SFRSYM    DATA     BYTE      PSW
      000000A2H   SFRSYM    DATA     BYTE      SFRPRT1SEL
      0000009AH   SFRSYM    DATA     BYTE      SFRPRT2SEL
      000000B2H   SFRSYM    DATA     BYTE      SFRPRT3SEL
      000000C2H   SFRSYM    DATA     BYTE      SFRPRT4SEL

      ---         MODULE    ---      ---       INTERRUPTIONS
      0100709EH   PUBLIC    CODE     ---       analog_read_end
      01007A7CH   PUBLIC    CODE     ---       motor_control
      010099C2H   PUBLIC    CODE     ---       function_scheduler
      01009F38H   PUBLIC    CODE     ---       interrupt_manager
      0100C18DH   PUBLIC    CODE     ---       ISR_RS485_RX_ExInterrupt
      000000CAH   SFRSYM    DATA     BYTE      SFRPRT5SEL
      000000DAH   SFRSYM    DATA     BYTE      SFRPRT6SEL
      000000D0H.6 SFRSYM    DATA     BIT       AC
      000000A8H.7 SFRSYM    DATA     BIT       EA
      000000A8H   SFRSYM    DATA     BYTE      IE
      00000085H   SFRSYM    DATA     BYTE      DPH1
      00000084H   SFRSYM    DATA     BYTE      DPL1
      000000D0H.7 SFRSYM    DATA     BIT       CY
      000000A0H   SFRSYM    DATA     BYTE      P2AX
      00000095H   SFRSYM    DATA     BYTE      DPX1
      00000081H   SFRSYM    DATA     BYTE      SP
      000000D0H.2 SFRSYM    DATA     BIT       OV
      00000080H   SFRSYM    DATA     BYTE      SFRPRT0DR
      00000090H   SFRSYM    DATA     BYTE      SFRPRT1DR
      000000F2H   SFRSYM    DATA     BYTE      SFRPRT12SEL
      00000098H   SFRSYM    DATA     BYTE      SFRPRT2DR
      000000B0H   SFRSYM    DATA     BYTE      SFRPRT3DR
      000000C0H   SFRSYM    DATA     BYTE      SFRPRT4DR
      000000FAH   SFRSYM    DATA     BYTE      SFRPRT15SEL
      000000C8H   SFRSYM    DATA     BYTE      SFRPRT5DR
      000000D8H   SFRSYM    DATA     BYTE      SFRPRT6DR
      00000089H   SFRSYM    DATA     BYTE      SFRPRT0PS
      00000091H   SFRSYM    DATA     BYTE      SFRPRT1PS
      00000099H   SFRSYM    DATA     BYTE      SFRPRT2PS
      000000B1H   SFRSYM    DATA     BYTE      SFRPRT3PS
      000000C1H   SFRSYM    DATA     BYTE      SFRPRT4PS
      000000C9H   SFRSYM    DATA     BYTE      SFRPRT5PS
      000000D9H   SFRSYM    DATA     BYTE      SFRPRT6PS
      000000EAH   SFRSYM    DATA     BYTE      MXAX
      000000F0H   SFRSYM    DATA     BYTE      B
      000000E0H   SFRSYM    DATA     BYTE      ACC
      000000D0H   SFRSYM    DATA     BIT       P
      000000D0H.3 SFRSYM    DATA     BIT       RS0
      000000D0H.4 SFRSYM    DATA     BIT       RS1
      00000083H   SFRSYM    DATA     BYTE      DPH
      000000E8H   SFRSYM    DATA     BYTE      SFRPRT12DR
      00000082H   SFRSYM    DATA     BYTE      DPL
      000000F8H   SFRSYM    DATA     BYTE      SFRPRT15DR
      00000086H   SFRSYM    DATA     BYTE      DPS
      000000E9H   SFRSYM    DATA     BYTE      SFRPRT12PS
      00000093H   SFRSYM    DATA     BYTE      DPX
      000000F9H   SFRSYM    DATA     BYTE      SFRPRT15PS
      000000D0H.5 SFRSYM    DATA     BIT       F0
      000000D0H.1 SFRSYM    DATA     BIT       F1
      0000008AH   SFRSYM    DATA     BYTE      SFRPRT0SEL
      000000D0H   SFRSYM    DATA     BYTE      PSW
      000000A2H   SFRSYM    DATA     BYTE      SFRPRT1SEL
      0000009AH   SFRSYM    DATA     BYTE      SFRPRT2SEL
      000000B2H   SFRSYM    DATA     BYTE      SFRPRT3SEL
      000000C2H   SFRSYM    DATA     BYTE      SFRPRT4SEL

      0100C18DH   BLOCK     CODE     ---       LVL=0
      0100C18DH   LINE      CODE     ---       #66
LX51 LINKER/LOCATER V4.64.0.0                                                         02/16/2023  11:05:26  PAGE 59


      0100C18DH   LINE      CODE     ---       #70
      0100C18FH   LINE      CODE     ---       #72
      ---         BLOCKEND  ---      ---       LVL=0

      01009F38H   BLOCK     CODE     ---       LVL=0
      01009F38H   BLOCK     CODE     NEAR LAB  LVL=1
      00000008H   SYMBOL    DATA     BYTE      state
      00000009H   SYMBOL    DATA     BYTE      data_packet_index
      0000000AH   SYMBOL    DATA     BYTE      data_packet_length
      02000EE2H   SYMBOL    XDATA    ---       data_packet_buffer
      0000000BH   SYMBOL    DATA     ---       rx_queue
      00000028H   SYMBOL    DATA     BYTE      rx_data
      00000020H.0 SYMBOL    BIT      BIT       rx_data_type
      00000029H   SYMBOL    DATA     BYTE      package_count
      ---         BLOCKEND  ---      ---       LVL=1
      01009F38H   LINE      CODE     ---       #89
      01009F38H   LINE      CODE     ---       #105
      01009F3BH   LINE      CODE     ---       #111
      01009F4EH   LINE      CODE     ---       #115
      01009F53H   LINE      CODE     ---       #117
      01009F6BH   LINE      CODE     ---       #119
      01009F6BH   LINE      CODE     ---       #121
      01009F6EH   LINE      CODE     ---       #122
      01009F71H   LINE      CODE     ---       #123
      01009F74H   LINE      CODE     ---       #126
      01009F7EH   LINE      CODE     ---       #127
      01009F81H   LINE      CODE     ---       #128
      01009F83H   LINE      CODE     ---       #129
      01009F85H   LINE      CODE     ---       #130
      01009F88H   LINE      CODE     ---       #131
      01009F8AH   LINE      CODE     ---       #132
      01009F9AH   LINE      CODE     ---       #135
      01009F9FH   LINE      CODE     ---       #136
      01009FA1H   LINE      CODE     ---       #139
      01009FA1H   LINE      CODE     ---       #142
      01009FC0H   LINE      CODE     ---       #143
      01009FC4H   LINE      CODE     ---       #145
      01009FC6H   LINE      CODE     ---       #147
      01009FC9H   LINE      CODE     ---       #148
      01009FCCH   LINE      CODE     ---       #149
      01009FCFH   LINE      CODE     ---       #152
      01009FCFH   LINE      CODE     ---       #155
      01009FD2H   LINE      CODE     ---       #157
      01009FD9H   LINE      CODE     ---       #158
      01009FDCH   LINE      CODE     ---       #159
      01009FDEH   LINE      CODE     ---       #160
      01009FE8H   LINE      CODE     ---       #161
      01009FEBH   LINE      CODE     ---       #162
      01009FEDH   LINE      CODE     ---       #163
      01009FF0H   LINE      CODE     ---       #164
      01009FF3H   LINE      CODE     ---       #166
      01009FF6H   LINE      CODE     ---       #167
      01009FFCH   LINE      CODE     ---       #169
      01009FFFH   LINE      CODE     ---       #170
      01009FFFH   LINE      CODE     ---       #171
      0100A002H   LINE      CODE     ---       #174
      0100A002H   LINE      CODE     ---       #176
      0100A010H   LINE      CODE     ---       #177
      0100A012H   LINE      CODE     ---       #180
      0100A01CH   LINE      CODE     ---       #182
      0100A01FH   LINE      CODE     ---       #184
      0100A032H   LINE      CODE     ---       #185
      0100A03BH   LINE      CODE     ---       #186
      0100A041H   LINE      CODE     ---       #188
      0100A044H   LINE      CODE     ---       #189
LX51 LINKER/LOCATER V4.64.0.0                                                         02/16/2023  11:05:26  PAGE 60


      0100A044H   LINE      CODE     ---       #191
      0100A047H   LINE      CODE     ---       #192
      0100A049H   LINE      CODE     ---       #193
      0100A04BH   LINE      CODE     ---       #194
      0100A04DH   LINE      CODE     ---       #196
      0100A04DH   LINE      CODE     ---       #197
      0100A050H   LINE      CODE     ---       #200
      0100A050H   LINE      CODE     ---       #201
      0100A059H   LINE      CODE     ---       #202
      0100A05BH   LINE      CODE     ---       #203
      0100A05DH   LINE      CODE     ---       #204
      0100A062H   LINE      CODE     ---       #205
      0100A067H   LINE      CODE     ---       #206
      0100A06AH   LINE      CODE     ---       #207
      0100A06CH   LINE      CODE     ---       #208
      0100A06CH   LINE      CODE     ---       #209
      0100A06FH   LINE      CODE     ---       #210
      0100A06FH   LINE      CODE     ---       #211
      0100A072H   LINE      CODE     ---       #212
      ---         BLOCKEND  ---      ---       LVL=0

      010099C2H   BLOCK     CODE     ---       LVL=0
      010099C2H   BLOCK     CODE     NEAR LAB  LVL=1
      02000F62H   SYMBOL    XDATA    WORD      counter_calibration
      ---         BLOCKEND  ---      ---       LVL=1
      010099C2H   LINE      CODE     ---       #221
      010099C2H   LINE      CODE     ---       #225
      010099CBH   LINE      CODE     ---       #229
      010099D0H   LINE      CODE     ---       #233
      010099D3H   LINE      CODE     ---       #234
      010099D5H   LINE      CODE     ---       #235
      010099D8H   LINE      CODE     ---       #236
      010099D8H   LINE      CODE     ---       #240
      010099DBH   LINE      CODE     ---       #244
      010099DEH   LINE      CODE     ---       #245
      010099E0H   LINE      CODE     ---       #246
      010099E3H   LINE      CODE     ---       #247
      010099E3H   LINE      CODE     ---       #251
      010099E6H   LINE      CODE     ---       #253
      010099E9H   LINE      CODE     ---       #254
      010099EBH   LINE      CODE     ---       #255
      010099EEH   LINE      CODE     ---       #256
      010099EEH   LINE      CODE     ---       #260
      010099F7H   LINE      CODE     ---       #262
      010099FDH   LINE      CODE     ---       #265
      01009A05H   LINE      CODE     ---       #266
      01009A11H   LINE      CODE     ---       #269
      01009A1BH   LINE      CODE     ---       #270
      01009A2FH   LINE      CODE     ---       #271
      01009A31H   LINE      CODE     ---       #272
      01009A31H   LINE      CODE     ---       #273
      01009A3AH   LINE      CODE     ---       #274
      01009A3AH   LINE      CODE     ---       #277
      01009A3DH   LINE      CODE     ---       #278
      01009A44H   LINE      CODE     ---       #279
      01009A44H   LINE      CODE     ---       #280
      01009A52H   LINE      CODE     ---       #283
      01009A55H   LINE      CODE     ---       #284
      01009A57H   LINE      CODE     ---       #285
      01009A5AH   LINE      CODE     ---       #286
      01009A5AH   LINE      CODE     ---       #287
      01009A5AH   LINE      CODE     ---       #289
      01009A5DH   LINE      CODE     ---       #292
      01009A60H   LINE      CODE     ---       #293
      01009A62H   LINE      CODE     ---       #294
LX51 LINKER/LOCATER V4.64.0.0                                                         02/16/2023  11:05:26  PAGE 61


      01009A65H   LINE      CODE     ---       #295
      01009A65H   LINE      CODE     ---       #296
      01009A65H   LINE      CODE     ---       #298
      01009A6BH   LINE      CODE     ---       #300
      01009A7BH   LINE      CODE     ---       #301
      01009A7EH   LINE      CODE     ---       #302
      01009A80H   LINE      CODE     ---       #303
      01009A80H   LINE      CODE     ---       #304
      01009A83H   LINE      CODE     ---       #305
      01009A83H   LINE      CODE     ---       #308
      01009A86H   LINE      CODE     ---       #309
      01009A88H   LINE      CODE     ---       #310
      01009A8BH   LINE      CODE     ---       #311
      01009A8BH   LINE      CODE     ---       #313
      01009A8BH   LINE      CODE     ---       #315
      01009A91H   LINE      CODE     ---       #317
      01009AA3H   LINE      CODE     ---       #318
      01009AA6H   LINE      CODE     ---       #319
      01009AA6H   LINE      CODE     ---       #322
      01009AA9H   LINE      CODE     ---       #323
      01009AABH   LINE      CODE     ---       #324
      01009AAEH   LINE      CODE     ---       #325
      01009AAEH   LINE      CODE     ---       #326
      01009AAEH   LINE      CODE     ---       #328
      01009AB4H   LINE      CODE     ---       #330
      01009AB7H   LINE      CODE     ---       #334
      01009ABAH   LINE      CODE     ---       #335
      01009ABCH   LINE      CODE     ---       #336
      01009ABFH   LINE      CODE     ---       #337
      01009ABFH   LINE      CODE     ---       #338
      01009ABFH   LINE      CODE     ---       #339
      01009ABFH   LINE      CODE     ---       #343
      01009AC2H   LINE      CODE     ---       #344
      01009AC4H   LINE      CODE     ---       #345
      01009AC7H   LINE      CODE     ---       #346
      01009AC7H   LINE      CODE     ---       #351
      01009ACEH   LINE      CODE     ---       #352
      01009ADAH   LINE      CODE     ---       #353
      01009ADDH   LINE      CODE     ---       #354
      01009AE4H   LINE      CODE     ---       #355
      01009AE4H   LINE      CODE     ---       #356
      01009AF2H   LINE      CODE     ---       #357
      01009AF2H   LINE      CODE     ---       #361
      01009AF5H   LINE      CODE     ---       #362
      01009AF7H   LINE      CODE     ---       #363
      01009AFAH   LINE      CODE     ---       #364
      01009AFAH   LINE      CODE     ---       #370
      01009B0DH   LINE      CODE     ---       #371
      01009B20H   LINE      CODE     ---       #374
      01009B33H   LINE      CODE     ---       #376
      01009B36H   LINE      CODE     ---       #377
      01009B38H   LINE      CODE     ---       #378
      01009B3BH   LINE      CODE     ---       #379
      01009B3BH   LINE      CODE     ---       #381
      01009B44H   LINE      CODE     ---       #382
      01009B4FH   LINE      CODE     ---       #384
      ---         BLOCKEND  ---      ---       LVL=0

      01007A7CH   BLOCK     CODE     ---       LVL=0
      01007A7CH   BLOCK     CODE     NEAR LAB  LVL=1
      00000022H   SYMBOL    DATA     LONG      handle_value
      00000026H   SYMBOL    DATA     LONG      err_emg_1
      0000002AH   SYMBOL    DATA     LONG      err_emg_2
      0000002EH   SYMBOL    DATA     FLOAT     joy_perc
      02000F64H   SYMBOL    XDATA    BYTE      current_emg
LX51 LINKER/LOCATER V4.64.0.0                                                         02/16/2023  11:05:26  PAGE 62


      ---         BLOCKEND  ---      ---       LVL=1
      01007A7CH   LINE      CODE     ---       #390
      01007A7CH   LINE      CODE     ---       #403
      01007AA7H   LINE      CODE     ---       #404
      01007AD2H   LINE      CODE     ---       #407
      01007AFCH   LINE      CODE     ---       #409
      01007AFCH   LINE      CODE     ---       #411
      01007B02H   LINE      CODE     ---       #413
      01007B26H   LINE      CODE     ---       #414
      01007B28H   LINE      CODE     ---       #415
      01007B28H   LINE      CODE     ---       #419
      01007B31H   LINE      CODE     ---       #420
      01007B31H   LINE      CODE     ---       #423
      01007B7AH   LINE      CODE     ---       #424
      01007BA8H   LINE      CODE     ---       #425
      01007BA8H   LINE      CODE     ---       #426
      01007BF0H   LINE      CODE     ---       #427
      01007C1EH   LINE      CODE     ---       #429
      01007C2CH   LINE      CODE     ---       #430
      01007C2CH   LINE      CODE     ---       #431
      01007C2FH   LINE      CODE     ---       #433
      01007C2FH   LINE      CODE     ---       #434
      01007C42H   LINE      CODE     ---       #435
      01007C7FH   LINE      CODE     ---       #437
      01007C8AH   LINE      CODE     ---       #438
      01007C8DH   LINE      CODE     ---       #440
      01007C8DH   LINE      CODE     ---       #441
      01007CA1H   LINE      CODE     ---       #442
      01007CB4H   LINE      CODE     ---       #443
      01007D0AH   LINE      CODE     ---       #444
      01007D0AH   LINE      CODE     ---       #445
      01007D20H   LINE      CODE     ---       #446
      01007D7FH   LINE      CODE     ---       #447
      01007D7FH   LINE      CODE     ---       #448
      01007D82H   LINE      CODE     ---       #450
      01007D82H   LINE      CODE     ---       #451
      01007D96H   LINE      CODE     ---       #452
      01007DAAH   LINE      CODE     ---       #453
      01007DAAH   LINE      CODE     ---       #455
      01007DBDH   LINE      CODE     ---       #456
      01007DC3H   LINE      CODE     ---       #457
      01007DC6H   LINE      CODE     ---       #458
      01007DC6H   LINE      CODE     ---       #459
      01007DDCH   LINE      CODE     ---       #460
      01007DE2H   LINE      CODE     ---       #461
      01007DE5H   LINE      CODE     ---       #462
      01007DE5H   LINE      CODE     ---       #463
      01007DE5H   LINE      CODE     ---       #465
      01007DE5H   LINE      CODE     ---       #467
      01007DF8H   LINE      CODE     ---       #468
      01007DFDH   LINE      CODE     ---       #469
      01007E00H   LINE      CODE     ---       #470
      01007E00H   LINE      CODE     ---       #471
      01007E5CH   LINE      CODE     ---       #472
      01007E5FH   LINE      CODE     ---       #474
      01007E5FH   LINE      CODE     ---       #476
      01007E72H   LINE      CODE     ---       #477
      01007E77H   LINE      CODE     ---       #478
      01007E7AH   LINE      CODE     ---       #479
      01007E7AH   LINE      CODE     ---       #480
      01007EDFH   LINE      CODE     ---       #481
      01007EE2H   LINE      CODE     ---       #483
      01007EE2H   LINE      CODE     ---       #484
      01007EE2H   LINE      CODE     ---       #485
      01007EE2H   LINE      CODE     ---       #487
LX51 LINKER/LOCATER V4.64.0.0                                                         02/16/2023  11:05:26  PAGE 63


      01007EE5H   LINE      CODE     ---       #489
      01007EE5H   LINE      CODE     ---       #490
      01007EF9H   LINE      CODE     ---       #491
      01007F0DH   LINE      CODE     ---       #493
      01007F0DH   LINE      CODE     ---       #494
      01007F20H   LINE      CODE     ---       #495
      01007F26H   LINE      CODE     ---       #496
      01007F29H   LINE      CODE     ---       #497
      01007F29H   LINE      CODE     ---       #498
      01007F3FH   LINE      CODE     ---       #499
      01007F45H   LINE      CODE     ---       #500
      01007F48H   LINE      CODE     ---       #501
      01007F48H   LINE      CODE     ---       #502
      01007F48H   LINE      CODE     ---       #505
      01007F48H   LINE      CODE     ---       #507
      01007F6EH   LINE      CODE     ---       #508
      01007F73H   LINE      CODE     ---       #509
      01007F76H   LINE      CODE     ---       #510
      01007F76H   LINE      CODE     ---       #512
      01007F8CH   LINE      CODE     ---       #513
      01007FDEH   LINE      CODE     ---       #515
      01007FE1H   LINE      CODE     ---       #518
      01007FE1H   LINE      CODE     ---       #520
      01008007H   LINE      CODE     ---       #521
      0100800CH   LINE      CODE     ---       #522
      0100800FH   LINE      CODE     ---       #523
      0100800FH   LINE      CODE     ---       #525
      01008025H   LINE      CODE     ---       #526
      01008080H   LINE      CODE     ---       #527
      01008080H   LINE      CODE     ---       #528
      01008083H   LINE      CODE     ---       #530
      01008083H   LINE      CODE     ---       #531
      01008083H   LINE      CODE     ---       #532
      01008083H   LINE      CODE     ---       #534
      01008086H   LINE      CODE     ---       #536
      01008086H   LINE      CODE     ---       #538
      010080C2H   LINE      CODE     ---       #539
      01008107H   LINE      CODE     ---       #541
      01008107H   LINE      CODE     ---       #542
      01008107H   LINE      CODE     ---       #543
      01008107H   LINE      CODE     ---       #544
      01008107H   LINE      CODE     ---       #547
      0100810DH   LINE      CODE     ---       #548
      0100812DH   LINE      CODE     ---       #549
      01008141H   LINE      CODE     ---       #550
      01008163H   LINE      CODE     ---       #551
      01008177H   LINE      CODE     ---       #552
      01008177H   LINE      CODE     ---       #554
      01008182H   LINE      CODE     ---       #555
      01008189H   LINE      CODE     ---       #557
      0100819DH   LINE      CODE     ---       #558
      0100819DH   LINE      CODE     ---       #560
      010081A8H   LINE      CODE     ---       #562
      010081BAH   LINE      CODE     ---       #563
      01008216H   LINE      CODE     ---       #564
      01008216H   LINE      CODE     ---       #565
      0100822AH   LINE      CODE     ---       #566
      0100822FH   LINE      CODE     ---       #567
      0100822FH   LINE      CODE     ---       #568
      0100822FH   LINE      CODE     ---       #569
      0100822FH   LINE      CODE     ---       #570
      ---         BLOCKEND  ---      ---       LVL=0

      0100709EH   BLOCK     CODE     ---       LVL=0
      0100709EH   BLOCK     CODE     NEAR LAB  LVL=1
LX51 LINKER/LOCATER V4.64.0.0                                                         02/16/2023  11:05:26  PAGE 64


      00000022H   SYMBOL    DATA     LONG      i_aux
      0000000EH   SYMBOL    DATA     BYTE      emg_1_status
      0000000FH   SYMBOL    DATA     BYTE      emg_2_status
      00000010H   SYMBOL    DATA     BYTE      UD_status
      00000011H   SYMBOL    DATA     BYTE      LR_status
      00000012H   SYMBOL    DATA     WORD      UD_counter
      00000014H   SYMBOL    DATA     WORD      LR_counter
      00000016H   SYMBOL    DATA     LONG      UD_mean_value
      0000001AH   SYMBOL    DATA     LONG      LR_mean_value
      02000F65H   SYMBOL    XDATA    WORD      emg_counter_1
      02000F67H   SYMBOL    XDATA    WORD      emg_counter_2
      02000F69H   SYMBOL    XDATA    BYTE      count
      02000F6AH   SYMBOL    XDATA    DWORD     count2
      ---         BLOCKEND  ---      ---       LVL=1
      0100709EH   LINE      CODE     ---       #576
      0100709EH   LINE      CODE     ---       #619
      010070A4H   LINE      CODE     ---       #620
      010070A7H   LINE      CODE     ---       #621
      010070A9H   LINE      CODE     ---       #622
      010070ACH   LINE      CODE     ---       #623
      010070ACH   LINE      CODE     ---       #624
      010070AEH   LINE      CODE     ---       #627
      010070D6H   LINE      CODE     ---       #629
      010070D9H   LINE      CODE     ---       #630
      010070DBH   LINE      CODE     ---       #631
      010070DEH   LINE      CODE     ---       #632
      010070DEH   LINE      CODE     ---       #634
      010070E7H   LINE      CODE     ---       #635
      010070EDH   LINE      CODE     ---       #637
      010070F6H   LINE      CODE     ---       #638
      01007110H   LINE      CODE     ---       #639
      0100711DH   LINE      CODE     ---       #640
      0100711FH   LINE      CODE     ---       #641
      0100711FH   LINE      CODE     ---       #642
      0100713AH   LINE      CODE     ---       #643
      01007147H   LINE      CODE     ---       #644
      01007149H   LINE      CODE     ---       #646
      01007156H   LINE      CODE     ---       #647
      01007156H   LINE      CODE     ---       #649
      0100715BH   LINE      CODE     ---       #650
      0100715BH   LINE      CODE     ---       #651
      0100715BH   LINE      CODE     ---       #655
      01007179H   LINE      CODE     ---       #658
      01007193H   LINE      CODE     ---       #659
      01007195H   LINE      CODE     ---       #660
      01007197H   LINE      CODE     ---       #661
      01007197H   LINE      CODE     ---       #662
      010071B6H   LINE      CODE     ---       #663
      010071CDH   LINE      CODE     ---       #664
      010071CDH   LINE      CODE     ---       #668
      010071D0H   LINE      CODE     ---       #669
      010071D2H   LINE      CODE     ---       #670
      010071D5H   LINE      CODE     ---       #671
      010071D5H   LINE      CODE     ---       #674
      010071DBH   LINE      CODE     ---       #675
      010071DDH   LINE      CODE     ---       #676
      010071DFH   LINE      CODE     ---       #677
      010071DFH   LINE      CODE     ---       #680
      010071EAH   LINE      CODE     ---       #684
      0100720BH   LINE      CODE     ---       #685
      0100720BH   LINE      CODE     ---       #686
      0100721FH   LINE      CODE     ---       #688
      01007288H   LINE      CODE     ---       #690
      0100728BH   LINE      CODE     ---       #691
      0100728DH   LINE      CODE     ---       #692
LX51 LINKER/LOCATER V4.64.0.0                                                         02/16/2023  11:05:26  PAGE 65


      01007290H   LINE      CODE     ---       #693
      01007290H   LINE      CODE     ---       #696
      010072A6H   LINE      CODE     ---       #697
      010072B2H   LINE      CODE     ---       #698
      010072C6H   LINE      CODE     ---       #699
      010072D0H   LINE      CODE     ---       #701
      010072DAH   LINE      CODE     ---       #703
      010072E0H   LINE      CODE     ---       #704
      010072E2H   LINE      CODE     ---       #705
      010072E5H   LINE      CODE     ---       #706
      010072E5H   LINE      CODE     ---       #708
      010072E8H   LINE      CODE     ---       #710
      010072E8H   LINE      CODE     ---       #711
      010072EDH   LINE      CODE     ---       #712
      010072F5H   LINE      CODE     ---       #713
      010072F8H   LINE      CODE     ---       #715
      010072FBH   LINE      CODE     ---       #717
      010072FBH   LINE      CODE     ---       #718
      01007303H   LINE      CODE     ---       #719
      01007309H   LINE      CODE     ---       #720
      0100730DH   LINE      CODE     ---       #722
      01007310H   LINE      CODE     ---       #723
      01007312H   LINE      CODE     ---       #724
      01007315H   LINE      CODE     ---       #725
      01007315H   LINE      CODE     ---       #727
      01007318H   LINE      CODE     ---       #728
      01007318H   LINE      CODE     ---       #730
      0100731AH   LINE      CODE     ---       #732
      0100731AH   LINE      CODE     ---       #734
      01007322H   LINE      CODE     ---       #735
      01007344H   LINE      CODE     ---       #737
      01007347H   LINE      CODE     ---       #738
      01007349H   LINE      CODE     ---       #739
      0100734CH   LINE      CODE     ---       #740
      0100734CH   LINE      CODE     ---       #742
      01007354H   LINE      CODE     ---       #743
      0100736CH   LINE      CODE     ---       #745
      0100736FH   LINE      CODE     ---       #746
      01007371H   LINE      CODE     ---       #747
      01007374H   LINE      CODE     ---       #748
      01007374H   LINE      CODE     ---       #750
      01007379H   LINE      CODE     ---       #751
      0100737BH   LINE      CODE     ---       #752
      0100737BH   LINE      CODE     ---       #753
      0100737DH   LINE      CODE     ---       #755
      0100737DH   LINE      CODE     ---       #756
      01007385H   LINE      CODE     ---       #757
      01007388H   LINE      CODE     ---       #758
      01007388H   LINE      CODE     ---       #759
      01007388H   LINE      CODE     ---       #761
      0100738BH   LINE      CODE     ---       #762
      0100738DH   LINE      CODE     ---       #763
      01007390H   LINE      CODE     ---       #764
      01007390H   LINE      CODE     ---       #766
      010073B1H   LINE      CODE     ---       #767
      010073B1H   LINE      CODE     ---       #768
      010073C5H   LINE      CODE     ---       #770
      0100742EH   LINE      CODE     ---       #772
      01007431H   LINE      CODE     ---       #773
      01007433H   LINE      CODE     ---       #774
      01007436H   LINE      CODE     ---       #775
      01007436H   LINE      CODE     ---       #778
      0100744CH   LINE      CODE     ---       #779
      01007458H   LINE      CODE     ---       #780
      0100746CH   LINE      CODE     ---       #781
LX51 LINKER/LOCATER V4.64.0.0                                                         02/16/2023  11:05:26  PAGE 66


      01007476H   LINE      CODE     ---       #783
      01007479H   LINE      CODE     ---       #784
      0100747BH   LINE      CODE     ---       #785
      0100747EH   LINE      CODE     ---       #786
      0100747EH   LINE      CODE     ---       #788
      01007488H   LINE      CODE     ---       #790
      0100748BH   LINE      CODE     ---       #792
      0100748BH   LINE      CODE     ---       #793
      01007490H   LINE      CODE     ---       #794
      01007498H   LINE      CODE     ---       #795
      0100749BH   LINE      CODE     ---       #796
      0100749EH   LINE      CODE     ---       #798
      0100749EH   LINE      CODE     ---       #799
      010074A6H   LINE      CODE     ---       #800
      010074ACH   LINE      CODE     ---       #801
      010074B0H   LINE      CODE     ---       #803
      010074B3H   LINE      CODE     ---       #804
      010074B5H   LINE      CODE     ---       #805
      010074B8H   LINE      CODE     ---       #806
      010074B8H   LINE      CODE     ---       #808
      010074BBH   LINE      CODE     ---       #809
      010074BBH   LINE      CODE     ---       #810
      010074BDH   LINE      CODE     ---       #812
      010074BDH   LINE      CODE     ---       #814
      010074C5H   LINE      CODE     ---       #815
      010074E7H   LINE      CODE     ---       #816
      010074EFH   LINE      CODE     ---       #817
      01007507H   LINE      CODE     ---       #819
      0100750AH   LINE      CODE     ---       #820
      0100750CH   LINE      CODE     ---       #821
      0100750FH   LINE      CODE     ---       #822
      0100750FH   LINE      CODE     ---       #824
      01007514H   LINE      CODE     ---       #825
      01007516H   LINE      CODE     ---       #826
      01007516H   LINE      CODE     ---       #827
      01007518H   LINE      CODE     ---       #829
      01007518H   LINE      CODE     ---       #830
      01007524H   LINE      CODE     ---       #831
      01007527H   LINE      CODE     ---       #832
      01007527H   LINE      CODE     ---       #833
      01007527H   LINE      CODE     ---       #835
      0100752DH   LINE      CODE     ---       #836
      0100752FH   LINE      CODE     ---       #837
      01007532H   LINE      CODE     ---       #838
      01007532H   LINE      CODE     ---       #840
      01007535H   LINE      CODE     ---       #841
      01007535H   LINE      CODE     ---       #847
      01007550H   LINE      CODE     ---       #848
      01007550H   LINE      CODE     ---       #849
      01007564H   LINE      CODE     ---       #850
      01007577H   LINE      CODE     ---       #851
      01007580H   LINE      CODE     ---       #852
      01007593H   LINE      CODE     ---       #853
      010075B1H   LINE      CODE     ---       #855
      010075B4H   LINE      CODE     ---       #856
      010075B6H   LINE      CODE     ---       #857
      010075B9H   LINE      CODE     ---       #858
      010075B9H   LINE      CODE     ---       #860
      010075CCH   LINE      CODE     ---       #861
      010075D7H   LINE      CODE     ---       #863
      010075EBH   LINE      CODE     ---       #864
      010075F5H   LINE      CODE     ---       #866
      01007603H   LINE      CODE     ---       #868
      01007609H   LINE      CODE     ---       #869
      0100760BH   LINE      CODE     ---       #870
LX51 LINKER/LOCATER V4.64.0.0                                                         02/16/2023  11:05:26  PAGE 67


      0100760EH   LINE      CODE     ---       #871
      0100760EH   LINE      CODE     ---       #873
      01007611H   LINE      CODE     ---       #875
      01007611H   LINE      CODE     ---       #876
      01007618H   LINE      CODE     ---       #877
      01007622H   LINE      CODE     ---       #878
      01007625H   LINE      CODE     ---       #880
      01007628H   LINE      CODE     ---       #882
      01007628H   LINE      CODE     ---       #883
      01007636H   LINE      CODE     ---       #884
      01007647H   LINE      CODE     ---       #885
      0100764DH   LINE      CODE     ---       #887
      01007652H   LINE      CODE     ---       #888
      01007657H   LINE      CODE     ---       #890
      0100765AH   LINE      CODE     ---       #891
      0100765CH   LINE      CODE     ---       #892
      0100765FH   LINE      CODE     ---       #893
      0100765FH   LINE      CODE     ---       #895
      01007662H   LINE      CODE     ---       #896
      01007662H   LINE      CODE     ---       #897
      01007665H   LINE      CODE     ---       #899
      01007665H   LINE      CODE     ---       #901
      01007673H   LINE      CODE     ---       #902
      0100767EH   LINE      CODE     ---       #903
      01007682H   LINE      CODE     ---       #904
      010076C3H   LINE      CODE     ---       #906
      010076C6H   LINE      CODE     ---       #907
      010076C8H   LINE      CODE     ---       #908
      010076CBH   LINE      CODE     ---       #909
      010076CBH   LINE      CODE     ---       #911
      010076D9H   LINE      CODE     ---       #912
      010076F7H   LINE      CODE     ---       #914
      010076FAH   LINE      CODE     ---       #915
      010076FCH   LINE      CODE     ---       #916
      010076FFH   LINE      CODE     ---       #917
      010076FFH   LINE      CODE     ---       #919
      01007704H   LINE      CODE     ---       #920
      01007709H   LINE      CODE     ---       #922
      01007710H   LINE      CODE     ---       #924
      01007712H   LINE      CODE     ---       #925
      01007712H   LINE      CODE     ---       #926
      01007712H   LINE      CODE     ---       #928
      01007712H   LINE      CODE     ---       #929
      01007712H   LINE      CODE     ---       #930
      01007712H   LINE      CODE     ---       #932
      01007715H   LINE      CODE     ---       #933
      01007717H   LINE      CODE     ---       #934
      0100771AH   LINE      CODE     ---       #935
      0100771AH   LINE      CODE     ---       #937
      01007741H   LINE      CODE     ---       #938
      01007741H   LINE      CODE     ---       #939
      01007755H   LINE      CODE     ---       #940
      01007768H   LINE      CODE     ---       #941
      01007771H   LINE      CODE     ---       #942
      01007784H   LINE      CODE     ---       #943
      010077A2H   LINE      CODE     ---       #945
      010077A5H   LINE      CODE     ---       #946
      010077A7H   LINE      CODE     ---       #947
      010077AAH   LINE      CODE     ---       #948
      010077AAH   LINE      CODE     ---       #950
      010077BDH   LINE      CODE     ---       #951
      010077C8H   LINE      CODE     ---       #953
      010077DCH   LINE      CODE     ---       #954
      010077E6H   LINE      CODE     ---       #956
      010077F4H   LINE      CODE     ---       #958
LX51 LINKER/LOCATER V4.64.0.0                                                         02/16/2023  11:05:26  PAGE 68


      010077F7H   LINE      CODE     ---       #960
      010077F7H   LINE      CODE     ---       #961
      010077FEH   LINE      CODE     ---       #962
      01007808H   LINE      CODE     ---       #964
      0100780BH   LINE      CODE     ---       #965
      0100780DH   LINE      CODE     ---       #966
      01007810H   LINE      CODE     ---       #967
      01007810H   LINE      CODE     ---       #969
      01007813H   LINE      CODE     ---       #970
      01007816H   LINE      CODE     ---       #972
      01007816H   LINE      CODE     ---       #973
      01007824H   LINE      CODE     ---       #974
      01007835H   LINE      CODE     ---       #975
      0100783BH   LINE      CODE     ---       #977
      01007840H   LINE      CODE     ---       #978
      01007845H   LINE      CODE     ---       #980
      01007848H   LINE      CODE     ---       #981
      0100784AH   LINE      CODE     ---       #982
      0100784DH   LINE      CODE     ---       #983
      0100784DH   LINE      CODE     ---       #985
      01007850H   LINE      CODE     ---       #986
      01007850H   LINE      CODE     ---       #987
      01007853H   LINE      CODE     ---       #989
      01007853H   LINE      CODE     ---       #991
      01007861H   LINE      CODE     ---       #992
      0100786CH   LINE      CODE     ---       #993
      01007870H   LINE      CODE     ---       #994
      010078B1H   LINE      CODE     ---       #996
      010078B4H   LINE      CODE     ---       #997
      010078B6H   LINE      CODE     ---       #998
      010078B9H   LINE      CODE     ---       #999
      010078B9H   LINE      CODE     ---       #1001
      010078CAH   LINE      CODE     ---       #1002
      010078E8H   LINE      CODE     ---       #1004
      010078EDH   LINE      CODE     ---       #1005
      010078F2H   LINE      CODE     ---       #1007
      010078F9H   LINE      CODE     ---       #1009
      010078FCH   LINE      CODE     ---       #1010
      010078FEH   LINE      CODE     ---       #1011
      01007901H   LINE      CODE     ---       #1012
      01007901H   LINE      CODE     ---       #1014
      01007904H   LINE      CODE     ---       #1015
      01007904H   LINE      CODE     ---       #1016
      01007906H   LINE      CODE     ---       #1018
      01007906H   LINE      CODE     ---       #1019
      0100790AH   LINE      CODE     ---       #1020
      0100790DH   LINE      CODE     ---       #1021
      0100790FH   LINE      CODE     ---       #1023
      0100790FH   LINE      CODE     ---       #1024
      0100791DH   LINE      CODE     ---       #1025
      0100792BH   LINE      CODE     ---       #1026
      01007931H   LINE      CODE     ---       #1028
      01007934H   LINE      CODE     ---       #1029
      01007936H   LINE      CODE     ---       #1030
      01007939H   LINE      CODE     ---       #1031
      01007939H   LINE      CODE     ---       #1034
      01007950H   LINE      CODE     ---       #1037
      01007950H   LINE      CODE     ---       #1038
      01007964H   LINE      CODE     ---       #1039
      01007978H   LINE      CODE     ---       #1040
      01007978H   LINE      CODE     ---       #1042
      0100797BH   LINE      CODE     ---       #1043
      0100797BH   LINE      CODE     ---       #1044
      0100797BH   LINE      CODE     ---       #1046
      0100797BH   LINE      CODE     ---       #1047
LX51 LINKER/LOCATER V4.64.0.0                                                         02/16/2023  11:05:26  PAGE 69


      0100797BH   LINE      CODE     ---       #1048
      0100797BH   LINE      CODE     ---       #1050
      0100797EH   LINE      CODE     ---       #1051
      01007980H   LINE      CODE     ---       #1052
      01007983H   LINE      CODE     ---       #1053
      01007983H   LINE      CODE     ---       #1054
      01007983H   LINE      CODE     ---       #1055
      01007985H   LINE      CODE     ---       #1056
      01007985H   LINE      CODE     ---       #1058
      01007988H   LINE      CODE     ---       #1059
      0100798BH   LINE      CODE     ---       #1061
      0100798EH   LINE      CODE     ---       #1062
      01007991H   LINE      CODE     ---       #1064
      01007993H   LINE      CODE     ---       #1067
      01007998H   LINE      CODE     ---       #1069
      0100799DH   LINE      CODE     ---       #1071
      010079A0H   LINE      CODE     ---       #1072
      010079A2H   LINE      CODE     ---       #1073
      010079A5H   LINE      CODE     ---       #1074
      010079A5H   LINE      CODE     ---       #1076
      010079A5H   LINE      CODE     ---       #1077
      010079A5H   LINE      CODE     ---       #1080
      010079A5H   LINE      CODE     ---       #1081
      010079A5H   LINE      CODE     ---       #1082
      010079A5H   LINE      CODE     ---       #1085
      010079B0H   LINE      CODE     ---       #1086
      010079BBH   LINE      CODE     ---       #1089
      010079C2H   LINE      CODE     ---       #1090
      010079C6H   LINE      CODE     ---       #1092
      010079C6H   LINE      CODE     ---       #1095
      010079E3H   LINE      CODE     ---       #1096
      010079FAH   LINE      CODE     ---       #1097
      01007A47H   LINE      CODE     ---       #1099
      01007A4CH   LINE      CODE     ---       #1102
      01007A51H   LINE      CODE     ---       #1103
      01007A53H   LINE      CODE     ---       #1104
      01007A53H   LINE      CODE     ---       #1106
      01007A58H   LINE      CODE     ---       #1109
      01007A5DH   LINE      CODE     ---       #1112
      01007A63H   LINE      CODE     ---       #1113
      01007A66H   LINE      CODE     ---       #1116
      01007A69H   LINE      CODE     ---       #1117
      01007A6BH   LINE      CODE     ---       #1118
      01007A6EH   LINE      CODE     ---       #1119
      01007A6EH   LINE      CODE     ---       #1121
      01007A73H   LINE      CODE     ---       #1122
      01007A73H   LINE      CODE     ---       #1123
      01007A73H   LINE      CODE     ---       #1124
      01007A73H   LINE      CODE     ---       #1126
      01007A76H   LINE      CODE     ---       #1127
      01007A78H   LINE      CODE     ---       #1128
      01007A7BH   LINE      CODE     ---       #1129
      01007A7BH   LINE      CODE     ---       #1130
      ---         BLOCKEND  ---      ---       LVL=0

      ---         MODULE    ---      ---       MAIN
      010094BEH   PUBLIC    CODE     ---       main
      000000CAH   SFRSYM    DATA     BYTE      SFRPRT5SEL
      000000DAH   SFRSYM    DATA     BYTE      SFRPRT6SEL
      000000D0H.6 SFRSYM    DATA     BIT       AC
      000000A8H.7 SFRSYM    DATA     BIT       EA
      000000A8H   SFRSYM    DATA     BYTE      IE
      00000085H   SFRSYM    DATA     BYTE      DPH1
      00000084H   SFRSYM    DATA     BYTE      DPL1
      000000D0H.7 SFRSYM    DATA     BIT       CY
LX51 LINKER/LOCATER V4.64.0.0                                                         02/16/2023  11:05:26  PAGE 70


      000000A0H   SFRSYM    DATA     BYTE      P2AX
      00000095H   SFRSYM    DATA     BYTE      DPX1
      00000081H   SFRSYM    DATA     BYTE      SP
      000000D0H.2 SFRSYM    DATA     BIT       OV
      00000080H   SFRSYM    DATA     BYTE      SFRPRT0DR
      00000090H   SFRSYM    DATA     BYTE      SFRPRT1DR
      000000F2H   SFRSYM    DATA     BYTE      SFRPRT12SEL
      00000098H   SFRSYM    DATA     BYTE      SFRPRT2DR
      000000B0H   SFRSYM    DATA     BYTE      SFRPRT3DR
      000000C0H   SFRSYM    DATA     BYTE      SFRPRT4DR
      000000FAH   SFRSYM    DATA     BYTE      SFRPRT15SEL
      000000C8H   SFRSYM    DATA     BYTE      SFRPRT5DR
      000000D8H   SFRSYM    DATA     BYTE      SFRPRT6DR
      00000089H   SFRSYM    DATA     BYTE      SFRPRT0PS
      00000091H   SFRSYM    DATA     BYTE      SFRPRT1PS
      00000099H   SFRSYM    DATA     BYTE      SFRPRT2PS
      000000B1H   SFRSYM    DATA     BYTE      SFRPRT3PS
      000000C1H   SFRSYM    DATA     BYTE      SFRPRT4PS
      000000C9H   SFRSYM    DATA     BYTE      SFRPRT5PS
      000000D9H   SFRSYM    DATA     BYTE      SFRPRT6PS
      000000EAH   SFRSYM    DATA     BYTE      MXAX
      000000F0H   SFRSYM    DATA     BYTE      B
      000000E0H   SFRSYM    DATA     BYTE      ACC
      000000D0H   SFRSYM    DATA     BIT       P
      000000D0H.3 SFRSYM    DATA     BIT       RS0
      000000D0H.4 SFRSYM    DATA     BIT       RS1
      00000083H   SFRSYM    DATA     BYTE      DPH
      000000E8H   SFRSYM    DATA     BYTE      SFRPRT12DR
      00000082H   SFRSYM    DATA     BYTE      DPL
      000000F8H   SFRSYM    DATA     BYTE      SFRPRT15DR
      00000086H   SFRSYM    DATA     BYTE      DPS
      000000E9H   SFRSYM    DATA     BYTE      SFRPRT12PS
      00000093H   SFRSYM    DATA     BYTE      DPX
      000000F9H   SFRSYM    DATA     BYTE      SFRPRT15PS
      000000D0H.5 SFRSYM    DATA     BIT       F0
      000000D0H.1 SFRSYM    DATA     BIT       F1
      0000008AH   SFRSYM    DATA     BYTE      SFRPRT0SEL
      000000D0H   SFRSYM    DATA     BYTE      PSW
      000000A2H   SFRSYM    DATA     BYTE      SFRPRT1SEL
      0000009AH   SFRSYM    DATA     BYTE      SFRPRT2SEL
      000000B2H   SFRSYM    DATA     BYTE      SFRPRT3SEL
      000000C2H   SFRSYM    DATA     BYTE      SFRPRT4SEL

      010094BEH   BLOCK     CODE     ---       LVL=0
      010094BEH   BLOCK     CODE     NEAR LAB  LVL=1
      02000000H   SYMBOL    XDATA    BYTE      i
      02000001H   SYMBOL    XDATA    BYTE      DMA_Chan
      02000002H   SYMBOL    XDATA    ---       DMA_TD
      ---         BLOCKEND  ---      ---       LVL=1
      010094BEH   LINE      CODE     ---       #72
      010094BEH   LINE      CODE     ---       #73
      010094BEH   LINE      CODE     ---       #86
      010094C1H   LINE      CODE     ---       #87
      010094C4H   LINE      CODE     ---       #91
      010094CDH   LINE      CODE     ---       #92
      010094D2H   LINE      CODE     ---       #95
      010094D7H   LINE      CODE     ---       #97
      010094DCH   LINE      CODE     ---       #98
      010094DFH   LINE      CODE     ---       #99
      010094E4H   LINE      CODE     ---       #103
      010094E7H   LINE      CODE     ---       #104
      010094EAH   LINE      CODE     ---       #105
      010094EDH   LINE      CODE     ---       #107
      010094F0H   LINE      CODE     ---       #108
      010094F3H   LINE      CODE     ---       #110
LX51 LINKER/LOCATER V4.64.0.0                                                         02/16/2023  11:05:26  PAGE 71


      010094FAH   LINE      CODE     ---       #115
      010094FDH   LINE      CODE     ---       #116
      01009502H   LINE      CODE     ---       #119
      01009517H   LINE      CODE     ---       #120
      0100951FH   LINE      CODE     ---       #121
      0100952FH   LINE      CODE     ---       #122
      01009546H   LINE      CODE     ---       #123
      01009551H   LINE      CODE     ---       #125
      0100955BH   LINE      CODE     ---       #127
      01009560H   LINE      CODE     ---       #131
      01009563H   LINE      CODE     ---       #132
      01009566H   LINE      CODE     ---       #134
      0100956EH   LINE      CODE     ---       #139
      0100957EH   LINE      CODE     ---       #140
      01009596H   LINE      CODE     ---       #143
      010095A6H   LINE      CODE     ---       #144
      010095BDH   LINE      CODE     ---       #145
      010095C9H   LINE      CODE     ---       #146
      010095CBH   LINE      CODE     ---       #148
      010095DEH   LINE      CODE     ---       #151
      010095EEH   LINE      CODE     ---       #152
      01009604H   LINE      CODE     ---       #153
      01009606H   LINE      CODE     ---       #156
      01009611H   LINE      CODE     ---       #157
      0100961CH   LINE      CODE     ---       #159
      01009629H   LINE      CODE     ---       #160
      0100962BH   LINE      CODE     ---       #161
      01009631H   LINE      CODE     ---       #163
      01009633H   LINE      CODE     ---       #166
      0100963AH   LINE      CODE     ---       #167
      0100963EH   LINE      CODE     ---       #171
      01009643H   LINE      CODE     ---       #172
      0100964EH   LINE      CODE     ---       #176
      0100964EH   LINE      CODE     ---       #177
      0100964EH   LINE      CODE     ---       #179
      01009653H   LINE      CODE     ---       #182
      01009656H   LINE      CODE     ---       #185
      0100965CH   LINE      CODE     ---       #187
      0100965FH   LINE      CODE     ---       #189
      01009661H   LINE      CODE     ---       #191
      01009664H   LINE      CODE     ---       #192
      01009664H   LINE      CODE     ---       #193
      01009666H   LINE      CODE     ---       #196
      0100966BH   LINE      CODE     ---       #199
      01009673H   LINE      CODE     ---       #201
      0100967AH   LINE      CODE     ---       #202
      0100967DH   LINE      CODE     ---       #203
      0100967FH   LINE      CODE     ---       #204
      0100967FH   LINE      CODE     ---       #205
      ---         BLOCKEND  ---      ---       LVL=0

      ---         MODULE    ---      ---       UTILS
      01008230H   PUBLIC    CODE     ---       check_rest_position
      0100A1A4H   PUBLIC    CODE     ---       calibration
      0100B58AH   PUBLIC    CODE     ---       _filter_voltage
      0100AC50H   PUBLIC    CODE     ---       _filter_ch2
      0100AB9BH   PUBLIC    CODE     ---       _filter_ch1
      000000CAH   SFRSYM    DATA     BYTE      SFRPRT5SEL
      000000DAH   SFRSYM    DATA     BYTE      SFRPRT6SEL
      000000D0H.6 SFRSYM    DATA     BIT       AC
      000000A8H.7 SFRSYM    DATA     BIT       EA
      000000A8H   SFRSYM    DATA     BYTE      IE
      00000085H   SFRSYM    DATA     BYTE      DPH1
      00000084H   SFRSYM    DATA     BYTE      DPL1
      000000D0H.7 SFRSYM    DATA     BIT       CY
LX51 LINKER/LOCATER V4.64.0.0                                                         02/16/2023  11:05:26  PAGE 72


      000000A0H   SFRSYM    DATA     BYTE      P2AX
      00000095H   SFRSYM    DATA     BYTE      DPX1
      00000081H   SFRSYM    DATA     BYTE      SP
      000000D0H.2 SFRSYM    DATA     BIT       OV
      00000080H   SFRSYM    DATA     BYTE      SFRPRT0DR
      00000090H   SFRSYM    DATA     BYTE      SFRPRT1DR
      000000F2H   SFRSYM    DATA     BYTE      SFRPRT12SEL
      00000098H   SFRSYM    DATA     BYTE      SFRPRT2DR
      000000B0H   SFRSYM    DATA     BYTE      SFRPRT3DR
      000000C0H   SFRSYM    DATA     BYTE      SFRPRT4DR
      000000FAH   SFRSYM    DATA     BYTE      SFRPRT15SEL
      000000C8H   SFRSYM    DATA     BYTE      SFRPRT5DR
      000000D8H   SFRSYM    DATA     BYTE      SFRPRT6DR
      00000089H   SFRSYM    DATA     BYTE      SFRPRT0PS
      00000091H   SFRSYM    DATA     BYTE      SFRPRT1PS
      00000099H   SFRSYM    DATA     BYTE      SFRPRT2PS
      000000B1H   SFRSYM    DATA     BYTE      SFRPRT3PS
      000000C1H   SFRSYM    DATA     BYTE      SFRPRT4PS
      000000C9H   SFRSYM    DATA     BYTE      SFRPRT5PS
      000000D9H   SFRSYM    DATA     BYTE      SFRPRT6PS
      000000EAH   SFRSYM    DATA     BYTE      MXAX
      000000F0H   SFRSYM    DATA     BYTE      B
      000000E0H   SFRSYM    DATA     BYTE      ACC
      000000D0H   SFRSYM    DATA     BIT       P
      000000D0H.3 SFRSYM    DATA     BIT       RS0
      000000D0H.4 SFRSYM    DATA     BIT       RS1
      00000083H   SFRSYM    DATA     BYTE      DPH
      000000E8H   SFRSYM    DATA     BYTE      SFRPRT12DR
      00000082H   SFRSYM    DATA     BYTE      DPL
      000000F8H   SFRSYM    DATA     BYTE      SFRPRT15DR
      00000086H   SFRSYM    DATA     BYTE      DPS
      000000E9H   SFRSYM    DATA     BYTE      SFRPRT12PS
      00000093H   SFRSYM    DATA     BYTE      DPX
      000000F9H   SFRSYM    DATA     BYTE      SFRPRT15PS
      000000D0H.5 SFRSYM    DATA     BIT       F0
      000000D0H.1 SFRSYM    DATA     BIT       F1
      0000008AH   SFRSYM    DATA     BYTE      SFRPRT0SEL
      000000D0H   SFRSYM    DATA     BYTE      PSW
      000000A2H   SFRSYM    DATA     BYTE      SFRPRT1SEL
      0000009AH   SFRSYM    DATA     BYTE      SFRPRT2SEL
      000000B2H   SFRSYM    DATA     BYTE      SFRPRT3SEL
      000000C2H   SFRSYM    DATA     BYTE      SFRPRT4SEL
      00000004H   SYMBOL    DATA     LONG      new_value
      02000F6EH   SYMBOL    XDATA    LONG      old_value
      02000F72H   SYMBOL    XDATA    LONG      aux
      00000004H   SYMBOL    DATA     LONG      new_value
      02000F76H   SYMBOL    XDATA    LONG      old_value
      02000F7AH   SYMBOL    XDATA    LONG      aux

      0100AB9BH   BLOCK     CODE     ---       LVL=0
      02000003H   SYMBOL    XDATA    LONG      new_value
      0100ABA1H   BLOCK     CODE     NEAR LAB  LVL=1
      02000F7EH   SYMBOL    XDATA    LONG      old_value
      02000F82H   SYMBOL    XDATA    LONG      aux
      ---         BLOCKEND  ---      ---       LVL=1
      0100AB9BH   LINE      CODE     ---       #78
      0100ABA1H   LINE      CODE     ---       #82
      0100ABBAH   LINE      CODE     ---       #83
      0100ABC5H   LINE      CODE     ---       #85
      0100AC24H   LINE      CODE     ---       #87
      0100AC38H   LINE      CODE     ---       #89
      0100AC4FH   LINE      CODE     ---       #90
      ---         BLOCKEND  ---      ---       LVL=0

      0100AC50H   BLOCK     CODE     ---       LVL=0
LX51 LINKER/LOCATER V4.64.0.0                                                         02/16/2023  11:05:26  PAGE 73


      02000003H   SYMBOL    XDATA    LONG      new_value
      0100AC56H   BLOCK     CODE     NEAR LAB  LVL=1
      02000F86H   SYMBOL    XDATA    LONG      old_value
      02000F8AH   SYMBOL    XDATA    LONG      aux
      ---         BLOCKEND  ---      ---       LVL=1
      0100AC50H   LINE      CODE     ---       #96
      0100AC56H   LINE      CODE     ---       #100
      0100AC6FH   LINE      CODE     ---       #101
      0100AC7AH   LINE      CODE     ---       #103
      0100ACD9H   LINE      CODE     ---       #105
      0100ACEDH   LINE      CODE     ---       #107
      0100AD04H   LINE      CODE     ---       #108
      ---         BLOCKEND  ---      ---       LVL=0
      02000F8EH   SYMBOL    XDATA    LONG      old_out
      02000F92H   SYMBOL    XDATA    LONG      aux
      02000F96H   SYMBOL    XDATA    LONG      old_out
      02000F9AH   SYMBOL    XDATA    LONG      aux
      02000F9EH   SYMBOL    XDATA    LONG      old_out
      02000FA2H   SYMBOL    XDATA    LONG      aux
      02000FA6H   SYMBOL    XDATA    LONG      old_out
      02000FAAH   SYMBOL    XDATA    LONG      aux
      02000FAEH   SYMBOL    XDATA    LONG      old_out
      02000FB2H   SYMBOL    XDATA    LONG      aux
      02000FB6H   SYMBOL    XDATA    LONG      old_out
      02000FBAH   SYMBOL    XDATA    LONG      aux

      0100B58AH   BLOCK     CODE     ---       LVL=0
      00000004H   SYMBOL    DATA     LONG      new_value
      0100B58AH   BLOCK     CODE     NEAR LAB  LVL=1
      02000FBEH   SYMBOL    XDATA    LONG      old_value
      02000FC2H   SYMBOL    XDATA    LONG      aux
      ---         BLOCKEND  ---      ---       LVL=1
      0100B58AH   LINE      CODE     ---       #188
      0100B58AH   LINE      CODE     ---       #193
      0100B5DBH   LINE      CODE     ---       #195
      0100B5EFH   LINE      CODE     ---       #197
      0100B606H   LINE      CODE     ---       #198
      ---         BLOCKEND  ---      ---       LVL=0
      00000001H   SYMBOL    DATA     ---       value

      0100A1A4H   BLOCK     CODE     ---       LVL=0
      0100A1A4H   BLOCK     CODE     NEAR LAB  LVL=1
      02000FC6H   SYMBOL    XDATA    BYTE      direction
      02000FC7H   SYMBOL    XDATA    WORD      closure_counter
      ---         BLOCKEND  ---      ---       LVL=1
      0100A1A4H   LINE      CODE     ---       #250
      0100A1A4H   LINE      CODE     ---       #256
      0100A1AAH   LINE      CODE     ---       #257
      0100A1F9H   LINE      CODE     ---       #258
      0100A21EH   LINE      CODE     ---       #259
      0100A224H   LINE      CODE     ---       #260
      0100A224H   LINE      CODE     ---       #261
      0100A225H   LINE      CODE     ---       #262
      0100A278H   LINE      CODE     ---       #263
      0100A2A1H   LINE      CODE     ---       #264
      0100A2A6H   LINE      CODE     ---       #265
      0100A2B4H   LINE      CODE     ---       #266
      0100A2C8H   LINE      CODE     ---       #267
      0100A2CFH   LINE      CODE     ---       #268
      0100A2D3H   LINE      CODE     ---       #269
      0100A2D3H   LINE      CODE     ---       #270
      0100A2D3H   LINE      CODE     ---       #271
      0100A2D3H   LINE      CODE     ---       #272
      ---         BLOCKEND  ---      ---       LVL=0
      00000004H   SYMBOL    DATA     LONG      x
LX51 LINKER/LOCATER V4.64.0.0                                                         02/16/2023  11:05:26  PAGE 74


      00000004H   SYMBOL    DATA     LONG      aux

      01008230H   BLOCK     CODE     ---       LVL=0
      01008230H   BLOCK     CODE     NEAR LAB  LVL=1
      02000FC9H   SYMBOL    XDATA    DWORD     count
      02000FCDH   SYMBOL    XDATA    BYTE      flag_count
      02000FCEH   SYMBOL    XDATA    BYTE      first_time
      02000FCFH   SYMBOL    XDATA    FLOAT     m
      02000FD3H   SYMBOL    XDATA    LONG      abs_err_thr
      02000FD7H   SYMBOL    XDATA    LONG      delta_inc
      02000003H   SYMBOL    XDATA    LONG      curr_pos
      02000FDBH   SYMBOL    XDATA    LONG      rest_error
      02000007H   SYMBOL    XDATA    FLOAT     rest_vel_ticks_ms
      ---         BLOCKEND  ---      ---       LVL=1
      01008230H   LINE      CODE     ---       #322
      01008230H   LINE      CODE     ---       #330
      0100823BH   LINE      CODE     ---       #332
      0100825DH   LINE      CODE     ---       #334
      01008263H   LINE      CODE     ---       #335
      0100826EH   LINE      CODE     ---       #336
      01008273H   LINE      CODE     ---       #337
      01008273H   LINE      CODE     ---       #339
      01008290H   LINE      CODE     ---       #341
      01008313H   LINE      CODE     ---       #342
      01008313H   LINE      CODE     ---       #343
      0100831AH   LINE      CODE     ---       #344
      01008339H   LINE      CODE     ---       #345
      01008339H   LINE      CODE     ---       #346
      0100833BH   LINE      CODE     ---       #347
      0100833BH   LINE      CODE     ---       #348
      01008346H   LINE      CODE     ---       #349
      0100834BH   LINE      CODE     ---       #350
      01008350H   LINE      CODE     ---       #351
      01008350H   LINE      CODE     ---       #359
      0100837EH   LINE      CODE     ---       #361
      01008383H   LINE      CODE     ---       #362
      01008397H   LINE      CODE     ---       #365
      01008405H   LINE      CODE     ---       #368
      0100842FH   LINE      CODE     ---       #369
      0100846FH   LINE      CODE     ---       #371
      0100849CH   LINE      CODE     ---       #373
      010084C6H   LINE      CODE     ---       #374
      01008506H   LINE      CODE     ---       #376
      01008511H   LINE      CODE     ---       #377
      01008516H   LINE      CODE     ---       #378
      01008516H   LINE      CODE     ---       #380
      0100851FH   LINE      CODE     ---       #382
      01008563H   LINE      CODE     ---       #384
      01008577H   LINE      CODE     ---       #386
      01008580H   LINE      CODE     ---       #387
      01008586H   LINE      CODE     ---       #389
      01008591H   LINE      CODE     ---       #390
      01008594H   LINE      CODE     ---       #391
      01008594H   LINE      CODE     ---       #392
      010085C1H   LINE      CODE     ---       #394
      010085DAH   LINE      CODE     ---       #395
      01008608H   LINE      CODE     ---       #396
      01008608H   LINE      CODE     ---       #397
      01008621H   LINE      CODE     ---       #398
      01008650H   LINE      CODE     ---       #399
      01008650H   LINE      CODE     ---       #400
      01008650H   LINE      CODE     ---       #401
      01008650H   LINE      CODE     ---       #404
      01008656H   LINE      CODE     ---       #405
      01008676H   LINE      CODE     ---       #406
LX51 LINKER/LOCATER V4.64.0.0                                                         02/16/2023  11:05:26  PAGE 75


      0100868AH   LINE      CODE     ---       #407
      010086ACH   LINE      CODE     ---       #408
      010086C0H   LINE      CODE     ---       #409
      010086C0H   LINE      CODE     ---       #411
      ---         BLOCKEND  ---      ---       LVL=0

      ---         MODULE    ---      ---       CYFITTER_CFG
      0100C916H   PUBLIC    CONST    ---       ADC_AMux__maskTable
      0100C912H   PUBLIC    CONST    ---       ADC_AMux__addrTable
      01009CB0H   PUBLIC    CODE     ---       cyfitter_cfg
      0100C06EH   PUBLIC    CODE     ---       _ADC_AMux_Unset
      0100C0D0H   PUBLIC    CODE     ---       _ADC_AMux_Set
      000000CAH   SFRSYM    DATA     BYTE      SFRPRT5SEL
      000000DAH   SFRSYM    DATA     BYTE      SFRPRT6SEL
      000000D0H.6 SFRSYM    DATA     BIT       AC
      000000A8H.7 SFRSYM    DATA     BIT       EA
      000000A8H   SFRSYM    DATA     BYTE      IE
      00000085H   SFRSYM    DATA     BYTE      DPH1
      00000084H   SFRSYM    DATA     BYTE      DPL1
      000000D0H.7 SFRSYM    DATA     BIT       CY
      000000A0H   SFRSYM    DATA     BYTE      P2AX
      00000095H   SFRSYM    DATA     BYTE      DPX1
      00000081H   SFRSYM    DATA     BYTE      SP
      000000D0H.2 SFRSYM    DATA     BIT       OV
      00000080H   SFRSYM    DATA     BYTE      SFRPRT0DR
      00000090H   SFRSYM    DATA     BYTE      SFRPRT1DR
      000000F2H   SFRSYM    DATA     BYTE      SFRPRT12SEL
      00000098H   SFRSYM    DATA     BYTE      SFRPRT2DR
      000000B0H   SFRSYM    DATA     BYTE      SFRPRT3DR
      000000C0H   SFRSYM    DATA     BYTE      SFRPRT4DR
      000000FAH   SFRSYM    DATA     BYTE      SFRPRT15SEL
      000000C8H   SFRSYM    DATA     BYTE      SFRPRT5DR
      000000D8H   SFRSYM    DATA     BYTE      SFRPRT6DR
      00000089H   SFRSYM    DATA     BYTE      SFRPRT0PS
      00000091H   SFRSYM    DATA     BYTE      SFRPRT1PS
      00000099H   SFRSYM    DATA     BYTE      SFRPRT2PS
      000000B1H   SFRSYM    DATA     BYTE      SFRPRT3PS
      000000C1H   SFRSYM    DATA     BYTE      SFRPRT4PS
      000000C9H   SFRSYM    DATA     BYTE      SFRPRT5PS
      000000D9H   SFRSYM    DATA     BYTE      SFRPRT6PS
      000000EAH   SFRSYM    DATA     BYTE      MXAX
      000000F0H   SFRSYM    DATA     BYTE      B
      000000E0H   SFRSYM    DATA     BYTE      ACC
      000000D0H   SFRSYM    DATA     BIT       P
      000000D0H.3 SFRSYM    DATA     BIT       RS0
      000000D0H.4 SFRSYM    DATA     BIT       RS1
      00000083H   SFRSYM    DATA     BYTE      DPH
      000000E8H   SFRSYM    DATA     BYTE      SFRPRT12DR
      00000082H   SFRSYM    DATA     BYTE      DPL
      000000F8H   SFRSYM    DATA     BYTE      SFRPRT15DR
      00000086H   SFRSYM    DATA     BYTE      DPS
      000000E9H   SFRSYM    DATA     BYTE      SFRPRT12PS
      00000093H   SFRSYM    DATA     BYTE      DPX
      000000F9H   SFRSYM    DATA     BYTE      SFRPRT15PS
      000000D0H.5 SFRSYM    DATA     BIT       F0
      000000D0H.1 SFRSYM    DATA     BIT       F1
      0000008AH   SFRSYM    DATA     BYTE      SFRPRT0SEL
      000000D0H   SFRSYM    DATA     BYTE      PSW
      000000A2H   SFRSYM    DATA     BYTE      SFRPRT1SEL
      0000009AH   SFRSYM    DATA     BYTE      SFRPRT2SEL
      000000B2H   SFRSYM    DATA     BYTE      SFRPRT3SEL
      000000C2H   SFRSYM    DATA     BYTE      SFRPRT4SEL
      01009B50H   SYMBOL    CODE     ---       ClockSetup
      0100C692H   SYMBOL    CODE     ---       _CyClockStartupError
      0100BEF5H   SYMBOL    CODE     ---       AnalogSetDefault
LX51 LINKER/LOCATER V4.64.0.0                                                         02/16/2023  11:05:26  PAGE 76


      0100A91BH   SYMBOL    CODE     ---       cfg_dma_init

      0100C692H   BLOCK     CODE     ---       LVL=0
      02000000H   SYMBOL    XDATA    BYTE      errorCode
      0100C692H   LINE      CODE     ---       #77
      0100C692H   LINE      CODE     ---       #78
      0100C692H   LINE      CODE     ---       #80
      0100C692H   LINE      CODE     ---       #98
      ---         BLOCKEND  ---      ---       LVL=0

      0100A91BH   BLOCK     CODE     ---       LVL=0
      0100A91BH   BLOCK     CODE     NEAR LAB  LVL=1
      0100C69DH   SYMBOL    CONST    ---       CH1_ADDR_DATA0
      0100C6A5H   SYMBOL    CONST    ---       CH2_ADDR_DATA0
      0100C6ADH   SYMBOL    CONST    ---       CH5_ADDR_DATA0
      0100C6B5H   SYMBOL    CONST    ---       CH6_ADDR_DATA0
      0100C6BDH   SYMBOL    CONST    ---       DMA_TD_START_CMD
      02001073H   SYMBOL    XDATA    DWORD     DMA_ZERO_VAL
      0100C6C2H   SYMBOL    CONST    ---       CFG_TD_LIST0
      ---         BLOCKEND  ---      ---       LVL=1
      0100A91BH   LINE      CODE     ---       #318
      0100A91BH   LINE      CODE     ---       #319
      0100A91BH   LINE      CODE     ---       #426
      0100A926H   LINE      CODE     ---       #427
      0100A92CH   LINE      CODE     ---       #428
      0100A932H   LINE      CODE     ---       #429
      0100A937H   LINE      CODE     ---       #430
      0100A943H   LINE      CODE     ---       #431
      0100A949H   LINE      CODE     ---       #432
      0100A94DH   LINE      CODE     ---       #433
      0100A96FH   LINE      CODE     ---       #434
      0100A97CH   LINE      CODE     ---       #435
      0100A989H   LINE      CODE     ---       #436
      0100A995H   LINE      CODE     ---       #437
      0100A99BH   LINE      CODE     ---       #438
      0100A9A0H   LINE      CODE     ---       #439
      0100A9A6H   LINE      CODE     ---       #440
      0100A9ACH   LINE      CODE     ---       #442
      0100A9ACH   LINE      CODE     ---       #443
      0100A9B2H   LINE      CODE     ---       #444
      0100A9B2H   LINE      CODE     ---       #447
      0100A9BAH   LINE      CODE     ---       #448
      0100A9C2H   LINE      CODE     ---       #449
      0100A9CAH   LINE      CODE     ---       #450
      0100A9D2H   LINE      CODE     ---       #451
      0100A9DAH   LINE      CODE     ---       #454
      0100A9F5H   LINE      CODE     ---       #456
      ---         BLOCKEND  ---      ---       LVL=0

      01009B50H   BLOCK     CODE     ---       LVL=0
      01009B50H   BLOCK     CODE     NEAR LAB  LVL=1
      02000000H   SYMBOL    XDATA    DWORD     timeout
      02000004H   SYMBOL    XDATA    BYTE      pllLock
      ---         BLOCKEND  ---      ---       LVL=1
      01009B50H   LINE      CODE     ---       #474
      01009B50H   LINE      CODE     ---       #475
      01009B50H   LINE      CODE     ---       #481
      01009B5DH   LINE      CODE     ---       #482
      01009B63H   LINE      CODE     ---       #483
      01009B6FH   LINE      CODE     ---       #484
      01009B75H   LINE      CODE     ---       #485
      01009B82H   LINE      CODE     ---       #486
      01009B88H   LINE      CODE     ---       #487
      01009B95H   LINE      CODE     ---       #488
      01009B9BH   LINE      CODE     ---       #491
LX51 LINKER/LOCATER V4.64.0.0                                                         02/16/2023  11:05:26  PAGE 77


      01009BB3H   LINE      CODE     ---       #494
      01009BB9H   LINE      CODE     ---       #497
      01009BBFH   LINE      CODE     ---       #498
      01009BCDH   LINE      CODE     ---       #501
      01009BDAH   LINE      CODE     ---       #502
      01009BE7H   LINE      CODE     ---       #504
      01009BECH   LINE      CODE     ---       #505
      01009C11H   LINE      CODE     ---       #506
      01009C11H   LINE      CODE     ---       #507
      01009C22H   LINE      CODE     ---       #508
      01009C2CH   LINE      CODE     ---       #509
      01009C54H   LINE      CODE     ---       #511
      01009C62H   LINE      CODE     ---       #512
      01009C62H   LINE      CODE     ---       #513
      01009C67H   LINE      CODE     ---       #514
      01009C67H   LINE      CODE     ---       #517
      01009C74H   LINE      CODE     ---       #518
      01009C7AH   LINE      CODE     ---       #519
      01009C7FH   LINE      CODE     ---       #520
      01009C85H   LINE      CODE     ---       #521
      01009C8AH   LINE      CODE     ---       #524
      01009C8EH   LINE      CODE     ---       #525
      01009C94H   LINE      CODE     ---       #526
      01009C9AH   LINE      CODE     ---       #528
      01009CA1H   LINE      CODE     ---       #529
      01009CA8H   LINE      CODE     ---       #530
      01009CAFH   LINE      CODE     ---       #531
      ---         BLOCKEND  ---      ---       LVL=0

      0100BEF5H   BLOCK     CODE     ---       LVL=0
      0100BEF5H   BLOCK     CODE     NEAR LAB  LVL=1
      00000007H   SYMBOL    DATA     BYTE      bg_xover_inl_trim
      ---         BLOCKEND  ---      ---       LVL=1
      0100BEF5H   LINE      CODE     ---       #553
      0100BEF5H   LINE      CODE     ---       #554
      0100BEF5H   LINE      CODE     ---       #555
      0100BEFEH   LINE      CODE     ---       #556
      0100BF05H   LINE      CODE     ---       #557
      0100BF0BH   LINE      CODE     ---       #558
      0100BF11H   LINE      CODE     ---       #559
      0100BF17H   LINE      CODE     ---       #560
      0100BF1DH   LINE      CODE     ---       #561
      0100BF23H   LINE      CODE     ---       #562
      0100BF29H   LINE      CODE     ---       #563
      0100BF2FH   LINE      CODE     ---       #564
      ---         BLOCKEND  ---      ---       LVL=0
      00000007H   SYMBOL    DATA     BYTE      enabled
      00000006H   SYMBOL    DATA     BYTE      regValue

      0100C0D0H   BLOCK     CODE     ---       LVL=0
      00000007H   SYMBOL    DATA     BYTE      channel
      0100C0D0H   LINE      CODE     ---       #627
      0100C0D0H   LINE      CODE     ---       #628
      0100C0D0H   LINE      CODE     ---       #629
      0100C0D6H   LINE      CODE     ---       #630
      0100C0D6H   LINE      CODE     ---       #631
      0100C0FFH   LINE      CODE     ---       #632
      0100C0FFH   LINE      CODE     ---       #633
      ---         BLOCKEND  ---      ---       LVL=0

      0100C06EH   BLOCK     CODE     ---       LVL=0
      00000007H   SYMBOL    DATA     BYTE      channel
      0100C06EH   LINE      CODE     ---       #649
      0100C06EH   LINE      CODE     ---       #650
      0100C06EH   LINE      CODE     ---       #651
LX51 LINKER/LOCATER V4.64.0.0                                                         02/16/2023  11:05:26  PAGE 78


      0100C074H   LINE      CODE     ---       #652
      0100C074H   LINE      CODE     ---       #653
      0100C09EH   LINE      CODE     ---       #654
      0100C09EH   LINE      CODE     ---       #655
      ---         BLOCKEND  ---      ---       LVL=0

      01009CB0H   BLOCK     CODE     ---       LVL=0
      01009CB0H   LINE      CODE     ---       #676
      01009CB0H   LINE      CODE     ---       #677
      01009CB0H   LINE      CODE     ---       #679
      01009CC6H   LINE      CODE     ---       #681
      01009CC6H   LINE      CODE     ---       #682
      01009CC9H   LINE      CODE     ---       #685
      01009CCFH   LINE      CODE     ---       #686
      01009CE9H   LINE      CODE     ---       #689
      01009CFFH   LINE      CODE     ---       #690
      01009D15H   LINE      CODE     ---       #693
      01009D1CH   LINE      CODE     ---       #694
      01009D23H   LINE      CODE     ---       #695
      01009D23H   LINE      CODE     ---       #699
      01009D3DH   LINE      CODE     ---       #700
      01009D57H   LINE      CODE     ---       #701
      01009D71H   LINE      CODE     ---       #702
      01009D8BH   LINE      CODE     ---       #703
      01009DA5H   LINE      CODE     ---       #704
      01009DABH   LINE      CODE     ---       #706
      01009DB2H   LINE      CODE     ---       #707
      01009DBBH   LINE      CODE     ---       #708
      01009DBBH   LINE      CODE     ---       #709
      01009DC1H   LINE      CODE     ---       #710
      01009DC1H   LINE      CODE     ---       #714
      01009DC7H   LINE      CODE     ---       #716
      01009DCAH   LINE      CODE     ---       #719
      01009DCDH   LINE      CODE     ---       #722
      01009DEEH   LINE      CODE     ---       #723
      01009DF5H   LINE      CODE     ---       #724
      ---         BLOCKEND  ---      ---       LVL=0

      ---         MODULE    ---      ---       CLOCK_UART
      0100C5EFH   PUBLIC    CODE     ---       CLOCK_UART_GetSourceRegister
      0100C59FH   PUBLIC    CODE     ---       CLOCK_UART_GetDividerRegister
      0100A2D4H   PUBLIC    CODE     ---       _CLOCK_UART_SetDividerRegister
      00000007H   SYMBOL    DATA     BYTE      state

      0100A2D4H   BLOCK     CODE     ---       LVL=0
      02000037H   SYMBOL    XDATA    WORD      clkDivider
      02000039H   SYMBOL    XDATA    BYTE      restart
      0100A2DFH   BLOCK     CODE     NEAR LAB  LVL=1
      0200003AH   SYMBOL    XDATA    BYTE      enabled
      0200003BH   SYMBOL    XDATA    BYTE      currSrc
      0200003CH   SYMBOL    XDATA    WORD      oldDivider
      ---         BLOCKEND  ---      ---       LVL=1
      0100A2D4H   LINE      CODE     ---       #193
      0100A2DFH   LINE      CODE     ---       #195
      0100A2DFH   LINE      CODE     ---       #198
      0100A2E7H   LINE      CODE     ---       #199
      0100A2F2H   LINE      CODE     ---       #201
      0100A304H   LINE      CODE     ---       #202
      0100A304H   LINE      CODE     ---       #203
      0100A30EH   LINE      CODE     ---       #205
      0100A31FH   LINE      CODE     ---       #206
      0100A31FH   LINE      CODE     ---       #208
      0100A323H   LINE      CODE     ---       #209
      0100A323H   LINE      CODE     ---       #213
      0100A32CH   LINE      CODE     ---       #214
LX51 LINKER/LOCATER V4.64.0.0                                                         02/16/2023  11:05:26  PAGE 79


      0100A333H   LINE      CODE     ---       #215
      0100A334H   LINE      CODE     ---       #217
      0100A334H   LINE      CODE     ---       #220
      0100A33BH   LINE      CODE     ---       #221
      0100A34CH   LINE      CODE     ---       #222
      0100A34CH   LINE      CODE     ---       #223
      0100A34DH   LINE      CODE     ---       #225
      0100A34DH   LINE      CODE     ---       #227
      0100A353H   LINE      CODE     ---       #228
      0100A353H   LINE      CODE     ---       #229
      0100A358H   LINE      CODE     ---       #236
      0100A35DH   LINE      CODE     ---       #237
      0100A362H   LINE      CODE     ---       #240
      0100A369H   LINE      CODE     ---       #243
      0100A37BH   LINE      CODE     ---       #244
      0100A37BH   LINE      CODE     ---       #246
      0100A38CH   LINE      CODE     ---       #247
      0100A392H   LINE      CODE     ---       #250
      0100A39AH   LINE      CODE     ---       #253
      0100A3A1H   LINE      CODE     ---       #257
      0100A3A6H   LINE      CODE     ---       #259
      0100A3A6H   LINE      CODE     ---       #260
      0100A3A6H   LINE      CODE     ---       #263
      0100A3AEH   LINE      CODE     ---       #264
      0100A3AEH   LINE      CODE     ---       #266
      0100A3BFH   LINE      CODE     ---       #268
      0100A3D2H   LINE      CODE     ---       #269
      0100A3DCH   LINE      CODE     ---       #270
      0100A3DDH   LINE      CODE     ---       #272
      0100A3DDH   LINE      CODE     ---       #274
      0100A3EEH   LINE      CODE     ---       #275
      0100A403H   LINE      CODE     ---       #276
      0100A403H   LINE      CODE     ---       #277
      0100A403H   LINE      CODE     ---       #278
      0100A403H   LINE      CODE     ---       #279
      ---         BLOCKEND  ---      ---       LVL=0

      0100C59FH   BLOCK     CODE     ---       LVL=0
      0100C59FH   LINE      CODE     ---       #297
      0100C59FH   LINE      CODE     ---       #298
      0100C59FH   LINE      CODE     ---       #299
      0100C5A8H   LINE      CODE     ---       #300
      ---         BLOCKEND  ---      ---       LVL=0
      00000007H   SYMBOL    DATA     BYTE      modeBitMask
      00000007H   SYMBOL    DATA     BYTE      modeBitMask
      00000007H   SYMBOL    DATA     BYTE      oldSrc

      0100C5EFH   BLOCK     CODE     ---       LVL=0
      0100C5EFH   LINE      CODE     ---       #464
      0100C5EFH   LINE      CODE     ---       #465
      0100C5EFH   LINE      CODE     ---       #466
      0100C5F6H   LINE      CODE     ---       #467
      ---         BLOCKEND  ---      ---       LVL=0

      ---         MODULE    ---      ---       ISR_RS485_RX
      0100C626H   PUBLIC    CODE     ---       ISR_RS485_RX_Disable
      0100C61FH   PUBLIC    CODE     ---       ISR_RS485_RX_Enable
      0100C5A9H   PUBLIC    CODE     ---       _ISR_RS485_RX_SetPriority
      0100C513H   PUBLIC    CODE     ---       _ISR_RS485_RX_SetVector
      0100C698H   PUBLIC    CODE     ---       ISR_RS485_RX_Interrupt
      0100C2DFH   PUBLIC    CODE     ---       _ISR_RS485_RX_StartEx
      000000CAH   SFRSYM    DATA     BYTE      SFRPRT5SEL
      000000DAH   SFRSYM    DATA     BYTE      SFRPRT6SEL
      000000D0H.6 SFRSYM    DATA     BIT       AC
      000000A8H.7 SFRSYM    DATA     BIT       EA
LX51 LINKER/LOCATER V4.64.0.0                                                         02/16/2023  11:05:26  PAGE 80


      000000A8H   SFRSYM    DATA     BYTE      IE
      00000085H   SFRSYM    DATA     BYTE      DPH1
      00000084H   SFRSYM    DATA     BYTE      DPL1
      000000D0H.7 SFRSYM    DATA     BIT       CY
      000000A0H   SFRSYM    DATA     BYTE      P2AX
      00000095H   SFRSYM    DATA     BYTE      DPX1
      00000081H   SFRSYM    DATA     BYTE      SP
      000000D0H.2 SFRSYM    DATA     BIT       OV
      00000080H   SFRSYM    DATA     BYTE      SFRPRT0DR
      00000090H   SFRSYM    DATA     BYTE      SFRPRT1DR
      000000F2H   SFRSYM    DATA     BYTE      SFRPRT12SEL
      00000098H   SFRSYM    DATA     BYTE      SFRPRT2DR
      000000B0H   SFRSYM    DATA     BYTE      SFRPRT3DR
      000000C0H   SFRSYM    DATA     BYTE      SFRPRT4DR
      000000FAH   SFRSYM    DATA     BYTE      SFRPRT15SEL
      000000C8H   SFRSYM    DATA     BYTE      SFRPRT5DR
      000000D8H   SFRSYM    DATA     BYTE      SFRPRT6DR
      00000089H   SFRSYM    DATA     BYTE      SFRPRT0PS
      00000091H   SFRSYM    DATA     BYTE      SFRPRT1PS
      00000099H   SFRSYM    DATA     BYTE      SFRPRT2PS
      000000B1H   SFRSYM    DATA     BYTE      SFRPRT3PS
      000000C1H   SFRSYM    DATA     BYTE      SFRPRT4PS
      000000C9H   SFRSYM    DATA     BYTE      SFRPRT5PS
      000000D9H   SFRSYM    DATA     BYTE      SFRPRT6PS
      000000EAH   SFRSYM    DATA     BYTE      MXAX
      000000F0H   SFRSYM    DATA     BYTE      B
      000000E0H   SFRSYM    DATA     BYTE      ACC
      000000D0H   SFRSYM    DATA     BIT       P
      000000D0H.3 SFRSYM    DATA     BIT       RS0
      000000D0H.4 SFRSYM    DATA     BIT       RS1
      00000083H   SFRSYM    DATA     BYTE      DPH
      000000E8H   SFRSYM    DATA     BYTE      SFRPRT12DR
      00000082H   SFRSYM    DATA     BYTE      DPL
      000000F8H   SFRSYM    DATA     BYTE      SFRPRT15DR
      00000086H   SFRSYM    DATA     BYTE      DPS
      000000E9H   SFRSYM    DATA     BYTE      SFRPRT12PS
      00000093H   SFRSYM    DATA     BYTE      DPX
      000000F9H   SFRSYM    DATA     BYTE      SFRPRT15PS
      000000D0H.5 SFRSYM    DATA     BIT       F0
      000000D0H.1 SFRSYM    DATA     BIT       F1
      0000008AH   SFRSYM    DATA     BYTE      SFRPRT0SEL
      000000D0H   SFRSYM    DATA     BYTE      PSW
      000000A2H   SFRSYM    DATA     BYTE      SFRPRT1SEL
      0000009AH   SFRSYM    DATA     BYTE      SFRPRT2SEL
      000000B2H   SFRSYM    DATA     BYTE      SFRPRT3SEL
      000000C2H   SFRSYM    DATA     BYTE      SFRPRT4SEL

      0100C2DFH   BLOCK     CODE     ---       LVL=0
      02000003H   SYMBOL    XDATA    ---       address
      0100C2DFH   LINE      CODE     ---       #94
      0100C2E7H   LINE      CODE     ---       #95
      0100C2E7H   LINE      CODE     ---       #97
      0100C2EAH   LINE      CODE     ---       #100
      0100C2F5H   LINE      CODE     ---       #103
      0100C2FAH   LINE      CODE     ---       #106
      0100C2FDH   LINE      CODE     ---       #107
      ---         BLOCKEND  ---      ---       LVL=0

      0100C698H   BLOCK     CODE     ---       LVL=0
      0100C698H   LINE      CODE     ---       #151
      0100C698H   LINE      CODE     ---       #168
      ---         BLOCKEND  ---      ---       LVL=0

      0100C513H   BLOCK     CODE     ---       LVL=0
      00000006H   SYMBOL    DATA     ---       address
LX51 LINKER/LOCATER V4.64.0.0                                                         02/16/2023  11:05:26  PAGE 81


      0100C513H   LINE      CODE     ---       #198
      0100C513H   LINE      CODE     ---       #199
      0100C513H   LINE      CODE     ---       #200
      0100C520H   LINE      CODE     ---       #201
      ---         BLOCKEND  ---      ---       LVL=0

      0100C5A9H   BLOCK     CODE     ---       LVL=0
      00000007H   SYMBOL    DATA     BYTE      priority
      0100C5A9H   LINE      CODE     ---       #248
      0100C5A9H   LINE      CODE     ---       #249
      0100C5A9H   LINE      CODE     ---       #250
      0100C5B2H   LINE      CODE     ---       #251
      ---         BLOCKEND  ---      ---       LVL=0
      00000007H   SYMBOL    DATA     BYTE      priority

      0100C61FH   BLOCK     CODE     ---       LVL=0
      0100C61FH   LINE      CODE     ---       #297
      0100C61FH   LINE      CODE     ---       #298
      0100C61FH   LINE      CODE     ---       #300
      0100C625H   LINE      CODE     ---       #301
      ---         BLOCKEND  ---      ---       LVL=0

      0100C626H   BLOCK     CODE     ---       LVL=0
      0100C626H   LINE      CODE     ---       #339
      0100C626H   LINE      CODE     ---       #340
      0100C626H   LINE      CODE     ---       #342
      0100C62CH   LINE      CODE     ---       #343
      ---         BLOCKEND  ---      ---       LVL=0

      ---         MODULE    ---      ---       PACER_TIMER
      02001079H   PUBLIC    XDATA    BYTE      PACER_TIMER_initVar
      0100C52FH   PUBLIC    CODE     ---       _PACER_TIMER_WriteCounter
      0100C521H   PUBLIC    CODE     ---       _PACER_TIMER_WritePeriod
      0100C634H   PUBLIC    CODE     ---       _PACER_TIMER_SetInterruptMode
      0100C463H   PUBLIC    CODE     ---       PACER_TIMER_Start
      0100C3D1H   PUBLIC    CODE     ---       PACER_TIMER_Enable
      0100BE7EH   PUBLIC    CODE     ---       PACER_TIMER_Init
      000000CAH   SFRSYM    DATA     BYTE      SFRPRT5SEL
      000000DAH   SFRSYM    DATA     BYTE      SFRPRT6SEL
      000000D0H.6 SFRSYM    DATA     BIT       AC
      000000A8H.7 SFRSYM    DATA     BIT       EA
      000000A8H   SFRSYM    DATA     BYTE      IE
      00000085H   SFRSYM    DATA     BYTE      DPH1
      00000084H   SFRSYM    DATA     BYTE      DPL1
      000000D0H.7 SFRSYM    DATA     BIT       CY
      000000A0H   SFRSYM    DATA     BYTE      P2AX
      00000095H   SFRSYM    DATA     BYTE      DPX1
      00000081H   SFRSYM    DATA     BYTE      SP
      000000D0H.2 SFRSYM    DATA     BIT       OV
      00000080H   SFRSYM    DATA     BYTE      SFRPRT0DR
      00000090H   SFRSYM    DATA     BYTE      SFRPRT1DR
      000000F2H   SFRSYM    DATA     BYTE      SFRPRT12SEL
      00000098H   SFRSYM    DATA     BYTE      SFRPRT2DR
      000000B0H   SFRSYM    DATA     BYTE      SFRPRT3DR
      000000C0H   SFRSYM    DATA     BYTE      SFRPRT4DR
      000000FAH   SFRSYM    DATA     BYTE      SFRPRT15SEL
      000000C8H   SFRSYM    DATA     BYTE      SFRPRT5DR
      000000D8H   SFRSYM    DATA     BYTE      SFRPRT6DR
      00000089H   SFRSYM    DATA     BYTE      SFRPRT0PS
      00000091H   SFRSYM    DATA     BYTE      SFRPRT1PS
      00000099H   SFRSYM    DATA     BYTE      SFRPRT2PS
      000000B1H   SFRSYM    DATA     BYTE      SFRPRT3PS
      000000C1H   SFRSYM    DATA     BYTE      SFRPRT4PS
      000000C9H   SFRSYM    DATA     BYTE      SFRPRT5PS
      000000D9H   SFRSYM    DATA     BYTE      SFRPRT6PS
LX51 LINKER/LOCATER V4.64.0.0                                                         02/16/2023  11:05:26  PAGE 82


      000000EAH   SFRSYM    DATA     BYTE      MXAX
      000000F0H   SFRSYM    DATA     BYTE      B
      000000E0H   SFRSYM    DATA     BYTE      ACC
      000000D0H   SFRSYM    DATA     BIT       P
      000000D0H.3 SFRSYM    DATA     BIT       RS0
      000000D0H.4 SFRSYM    DATA     BIT       RS1
      00000083H   SFRSYM    DATA     BYTE      DPH
      000000E8H   SFRSYM    DATA     BYTE      SFRPRT12DR
      00000082H   SFRSYM    DATA     BYTE      DPL
      000000F8H   SFRSYM    DATA     BYTE      SFRPRT15DR
      00000086H   SFRSYM    DATA     BYTE      DPS
      000000E9H   SFRSYM    DATA     BYTE      SFRPRT12PS
      00000093H   SFRSYM    DATA     BYTE      DPX
      000000F9H   SFRSYM    DATA     BYTE      SFRPRT15PS
      000000D0H.5 SFRSYM    DATA     BIT       F0
      000000D0H.1 SFRSYM    DATA     BIT       F1
      0000008AH   SFRSYM    DATA     BYTE      SFRPRT0SEL
      000000D0H   SFRSYM    DATA     BYTE      PSW
      000000A2H   SFRSYM    DATA     BYTE      SFRPRT1SEL
      0000009AH   SFRSYM    DATA     BYTE      SFRPRT2SEL
      000000B2H   SFRSYM    DATA     BYTE      SFRPRT3SEL
      000000C2H   SFRSYM    DATA     BYTE      SFRPRT4SEL

      0100BE7EH   BLOCK     CODE     ---       LVL=0
      0100BE7EH   LINE      CODE     ---       #43
      0100BE7EH   LINE      CODE     ---       #44
      0100BE7EH   LINE      CODE     ---       #52
      0100BE85H   LINE      CODE     ---       #60
      0100BE8CH   LINE      CODE     ---       #106
      0100BE93H   LINE      CODE     ---       #107
      0100BE97H   LINE      CODE     ---       #110
      0100BE9BH   LINE      CODE     ---       #111
      0100BE9FH   LINE      CODE     ---       #114
      0100BEA6H   LINE      CODE     ---       #118
      0100BEADH   LINE      CODE     ---       #119
      0100BEB4H   LINE      CODE     ---       #162
      0100BEB9H   LINE      CODE     ---       #163
      ---         BLOCKEND  ---      ---       LVL=0

      0100C3D1H   BLOCK     CODE     ---       LVL=0
      0100C3D1H   LINE      CODE     ---       #180
      0100C3D1H   LINE      CODE     ---       #181
      0100C3D1H   LINE      CODE     ---       #184
      0100C3D8H   LINE      CODE     ---       #185
      0100C3DFH   LINE      CODE     ---       #190
      0100C3E6H   LINE      CODE     ---       #192
      ---         BLOCKEND  ---      ---       LVL=0

      0100C463H   BLOCK     CODE     ---       LVL=0
      0100C463H   LINE      CODE     ---       #215
      0100C463H   LINE      CODE     ---       #216
      0100C463H   LINE      CODE     ---       #217
      0100C469H   LINE      CODE     ---       #218
      0100C469H   LINE      CODE     ---       #219
      0100C46CH   LINE      CODE     ---       #221
      0100C472H   LINE      CODE     ---       #222
      0100C472H   LINE      CODE     ---       #225
      0100C475H   LINE      CODE     ---       #226
      ---         BLOCKEND  ---      ---       LVL=0

      0100C634H   BLOCK     CODE     ---       LVL=0
      00000007H   SYMBOL    DATA     BYTE      interruptMode
      0100C634H   LINE      CODE     ---       #279
      0100C634H   LINE      CODE     ---       #280
      0100C634H   LINE      CODE     ---       #281
LX51 LINKER/LOCATER V4.64.0.0                                                         02/16/2023  11:05:26  PAGE 83


      0100C639H   LINE      CODE     ---       #282
      ---         BLOCKEND  ---      ---       LVL=0
      00000007H   SYMBOL    DATA     BYTE      control

      0100C521H   BLOCK     CODE     ---       LVL=0
      00000006H   SYMBOL    DATA     WORD      period
      0100C521H   BLOCK     CODE     NEAR LAB  LVL=1
      00000006H   SYMBOL    DATA     WORD      period_temp
      ---         BLOCKEND  ---      ---       LVL=1
      0100C521H   LINE      CODE     ---       #431
      0100C521H   LINE      CODE     ---       #432
      0100C521H   LINE      CODE     ---       #434
      0100C521H   LINE      CODE     ---       #435
      0100C52EH   LINE      CODE     ---       #439
      ---         BLOCKEND  ---      ---       LVL=0

      0100C52FH   BLOCK     CODE     ---       LVL=0
      00000006H   SYMBOL    DATA     WORD      counter
      0100C52FH   LINE      CODE     ---       #480
      0100C52FH   LINE      CODE     ---       #481
      0100C52FH   LINE      CODE     ---       #486
      0100C53CH   LINE      CODE     ---       #491
      ---         BLOCKEND  ---      ---       LVL=0

      ---         MODULE    ---      ---       UART_RS485
      02001048H   PUBLIC    XDATA    BYTE      UART_RS485_errorStatus
      02001047H   PUBLIC    XDATA    BYTE      UART_RS485_rxBufferOverflow
      02001046H   PUBLIC    XDATA    BYTE      UART_RS485_initVar
      02001045H   PUBLIC    XDATA    BYTE      UART_RS485_rxBufferWrite
      02001025H   PUBLIC    XDATA    ---       UART_RS485_rxBuffer
      02001024H   PUBLIC    XDATA    BYTE      UART_RS485_rxBufferRead
      02001023H   PUBLIC    XDATA    BYTE      UART_RS485_rxBufferLoopDetect
      0100C4C2H   PUBLIC    CODE     ---       UART_RS485_ClearTxBuffer
      0100BF66H   PUBLIC    CODE     ---       _UART_RS485_PutString
      0100C53DH   PUBLIC    CODE     ---       _UART_RS485_PutChar
      0100C63AH   PUBLIC    CODE     ---       UART_RS485_ReadTxStatus
      0100C130H   PUBLIC    CODE     ---       UART_RS485_ClearRxBuffer
      0100BB7CH   PUBLIC    CODE     ---       UART_RS485_GetRxBufferSize
      0100B97BH   PUBLIC    CODE     ---       UART_RS485_GetChar
      0100C44FH   PUBLIC    CODE     ---       UART_RS485_ReadRxStatus
      0100C25BH   PUBLIC    CODE     ---       UART_RS485_Stop
      0100C239H   PUBLIC    CODE     ---       UART_RS485_Enable
      0100C03BH   PUBLIC    CODE     ---       UART_RS485_Init
      0100C476H   PUBLIC    CODE     ---       UART_RS485_Start
      000000CAH   SFRSYM    DATA     BYTE      SFRPRT5SEL
      000000DAH   SFRSYM    DATA     BYTE      SFRPRT6SEL
      000000D0H.6 SFRSYM    DATA     BIT       AC
      000000A8H.7 SFRSYM    DATA     BIT       EA
      000000A8H   SFRSYM    DATA     BYTE      IE
      00000085H   SFRSYM    DATA     BYTE      DPH1
      00000084H   SFRSYM    DATA     BYTE      DPL1
      000000D0H.7 SFRSYM    DATA     BIT       CY
      000000A0H   SFRSYM    DATA     BYTE      P2AX
      00000095H   SFRSYM    DATA     BYTE      DPX1
      00000081H   SFRSYM    DATA     BYTE      SP
      000000D0H.2 SFRSYM    DATA     BIT       OV
      00000080H   SFRSYM    DATA     BYTE      SFRPRT0DR
      00000090H   SFRSYM    DATA     BYTE      SFRPRT1DR
      000000F2H   SFRSYM    DATA     BYTE      SFRPRT12SEL
      00000098H   SFRSYM    DATA     BYTE      SFRPRT2DR
      000000B0H   SFRSYM    DATA     BYTE      SFRPRT3DR
      000000C0H   SFRSYM    DATA     BYTE      SFRPRT4DR
      000000FAH   SFRSYM    DATA     BYTE      SFRPRT15SEL
      000000C8H   SFRSYM    DATA     BYTE      SFRPRT5DR
      000000D8H   SFRSYM    DATA     BYTE      SFRPRT6DR
LX51 LINKER/LOCATER V4.64.0.0                                                         02/16/2023  11:05:26  PAGE 84


      00000089H   SFRSYM    DATA     BYTE      SFRPRT0PS
      00000091H   SFRSYM    DATA     BYTE      SFRPRT1PS
      00000099H   SFRSYM    DATA     BYTE      SFRPRT2PS
      000000B1H   SFRSYM    DATA     BYTE      SFRPRT3PS
      000000C1H   SFRSYM    DATA     BYTE      SFRPRT4PS
      000000C9H   SFRSYM    DATA     BYTE      SFRPRT5PS
      000000D9H   SFRSYM    DATA     BYTE      SFRPRT6PS
      000000EAH   SFRSYM    DATA     BYTE      MXAX
      000000F0H   SFRSYM    DATA     BYTE      B
      000000E0H   SFRSYM    DATA     BYTE      ACC
      000000D0H   SFRSYM    DATA     BIT       P
      000000D0H.3 SFRSYM    DATA     BIT       RS0
      000000D0H.4 SFRSYM    DATA     BIT       RS1
      00000083H   SFRSYM    DATA     BYTE      DPH
      000000E8H   SFRSYM    DATA     BYTE      SFRPRT12DR
      00000082H   SFRSYM    DATA     BYTE      DPL
      000000F8H   SFRSYM    DATA     BYTE      SFRPRT15DR
      00000086H   SFRSYM    DATA     BYTE      DPS
      000000E9H   SFRSYM    DATA     BYTE      SFRPRT12PS
      00000093H   SFRSYM    DATA     BYTE      DPX
      000000F9H   SFRSYM    DATA     BYTE      SFRPRT15PS
      000000D0H.5 SFRSYM    DATA     BIT       F0
      000000D0H.1 SFRSYM    DATA     BIT       F1
      0000008AH   SFRSYM    DATA     BYTE      SFRPRT0SEL
      000000D0H   SFRSYM    DATA     BYTE      PSW
      000000A2H   SFRSYM    DATA     BYTE      SFRPRT1SEL
      0000009AH   SFRSYM    DATA     BYTE      SFRPRT2SEL
      000000B2H   SFRSYM    DATA     BYTE      SFRPRT3SEL
      000000C2H   SFRSYM    DATA     BYTE      SFRPRT4SEL

      0100C476H   BLOCK     CODE     ---       LVL=0
      0100C476H   LINE      CODE     ---       #76
      0100C476H   LINE      CODE     ---       #77
      0100C476H   LINE      CODE     ---       #79
      0100C47CH   LINE      CODE     ---       #80
      0100C47CH   LINE      CODE     ---       #81
      0100C47FH   LINE      CODE     ---       #82
      0100C485H   LINE      CODE     ---       #83
      0100C485H   LINE      CODE     ---       #85
      0100C488H   LINE      CODE     ---       #86
      ---         BLOCKEND  ---      ---       LVL=0

      0100C03BH   BLOCK     CODE     ---       LVL=0
      0100C03BH   LINE      CODE     ---       #106
      0100C03BH   LINE      CODE     ---       #107
      0100C03BH   LINE      CODE     ---       #112
      0100C044H   LINE      CODE     ---       #113
      0100C04BH   LINE      CODE     ---       #114
      0100C050H   LINE      CODE     ---       #124
      0100C056H   LINE      CODE     ---       #126
      0100C05CH   LINE      CODE     ---       #138
      0100C062H   LINE      CODE     ---       #139
      0100C068H   LINE      CODE     ---       #150
      0100C06DH   LINE      CODE     ---       #160
      ---         BLOCKEND  ---      ---       LVL=0

      0100C239H   BLOCK     CODE     ---       LVL=0
      0100C239H   BLOCK     CODE     NEAR LAB  LVL=1
      00000007H   SYMBOL    DATA     BYTE      enableInterrupts
      ---         BLOCKEND  ---      ---       LVL=1
      0100C239H   LINE      CODE     ---       #183
      0100C239H   LINE      CODE     ---       #184
      0100C239H   LINE      CODE     ---       #186
      0100C23CH   LINE      CODE     ---       #190
      0100C243H   LINE      CODE     ---       #193
LX51 LINKER/LOCATER V4.64.0.0                                                         02/16/2023  11:05:26  PAGE 85


      0100C24AH   LINE      CODE     ---       #196
      0100C250H   LINE      CODE     ---       #211
      0100C257H   LINE      CODE     ---       #222
      0100C25AH   LINE      CODE     ---       #223
      ---         BLOCKEND  ---      ---       LVL=0

      0100C25BH   BLOCK     CODE     ---       LVL=0
      0100C25BH   BLOCK     CODE     NEAR LAB  LVL=1
      00000007H   SYMBOL    DATA     BYTE      enableInterrupts
      ---         BLOCKEND  ---      ---       LVL=1
      0100C25BH   LINE      CODE     ---       #240
      0100C25BH   LINE      CODE     ---       #241
      0100C25BH   LINE      CODE     ---       #243
      0100C25EH   LINE      CODE     ---       #247
      0100C265H   LINE      CODE     ---       #262
      0100C26CH   LINE      CODE     ---       #265
      0100C272H   LINE      CODE     ---       #270
      0100C279H   LINE      CODE     ---       #277
      0100C27CH   LINE      CODE     ---       #278
      ---         BLOCKEND  ---      ---       LVL=0
      00000007H   SYMBOL    DATA     BYTE      intSrc
      00000007H   SYMBOL    DATA     BYTE      rxData
      00000006H   SYMBOL    DATA     BYTE      locRxBufferRead
      00000005H   SYMBOL    DATA     BYTE      locRxBufferWrite

      0100C44FH   BLOCK     CODE     ---       LVL=0
      0100C44FH   BLOCK     CODE     NEAR LAB  LVL=1
      00000007H   SYMBOL    DATA     BYTE      status
      ---         BLOCKEND  ---      ---       LVL=1
      0100C44FH   LINE      CODE     ---       #485
      0100C44FH   LINE      CODE     ---       #486
      0100C44FH   LINE      CODE     ---       #489
      0100C456H   LINE      CODE     ---       #492
      0100C45CH   LINE      CODE     ---       #493
      0100C45CH   LINE      CODE     ---       #494
      0100C460H   LINE      CODE     ---       #495
      0100C462H   LINE      CODE     ---       #496
      0100C462H   LINE      CODE     ---       #499
      0100C462H   LINE      CODE     ---       #500
      ---         BLOCKEND  ---      ---       LVL=0

      0100B97BH   BLOCK     CODE     ---       LVL=0
      0100B97BH   BLOCK     CODE     NEAR LAB  LVL=1
      00000007H   SYMBOL    DATA     BYTE      rxData
      00000006H   SYMBOL    DATA     BYTE      rxStatus
      00000006H   SYMBOL    DATA     BYTE      locRxBufferRead
      00000005H   SYMBOL    DATA     BYTE      locRxBufferWrite
      ---         BLOCKEND  ---      ---       LVL=1
      0100B97BH   LINE      CODE     ---       #532
      0100B97BH   LINE      CODE     ---       #533
      0100B97BH   LINE      CODE     ---       #534
      0100B97DH   LINE      CODE     ---       #542
      0100B983H   LINE      CODE     ---       #544
      0100B988H   LINE      CODE     ---       #545
      0100B98DH   LINE      CODE     ---       #547
      0100B997H   LINE      CODE     ---       #548
      0100B997H   LINE      CODE     ---       #549
      0100B9A3H   LINE      CODE     ---       #550
      0100B9A4H   LINE      CODE     ---       #551
      0100B9AAH   LINE      CODE     ---       #552
      0100B9AAH   LINE      CODE     ---       #553
      0100B9ACH   LINE      CODE     ---       #554
      0100B9ACH   LINE      CODE     ---       #556
      0100B9B1H   LINE      CODE     ---       #558
      0100B9B7H   LINE      CODE     ---       #559
LX51 LINKER/LOCATER V4.64.0.0                                                         02/16/2023  11:05:26  PAGE 86


      0100B9B7H   LINE      CODE     ---       #560
      0100B9B9H   LINE      CODE     ---       #575
      0100B9B9H   LINE      CODE     ---       #577
      0100B9BBH   LINE      CODE     ---       #579
      0100B9C0H   LINE      CODE     ---       #580
      0100B9C3H   LINE      CODE     ---       #581
      0100B9C3H   LINE      CODE     ---       #582
      0100B9C8H   LINE      CODE     ---       #585
      0100B9CDH   LINE      CODE     ---       #586
      0100B9CDH   LINE      CODE     ---       #587
      0100B9CFH   LINE      CODE     ---       #588
      0100B9CFH   LINE      CODE     ---       #589
      0100B9CFH   LINE      CODE     ---       #590
      0100B9CFH   LINE      CODE     ---       #592
      0100B9D5H   LINE      CODE     ---       #611
      0100B9D5H   LINE      CODE     ---       #612
      ---         BLOCKEND  ---      ---       LVL=0
      00000002H   SYMBOL    DATA     WORD      locErrorStatus

      0100BB7CH   BLOCK     CODE     ---       LVL=0
      0100BB7CH   BLOCK     CODE     NEAR LAB  LVL=1
      00000007H   SYMBOL    DATA     BYTE      size
      ---         BLOCKEND  ---      ---       LVL=1
      0100BB7CH   LINE      CODE     ---       #683
      0100BB7CH   LINE      CODE     ---       #685
      0100BB7CH   LINE      CODE     ---       #691
      0100BB82H   LINE      CODE     ---       #693
      0100BB8EH   LINE      CODE     ---       #694
      0100BB8EH   LINE      CODE     ---       #695
      0100BB94H   LINE      CODE     ---       #696
      0100BB94H   LINE      CODE     ---       #697
      0100BB96H   LINE      CODE     ---       #698
      0100BB98H   LINE      CODE     ---       #700
      0100BB98H   LINE      CODE     ---       #701
      0100BB9AH   LINE      CODE     ---       #702
      0100BB9AH   LINE      CODE     ---       #703
      0100BB9CH   LINE      CODE     ---       #704
      0100BBA9H   LINE      CODE     ---       #705
      0100BBA9H   LINE      CODE     ---       #706
      0100BBB2H   LINE      CODE     ---       #707
      0100BBB4H   LINE      CODE     ---       #709
      0100BBB4H   LINE      CODE     ---       #710
      0100BBC4H   LINE      CODE     ---       #711
      0100BBC4H   LINE      CODE     ---       #713
      0100BBCAH   LINE      CODE     ---       #722
      0100BBCAH   LINE      CODE     ---       #723
      ---         BLOCKEND  ---      ---       LVL=0

      0100C130H   BLOCK     CODE     ---       LVL=0
      0100C130H   BLOCK     CODE     NEAR LAB  LVL=1
      00000007H   SYMBOL    DATA     BYTE      enableInterrupts
      ---         BLOCKEND  ---      ---       LVL=1
      0100C130H   LINE      CODE     ---       #757
      0100C130H   LINE      CODE     ---       #758
      0100C130H   LINE      CODE     ---       #762
      0100C133H   LINE      CODE     ---       #763
      0100C13AH   LINE      CODE     ---       #764
      0100C13EH   LINE      CODE     ---       #765
      0100C141H   LINE      CODE     ---       #770
      0100C147H   LINE      CODE     ---       #772
      0100C14CH   LINE      CODE     ---       #773
      0100C150H   LINE      CODE     ---       #774
      0100C154H   LINE      CODE     ---       #775
      0100C158H   LINE      CODE     ---       #777
      0100C15EH   LINE      CODE     ---       #781
LX51 LINKER/LOCATER V4.64.0.0                                                         02/16/2023  11:05:26  PAGE 87


      ---         BLOCKEND  ---      ---       LVL=0
      00000007H   SYMBOL    DATA     BYTE      address
      00000007H   SYMBOL    DATA     BYTE      address
      00000007H   SYMBOL    DATA     BYTE      intSrc
      00000007H   SYMBOL    DATA     BYTE      txDataByte

      0100C63AH   BLOCK     CODE     ---       LVL=0
      0100C63AH   LINE      CODE     ---       #1003
      0100C63AH   LINE      CODE     ---       #1004
      0100C63AH   LINE      CODE     ---       #1005
      0100C63FH   LINE      CODE     ---       #1006
      ---         BLOCKEND  ---      ---       LVL=0

      0100C53DH   BLOCK     CODE     ---       LVL=0
      00000007H   SYMBOL    DATA     BYTE      txDataByte
      0100C53DH   LINE      CODE     ---       #1041
      0100C53DH   LINE      CODE     ---       #1042
      0100C53DH   LINE      CODE     ---       #1107
      0100C544H   LINE      CODE     ---       #1108
      0100C544H   LINE      CODE     ---       #1110
      0100C544H   LINE      CODE     ---       #1113
      0100C549H   LINE      CODE     ---       #1116
      ---         BLOCKEND  ---      ---       LVL=0

      0100BF66H   BLOCK     CODE     ---       LVL=0
      02000741H   SYMBOL    XDATA    ---       string
      0100BF71H   BLOCK     CODE     NEAR LAB  LVL=1
      00000004H   SYMBOL    DATA     WORD      bufIndex
      ---         BLOCKEND  ---      ---       LVL=1
      0100BF66H   LINE      CODE     ---       #1145
      0100BF71H   LINE      CODE     ---       #1146
      0100BF71H   LINE      CODE     ---       #1147
      0100BF74H   LINE      CODE     ---       #1150
      0100BF7AH   LINE      CODE     ---       #1151
      0100BF7AH   LINE      CODE     ---       #1153
      0100BF8FH   LINE      CODE     ---       #1154
      0100BF8FH   LINE      CODE     ---       #1155
      0100BF92H   LINE      CODE     ---       #1156
      0100BF97H   LINE      CODE     ---       #1157
      0100BF99H   LINE      CODE     ---       #1158
      0100BF99H   LINE      CODE     ---       #1159
      ---         BLOCKEND  ---      ---       LVL=0
      00000005H   SYMBOL    DATA     BYTE      byteCount
      00000006H   SYMBOL    DATA     BYTE      bufIndex
      00000007H   SYMBOL    DATA     BYTE      txDataByte
      00000007H   SYMBOL    DATA     BYTE      size

      0100C4C2H   BLOCK     CODE     ---       LVL=0
      0100C4C2H   BLOCK     CODE     NEAR LAB  LVL=1
      00000007H   SYMBOL    DATA     BYTE      enableInterrupts
      ---         BLOCKEND  ---      ---       LVL=1
      0100C4C2H   LINE      CODE     ---       #1354
      0100C4C2H   LINE      CODE     ---       #1355
      0100C4C2H   LINE      CODE     ---       #1358
      0100C4C5H   LINE      CODE     ---       #1360
      0100C4CCH   LINE      CODE     ---       #1361
      0100C4D0H   LINE      CODE     ---       #1362
      0100C4D3H   LINE      CODE     ---       #1376
      ---         BLOCKEND  ---      ---       LVL=0
      00000007H   SYMBOL    DATA     BYTE      retMode
      02001022H   SYMBOL    XDATA    BYTE      txPeriod

      ---         MODULE    ---      ---       EEPROM
      0100A83CH   PUBLIC    CODE     ---       _EEPROM_Write
      0100C68EH   PUBLIC    CODE     ---       EEPROM_Start
LX51 LINKER/LOCATER V4.64.0.0                                                         02/16/2023  11:05:26  PAGE 88


      0100C62DH   PUBLIC    CODE     ---       EEPROM_Enable
      000000CAH   SFRSYM    DATA     BYTE      SFRPRT5SEL
      000000DAH   SFRSYM    DATA     BYTE      SFRPRT6SEL
      000000D0H.6 SFRSYM    DATA     BIT       AC
      000000A8H.7 SFRSYM    DATA     BIT       EA
      000000A8H   SFRSYM    DATA     BYTE      IE
      00000085H   SFRSYM    DATA     BYTE      DPH1
      00000084H   SFRSYM    DATA     BYTE      DPL1
      000000D0H.7 SFRSYM    DATA     BIT       CY
      000000A0H   SFRSYM    DATA     BYTE      P2AX
      00000095H   SFRSYM    DATA     BYTE      DPX1
      00000081H   SFRSYM    DATA     BYTE      SP
      000000D0H.2 SFRSYM    DATA     BIT       OV
      00000080H   SFRSYM    DATA     BYTE      SFRPRT0DR
      00000090H   SFRSYM    DATA     BYTE      SFRPRT1DR
      000000F2H   SFRSYM    DATA     BYTE      SFRPRT12SEL
      00000098H   SFRSYM    DATA     BYTE      SFRPRT2DR
      000000B0H   SFRSYM    DATA     BYTE      SFRPRT3DR
      000000C0H   SFRSYM    DATA     BYTE      SFRPRT4DR
      000000FAH   SFRSYM    DATA     BYTE      SFRPRT15SEL
      000000C8H   SFRSYM    DATA     BYTE      SFRPRT5DR
      000000D8H   SFRSYM    DATA     BYTE      SFRPRT6DR
      00000089H   SFRSYM    DATA     BYTE      SFRPRT0PS
      00000091H   SFRSYM    DATA     BYTE      SFRPRT1PS
      00000099H   SFRSYM    DATA     BYTE      SFRPRT2PS
      000000B1H   SFRSYM    DATA     BYTE      SFRPRT3PS
      000000C1H   SFRSYM    DATA     BYTE      SFRPRT4PS
      000000C9H   SFRSYM    DATA     BYTE      SFRPRT5PS
      000000D9H   SFRSYM    DATA     BYTE      SFRPRT6PS
      000000EAH   SFRSYM    DATA     BYTE      MXAX
      000000F0H   SFRSYM    DATA     BYTE      B
      000000E0H   SFRSYM    DATA     BYTE      ACC
      000000D0H   SFRSYM    DATA     BIT       P
      000000D0H.3 SFRSYM    DATA     BIT       RS0
      000000D0H.4 SFRSYM    DATA     BIT       RS1
      00000083H   SFRSYM    DATA     BYTE      DPH
      000000E8H   SFRSYM    DATA     BYTE      SFRPRT12DR
      00000082H   SFRSYM    DATA     BYTE      DPL
      000000F8H   SFRSYM    DATA     BYTE      SFRPRT15DR
      00000086H   SFRSYM    DATA     BYTE      DPS
      000000E9H   SFRSYM    DATA     BYTE      SFRPRT12PS
      00000093H   SFRSYM    DATA     BYTE      DPX
      000000F9H   SFRSYM    DATA     BYTE      SFRPRT15PS
      000000D0H.5 SFRSYM    DATA     BIT       F0
      000000D0H.1 SFRSYM    DATA     BIT       F1
      0000008AH   SFRSYM    DATA     BYTE      SFRPRT0SEL
      000000D0H   SFRSYM    DATA     BYTE      PSW
      000000A2H   SFRSYM    DATA     BYTE      SFRPRT1SEL
      0000009AH   SFRSYM    DATA     BYTE      SFRPRT2SEL
      000000B2H   SFRSYM    DATA     BYTE      SFRPRT3SEL
      000000C2H   SFRSYM    DATA     BYTE      SFRPRT4SEL

      0100C62DH   BLOCK     CODE     ---       LVL=0
      0100C62DH   LINE      CODE     ---       #33
      0100C62DH   LINE      CODE     ---       #34
      0100C62DH   LINE      CODE     ---       #36
      0100C630H   LINE      CODE     ---       #39
      0100C633H   LINE      CODE     ---       #40
      ---         BLOCKEND  ---      ---       LVL=0

      0100C68EH   BLOCK     CODE     ---       LVL=0
      0100C68EH   LINE      CODE     ---       #57
      0100C68EH   LINE      CODE     ---       #58
      0100C68EH   LINE      CODE     ---       #59
      0100C691H   LINE      CODE     ---       #60
LX51 LINKER/LOCATER V4.64.0.0                                                         02/16/2023  11:05:26  PAGE 89


      ---         BLOCKEND  ---      ---       LVL=0

      0100A83CH   BLOCK     CODE     ---       LVL=0
      0200004EH   SYMBOL    XDATA    ---       rowData
      02000051H   SYMBOL    XDATA    BYTE      rowNumber
      0100A84AH   BLOCK     CODE     NEAR LAB  LVL=1
      02000052H   SYMBOL    XDATA    BYTE      status
      ---         BLOCKEND  ---      ---       LVL=1
      0100A83CH   LINE      CODE     ---       #345
      0100A84AH   LINE      CODE     ---       #346
      0100A84AH   LINE      CODE     ---       #349
      0100A84DH   LINE      CODE     ---       #351
      0100A859H   LINE      CODE     ---       #352
      0100A859H   LINE      CODE     ---       #354
      0100A862H   LINE      CODE     ---       #355
      0100A862H   LINE      CODE     ---       #357
      0100A868H   LINE      CODE     ---       #360
      0100A886H   LINE      CODE     ---       #361
      0100A886H   LINE      CODE     ---       #362
      0100A88EH   LINE      CODE     ---       #363
      0100A88EH   LINE      CODE     ---       #365
      0100A88EH   LINE      CODE     ---       #368
      0100A8A4H   LINE      CODE     ---       #369
      0100A8A4H   LINE      CODE     ---       #370
      0100A8A8H   LINE      CODE     ---       #371
      0100A8A8H   LINE      CODE     ---       #374
      0100A8AEH   LINE      CODE     ---       #375
      0100A8AEH   LINE      CODE     ---       #376
      0100A8CAH   LINE      CODE     ---       #378
      0100A8CAH   LINE      CODE     ---       #380
      0100A8D0H   LINE      CODE     ---       #382
      0100A8D8H   LINE      CODE     ---       #383
      0100A8D8H   LINE      CODE     ---       #385
      0100A8D8H   LINE      CODE     ---       #388
      0100A8EEH   LINE      CODE     ---       #389
      0100A8EEH   LINE      CODE     ---       #390
      0100A8F2H   LINE      CODE     ---       #391
      0100A8F2H   LINE      CODE     ---       #392
      0100A8F4H   LINE      CODE     ---       #394
      0100A8F4H   LINE      CODE     ---       #395
      0100A8FAH   LINE      CODE     ---       #396
      0100A8FAH   LINE      CODE     ---       #397
      0100A8FCH   LINE      CODE     ---       #399
      0100A8FCH   LINE      CODE     ---       #400
      0100A902H   LINE      CODE     ---       #401
      0100A902H   LINE      CODE     ---       #402
      0100A902H   LINE      CODE     ---       #405
      0100A905H   LINE      CODE     ---       #406
      0100A907H   LINE      CODE     ---       #408
      0100A907H   LINE      CODE     ---       #409
      0100A90DH   LINE      CODE     ---       #410
      0100A90DH   LINE      CODE     ---       #411
      0100A90FH   LINE      CODE     ---       #413
      0100A90FH   LINE      CODE     ---       #414
      0100A915H   LINE      CODE     ---       #415
      0100A915H   LINE      CODE     ---       #417
      0100A91AH   LINE      CODE     ---       #418
      ---         BLOCKEND  ---      ---       LVL=0

      ---         MODULE    ---      ---       ADC
      02001055H   PUBLIC    XDATA    LONG      ADC_CountsPerVolt
      02001054H   PUBLIC    XDATA    BYTE      ADC_convDone
      02001050H   PUBLIC    XDATA    BYTE      ADC_started
      0200104FH   PUBLIC    XDATA    BYTE      ADC_stopConversion
      0200104BH   PUBLIC    XDATA    LONG      ADC_Offset
LX51 LINKER/LOCATER V4.64.0.0                                                         02/16/2023  11:05:26  PAGE 90


      0200104AH   PUBLIC    XDATA    BYTE      ADC_initVar
      02001049H   PUBLIC    XDATA    BYTE      ADC_Config
      0100C356H   PUBLIC    CODE     ---       ADC_Start
      0100B2EDH   PUBLIC    CODE     ---       ADC_Enable
      0100AE6BH   PUBLIC    CODE     ---       ADC_Init
      000000CAH   SFRSYM    DATA     BYTE      SFRPRT5SEL
      000000DAH   SFRSYM    DATA     BYTE      SFRPRT6SEL
      000000D0H.6 SFRSYM    DATA     BIT       AC
      000000A8H.7 SFRSYM    DATA     BIT       EA
      000000A8H   SFRSYM    DATA     BYTE      IE
      00000085H   SFRSYM    DATA     BYTE      DPH1
      00000084H   SFRSYM    DATA     BYTE      DPL1
      000000D0H.7 SFRSYM    DATA     BIT       CY
      000000A0H   SFRSYM    DATA     BYTE      P2AX
      00000095H   SFRSYM    DATA     BYTE      DPX1
      00000081H   SFRSYM    DATA     BYTE      SP
      000000D0H.2 SFRSYM    DATA     BIT       OV
      00000080H   SFRSYM    DATA     BYTE      SFRPRT0DR
      00000090H   SFRSYM    DATA     BYTE      SFRPRT1DR
      000000F2H   SFRSYM    DATA     BYTE      SFRPRT12SEL
      00000098H   SFRSYM    DATA     BYTE      SFRPRT2DR
      000000B0H   SFRSYM    DATA     BYTE      SFRPRT3DR
      000000C0H   SFRSYM    DATA     BYTE      SFRPRT4DR
      000000FAH   SFRSYM    DATA     BYTE      SFRPRT15SEL
      000000C8H   SFRSYM    DATA     BYTE      SFRPRT5DR
      000000D8H   SFRSYM    DATA     BYTE      SFRPRT6DR
      00000089H   SFRSYM    DATA     BYTE      SFRPRT0PS
      00000091H   SFRSYM    DATA     BYTE      SFRPRT1PS
      00000099H   SFRSYM    DATA     BYTE      SFRPRT2PS
      000000B1H   SFRSYM    DATA     BYTE      SFRPRT3PS
      000000C1H   SFRSYM    DATA     BYTE      SFRPRT4PS
      000000C9H   SFRSYM    DATA     BYTE      SFRPRT5PS
      000000D9H   SFRSYM    DATA     BYTE      SFRPRT6PS
      000000EAH   SFRSYM    DATA     BYTE      MXAX
      000000F0H   SFRSYM    DATA     BYTE      B
      000000E0H   SFRSYM    DATA     BYTE      ACC
      000000D0H   SFRSYM    DATA     BIT       P
      000000D0H.3 SFRSYM    DATA     BIT       RS0
      000000D0H.4 SFRSYM    DATA     BIT       RS1
      00000083H   SFRSYM    DATA     BYTE      DPH
      000000E8H   SFRSYM    DATA     BYTE      SFRPRT12DR
      00000082H   SFRSYM    DATA     BYTE      DPL
      000000F8H   SFRSYM    DATA     BYTE      SFRPRT15DR
      00000086H   SFRSYM    DATA     BYTE      DPS
      000000E9H   SFRSYM    DATA     BYTE      SFRPRT12PS
      00000093H   SFRSYM    DATA     BYTE      DPX
      000000F9H   SFRSYM    DATA     BYTE      SFRPRT15PS
      000000D0H.5 SFRSYM    DATA     BIT       F0
      000000D0H.1 SFRSYM    DATA     BIT       F1
      0000008AH   SFRSYM    DATA     BYTE      SFRPRT0SEL
      000000D0H   SFRSYM    DATA     BYTE      PSW
      000000A2H   SFRSYM    DATA     BYTE      SFRPRT1SEL
      0000009AH   SFRSYM    DATA     BYTE      SFRPRT2SEL
      000000B2H   SFRSYM    DATA     BYTE      SFRPRT3SEL
      000000C2H   SFRSYM    DATA     BYTE      SFRPRT4SEL
      0100B07BH   SYMBOL    CODE     ---       _ADC_InitConfig
      01009821H   SYMBOL    CODE     ---       _ADC_GainCompensation
      0100BE41H   SYMBOL    CODE     ---       _ADC_SetDSMRef0Reg
      02001051H   SYMBOL    XDATA    ---       ADC_gcor

      0100AE6BH   BLOCK     CODE     ---       LVL=0
      0100AE6BH   LINE      CODE     ---       #91
      0100AE6BH   LINE      CODE     ---       #92
      0100AE6BH   LINE      CODE     ---       #94
      0100AE71H   LINE      CODE     ---       #95
LX51 LINKER/LOCATER V4.64.0.0                                                         02/16/2023  11:05:26  PAGE 91


      0100AE76H   LINE      CODE     ---       #97
      0100AE7BH   LINE      CODE     ---       #101
      0100AE80H   LINE      CODE     ---       #106
      0100AE87H   LINE      CODE     ---       #110
      0100AE8DH   LINE      CODE     ---       #111
      0100AE90H   LINE      CODE     ---       #112
      0100AE94H   LINE      CODE     ---       #113
      0100AE9BH   LINE      CODE     ---       #114
      0100AEA0H   LINE      CODE     ---       #116
      0100AEA4H   LINE      CODE     ---       #117
      0100AEA6H   LINE      CODE     ---       #119
      0100AEACH   LINE      CODE     ---       #120
      0100AEAFH   LINE      CODE     ---       #124
      0100AEB3H   LINE      CODE     ---       #126
      0100AEB9H   LINE      CODE     ---       #127
      0100AEBCH   LINE      CODE     ---       #128
      0100AEC1H   LINE      CODE     ---       #130
      0100AEC7H   LINE      CODE     ---       #133
      0100AEDEH   LINE      CODE     ---       #161
      0100AEF4H   LINE      CODE     ---       #162
      0100AF13H   LINE      CODE     ---       #165
      0100AF1BH   LINE      CODE     ---       #166
      ---         BLOCKEND  ---      ---       LVL=0

      0100B2EDH   BLOCK     CODE     ---       LVL=0
      0100B2EDH   BLOCK     CODE     NEAR LAB  LVL=1
      02000003H   SYMBOL    XDATA    BYTE      config
      02000004H   SYMBOL    XDATA    BYTE      enableInterrupts
      ---         BLOCKEND  ---      ---       LVL=1
      0100B2EDH   LINE      CODE     ---       #186
      0100B2EDH   LINE      CODE     ---       #187
      0100B2EDH   LINE      CODE     ---       #190
      0100B2F5H   LINE      CODE     ---       #193
      0100B2FDH   LINE      CODE     ---       #196
      0100B304H   LINE      CODE     ---       #197
      0100B308H   LINE      CODE     ---       #200
      0100B30FH   LINE      CODE     ---       #201
      0100B313H   LINE      CODE     ---       #204
      0100B31AH   LINE      CODE     ---       #205
      0100B31FH   LINE      CODE     ---       #207
      0100B326H   LINE      CODE     ---       #267
      0100B326H   LINE      CODE     ---       #268
      0100B326H   LINE      CODE     ---       #270
      0100B326H   LINE      CODE     ---       #273
      0100B32DH   LINE      CODE     ---       #276
      0100B334H   LINE      CODE     ---       #277
      0100B339H   LINE      CODE     ---       #280
      0100B340H   LINE      CODE     ---       #283
      0100B346H   LINE      CODE     ---       #287
      0100B34DH   LINE      CODE     ---       #288
      0100B354H   LINE      CODE     ---       #292
      0100B35BH   LINE      CODE     ---       #293
      0100B362H   LINE      CODE     ---       #297
      0100B368H   LINE      CODE     ---       #299
      0100B36CH   LINE      CODE     ---       #302
      0100B374H   LINE      CODE     ---       #304
      ---         BLOCKEND  ---      ---       LVL=0

      0100C356H   BLOCK     CODE     ---       LVL=0
      0100C356H   LINE      CODE     ---       #334
      0100C356H   LINE      CODE     ---       #335
      0100C356H   LINE      CODE     ---       #336
      0100C35CH   LINE      CODE     ---       #337
      0100C35CH   LINE      CODE     ---       #338
      0100C362H   LINE      CODE     ---       #339
LX51 LINKER/LOCATER V4.64.0.0                                                         02/16/2023  11:05:26  PAGE 92


      0100C362H   LINE      CODE     ---       #340
      0100C365H   LINE      CODE     ---       #341
      0100C365H   LINE      CODE     ---       #342
      0100C36BH   LINE      CODE     ---       #343
      0100C36BH   LINE      CODE     ---       #346
      0100C36EH   LINE      CODE     ---       #347
      ---         BLOCKEND  ---      ---       LVL=0
      00000007H   SYMBOL    DATA     BYTE      gain
      00000006H   SYMBOL    DATA     BYTE      tmpReg
      00000007H   SYMBOL    DATA     BYTE      coherency
      00000006H   SYMBOL    DATA     BYTE      tmpReg
      00000004H   SYMBOL    DATA     WORD      gcorValue
      00000007H   SYMBOL    DATA     BYTE      retMode
      00000006H   SYMBOL    DATA     BYTE      status
      00000006H   SYMBOL    DATA     CHAR      result
      00000007H   SYMBOL    DATA     BYTE      coherency
      00000004H   SYMBOL    DATA     LONG      offset
      00000004H   SYMBOL    DATA     LONG      adcGain
      00000006H   SYMBOL    DATA     INT       mVolts
      00000004H   SYMBOL    DATA     FLOAT     Volts
      00000004H   SYMBOL    DATA     LONG      uVolts

      0100B07BH   BLOCK     CODE     ---       LVL=0
      00000007H   SYMBOL    DATA     BYTE      config
      0100B07BH   LINE      CODE     ---       #1247
      0100B07BH   LINE      CODE     ---       #1248
      0100B07BH   LINE      CODE     ---       #1249
      0100B080H   LINE      CODE     ---       #1251
      0100B088H   LINE      CODE     ---       #1252
      0100B088H   LINE      CODE     ---       #1254
      0100B08EH   LINE      CODE     ---       #1255
      0100B094H   LINE      CODE     ---       #1256
      0100B098H   LINE      CODE     ---       #1257
      0100B09BH   LINE      CODE     ---       #1258
      0100B09DH   LINE      CODE     ---       #1259
      0100B0A1H   LINE      CODE     ---       #1260
      0100B0A6H   LINE      CODE     ---       #1261
      0100B0A8H   LINE      CODE     ---       #1262
      0100B0AAH   LINE      CODE     ---       #1263
      0100B0AFH   LINE      CODE     ---       #1265
      0100B0B5H   LINE      CODE     ---       #1266
      0100B0B9H   LINE      CODE     ---       #1267
      0100B0BDH   LINE      CODE     ---       #1268
      0100B0C0H   LINE      CODE     ---       #1269
      0100B0C6H   LINE      CODE     ---       #1270
      0100B0CAH   LINE      CODE     ---       #1271
      0100B0CEH   LINE      CODE     ---       #1272
      0100B0D3H   LINE      CODE     ---       #1273
      0100B0D7H   LINE      CODE     ---       #1274
      0100B0DBH   LINE      CODE     ---       #1275
      0100B0DFH   LINE      CODE     ---       #1277
      0100B0E4H   LINE      CODE     ---       #1278
      0100B0EAH   LINE      CODE     ---       #1279
      0100B0EDH   LINE      CODE     ---       #1281
      0100B0F2H   LINE      CODE     ---       #1282
      0100B0F4H   LINE      CODE     ---       #1283
      0100B0F7H   LINE      CODE     ---       #1284
      0100B0FBH   LINE      CODE     ---       #1293
      0100B100H   LINE      CODE     ---       #1305
      0100B10DH   LINE      CODE     ---       #1307
      0100B116H   LINE      CODE     ---       #1311
      0100B11FH   LINE      CODE     ---       #1316
      0100B128H   LINE      CODE     ---       #1318
      0100B128H   LINE      CODE     ---       #1531
      ---         BLOCKEND  ---      ---       LVL=0
LX51 LINKER/LOCATER V4.64.0.0                                                         02/16/2023  11:05:26  PAGE 93



      01009821H   BLOCK     CODE     ---       LVL=0
      00000007H   SYMBOL    DATA     BYTE      inputRange
      02000004H   SYMBOL    XDATA    WORD      idealDecGain
      02000006H   SYMBOL    XDATA    WORD      idealOddDecGain
      02000008H   SYMBOL    XDATA    BYTE      resolution
      02000009H   SYMBOL    XDATA    BYTE      config
      0100982FH   BLOCK     CODE     NEAR LAB  LVL=1
      0200000AH   SYMBOL    XDATA    CHAR      flash
      00000004H   SYMBOL    DATA     LONG      normalised
      00000004H   SYMBOL    DATA     WORD      gcorValue
      00000004H   SYMBOL    DATA     DWORD     gcorTmp
      ---         BLOCKEND  ---      ---       LVL=1
      01009821H   LINE      CODE     ---       #1625
      0100982FH   LINE      CODE     ---       #1627
      0100982FH   LINE      CODE     ---       #1633
      01009845H   LINE      CODE     ---       #1634
      01009845H   LINE      CODE     ---       #1635
      0100985FH   LINE      CODE     ---       #1636
      0100985FH   LINE      CODE     ---       #1637
      0100985FH   LINE      CODE     ---       #1638
      0100985FH   LINE      CODE     ---       #1640
      01009868H   LINE      CODE     ---       #1641
      01009868H   LINE      CODE     ---       #1642
      01009876H   LINE      CODE     ---       #1643
      01009879H   LINE      CODE     ---       #1645
      01009879H   LINE      CODE     ---       #1646
      01009887H   LINE      CODE     ---       #1647
      01009887H   LINE      CODE     ---       #1648
      0100988AH   LINE      CODE     ---       #1650
      0100988AH   LINE      CODE     ---       #1652
      01009893H   LINE      CODE     ---       #1653
      01009893H   LINE      CODE     ---       #1654
      010098A1H   LINE      CODE     ---       #1655
      010098A3H   LINE      CODE     ---       #1657
      010098A3H   LINE      CODE     ---       #1658
      010098B1H   LINE      CODE     ---       #1659
      010098B1H   LINE      CODE     ---       #1660
      010098B3H   LINE      CODE     ---       #1662
      010098B3H   LINE      CODE     ---       #1664
      010098BCH   LINE      CODE     ---       #1665
      010098BCH   LINE      CODE     ---       #1666
      010098CAH   LINE      CODE     ---       #1667
      010098CCH   LINE      CODE     ---       #1669
      010098CCH   LINE      CODE     ---       #1670
      010098DAH   LINE      CODE     ---       #1671
      010098DAH   LINE      CODE     ---       #1672
      010098DCH   LINE      CODE     ---       #1674
      010098DCH   LINE      CODE     ---       #1676
      010098E5H   LINE      CODE     ---       #1677
      010098E5H   LINE      CODE     ---       #1678
      010098F3H   LINE      CODE     ---       #1679
      010098F5H   LINE      CODE     ---       #1681
      010098F5H   LINE      CODE     ---       #1682
      01009903H   LINE      CODE     ---       #1683
      01009903H   LINE      CODE     ---       #1684
      01009905H   LINE      CODE     ---       #1686
      01009905H   LINE      CODE     ---       #1687
      0100990AH   LINE      CODE     ---       #1688
      0100990AH   LINE      CODE     ---       #1689
      0100990AH   LINE      CODE     ---       #1692
      0100993DH   LINE      CODE     ---       #1693
      01009950H   LINE      CODE     ---       #1694
      0100995DH   LINE      CODE     ---       #1696
      01009966H   LINE      CODE     ---       #1697
LX51 LINKER/LOCATER V4.64.0.0                                                         02/16/2023  11:05:26  PAGE 94


      01009966H   LINE      CODE     ---       #1698
      0100997DH   LINE      CODE     ---       #1699
      01009993H   LINE      CODE     ---       #1700
      01009995H   LINE      CODE     ---       #1702
      01009995H   LINE      CODE     ---       #1704
      010099A9H   LINE      CODE     ---       #1705
      010099A9H   LINE      CODE     ---       #1708
      010099C1H   LINE      CODE     ---       #1709
      010099C1H   LINE      CODE     ---       #1711
      010099C1H   LINE      CODE     ---       #1714
      010099C1H   LINE      CODE     ---       #1715
      ---         BLOCKEND  ---      ---       LVL=0

      0100BE41H   BLOCK     CODE     ---       LVL=0
      02000003H   SYMBOL    XDATA    BYTE      value
      0100BE46H   BLOCK     CODE     NEAR LAB  LVL=1
      02000004H   SYMBOL    XDATA    BYTE      enableInterrupts
      ---         BLOCKEND  ---      ---       LVL=1
      0100BE41H   LINE      CODE     ---       #1732
      0100BE46H   LINE      CODE     ---       #1733
      0100BE46H   LINE      CODE     ---       #1735
      0100BE4EH   LINE      CODE     ---       #1738
      0100BE55H   LINE      CODE     ---       #1739
      0100BE5AH   LINE      CODE     ---       #1740
      0100BE62H   LINE      CODE     ---       #1743
      0100BE69H   LINE      CODE     ---       #1745
      0100BE70H   LINE      CODE     ---       #1746
      0100BE75H   LINE      CODE     ---       #1748
      0100BE7DH   LINE      CODE     ---       #1749
      ---         BLOCKEND  ---      ---       LVL=0
      00000007H   SYMBOL    DATA     CHAR      result
      00000006H   SYMBOL    DATA     INT       result
      00000004H   SYMBOL    DATA     LONG      result

      ---         MODULE    ---      ---       RS485_CTS
      0100C640H   PUBLIC    CODE     ---       _RS485_CTS_Write

      0100C640H   BLOCK     CODE     ---       LVL=0
      00000007H   SYMBOL    DATA     BYTE      control
      0100C640H   LINE      CODE     ---       #37
      0100C640H   LINE      CODE     ---       #38
      0100C640H   LINE      CODE     ---       #39
      0100C645H   LINE      CODE     ---       #40
      ---         BLOCKEND  ---      ---       LVL=0

      ---         MODULE    ---      ---       BOOTLOADABLE
      0100C5B3H   PUBLIC    CODE     ---       Bootloadable_Load
      000000CAH   SFRSYM    DATA     BYTE      SFRPRT5SEL
      000000DAH   SFRSYM    DATA     BYTE      SFRPRT6SEL
      000000D0H.6 SFRSYM    DATA     BIT       AC
      000000A8H.7 SFRSYM    DATA     BIT       EA
      000000A8H   SFRSYM    DATA     BYTE      IE
      00000085H   SFRSYM    DATA     BYTE      DPH1
      00000084H   SFRSYM    DATA     BYTE      DPL1
      000000D0H.7 SFRSYM    DATA     BIT       CY
      000000A0H   SFRSYM    DATA     BYTE      P2AX
      00000095H   SFRSYM    DATA     BYTE      DPX1
      00000081H   SFRSYM    DATA     BYTE      SP
      000000D0H.2 SFRSYM    DATA     BIT       OV
      00000080H   SFRSYM    DATA     BYTE      SFRPRT0DR
      00000090H   SFRSYM    DATA     BYTE      SFRPRT1DR
      000000F2H   SFRSYM    DATA     BYTE      SFRPRT12SEL
      00000098H   SFRSYM    DATA     BYTE      SFRPRT2DR
      000000B0H   SFRSYM    DATA     BYTE      SFRPRT3DR
      000000C0H   SFRSYM    DATA     BYTE      SFRPRT4DR
LX51 LINKER/LOCATER V4.64.0.0                                                         02/16/2023  11:05:26  PAGE 95


      000000FAH   SFRSYM    DATA     BYTE      SFRPRT15SEL
      000000C8H   SFRSYM    DATA     BYTE      SFRPRT5DR
      000000D8H   SFRSYM    DATA     BYTE      SFRPRT6DR
      00000089H   SFRSYM    DATA     BYTE      SFRPRT0PS
      00000091H   SFRSYM    DATA     BYTE      SFRPRT1PS
      00000099H   SFRSYM    DATA     BYTE      SFRPRT2PS
      000000B1H   SFRSYM    DATA     BYTE      SFRPRT3PS
      000000C1H   SFRSYM    DATA     BYTE      SFRPRT4PS
      000000C9H   SFRSYM    DATA     BYTE      SFRPRT5PS
      000000D9H   SFRSYM    DATA     BYTE      SFRPRT6PS
      000000EAH   SFRSYM    DATA     BYTE      MXAX
      000000F0H   SFRSYM    DATA     BYTE      B
      000000E0H   SFRSYM    DATA     BYTE      ACC
      000000D0H   SFRSYM    DATA     BIT       P
      000000D0H.3 SFRSYM    DATA     BIT       RS0
      000000D0H.4 SFRSYM    DATA     BIT       RS1
      00000083H   SFRSYM    DATA     BYTE      DPH
      000000E8H   SFRSYM    DATA     BYTE      SFRPRT12DR
      00000082H   SFRSYM    DATA     BYTE      DPL
      000000F8H   SFRSYM    DATA     BYTE      SFRPRT15DR
      00000086H   SFRSYM    DATA     BYTE      DPS
      000000E9H   SFRSYM    DATA     BYTE      SFRPRT12PS
      00000093H   SFRSYM    DATA     BYTE      DPX
      000000F9H   SFRSYM    DATA     BYTE      SFRPRT15PS
      000000D0H.5 SFRSYM    DATA     BIT       F0
      000000D0H.1 SFRSYM    DATA     BIT       F1
      0000008AH   SFRSYM    DATA     BYTE      SFRPRT0SEL
      000000D0H   SFRSYM    DATA     BYTE      PSW
      000000A2H   SFRSYM    DATA     BYTE      SFRPRT1SEL
      0000009AH   SFRSYM    DATA     BYTE      SFRPRT2SEL
      000000B2H   SFRSYM    DATA     BYTE      SFRPRT3SEL
      000000C2H   SFRSYM    DATA     BYTE      SFRPRT4SEL

      0100C5B3H   BLOCK     CODE     ---       LVL=0
      0100C5B3H   LINE      CODE     ---       #41
      0100C5B3H   LINE      CODE     ---       #42
      0100C5B3H   LINE      CODE     ---       #44
      0100C5B9H   LINE      CODE     ---       #46
      0100C5BCH   LINE      CODE     ---       #47
      ---         BLOCKEND  ---      ---       LVL=0
      00000002H   SYMBOL    DATA     WORD      idx

      ---         MODULE    ---      ---       FTDI_ENABLE_REG
      0100C646H   PUBLIC    CODE     ---       _FTDI_ENABLE_REG_Write

      0100C646H   BLOCK     CODE     ---       LVL=0
      00000007H   SYMBOL    DATA     BYTE      control
      0100C646H   LINE      CODE     ---       #37
      0100C646H   LINE      CODE     ---       #38
      0100C646H   LINE      CODE     ---       #39
      0100C64BH   LINE      CODE     ---       #40
      ---         BLOCKEND  ---      ---       LVL=0

      ---         MODULE    ---      ---       RESET_FF
      0100C64CH   PUBLIC    CODE     ---       _RESET_FF_Write

      0100C64CH   BLOCK     CODE     ---       LVL=0
      00000007H   SYMBOL    DATA     BYTE      control
      0100C64CH   LINE      CODE     ---       #37
      0100C64CH   LINE      CODE     ---       #38
      0100C64CH   LINE      CODE     ---       #39
      0100C651H   LINE      CODE     ---       #40
      ---         BLOCKEND  ---      ---       LVL=0

      ---         MODULE    ---      ---       FF_STATUS
LX51 LINKER/LOCATER V4.64.0.0                                                         02/16/2023  11:05:26  PAGE 96


      0100C652H   PUBLIC    CODE     ---       FF_STATUS_Read
      000000CAH   SFRSYM    DATA     BYTE      SFRPRT5SEL
      000000DAH   SFRSYM    DATA     BYTE      SFRPRT6SEL
      000000D0H.6 SFRSYM    DATA     BIT       AC
      000000A8H.7 SFRSYM    DATA     BIT       EA
      000000A8H   SFRSYM    DATA     BYTE      IE
      00000085H   SFRSYM    DATA     BYTE      DPH1
      00000084H   SFRSYM    DATA     BYTE      DPL1
      000000D0H.7 SFRSYM    DATA     BIT       CY
      000000A0H   SFRSYM    DATA     BYTE      P2AX
      00000095H   SFRSYM    DATA     BYTE      DPX1
      00000081H   SFRSYM    DATA     BYTE      SP
      000000D0H.2 SFRSYM    DATA     BIT       OV
      00000080H   SFRSYM    DATA     BYTE      SFRPRT0DR
      00000090H   SFRSYM    DATA     BYTE      SFRPRT1DR
      000000F2H   SFRSYM    DATA     BYTE      SFRPRT12SEL
      00000098H   SFRSYM    DATA     BYTE      SFRPRT2DR
      000000B0H   SFRSYM    DATA     BYTE      SFRPRT3DR
      000000C0H   SFRSYM    DATA     BYTE      SFRPRT4DR
      000000FAH   SFRSYM    DATA     BYTE      SFRPRT15SEL
      000000C8H   SFRSYM    DATA     BYTE      SFRPRT5DR
      000000D8H   SFRSYM    DATA     BYTE      SFRPRT6DR
      00000089H   SFRSYM    DATA     BYTE      SFRPRT0PS
      00000091H   SFRSYM    DATA     BYTE      SFRPRT1PS
      00000099H   SFRSYM    DATA     BYTE      SFRPRT2PS
      000000B1H   SFRSYM    DATA     BYTE      SFRPRT3PS
      000000C1H   SFRSYM    DATA     BYTE      SFRPRT4PS
      000000C9H   SFRSYM    DATA     BYTE      SFRPRT5PS
      000000D9H   SFRSYM    DATA     BYTE      SFRPRT6PS
      000000EAH   SFRSYM    DATA     BYTE      MXAX
      000000F0H   SFRSYM    DATA     BYTE      B
      000000E0H   SFRSYM    DATA     BYTE      ACC
      000000D0H   SFRSYM    DATA     BIT       P
      000000D0H.3 SFRSYM    DATA     BIT       RS0
      000000D0H.4 SFRSYM    DATA     BIT       RS1
      00000083H   SFRSYM    DATA     BYTE      DPH
      000000E8H   SFRSYM    DATA     BYTE      SFRPRT12DR
      00000082H   SFRSYM    DATA     BYTE      DPL
      000000F8H   SFRSYM    DATA     BYTE      SFRPRT15DR
      00000086H   SFRSYM    DATA     BYTE      DPS
      000000E9H   SFRSYM    DATA     BYTE      SFRPRT12PS
      00000093H   SFRSYM    DATA     BYTE      DPX
      000000F9H   SFRSYM    DATA     BYTE      SFRPRT15PS
      000000D0H.5 SFRSYM    DATA     BIT       F0
      000000D0H.1 SFRSYM    DATA     BIT       F1
      0000008AH   SFRSYM    DATA     BYTE      SFRPRT0SEL
      000000D0H   SFRSYM    DATA     BYTE      PSW
      000000A2H   SFRSYM    DATA     BYTE      SFRPRT1SEL
      0000009AH   SFRSYM    DATA     BYTE      SFRPRT2SEL
      000000B2H   SFRSYM    DATA     BYTE      SFRPRT3SEL
      000000C2H   SFRSYM    DATA     BYTE      SFRPRT4SEL

      0100C652H   BLOCK     CODE     ---       LVL=0
      0100C652H   LINE      CODE     ---       #37
      0100C652H   LINE      CODE     ---       #38
      0100C652H   LINE      CODE     ---       #39
      0100C657H   LINE      CODE     ---       #40
      ---         BLOCKEND  ---      ---       LVL=0
      00000007H   SYMBOL    DATA     BYTE      interruptState
      00000007H   SYMBOL    DATA     BYTE      interruptState
      00000007H   SYMBOL    DATA     BYTE      mask

      ---         MODULE    ---      ---       MY_TIMER
      0200107AH   PUBLIC    XDATA    BYTE      MY_TIMER_initVar
      0100C54AH   PUBLIC    CODE     ---       MY_TIMER_ClearFIFO
LX51 LINKER/LOCATER V4.64.0.0                                                         02/16/2023  11:05:26  PAGE 97


      0100C4E6H   PUBLIC    CODE     ---       MY_TIMER_ReadCounter
      0100C5D1H   PUBLIC    CODE     ---       _MY_TIMER_WriteCounter
      0100C5C7H   PUBLIC    CODE     ---       MY_TIMER_ReadCapture
      0100C5BDH   PUBLIC    CODE     ---       _MY_TIMER_WritePeriod
      0100C65EH   PUBLIC    CODE     ---       MY_TIMER_ReadStatusRegister
      0100C658H   PUBLIC    CODE     ---       _MY_TIMER_SetInterruptMode
      0100C489H   PUBLIC    CODE     ---       MY_TIMER_Start
      0100C5F7H   PUBLIC    CODE     ---       MY_TIMER_Enable
      0100C1BDH   PUBLIC    CODE     ---       MY_TIMER_Init
      000000CAH   SFRSYM    DATA     BYTE      SFRPRT5SEL
      000000DAH   SFRSYM    DATA     BYTE      SFRPRT6SEL
      000000D0H.6 SFRSYM    DATA     BIT       AC
      000000A8H.7 SFRSYM    DATA     BIT       EA
      000000A8H   SFRSYM    DATA     BYTE      IE
      00000085H   SFRSYM    DATA     BYTE      DPH1
      00000084H   SFRSYM    DATA     BYTE      DPL1
      000000D0H.7 SFRSYM    DATA     BIT       CY
      000000A0H   SFRSYM    DATA     BYTE      P2AX
      00000095H   SFRSYM    DATA     BYTE      DPX1
      00000081H   SFRSYM    DATA     BYTE      SP
      000000D0H.2 SFRSYM    DATA     BIT       OV
      00000080H   SFRSYM    DATA     BYTE      SFRPRT0DR
      00000090H   SFRSYM    DATA     BYTE      SFRPRT1DR
      000000F2H   SFRSYM    DATA     BYTE      SFRPRT12SEL
      00000098H   SFRSYM    DATA     BYTE      SFRPRT2DR
      000000B0H   SFRSYM    DATA     BYTE      SFRPRT3DR
      000000C0H   SFRSYM    DATA     BYTE      SFRPRT4DR
      000000FAH   SFRSYM    DATA     BYTE      SFRPRT15SEL
      000000C8H   SFRSYM    DATA     BYTE      SFRPRT5DR
      000000D8H   SFRSYM    DATA     BYTE      SFRPRT6DR
      00000089H   SFRSYM    DATA     BYTE      SFRPRT0PS
      00000091H   SFRSYM    DATA     BYTE      SFRPRT1PS
      00000099H   SFRSYM    DATA     BYTE      SFRPRT2PS
      000000B1H   SFRSYM    DATA     BYTE      SFRPRT3PS
      000000C1H   SFRSYM    DATA     BYTE      SFRPRT4PS
      000000C9H   SFRSYM    DATA     BYTE      SFRPRT5PS
      000000D9H   SFRSYM    DATA     BYTE      SFRPRT6PS
      000000EAH   SFRSYM    DATA     BYTE      MXAX
      000000F0H   SFRSYM    DATA     BYTE      B
      000000E0H   SFRSYM    DATA     BYTE      ACC
      000000D0H   SFRSYM    DATA     BIT       P
      000000D0H.3 SFRSYM    DATA     BIT       RS0
      000000D0H.4 SFRSYM    DATA     BIT       RS1
      00000083H   SFRSYM    DATA     BYTE      DPH
      000000E8H   SFRSYM    DATA     BYTE      SFRPRT12DR
      00000082H   SFRSYM    DATA     BYTE      DPL
      000000F8H   SFRSYM    DATA     BYTE      SFRPRT15DR
      00000086H   SFRSYM    DATA     BYTE      DPS
      000000E9H   SFRSYM    DATA     BYTE      SFRPRT12PS
      00000093H   SFRSYM    DATA     BYTE      DPX
      000000F9H   SFRSYM    DATA     BYTE      SFRPRT15PS
      000000D0H.5 SFRSYM    DATA     BIT       F0
      000000D0H.1 SFRSYM    DATA     BIT       F1
      0000008AH   SFRSYM    DATA     BYTE      SFRPRT0SEL
      000000D0H   SFRSYM    DATA     BYTE      PSW
      000000A2H   SFRSYM    DATA     BYTE      SFRPRT1SEL
      0000009AH   SFRSYM    DATA     BYTE      SFRPRT2SEL
      000000B2H   SFRSYM    DATA     BYTE      SFRPRT3SEL
      000000C2H   SFRSYM    DATA     BYTE      SFRPRT4SEL

      0100C1BDH   BLOCK     CODE     ---       LVL=0
      0100C1BDH   BLOCK     CODE     NEAR LAB  LVL=1
      00000007H   SYMBOL    DATA     BYTE      MY_TIMER_interruptState
      ---         BLOCKEND  ---      ---       LVL=1
      0100C1BDH   LINE      CODE     ---       #43
LX51 LINKER/LOCATER V4.64.0.0                                                         02/16/2023  11:05:26  PAGE 98


      0100C1BDH   LINE      CODE     ---       #44
      0100C1BDH   LINE      CODE     ---       #118
      0100C1C8H   LINE      CODE     ---       #119
      0100C1D3H   LINE      CODE     ---       #142
      0100C1D6H   LINE      CODE     ---       #145
      0100C1DDH   LINE      CODE     ---       #148
      0100C1E0H   LINE      CODE     ---       #159
      0100C1E3H   LINE      CODE     ---       #162
      0100C1E8H   LINE      CODE     ---       #163
      ---         BLOCKEND  ---      ---       LVL=0

      0100C5F7H   BLOCK     CODE     ---       LVL=0
      0100C5F7H   LINE      CODE     ---       #180
      0100C5F7H   LINE      CODE     ---       #181
      0100C5F7H   LINE      CODE     ---       #190
      0100C5FEH   LINE      CODE     ---       #192
      ---         BLOCKEND  ---      ---       LVL=0

      0100C489H   BLOCK     CODE     ---       LVL=0
      0100C489H   LINE      CODE     ---       #215
      0100C489H   LINE      CODE     ---       #216
      0100C489H   LINE      CODE     ---       #217
      0100C48FH   LINE      CODE     ---       #218
      0100C48FH   LINE      CODE     ---       #219
      0100C492H   LINE      CODE     ---       #221
      0100C498H   LINE      CODE     ---       #222
      0100C498H   LINE      CODE     ---       #225
      0100C49BH   LINE      CODE     ---       #226
      ---         BLOCKEND  ---      ---       LVL=0

      0100C658H   BLOCK     CODE     ---       LVL=0
      00000007H   SYMBOL    DATA     BYTE      interruptMode
      0100C658H   LINE      CODE     ---       #279
      0100C658H   LINE      CODE     ---       #280
      0100C658H   LINE      CODE     ---       #281
      0100C65DH   LINE      CODE     ---       #282
      ---         BLOCKEND  ---      ---       LVL=0

      0100C65EH   BLOCK     CODE     ---       LVL=0
      0100C65EH   LINE      CODE     ---       #333
      0100C65EH   LINE      CODE     ---       #334
      0100C65EH   LINE      CODE     ---       #335
      0100C663H   LINE      CODE     ---       #336
      ---         BLOCKEND  ---      ---       LVL=0
      00000007H   SYMBOL    DATA     BYTE      control

      0100C5BDH   BLOCK     CODE     ---       LVL=0
      00000004H   SYMBOL    DATA     DWORD     period
      0100C5BDH   LINE      CODE     ---       #431
      0100C5BDH   LINE      CODE     ---       #432
      0100C5BDH   LINE      CODE     ---       #437
      0100C5C6H   LINE      CODE     ---       #439
      ---         BLOCKEND  ---      ---       LVL=0

      0100C5C7H   BLOCK     CODE     ---       LVL=0
      0100C5C7H   LINE      CODE     ---       #456
      0100C5C7H   LINE      CODE     ---       #457
      0100C5C7H   LINE      CODE     ---       #461
      0100C5D0H   LINE      CODE     ---       #463
      ---         BLOCKEND  ---      ---       LVL=0

      0100C5D1H   BLOCK     CODE     ---       LVL=0
      00000004H   SYMBOL    DATA     DWORD     counter
      0100C5D1H   LINE      CODE     ---       #480
      0100C5D1H   LINE      CODE     ---       #481
LX51 LINKER/LOCATER V4.64.0.0                                                         02/16/2023  11:05:26  PAGE 99


      0100C5D1H   LINE      CODE     ---       #489
      0100C5DAH   LINE      CODE     ---       #491
      ---         BLOCKEND  ---      ---       LVL=0

      0100C4E6H   BLOCK     CODE     ---       LVL=0
      0100C4E6H   LINE      CODE     ---       #508
      0100C4E6H   LINE      CODE     ---       #509
      0100C4E6H   LINE      CODE     ---       #516
      0100C4EBH   LINE      CODE     ---       #523
      0100C4F4H   LINE      CODE     ---       #525
      ---         BLOCKEND  ---      ---       LVL=0

      0100C54AH   BLOCK     CODE     ---       LVL=0
      0100C54AH   LINE      CODE     ---       #763
      0100C54AH   LINE      CODE     ---       #764
      0100C54AH   LINE      CODE     ---       #765
      0100C551H   LINE      CODE     ---       #766
      0100C551H   LINE      CODE     ---       #767
      0100C554H   LINE      CODE     ---       #768
      0100C556H   LINE      CODE     ---       #769
      ---         BLOCKEND  ---      ---       LVL=0

      ---         MODULE    ---      ---       ADC_STATUS
      0100C664H   PUBLIC    CODE     ---       ADC_STATUS_Read
      000000CAH   SFRSYM    DATA     BYTE      SFRPRT5SEL
      000000DAH   SFRSYM    DATA     BYTE      SFRPRT6SEL
      000000D0H.6 SFRSYM    DATA     BIT       AC
      000000A8H.7 SFRSYM    DATA     BIT       EA
      000000A8H   SFRSYM    DATA     BYTE      IE
      00000085H   SFRSYM    DATA     BYTE      DPH1
      00000084H   SFRSYM    DATA     BYTE      DPL1
      000000D0H.7 SFRSYM    DATA     BIT       CY
      000000A0H   SFRSYM    DATA     BYTE      P2AX
      00000095H   SFRSYM    DATA     BYTE      DPX1
      00000081H   SFRSYM    DATA     BYTE      SP
      000000D0H.2 SFRSYM    DATA     BIT       OV
      00000080H   SFRSYM    DATA     BYTE      SFRPRT0DR
      00000090H   SFRSYM    DATA     BYTE      SFRPRT1DR
      000000F2H   SFRSYM    DATA     BYTE      SFRPRT12SEL
      00000098H   SFRSYM    DATA     BYTE      SFRPRT2DR
      000000B0H   SFRSYM    DATA     BYTE      SFRPRT3DR
      000000C0H   SFRSYM    DATA     BYTE      SFRPRT4DR
      000000FAH   SFRSYM    DATA     BYTE      SFRPRT15SEL
      000000C8H   SFRSYM    DATA     BYTE      SFRPRT5DR
      000000D8H   SFRSYM    DATA     BYTE      SFRPRT6DR
      00000089H   SFRSYM    DATA     BYTE      SFRPRT0PS
      00000091H   SFRSYM    DATA     BYTE      SFRPRT1PS
      00000099H   SFRSYM    DATA     BYTE      SFRPRT2PS
      000000B1H   SFRSYM    DATA     BYTE      SFRPRT3PS
      000000C1H   SFRSYM    DATA     BYTE      SFRPRT4PS
      000000C9H   SFRSYM    DATA     BYTE      SFRPRT5PS
      000000D9H   SFRSYM    DATA     BYTE      SFRPRT6PS
      000000EAH   SFRSYM    DATA     BYTE      MXAX
      000000F0H   SFRSYM    DATA     BYTE      B
      000000E0H   SFRSYM    DATA     BYTE      ACC
      000000D0H   SFRSYM    DATA     BIT       P
      000000D0H.3 SFRSYM    DATA     BIT       RS0
      000000D0H.4 SFRSYM    DATA     BIT       RS1
      00000083H   SFRSYM    DATA     BYTE      DPH
      000000E8H   SFRSYM    DATA     BYTE      SFRPRT12DR
      00000082H   SFRSYM    DATA     BYTE      DPL
      000000F8H   SFRSYM    DATA     BYTE      SFRPRT15DR
      00000086H   SFRSYM    DATA     BYTE      DPS
      000000E9H   SFRSYM    DATA     BYTE      SFRPRT12PS
      00000093H   SFRSYM    DATA     BYTE      DPX
LX51 LINKER/LOCATER V4.64.0.0                                                         02/16/2023  11:05:26  PAGE 100


      000000F9H   SFRSYM    DATA     BYTE      SFRPRT15PS
      000000D0H.5 SFRSYM    DATA     BIT       F0
      000000D0H.1 SFRSYM    DATA     BIT       F1
      0000008AH   SFRSYM    DATA     BYTE      SFRPRT0SEL
      000000D0H   SFRSYM    DATA     BYTE      PSW
      000000A2H   SFRSYM    DATA     BYTE      SFRPRT1SEL
      0000009AH   SFRSYM    DATA     BYTE      SFRPRT2SEL
      000000B2H   SFRSYM    DATA     BYTE      SFRPRT3SEL
      000000C2H   SFRSYM    DATA     BYTE      SFRPRT4SEL

      0100C664H   BLOCK     CODE     ---       LVL=0
      0100C664H   LINE      CODE     ---       #37
      0100C664H   LINE      CODE     ---       #38
      0100C664H   LINE      CODE     ---       #39
      0100C669H   LINE      CODE     ---       #40
      ---         BLOCKEND  ---      ---       LVL=0
      00000007H   SYMBOL    DATA     BYTE      interruptState
      00000007H   SYMBOL    DATA     BYTE      interruptState
      00000007H   SYMBOL    DATA     BYTE      mask

      ---         MODULE    ---      ---       DMA_DMA
      0200107BH   PUBLIC    XDATA    BYTE      DMA_DmaHandle
      02000003H   PUBLIC    XDATA    BYTE      ?_DMA_DmaInitialize?BYTE
      0100BC63H   PUBLIC    CODE     ---       _DMA_DmaInitialize
      000000CAH   SFRSYM    DATA     BYTE      SFRPRT5SEL
      000000DAH   SFRSYM    DATA     BYTE      SFRPRT6SEL
      000000D0H.6 SFRSYM    DATA     BIT       AC
      000000A8H.7 SFRSYM    DATA     BIT       EA
      000000A8H   SFRSYM    DATA     BYTE      IE
      00000085H   SFRSYM    DATA     BYTE      DPH1
      00000084H   SFRSYM    DATA     BYTE      DPL1
      000000D0H.7 SFRSYM    DATA     BIT       CY
      000000A0H   SFRSYM    DATA     BYTE      P2AX
      00000095H   SFRSYM    DATA     BYTE      DPX1
      00000081H   SFRSYM    DATA     BYTE      SP
      000000D0H.2 SFRSYM    DATA     BIT       OV
      00000080H   SFRSYM    DATA     BYTE      SFRPRT0DR
      00000090H   SFRSYM    DATA     BYTE      SFRPRT1DR
      000000F2H   SFRSYM    DATA     BYTE      SFRPRT12SEL
      00000098H   SFRSYM    DATA     BYTE      SFRPRT2DR
      000000B0H   SFRSYM    DATA     BYTE      SFRPRT3DR
      000000C0H   SFRSYM    DATA     BYTE      SFRPRT4DR
      000000FAH   SFRSYM    DATA     BYTE      SFRPRT15SEL
      000000C8H   SFRSYM    DATA     BYTE      SFRPRT5DR
      000000D8H   SFRSYM    DATA     BYTE      SFRPRT6DR
      00000089H   SFRSYM    DATA     BYTE      SFRPRT0PS
      00000091H   SFRSYM    DATA     BYTE      SFRPRT1PS
      00000099H   SFRSYM    DATA     BYTE      SFRPRT2PS
      000000B1H   SFRSYM    DATA     BYTE      SFRPRT3PS
      000000C1H   SFRSYM    DATA     BYTE      SFRPRT4PS
      000000C9H   SFRSYM    DATA     BYTE      SFRPRT5PS
      000000D9H   SFRSYM    DATA     BYTE      SFRPRT6PS
      000000EAH   SFRSYM    DATA     BYTE      MXAX
      000000F0H   SFRSYM    DATA     BYTE      B
      000000E0H   SFRSYM    DATA     BYTE      ACC
      000000D0H   SFRSYM    DATA     BIT       P
      000000D0H.3 SFRSYM    DATA     BIT       RS0
      000000D0H.4 SFRSYM    DATA     BIT       RS1
      00000083H   SFRSYM    DATA     BYTE      DPH
      000000E8H   SFRSYM    DATA     BYTE      SFRPRT12DR
      00000082H   SFRSYM    DATA     BYTE      DPL
      000000F8H   SFRSYM    DATA     BYTE      SFRPRT15DR
      00000086H   SFRSYM    DATA     BYTE      DPS
      000000E9H   SFRSYM    DATA     BYTE      SFRPRT12PS
      00000093H   SFRSYM    DATA     BYTE      DPX
LX51 LINKER/LOCATER V4.64.0.0                                                         02/16/2023  11:05:26  PAGE 101


      000000F9H   SFRSYM    DATA     BYTE      SFRPRT15PS
      000000D0H.5 SFRSYM    DATA     BIT       F0
      000000D0H.1 SFRSYM    DATA     BIT       F1
      0000008AH   SFRSYM    DATA     BYTE      SFRPRT0SEL
      000000D0H   SFRSYM    DATA     BYTE      PSW
      000000A2H   SFRSYM    DATA     BYTE      SFRPRT1SEL
      0000009AH   SFRSYM    DATA     BYTE      SFRPRT2SEL
      000000B2H   SFRSYM    DATA     BYTE      SFRPRT3SEL
      000000C2H   SFRSYM    DATA     BYTE      SFRPRT4SEL

      0100BC63H   BLOCK     CODE     ---       LVL=0
      00000007H   SYMBOL    DATA     BYTE      BurstCount
      00000006H   SYMBOL    DATA     BYTE      ReqestPerBurst
      02000005H   SYMBOL    XDATA    WORD      UpperSrcAddress
      02000007H   SYMBOL    XDATA    WORD      UpperDestAddress
      0100BC63H   LINE      CODE     ---       #97
      0100BC6DH   LINE      CODE     ---       #98
      0100BC6DH   LINE      CODE     ---       #101
      0100BC73H   LINE      CODE     ---       #109
      0100BC87H   LINE      CODE     ---       #112
      0100BC9DH   LINE      CODE     ---       #115
      0100BCA7H   LINE      CODE     ---       #117
      0100BCACH   LINE      CODE     ---       #118
      ---         BLOCKEND  ---      ---       LVL=0

      ---         MODULE    ---      ---       ADC_SOC
      0100C66AH   PUBLIC    CODE     ---       _ADC_SOC_Write

      0100C66AH   BLOCK     CODE     ---       LVL=0
      00000007H   SYMBOL    DATA     BYTE      control
      0100C66AH   LINE      CODE     ---       #37
      0100C66AH   LINE      CODE     ---       #38
      0100C66AH   LINE      CODE     ---       #39
      0100C66FH   LINE      CODE     ---       #40
      ---         BLOCKEND  ---      ---       LVL=0

      ---         MODULE    ---      ---       CYDMAC
      0100B6F8H   PUBLIC    CODE     ---       _CyDmaTdSetAddress
      02000003H   PUBLIC    XDATA    BYTE      ?_CyDmaTdSetConfiguration?BYTE
      0100B3FDH   PUBLIC    CODE     ---       _CyDmaTdSetConfiguration
      0100BE03H   PUBLIC    CODE     ---       CyDmaTdAllocate
      02000009H   PUBLIC    XDATA    BYTE      ?_CyDmaChSetConfiguration?BYTE
      0100B607H   PUBLIC    CODE     ---       _CyDmaChSetConfiguration
      0100C31DH   PUBLIC    CODE     ---       _CyDmaChSetInitialTd
      0100B680H   PUBLIC    CODE     ---       _CyDmaChSetExtendedAddress
      0100BDC3H   PUBLIC    CODE     ---       _CyDmaChPriority
      0100BC18H   PUBLIC    CODE     ---       _CyDmaChEnable
      0100BF30H   PUBLIC    CODE     ---       CyDmacConfigure
      000000CAH   SFRSYM    DATA     BYTE      SFRPRT5SEL
      000000DAH   SFRSYM    DATA     BYTE      SFRPRT6SEL
      000000D0H.6 SFRSYM    DATA     BIT       AC
      000000A8H.7 SFRSYM    DATA     BIT       EA
      000000A8H   SFRSYM    DATA     BYTE      IE
      00000085H   SFRSYM    DATA     BYTE      DPH1
      00000084H   SFRSYM    DATA     BYTE      DPL1
      000000D0H.7 SFRSYM    DATA     BIT       CY
      000000A0H   SFRSYM    DATA     BYTE      P2AX
      00000095H   SFRSYM    DATA     BYTE      DPX1
      00000081H   SFRSYM    DATA     BYTE      SP
      000000D0H.2 SFRSYM    DATA     BIT       OV
      00000080H   SFRSYM    DATA     BYTE      SFRPRT0DR
      00000090H   SFRSYM    DATA     BYTE      SFRPRT1DR
      000000F2H   SFRSYM    DATA     BYTE      SFRPRT12SEL
      00000098H   SFRSYM    DATA     BYTE      SFRPRT2DR
      000000B0H   SFRSYM    DATA     BYTE      SFRPRT3DR
LX51 LINKER/LOCATER V4.64.0.0                                                         02/16/2023  11:05:26  PAGE 102


      000000C0H   SFRSYM    DATA     BYTE      SFRPRT4DR
      000000FAH   SFRSYM    DATA     BYTE      SFRPRT15SEL
      000000C8H   SFRSYM    DATA     BYTE      SFRPRT5DR
      000000D8H   SFRSYM    DATA     BYTE      SFRPRT6DR
      00000089H   SFRSYM    DATA     BYTE      SFRPRT0PS
      00000091H   SFRSYM    DATA     BYTE      SFRPRT1PS
      00000099H   SFRSYM    DATA     BYTE      SFRPRT2PS
      000000B1H   SFRSYM    DATA     BYTE      SFRPRT3PS
      000000C1H   SFRSYM    DATA     BYTE      SFRPRT4PS
      000000C9H   SFRSYM    DATA     BYTE      SFRPRT5PS
      000000D9H   SFRSYM    DATA     BYTE      SFRPRT6PS
      000000EAH   SFRSYM    DATA     BYTE      MXAX
      000000F0H   SFRSYM    DATA     BYTE      B
      000000E0H   SFRSYM    DATA     BYTE      ACC
      000000D0H   SFRSYM    DATA     BIT       P
      000000D0H.3 SFRSYM    DATA     BIT       RS0
      000000D0H.4 SFRSYM    DATA     BIT       RS1
      00000083H   SFRSYM    DATA     BYTE      DPH
      000000E8H   SFRSYM    DATA     BYTE      SFRPRT12DR
      00000082H   SFRSYM    DATA     BYTE      DPL
      000000F8H   SFRSYM    DATA     BYTE      SFRPRT15DR
      00000086H   SFRSYM    DATA     BYTE      DPS
      000000E9H   SFRSYM    DATA     BYTE      SFRPRT12PS
      00000093H   SFRSYM    DATA     BYTE      DPX
      000000F9H   SFRSYM    DATA     BYTE      SFRPRT15PS
      000000D0H.5 SFRSYM    DATA     BIT       F0
      000000D0H.1 SFRSYM    DATA     BIT       F1
      0000008AH   SFRSYM    DATA     BYTE      SFRPRT0SEL
      000000D0H   SFRSYM    DATA     BYTE      PSW
      000000A2H   SFRSYM    DATA     BYTE      SFRPRT1SEL
      0000009AH   SFRSYM    DATA     BYTE      SFRPRT2SEL
      000000B2H   SFRSYM    DATA     BYTE      SFRPRT3SEL
      000000C2H   SFRSYM    DATA     BYTE      SFRPRT4SEL
      02001068H   SYMBOL    XDATA    DWORD     CyDmaChannels
      0200106CH   SYMBOL    XDATA    BYTE      CyDmaTdFreeIndex
      0200106DH   SYMBOL    XDATA    BYTE      CyDmaTdCurrentNumber

      0100BF30H   BLOCK     CODE     ---       LVL=0
      0100BF30H   BLOCK     CODE     NEAR LAB  LVL=1
      00000007H   SYMBOL    DATA     BYTE      dmaIndex
      ---         BLOCKEND  ---      ---       LVL=1
      0100BF30H   LINE      CODE     ---       #53
      0100BF30H   LINE      CODE     ---       #54
      0100BF30H   LINE      CODE     ---       #58
      0100BF36H   LINE      CODE     ---       #59
      0100BF39H   LINE      CODE     ---       #62
      0100BF3EH   LINE      CODE     ---       #63
      0100BF3EH   LINE      CODE     ---       #64
      0100BF51H   LINE      CODE     ---       #65
      0100BF54H   LINE      CODE     ---       #68
      0100BF65H   LINE      CODE     ---       #69
      ---         BLOCKEND  ---      ---       LVL=0
      00000007H   SYMBOL    DATA     BYTE      error

      0100BC18H   BLOCK     CODE     ---       LVL=0
      00000007H   SYMBOL    DATA     BYTE      chHandle
      00000005H   SYMBOL    DATA     BYTE      preserveTds
      0100BC18H   BLOCK     CODE     NEAR LAB  LVL=1
      00000006H   SYMBOL    DATA     BYTE      status
      ---         BLOCKEND  ---      ---       LVL=1
      0100BC18H   LINE      CODE     ---       #269
      0100BC18H   LINE      CODE     ---       #270
      0100BC18H   LINE      CODE     ---       #271
      0100BC1AH   LINE      CODE     ---       #273
      0100BC20H   LINE      CODE     ---       #274
LX51 LINKER/LOCATER V4.64.0.0                                                         02/16/2023  11:05:26  PAGE 103


      0100BC20H   LINE      CODE     ---       #275
      0100BC23H   LINE      CODE     ---       #276
      0100BC23H   LINE      CODE     ---       #280
      0100BC36H   LINE      CODE     ---       #281
      0100BC38H   LINE      CODE     ---       #283
      0100BC38H   LINE      CODE     ---       #285
      0100BC4BH   LINE      CODE     ---       #286
      0100BC4BH   LINE      CODE     ---       #289
      0100BC5EH   LINE      CODE     ---       #291
      0100BC60H   LINE      CODE     ---       #292
      0100BC60H   LINE      CODE     ---       #294
      0100BC62H   LINE      CODE     ---       #295
      ---         BLOCKEND  ---      ---       LVL=0
      00000007H   SYMBOL    DATA     BYTE      chHandle
      00000006H   SYMBOL    DATA     BYTE      status
      00000007H   SYMBOL    DATA     BYTE      chHandle
      00000006H   SYMBOL    DATA     BYTE      status

      0100BDC3H   BLOCK     CODE     ---       LVL=0
      00000004H   SYMBOL    DATA     BYTE      chHandle
      00000005H   SYMBOL    DATA     BYTE      priority
      0100BDC5H   BLOCK     CODE     NEAR LAB  LVL=1
      00000002H   SYMBOL    DATA     BYTE      value
      00000003H   SYMBOL    DATA     BYTE      status
      ---         BLOCKEND  ---      ---       LVL=1
      0100BDC3H   LINE      CODE     ---       #383
      0100BDC5H   LINE      CODE     ---       #384
      0100BDC5H   LINE      CODE     ---       #386
      0100BDC7H   LINE      CODE     ---       #388
      0100BDCDH   LINE      CODE     ---       #389
      0100BDCDH   LINE      CODE     ---       #390
      0100BDE0H   LINE      CODE     ---       #392
      0100BDFEH   LINE      CODE     ---       #394
      0100BE00H   LINE      CODE     ---       #395
      0100BE00H   LINE      CODE     ---       #397
      0100BE02H   LINE      CODE     ---       #398
      ---         BLOCKEND  ---      ---       LVL=0

      0100B680H   BLOCK     CODE     ---       LVL=0
      02000009H   SYMBOL    XDATA    BYTE      chHandle
      0200000AH   SYMBOL    XDATA    WORD      source
      0200000CH   SYMBOL    XDATA    WORD      destination
      0100B693H   BLOCK     CODE     NEAR LAB  LVL=1
      0200000EH   SYMBOL    XDATA    BYTE      status
      0200000FH   SYMBOL    XDATA    ---       convert
      ---         BLOCKEND  ---      ---       LVL=1
      0100B680H   LINE      CODE     ---       #419
      0100B693H   LINE      CODE     ---       #421
      0100B693H   LINE      CODE     ---       #422
      0100B699H   LINE      CODE     ---       #441
      0100B69FH   LINE      CODE     ---       #442
      0100B69FH   LINE      CODE     ---       #444
      0100B6B6H   LINE      CODE     ---       #445
      0100B6C6H   LINE      CODE     ---       #448
      0100B6DDH   LINE      CODE     ---       #449
      0100B6EDH   LINE      CODE     ---       #450
      0100B6F2H   LINE      CODE     ---       #451
      0100B6F2H   LINE      CODE     ---       #453
      0100B6F7H   LINE      CODE     ---       #454
      ---         BLOCKEND  ---      ---       LVL=0

      0100C31DH   BLOCK     CODE     ---       LVL=0
      00000007H   SYMBOL    DATA     BYTE      chHandle
      00000005H   SYMBOL    DATA     BYTE      startTd
      0100C31DH   BLOCK     CODE     NEAR LAB  LVL=1
LX51 LINKER/LOCATER V4.64.0.0                                                         02/16/2023  11:05:26  PAGE 104


      00000006H   SYMBOL    DATA     BYTE      status
      ---         BLOCKEND  ---      ---       LVL=1
      0100C31DH   LINE      CODE     ---       #474
      0100C31DH   LINE      CODE     ---       #475
      0100C31DH   LINE      CODE     ---       #476
      0100C31FH   LINE      CODE     ---       #478
      0100C325H   LINE      CODE     ---       #479
      0100C325H   LINE      CODE     ---       #480
      0100C336H   LINE      CODE     ---       #481
      0100C338H   LINE      CODE     ---       #482
      0100C338H   LINE      CODE     ---       #484
      0100C33AH   LINE      CODE     ---       #485
      ---         BLOCKEND  ---      ---       LVL=0
      00000007H   SYMBOL    DATA     BYTE      chHandle
      00000005H   SYMBOL    DATA     BYTE      request
      00000006H   SYMBOL    DATA     BYTE      status
      00000007H   SYMBOL    DATA     BYTE      chHandle
      00000003H   SYMBOL    DATA     BYTE      status
      00000007H   SYMBOL    DATA     BYTE      chHandle
      00000006H   SYMBOL    DATA     BYTE      status

      0100B607H   BLOCK     CODE     ---       LVL=0
      00000004H   SYMBOL    DATA     BYTE      chHandle
      00000005H   SYMBOL    DATA     BYTE      burstCount
      00000003H   SYMBOL    DATA     BYTE      requestPerBurst
      0200000CH   SYMBOL    XDATA    BYTE      tdDone0
      0200000DH   SYMBOL    XDATA    BYTE      tdDone1
      0200000EH   SYMBOL    XDATA    BYTE      tdStop
      0100B609H   BLOCK     CODE     NEAR LAB  LVL=1
      00000002H   SYMBOL    DATA     BYTE      status
      ---         BLOCKEND  ---      ---       LVL=1
      0100B607H   LINE      CODE     ---       #647
      0100B609H   LINE      CODE     ---       #649
      0100B609H   LINE      CODE     ---       #650
      0100B60BH   LINE      CODE     ---       #652
      0100B611H   LINE      CODE     ---       #653
      0100B611H   LINE      CODE     ---       #654
      0100B62FH   LINE      CODE     ---       #655
      0100B653H   LINE      CODE     ---       #656
      0100B66BH   LINE      CODE     ---       #657
      0100B67CH   LINE      CODE     ---       #659
      0100B67DH   LINE      CODE     ---       #660
      0100B67DH   LINE      CODE     ---       #662
      0100B67FH   LINE      CODE     ---       #663
      ---         BLOCKEND  ---      ---       LVL=0

      0100BE03H   BLOCK     CODE     ---       LVL=0
      0100BE03H   BLOCK     CODE     NEAR LAB  LVL=1
      00000007H   SYMBOL    DATA     BYTE      interruptState
      02000003H   SYMBOL    XDATA    BYTE      element
      ---         BLOCKEND  ---      ---       LVL=1
      0100BE03H   LINE      CODE     ---       #679
      0100BE03H   LINE      CODE     ---       #680
      0100BE03H   LINE      CODE     ---       #682
      0100BE09H   LINE      CODE     ---       #685
      0100BE0CH   LINE      CODE     ---       #687
      0100BE15H   LINE      CODE     ---       #688
      0100BE15H   LINE      CODE     ---       #690
      0100BE1EH   LINE      CODE     ---       #693
      0100BE24H   LINE      CODE     ---       #696
      0100BE38H   LINE      CODE     ---       #697
      0100BE38H   LINE      CODE     ---       #700
      0100BE3BH   LINE      CODE     ---       #702
      0100BE40H   LINE      CODE     ---       #703
      ---         BLOCKEND  ---      ---       LVL=0
LX51 LINKER/LOCATER V4.64.0.0                                                         02/16/2023  11:05:26  PAGE 105



      0100B3FDH   BLOCK     CODE     ---       LVL=0
      02000003H   SYMBOL    XDATA    BYTE      tdHandle
      02000004H   SYMBOL    XDATA    WORD      transferCount
      02000006H   SYMBOL    XDATA    BYTE      nextTd
      02000007H   SYMBOL    XDATA    BYTE      configuration
      0100B40DH   BLOCK     CODE     NEAR LAB  LVL=1
      02000008H   SYMBOL    XDATA    BYTE      status
      0100B422H   BLOCK     CODE     NEAR LAB  LVL=2
      02000009H   SYMBOL    XDATA    ---       convert
      ---         BLOCKEND  ---      ---       LVL=2
      ---         BLOCKEND  ---      ---       LVL=1
      0100B3FDH   LINE      CODE     ---       #807
      0100B40DH   LINE      CODE     ---       #809
      0100B40DH   LINE      CODE     ---       #810
      0100B413H   LINE      CODE     ---       #812
      0100B422H   LINE      CODE     ---       #813
      0100B422H   LINE      CODE     ---       #815
      0100B439H   LINE      CODE     ---       #816
      0100B449H   LINE      CODE     ---       #819
      0100B463H   LINE      CODE     ---       #822
      0100B479H   LINE      CODE     ---       #824
      0100B47EH   LINE      CODE     ---       #825
      0100B47EH   LINE      CODE     ---       #827
      0100B483H   LINE      CODE     ---       #828
      ---         BLOCKEND  ---      ---       LVL=0

      0100B6F8H   BLOCK     CODE     ---       LVL=0
      02000003H   SYMBOL    XDATA    BYTE      tdHandle
      02000004H   SYMBOL    XDATA    WORD      source
      02000006H   SYMBOL    XDATA    WORD      destination
      0100B70BH   BLOCK     CODE     NEAR LAB  LVL=1
      02000008H   SYMBOL    XDATA    BYTE      status
      02000009H   SYMBOL    XDATA    ---       convert
      ---         BLOCKEND  ---      ---       LVL=1
      0100B6F8H   LINE      CODE     ---       #922
      0100B70BH   LINE      CODE     ---       #923
      0100B70BH   LINE      CODE     ---       #924
      0100B711H   LINE      CODE     ---       #927
      0100B717H   LINE      CODE     ---       #928
      0100B717H   LINE      CODE     ---       #930
      0100B72EH   LINE      CODE     ---       #931
      0100B73EH   LINE      CODE     ---       #934
      0100B755H   LINE      CODE     ---       #935
      0100B765H   LINE      CODE     ---       #937
      0100B76AH   LINE      CODE     ---       #938
      0100B76AH   LINE      CODE     ---       #940
      0100B76FH   LINE      CODE     ---       #941
      ---         BLOCKEND  ---      ---       LVL=0
      00000007H   SYMBOL    DATA     BYTE      chHandle
      00000005H   SYMBOL    DATA     BYTE      enableRR
      00000006H   SYMBOL    DATA     BYTE      status

      ---         MODULE    ---      ---       CYFLASH
      02001071H   PUBLIC    XDATA    ---       dieTemperature
      0100C09FH   PUBLIC    CODE     ---       CyEEPROM_Start
      0100C3A1H   PUBLIC    CODE     ---       CySetTemp
      0100BB2CH   PUBLIC    CODE     ---       CyFlashGetSpcAlgorithm
      000000CAH   SFRSYM    DATA     BYTE      SFRPRT5SEL
      000000DAH   SFRSYM    DATA     BYTE      SFRPRT6SEL
      000000D0H.6 SFRSYM    DATA     BIT       AC
      000000A8H.7 SFRSYM    DATA     BIT       EA
      000000A8H   SFRSYM    DATA     BYTE      IE
      00000085H   SFRSYM    DATA     BYTE      DPH1
      00000084H   SFRSYM    DATA     BYTE      DPL1
LX51 LINKER/LOCATER V4.64.0.0                                                         02/16/2023  11:05:26  PAGE 106


      000000D0H.7 SFRSYM    DATA     BIT       CY
      000000A0H   SFRSYM    DATA     BYTE      P2AX
      00000095H   SFRSYM    DATA     BYTE      DPX1
      00000081H   SFRSYM    DATA     BYTE      SP
      000000D0H.2 SFRSYM    DATA     BIT       OV
      00000080H   SFRSYM    DATA     BYTE      SFRPRT0DR
      00000090H   SFRSYM    DATA     BYTE      SFRPRT1DR
      000000F2H   SFRSYM    DATA     BYTE      SFRPRT12SEL
      00000098H   SFRSYM    DATA     BYTE      SFRPRT2DR
      000000B0H   SFRSYM    DATA     BYTE      SFRPRT3DR
      000000C0H   SFRSYM    DATA     BYTE      SFRPRT4DR
      000000FAH   SFRSYM    DATA     BYTE      SFRPRT15SEL
      000000C8H   SFRSYM    DATA     BYTE      SFRPRT5DR
      000000D8H   SFRSYM    DATA     BYTE      SFRPRT6DR
      00000089H   SFRSYM    DATA     BYTE      SFRPRT0PS
      00000091H   SFRSYM    DATA     BYTE      SFRPRT1PS
      00000099H   SFRSYM    DATA     BYTE      SFRPRT2PS
      000000B1H   SFRSYM    DATA     BYTE      SFRPRT3PS
      000000C1H   SFRSYM    DATA     BYTE      SFRPRT4PS
      000000C9H   SFRSYM    DATA     BYTE      SFRPRT5PS
      000000D9H   SFRSYM    DATA     BYTE      SFRPRT6PS
      000000EAH   SFRSYM    DATA     BYTE      MXAX
      000000F0H   SFRSYM    DATA     BYTE      B
      000000E0H   SFRSYM    DATA     BYTE      ACC
      000000D0H   SFRSYM    DATA     BIT       P
      000000D0H.3 SFRSYM    DATA     BIT       RS0
      000000D0H.4 SFRSYM    DATA     BIT       RS1
      00000083H   SFRSYM    DATA     BYTE      DPH
      000000E8H   SFRSYM    DATA     BYTE      SFRPRT12DR
      00000082H   SFRSYM    DATA     BYTE      DPL
      000000F8H   SFRSYM    DATA     BYTE      SFRPRT15DR
      00000086H   SFRSYM    DATA     BYTE      DPS
      000000E9H   SFRSYM    DATA     BYTE      SFRPRT12PS
      00000093H   SFRSYM    DATA     BYTE      DPX
      000000F9H   SFRSYM    DATA     BYTE      SFRPRT15PS
      000000D0H.5 SFRSYM    DATA     BIT       F0
      000000D0H.1 SFRSYM    DATA     BIT       F1
      0000008AH   SFRSYM    DATA     BYTE      SFRPRT0SEL
      000000D0H   SFRSYM    DATA     BYTE      PSW
      000000A2H   SFRSYM    DATA     BYTE      SFRPRT1SEL
      0000009AH   SFRSYM    DATA     BYTE      SFRPRT2SEL
      000000B2H   SFRSYM    DATA     BYTE      SFRPRT3SEL
      000000C2H   SFRSYM    DATA     BYTE      SFRPRT4SEL
      0100BA2EH   SYMBOL    CODE     ---       CySetTempInt
      0200106EH   SYMBOL    XDATA    ---       rowBuffer
      00000007H   SYMBOL    DATA     BYTE      interruptState
      00000007H   SYMBOL    DATA     BYTE      interruptState

      0100BA2EH   BLOCK     CODE     ---       LVL=0
      0100BA2EH   BLOCK     CODE     NEAR LAB  LVL=1
      0200004FH   SYMBOL    XDATA    BYTE      status
      ---         BLOCKEND  ---      ---       LVL=1
      0100BA2EH   LINE      CODE     ---       #208
      0100BA2EH   LINE      CODE     ---       #209
      0100BA2EH   LINE      CODE     ---       #213
      0100BA31H   LINE      CODE     ---       #216
      0100BA37H   LINE      CODE     ---       #218
      0100BA3DH   LINE      CODE     ---       #219
      0100BA3DH   LINE      CODE     ---       #221
      0100BA47H   LINE      CODE     ---       #222
      0100BA47H   LINE      CODE     ---       #224
      0100BA47H   LINE      CODE     ---       #225
      0100BA56H   LINE      CODE     ---       #226
      0100BA56H   LINE      CODE     ---       #227
      0100BA5BH   LINE      CODE     ---       #229
LX51 LINKER/LOCATER V4.64.0.0                                                         02/16/2023  11:05:26  PAGE 107


      0100BA63H   LINE      CODE     ---       #230
      0100BA63H   LINE      CODE     ---       #232
      0100BA69H   LINE      CODE     ---       #233
      0100BA6BH   LINE      CODE     ---       #234
      0100BA6BH   LINE      CODE     ---       #235
      0100BA6BH   LINE      CODE     ---       #237
      0100BA73H   LINE      CODE     ---       #238
      0100BA73H   LINE      CODE     ---       #240
      0100BA76H   LINE      CODE     ---       #241
      0100BA78H   LINE      CODE     ---       #243
      0100BA78H   LINE      CODE     ---       #244
      0100BA7EH   LINE      CODE     ---       #245
      0100BA7EH   LINE      CODE     ---       #247
      0100BA83H   LINE      CODE     ---       #248
      ---         BLOCKEND  ---      ---       LVL=0

      0100BB2CH   BLOCK     CODE     ---       LVL=0
      0100BB2CH   BLOCK     CODE     NEAR LAB  LVL=1
      0200004FH   SYMBOL    XDATA    BYTE      status
      ---         BLOCKEND  ---      ---       LVL=1
      0100BB2CH   LINE      CODE     ---       #264
      0100BB2CH   LINE      CODE     ---       #265
      0100BB2CH   LINE      CODE     ---       #269
      0100BB2FH   LINE      CODE     ---       #271
      0100BB35H   LINE      CODE     ---       #272
      0100BB35H   LINE      CODE     ---       #273
      0100BB3DH   LINE      CODE     ---       #275
      0100BB41H   LINE      CODE     ---       #276
      0100BB41H   LINE      CODE     ---       #277
      0100BB49H   LINE      CODE     ---       #278
      0100BB49H   LINE      CODE     ---       #280
      0100BB4FH   LINE      CODE     ---       #281
      0100BB51H   LINE      CODE     ---       #283
      0100BB67H   LINE      CODE     ---       #284
      0100BB67H   LINE      CODE     ---       #285
      0100BB6BH   LINE      CODE     ---       #286
      0100BB6BH   LINE      CODE     ---       #287
      0100BB6BH   LINE      CODE     ---       #288
      0100BB6EH   LINE      CODE     ---       #289
      0100BB70H   LINE      CODE     ---       #291
      0100BB70H   LINE      CODE     ---       #292
      0100BB76H   LINE      CODE     ---       #293
      0100BB76H   LINE      CODE     ---       #295
      0100BB7BH   LINE      CODE     ---       #296
      ---         BLOCKEND  ---      ---       LVL=0

      0100C3A1H   BLOCK     CODE     ---       LVL=0
      0100C3A1H   BLOCK     CODE     NEAR LAB  LVL=1
      0200004EH   SYMBOL    XDATA    BYTE      status
      ---         BLOCKEND  ---      ---       LVL=1
      0100C3A1H   LINE      CODE     ---       #318
      0100C3A1H   LINE      CODE     ---       #319
      0100C3A1H   LINE      CODE     ---       #320
      0100C3A9H   LINE      CODE     ---       #322
      0100C3ABH   LINE      CODE     ---       #323
      0100C3ABH   LINE      CODE     ---       #324
      0100C3B3H   LINE      CODE     ---       #325
      0100C3B3H   LINE      CODE     ---       #327
      0100C3B8H   LINE      CODE     ---       #328
      ---         BLOCKEND  ---      ---       LVL=0
      00000004H   SYMBOL    DATA     WORD      rowAddress
      00000001H   SYMBOL    DATA     ---       rowData
      00000007H   SYMBOL    DATA     BYTE      status
      00000007H   SYMBOL    DATA     BYTE      interruptState

LX51 LINKER/LOCATER V4.64.0.0                                                         02/16/2023  11:05:26  PAGE 108


      0100C09FH   BLOCK     CODE     ---       LVL=0
      0100C09FH   BLOCK     CODE     NEAR LAB  LVL=1
      00000007H   SYMBOL    DATA     BYTE      interruptState
      ---         BLOCKEND  ---      ---       LVL=1
      0100C09FH   LINE      CODE     ---       #661
      0100C09FH   LINE      CODE     ---       #662
      0100C09FH   LINE      CODE     ---       #665
      0100C0A2H   LINE      CODE     ---       #672
      0100C0A9H   LINE      CODE     ---       #673
      0100C0B0H   LINE      CODE     ---       #686
      0100C0B6H   LINE      CODE     ---       #693
      0100C0BDH   LINE      CODE     ---       #694
      0100C0C4H   LINE      CODE     ---       #696
      0100C0CCH   LINE      CODE     ---       #697
      0100C0CCH   LINE      CODE     ---       #699
      0100C0CCH   LINE      CODE     ---       #701
      0100C0CFH   LINE      CODE     ---       #702
      ---         BLOCKEND  ---      ---       LVL=0
      00000007H   SYMBOL    DATA     BYTE      interruptState

      ---         MODULE    ---      ---       CYLIB
      02001064H   PUBLIC    XDATA    DWORD     cydelay_32k_ms
      02001063H   PUBLIC    XDATA    BYTE      CyResetStatus
      0200105FH   PUBLIC    XDATA    DWORD     cydelay_freq_hz
      0200105EH   PUBLIC    XDATA    BYTE      cydelay_freq_mhz
      0200105AH   PUBLIC    XDATA    DWORD     cydelay_freq_khz
      0100C36FH   PUBLIC    CODE     ---       _CyIntSetPriority
      0100BA84H   PUBLIC    CODE     ---       _CyIntSetVector
      0100C100H   PUBLIC    CODE     ---       CyIntInitVectors
      0100C695H   PUBLIC    CODE     ---       IntDefaultHandler
      0100B375H   PUBLIC    CODE     ---       _?CyDelay
      0100C5FFH   PUBLIC    CODE     ---       CySoftwareReset
      000000CAH   SFRSYM    DATA     BYTE      SFRPRT5SEL
      000000DAH   SFRSYM    DATA     BYTE      SFRPRT6SEL
      000000D0H.6 SFRSYM    DATA     BIT       AC
      000000A8H.7 SFRSYM    DATA     BIT       EA
      000000A8H   SFRSYM    DATA     BYTE      IE
      00000085H   SFRSYM    DATA     BYTE      DPH1
      00000084H   SFRSYM    DATA     BYTE      DPL1
      000000D0H.7 SFRSYM    DATA     BIT       CY
      000000A0H   SFRSYM    DATA     BYTE      P2AX
      00000095H   SFRSYM    DATA     BYTE      DPX1
      00000081H   SFRSYM    DATA     BYTE      SP
      000000D0H.2 SFRSYM    DATA     BIT       OV
      00000080H   SFRSYM    DATA     BYTE      SFRPRT0DR
      00000090H   SFRSYM    DATA     BYTE      SFRPRT1DR
      000000F2H   SFRSYM    DATA     BYTE      SFRPRT12SEL
      00000098H   SFRSYM    DATA     BYTE      SFRPRT2DR
      000000B0H   SFRSYM    DATA     BYTE      SFRPRT3DR
      000000C0H   SFRSYM    DATA     BYTE      SFRPRT4DR
      000000FAH   SFRSYM    DATA     BYTE      SFRPRT15SEL
      000000C8H   SFRSYM    DATA     BYTE      SFRPRT5DR
      000000D8H   SFRSYM    DATA     BYTE      SFRPRT6DR
      00000089H   SFRSYM    DATA     BYTE      SFRPRT0PS
      00000091H   SFRSYM    DATA     BYTE      SFRPRT1PS
      00000099H   SFRSYM    DATA     BYTE      SFRPRT2PS
      000000B1H   SFRSYM    DATA     BYTE      SFRPRT3PS
      000000C1H   SFRSYM    DATA     BYTE      SFRPRT4PS
      000000C9H   SFRSYM    DATA     BYTE      SFRPRT5PS
      000000D9H   SFRSYM    DATA     BYTE      SFRPRT6PS
      000000EAH   SFRSYM    DATA     BYTE      MXAX
      000000F0H   SFRSYM    DATA     BYTE      B
      000000E0H   SFRSYM    DATA     BYTE      ACC
      000000D0H   SFRSYM    DATA     BIT       P
      000000D0H.3 SFRSYM    DATA     BIT       RS0
LX51 LINKER/LOCATER V4.64.0.0                                                         02/16/2023  11:05:26  PAGE 109


      000000D0H.4 SFRSYM    DATA     BIT       RS1
      00000083H   SFRSYM    DATA     BYTE      DPH
      000000E8H   SFRSYM    DATA     BYTE      SFRPRT12DR
      00000082H   SFRSYM    DATA     BYTE      DPL
      000000F8H   SFRSYM    DATA     BYTE      SFRPRT15DR
      00000086H   SFRSYM    DATA     BYTE      DPS
      000000E9H   SFRSYM    DATA     BYTE      SFRPRT12PS
      00000093H   SFRSYM    DATA     BYTE      DPX
      000000F9H   SFRSYM    DATA     BYTE      SFRPRT15PS
      000000D0H.5 SFRSYM    DATA     BIT       F0
      000000D0H.1 SFRSYM    DATA     BIT       F1
      0000008AH   SFRSYM    DATA     BYTE      SFRPRT0SEL
      000000D0H   SFRSYM    DATA     BYTE      PSW
      000000A2H   SFRSYM    DATA     BYTE      SFRPRT1SEL
      0000009AH   SFRSYM    DATA     BYTE      SFRPRT2SEL
      000000B2H   SFRSYM    DATA     BYTE      SFRPRT3SEL
      000000C2H   SFRSYM    DATA     BYTE      SFRPRT4SEL
      00000007H   SYMBOL    DATA     BYTE      wait
      00000007H   SYMBOL    DATA     BYTE      pDiv
      00000005H   SYMBOL    DATA     BYTE      qDiv
      00000003H   SYMBOL    DATA     BYTE      current
      00000007H   SYMBOL    DATA     BYTE      source
      00000007H   SYMBOL    DATA     BYTE      wait
      00000007H   SYMBOL    DATA     BYTE      poweredOn
      00000006H   SYMBOL    DATA     BYTE      freq
      00000007H   SYMBOL    DATA     BYTE      source
      00000007H   SYMBOL    DATA     BYTE      source
      00000007H   SYMBOL    DATA     BYTE      divider
      00000006H   SYMBOL    DATA     WORD      divider
      00000005H   SYMBOL    DATA     BYTE      masterClkDiv
      00000006H   SYMBOL    DATA     WORD      busClkDiv
      00000001H   SYMBOL    DATA     BYTE      interruptState
      00000007H   SYMBOL    DATA     BYTE      divider
      00000007H   SYMBOL    DATA     BYTE      source
      00000007H   SYMBOL    DATA     BYTE      source
      00000007H   SYMBOL    DATA     BYTE      mode
      00000006H   SYMBOL    DATA     BYTE      state
      00000007H   SYMBOL    DATA     BYTE      mode
      00000007H   SYMBOL    DATA     BYTE      wait
      00000007H   SYMBOL    DATA     BYTE      setting
      00000007H   SYMBOL    DATA     BYTE      setting
      00000007H   SYMBOL    DATA     BYTE      setting
      00000000H   SYMBOL    XSTK     BYTE      reason

      0100C5FFH   BLOCK     CODE     ---       LVL=0
      0100C5FFH   LINE      CODE     ---       #1438
      0100C5FFH   LINE      CODE     ---       #1439
      0100C5FFH   LINE      CODE     ---       #1440
      0100C606H   LINE      CODE     ---       #1441
      ---         BLOCKEND  ---      ---       LVL=0

      0100B375H   BLOCK     CODE     ---       LVL=0
      00000000H   SYMBOL    XSTK     DWORD     milliseconds
      0100B375H   LINE      CODE     ---       #1459
      0100B37EH   LINE      CODE     ---       #1461
      0100B394H   LINE      CODE     ---       #1462
      0100B394H   LINE      CODE     ---       #1467
      0100B3A5H   LINE      CODE     ---       #1468
      0100B3CFH   LINE      CODE     ---       #1469
      0100B3D1H   LINE      CODE     ---       #1471
      0100B3F6H   LINE      CODE     ---       #1472
      ---         BLOCKEND  ---      ---       LVL=0
      00000000H   SYMBOL    XSTK     DWORD     freq
      00000007H   SYMBOL    DATA     BYTE      ticks
      00000005H   SYMBOL    DATA     BYTE      lpMode
LX51 LINKER/LOCATER V4.64.0.0                                                         02/16/2023  11:05:26  PAGE 110


      02001059H   SYMBOL    XDATA    BYTE      interruptStatus
      00000005H   SYMBOL    DATA     BYTE      interruptState
      00000005H   SYMBOL    DATA     BYTE      interruptState
      00000003H   SYMBOL    DATA     BYTE      interruptState

      0100C695H   BLOCK     CODE     ---       LVL=0
      0100C695H   LINE      CODE     ---       #2304
      0100C695H   LINE      CODE     ---       #2310
      0100C695H   LINE      CODE     ---       #2311
      0100C695H   LINE      CODE     ---       #2316
      ---         BLOCKEND  ---      ---       LVL=0

      0100C100H   BLOCK     CODE     ---       LVL=0
      0100C100H   BLOCK     CODE     NEAR LAB  LVL=1
      02000000H   SYMBOL    XDATA    BYTE      i
      ---         BLOCKEND  ---      ---       LVL=1
      0100C100H   LINE      CODE     ---       #2328
      0100C100H   LINE      CODE     ---       #2329
      0100C100H   LINE      CODE     ---       #2332
      0100C10FH   LINE      CODE     ---       #2333
      0100C10FH   LINE      CODE     ---       #2334
      0100C127H   LINE      CODE     ---       #2335
      0100C12FH   LINE      CODE     ---       #2336
      ---         BLOCKEND  ---      ---       LVL=0

      0100BA84H   BLOCK     CODE     ---       LVL=0
      02000003H   SYMBOL    XDATA    BYTE      number
      02000004H   SYMBOL    XDATA    ---       address
      0100BA91H   BLOCK     CODE     NEAR LAB  LVL=1
      02000006H   SYMBOL    XDATA    ---       oldIsr
      ---         BLOCKEND  ---      ---       LVL=1
      0100BA84H   LINE      CODE     ---       #2352
      0100BA91H   LINE      CODE     ---       #2353
      0100BA91H   LINE      CODE     ---       #2359
      0100BAAFH   LINE      CODE     ---       #2363
      0100BACFH   LINE      CODE     ---       #2365
      0100BAD7H   LINE      CODE     ---       #2366
      ---         BLOCKEND  ---      ---       LVL=0
      00000007H   SYMBOL    DATA     BYTE      number

      0100C36FH   BLOCK     CODE     ---       LVL=0
      00000004H   SYMBOL    DATA     BYTE      number
      00000005H   SYMBOL    DATA     BYTE      priority
      0100C36FH   LINE      CODE     ---       #2400
      0100C371H   LINE      CODE     ---       #2401
      0100C371H   LINE      CODE     ---       #2406
      0100C387H   LINE      CODE     ---       #2408
      ---         BLOCKEND  ---      ---       LVL=0
      00000007H   SYMBOL    DATA     BYTE      number
      00000007H   SYMBOL    DATA     BYTE      priority
      00000005H   SYMBOL    DATA     BYTE      number
      00000006H   SYMBOL    DATA     ---       stateReg

      ---         MODULE    ---      ---       LED_BLINK
      0200107CH   PUBLIC    XDATA    BYTE      LED_BLINK_initVar
      0100C67CH   PUBLIC    CODE     ---       _LED_BLINK_WriteCompare
      0100C676H   PUBLIC    CODE     ---       _LED_BLINK_WritePeriod
      0100C670H   PUBLIC    CODE     ---       _LED_BLINK_WriteCounter
      0100C607H   PUBLIC    CODE     ---       LED_BLINK_Enable
      0100C27DH   PUBLIC    CODE     ---       LED_BLINK_Init
      0100C49CH   PUBLIC    CODE     ---       LED_BLINK_Start
      000000CAH   SFRSYM    DATA     BYTE      SFRPRT5SEL
      000000DAH   SFRSYM    DATA     BYTE      SFRPRT6SEL
      000000D0H.6 SFRSYM    DATA     BIT       AC
      000000A8H.7 SFRSYM    DATA     BIT       EA
LX51 LINKER/LOCATER V4.64.0.0                                                         02/16/2023  11:05:26  PAGE 111


      000000A8H   SFRSYM    DATA     BYTE      IE
      00000085H   SFRSYM    DATA     BYTE      DPH1
      00000084H   SFRSYM    DATA     BYTE      DPL1
      000000D0H.7 SFRSYM    DATA     BIT       CY
      000000A0H   SFRSYM    DATA     BYTE      P2AX
      00000095H   SFRSYM    DATA     BYTE      DPX1
      00000081H   SFRSYM    DATA     BYTE      SP
      000000D0H.2 SFRSYM    DATA     BIT       OV
      00000080H   SFRSYM    DATA     BYTE      SFRPRT0DR
      00000090H   SFRSYM    DATA     BYTE      SFRPRT1DR
      000000F2H   SFRSYM    DATA     BYTE      SFRPRT12SEL
      00000098H   SFRSYM    DATA     BYTE      SFRPRT2DR
      000000B0H   SFRSYM    DATA     BYTE      SFRPRT3DR
      000000C0H   SFRSYM    DATA     BYTE      SFRPRT4DR
      000000FAH   SFRSYM    DATA     BYTE      SFRPRT15SEL
      000000C8H   SFRSYM    DATA     BYTE      SFRPRT5DR
      000000D8H   SFRSYM    DATA     BYTE      SFRPRT6DR
      00000089H   SFRSYM    DATA     BYTE      SFRPRT0PS
      00000091H   SFRSYM    DATA     BYTE      SFRPRT1PS
      00000099H   SFRSYM    DATA     BYTE      SFRPRT2PS
      000000B1H   SFRSYM    DATA     BYTE      SFRPRT3PS
      000000C1H   SFRSYM    DATA     BYTE      SFRPRT4PS
      000000C9H   SFRSYM    DATA     BYTE      SFRPRT5PS
      000000D9H   SFRSYM    DATA     BYTE      SFRPRT6PS
      000000EAH   SFRSYM    DATA     BYTE      MXAX
      000000F0H   SFRSYM    DATA     BYTE      B
      000000E0H   SFRSYM    DATA     BYTE      ACC
      000000D0H   SFRSYM    DATA     BIT       P
      000000D0H.3 SFRSYM    DATA     BIT       RS0
      000000D0H.4 SFRSYM    DATA     BIT       RS1
      00000083H   SFRSYM    DATA     BYTE      DPH
      000000E8H   SFRSYM    DATA     BYTE      SFRPRT12DR
      00000082H   SFRSYM    DATA     BYTE      DPL
      000000F8H   SFRSYM    DATA     BYTE      SFRPRT15DR
      00000086H   SFRSYM    DATA     BYTE      DPS
      000000E9H   SFRSYM    DATA     BYTE      SFRPRT12PS
      00000093H   SFRSYM    DATA     BYTE      DPX
      000000F9H   SFRSYM    DATA     BYTE      SFRPRT15PS
      000000D0H.5 SFRSYM    DATA     BIT       F0
      000000D0H.1 SFRSYM    DATA     BIT       F1
      0000008AH   SFRSYM    DATA     BYTE      SFRPRT0SEL
      000000D0H   SFRSYM    DATA     BYTE      PSW
      000000A2H   SFRSYM    DATA     BYTE      SFRPRT1SEL
      0000009AH   SFRSYM    DATA     BYTE      SFRPRT2SEL
      000000B2H   SFRSYM    DATA     BYTE      SFRPRT3SEL
      000000C2H   SFRSYM    DATA     BYTE      SFRPRT4SEL

      0100C49CH   BLOCK     CODE     ---       LVL=0
      0100C49CH   LINE      CODE     ---       #55
      0100C49CH   LINE      CODE     ---       #56
      0100C49CH   LINE      CODE     ---       #58
      0100C4A2H   LINE      CODE     ---       #59
      0100C4A2H   LINE      CODE     ---       #60
      0100C4A5H   LINE      CODE     ---       #61
      0100C4ABH   LINE      CODE     ---       #62
      0100C4ABH   LINE      CODE     ---       #63
      0100C4AEH   LINE      CODE     ---       #65
      ---         BLOCKEND  ---      ---       LVL=0

      0100C27DH   BLOCK     CODE     ---       LVL=0
      0100C27DH   BLOCK     CODE     NEAR LAB  LVL=1
      00000007H   SYMBOL    DATA     BYTE      ctrl
      ---         BLOCKEND  ---      ---       LVL=1
      0100C27DH   LINE      CODE     ---       #84
      0100C27DH   LINE      CODE     ---       #85
LX51 LINKER/LOCATER V4.64.0.0                                                         02/16/2023  11:05:26  PAGE 112


      0100C27DH   LINE      CODE     ---       #118
      0100C284H   LINE      CODE     ---       #120
      0100C287H   LINE      CODE     ---       #126
      0100C28EH   LINE      CODE     ---       #133
      0100C293H   LINE      CODE     ---       #136
      0100C298H   LINE      CODE     ---       #139
      0100C29DH   LINE      CODE     ---       #179
      ---         BLOCKEND  ---      ---       LVL=0

      0100C607H   BLOCK     CODE     ---       LVL=0
      0100C607H   LINE      CODE     ---       #199
      0100C607H   LINE      CODE     ---       #200
      0100C607H   LINE      CODE     ---       #209
      0100C60EH   LINE      CODE     ---       #211
      ---         BLOCKEND  ---      ---       LVL=0

      0100C670H   BLOCK     CODE     ---       LVL=0
      00000007H   SYMBOL    DATA     BYTE      counter
      0100C670H   LINE      CODE     ---       #403
      0100C670H   LINE      CODE     ---       #405
      0100C670H   LINE      CODE     ---       #406
      0100C675H   LINE      CODE     ---       #407
      ---         BLOCKEND  ---      ---       LVL=0

      0100C676H   BLOCK     CODE     ---       LVL=0
      00000007H   SYMBOL    DATA     BYTE      period
      0100C676H   LINE      CODE     ---       #482
      0100C676H   LINE      CODE     ---       #483
      0100C676H   LINE      CODE     ---       #487
      0100C67BH   LINE      CODE     ---       #489
      ---         BLOCKEND  ---      ---       LVL=0

      0100C67CH   BLOCK     CODE     ---       LVL=0
      00000007H   SYMBOL    DATA     BYTE      compare
      0100C67CH   LINE      CODE     ---       #516
      0100C67CH   LINE      CODE     ---       #518
      0100C67CH   LINE      CODE     ---       #522
      0100C681H   LINE      CODE     ---       #532
      ---         BLOCKEND  ---      ---       LVL=0
      00000007H   SYMBOL    DATA     BYTE      result
      00000007H   SYMBOL    DATA     BYTE      control

      ---         MODULE    ---      ---       LED_CTRL
      0100C682H   PUBLIC    CODE     ---       _LED_CTRL_Write

      0100C682H   BLOCK     CODE     ---       LVL=0
      00000007H   SYMBOL    DATA     BYTE      control
      0100C682H   LINE      CODE     ---       #37
      0100C682H   LINE      CODE     ---       #38
      0100C682H   LINE      CODE     ---       #39
      0100C687H   LINE      CODE     ---       #40
      ---         BLOCKEND  ---      ---       LVL=0

      ---         MODULE    ---      ---       LED_BLINK_EN
      0100C688H   PUBLIC    CODE     ---       _LED_BLINK_EN_Write

      0100C688H   BLOCK     CODE     ---       LVL=0
      00000007H   SYMBOL    DATA     BYTE      control
      0100C688H   LINE      CODE     ---       #37
      0100C688H   LINE      CODE     ---       #38
      0100C688H   LINE      CODE     ---       #39
      0100C68DH   LINE      CODE     ---       #40
      ---         BLOCKEND  ---      ---       LVL=0

      ---         MODULE    ---      ---       CYBOOTASMKEIL
LX51 LINKER/LOCATER V4.64.0.0                                                         02/16/2023  11:05:26  PAGE 113


      0100C3FCH   PUBLIC    CODE     NEAR LAB  CyEnterCriticalSection
      0100C000H   PUBLIC    CODE     NEAR LAB  _CyDelayCycles
      0100C190H   PUBLIC    CODE     NEAR LAB  _CyDelayUs
      0100C3B9H   PUBLIC    CODE     NEAR LAB  _CyExitCriticalSection

      ---         MODULE    ---      ---       CYMEM
      02000005H   PUBLIC    XDATA    BYTE      ?_cyconfigcpy?BYTE
      0100BF9AH   PUBLIC    CODE     NEAR LAB  _cyconfigcpy
      0100C4F5H   PUBLIC    CODE     NEAR LAB  _cyread16
      0100C4F7H   PUBLIC    CODE     NEAR LAB  _cyread16_nodpx
      0100C4AFH   PUBLIC    CODE     NEAR LAB  _cyread24
      0100C4B1H   PUBLIC    CODE     NEAR LAB  _cyread24_nodpx
      0100C571H   PUBLIC    CODE     NEAR LAB  _cyread8
      0100C573H   PUBLIC    CODE     NEAR LAB  _cyread8_nodpx
      0100C504H   PUBLIC    CODE     NEAR LAB  _cywrite16
      0100C506H   PUBLIC    CODE     NEAR LAB  _cywrite16_nodpx
      0100C4D4H   PUBLIC    CODE     NEAR LAB  _cywrite24
      0100C4D6H   PUBLIC    CODE     NEAR LAB  _cywrite24_nodpx
      0100C57DH   PUBLIC    CODE     NEAR LAB  _cywrite8
      0100C57FH   PUBLIC    CODE     NEAR LAB  _cywrite8_nodpx

      ---         MODULE    ---      ---       ?C_STARTUP
      00000000H   PUBLIC    NUMBER   ---       ?C?XPAGE1RST
      00000093H   PUBLIC    DATA     BYTE      ?C?XPAGE1SFR
      01002600H   PUBLIC    CODE     NEAR LAB  ?C_STARTUP
      0100A533H   PUBLIC    CODE     NEAR LAB  STARTUP1
      01002604H   PUBLIC    CODE     NEAR LAB  _dma_wait

      ---         MODULE    ---      ---       UART_RS485_INT
      0100AF1CH   PUBLIC    CODE     ---       UART_RS485_RXISR
      000000CAH   SFRSYM    DATA     BYTE      SFRPRT5SEL
      000000DAH   SFRSYM    DATA     BYTE      SFRPRT6SEL
      000000D0H.6 SFRSYM    DATA     BIT       AC
      000000A8H.7 SFRSYM    DATA     BIT       EA
      000000A8H   SFRSYM    DATA     BYTE      IE
      00000085H   SFRSYM    DATA     BYTE      DPH1
      00000084H   SFRSYM    DATA     BYTE      DPL1
      000000D0H.7 SFRSYM    DATA     BIT       CY
      000000A0H   SFRSYM    DATA     BYTE      P2AX
      00000095H   SFRSYM    DATA     BYTE      DPX1
      00000081H   SFRSYM    DATA     BYTE      SP
      000000D0H.2 SFRSYM    DATA     BIT       OV
      00000080H   SFRSYM    DATA     BYTE      SFRPRT0DR
      00000090H   SFRSYM    DATA     BYTE      SFRPRT1DR
      000000F2H   SFRSYM    DATA     BYTE      SFRPRT12SEL
      00000098H   SFRSYM    DATA     BYTE      SFRPRT2DR
      000000B0H   SFRSYM    DATA     BYTE      SFRPRT3DR
      000000C0H   SFRSYM    DATA     BYTE      SFRPRT4DR
      000000FAH   SFRSYM    DATA     BYTE      SFRPRT15SEL
      000000C8H   SFRSYM    DATA     BYTE      SFRPRT5DR
      000000D8H   SFRSYM    DATA     BYTE      SFRPRT6DR
      00000089H   SFRSYM    DATA     BYTE      SFRPRT0PS
      00000091H   SFRSYM    DATA     BYTE      SFRPRT1PS
      00000099H   SFRSYM    DATA     BYTE      SFRPRT2PS
      000000B1H   SFRSYM    DATA     BYTE      SFRPRT3PS
      000000C1H   SFRSYM    DATA     BYTE      SFRPRT4PS
      000000C9H   SFRSYM    DATA     BYTE      SFRPRT5PS
      000000D9H   SFRSYM    DATA     BYTE      SFRPRT6PS
      000000EAH   SFRSYM    DATA     BYTE      MXAX
      000000F0H   SFRSYM    DATA     BYTE      B
      000000E0H   SFRSYM    DATA     BYTE      ACC
      000000D0H   SFRSYM    DATA     BIT       P
      000000D0H.3 SFRSYM    DATA     BIT       RS0
      000000D0H.4 SFRSYM    DATA     BIT       RS1
      00000083H   SFRSYM    DATA     BYTE      DPH
LX51 LINKER/LOCATER V4.64.0.0                                                         02/16/2023  11:05:26  PAGE 114


      000000E8H   SFRSYM    DATA     BYTE      SFRPRT12DR
      00000082H   SFRSYM    DATA     BYTE      DPL
      000000F8H   SFRSYM    DATA     BYTE      SFRPRT15DR
      00000086H   SFRSYM    DATA     BYTE      DPS
      000000E9H   SFRSYM    DATA     BYTE      SFRPRT12PS
      00000093H   SFRSYM    DATA     BYTE      DPX
      000000F9H   SFRSYM    DATA     BYTE      SFRPRT15PS
      000000D0H.5 SFRSYM    DATA     BIT       F0
      000000D0H.1 SFRSYM    DATA     BIT       F1
      0000008AH   SFRSYM    DATA     BYTE      SFRPRT0SEL
      000000D0H   SFRSYM    DATA     BYTE      PSW
      000000A2H   SFRSYM    DATA     BYTE      SFRPRT1SEL
      0000009AH   SFRSYM    DATA     BYTE      SFRPRT2SEL
      000000B2H   SFRSYM    DATA     BYTE      SFRPRT3SEL
      000000C2H   SFRSYM    DATA     BYTE      SFRPRT4SEL

      0100AF1CH   BLOCK     CODE     ---       LVL=0
      0100AF3FH   BLOCK     CODE     NEAR LAB  LVL=1
      00000006H   SYMBOL    DATA     BYTE      readData
      00000007H   SYMBOL    DATA     BYTE      readStatus
      00000003H   SYMBOL    DATA     BYTE      increment_pointer
      00000002H   SYMBOL    DATA     BYTE      int_en
      ---         BLOCKEND  ---      ---       LVL=1
      0100AF1CH   LINE      CODE     ---       #59
      0100AF3FH   LINE      CODE     ---       #63
      0100AF41H   LINE      CODE     ---       #79
      0100AF45H   LINE      CODE     ---       #80
      0100AF4DH   LINE      CODE     ---       #84
      0100AF4DH   LINE      CODE     ---       #86
      0100AF52H   LINE      CODE     ---       #90
      0100AF53H   LINE      CODE     ---       #95
      0100AF58H   LINE      CODE     ---       #96
      0100AF58H   LINE      CODE     ---       #101
      0100AF5EH   LINE      CODE     ---       #109
      0100AF5EH   LINE      CODE     ---       #111
      0100AF62H   LINE      CODE     ---       #112
      0100AF62H   LINE      CODE     ---       #114
      0100AF67H   LINE      CODE     ---       #141
      0100AF76H   LINE      CODE     ---       #142
      0100AF78H   LINE      CODE     ---       #146
      0100AF7BH   LINE      CODE     ---       #147
      0100AF7BH   LINE      CODE     ---       #148
      0100AF81H   LINE      CODE     ---       #149
      0100AF81H   LINE      CODE     ---       #150
      0100AF87H   LINE      CODE     ---       #151
      0100AF87H   LINE      CODE     ---       #153
      0100AF8DH   LINE      CODE     ---       #156
      0100AF93H   LINE      CODE     ---       #157
      0100AF93H   LINE      CODE     ---       #158
      0100AF95H   LINE      CODE     ---       #159
      0100AF95H   LINE      CODE     ---       #162
      0100AFA1H   LINE      CODE     ---       #163
      0100AFA1H   LINE      CODE     ---       #164
      0100AFA7H   LINE      CODE     ---       #172
      0100AFA7H   LINE      CODE     ---       #173
      0100AFA7H   LINE      CODE     ---       #174
      0100AFA7H   LINE      CODE     ---       #175
      0100AFABH   LINE      CODE     ---       #187
      0100AFB2H   LINE      CODE     ---       #189
      ---         BLOCKEND  ---      ---       LVL=0

      ---         MODULE    ---      ---       ADC_INT
      0100C69CH   PUBLIC    CODE     ---       ADC_ISR4
      0100C69BH   PUBLIC    CODE     ---       ADC_ISR3
      0100C69AH   PUBLIC    CODE     ---       ADC_ISR2
LX51 LINKER/LOCATER V4.64.0.0                                                         02/16/2023  11:05:26  PAGE 115


      0100C699H   PUBLIC    CODE     ---       ADC_ISR1
      000000CAH   SFRSYM    DATA     BYTE      SFRPRT5SEL
      000000DAH   SFRSYM    DATA     BYTE      SFRPRT6SEL
      000000D0H.6 SFRSYM    DATA     BIT       AC
      000000A8H.7 SFRSYM    DATA     BIT       EA
      000000A8H   SFRSYM    DATA     BYTE      IE
      00000085H   SFRSYM    DATA     BYTE      DPH1
      00000084H   SFRSYM    DATA     BYTE      DPL1
      000000D0H.7 SFRSYM    DATA     BIT       CY
      000000A0H   SFRSYM    DATA     BYTE      P2AX
      00000095H   SFRSYM    DATA     BYTE      DPX1
      00000081H   SFRSYM    DATA     BYTE      SP
      000000D0H.2 SFRSYM    DATA     BIT       OV
      00000080H   SFRSYM    DATA     BYTE      SFRPRT0DR
      00000090H   SFRSYM    DATA     BYTE      SFRPRT1DR
      000000F2H   SFRSYM    DATA     BYTE      SFRPRT12SEL
      00000098H   SFRSYM    DATA     BYTE      SFRPRT2DR
      000000B0H   SFRSYM    DATA     BYTE      SFRPRT3DR
      000000C0H   SFRSYM    DATA     BYTE      SFRPRT4DR
      000000FAH   SFRSYM    DATA     BYTE      SFRPRT15SEL
      000000C8H   SFRSYM    DATA     BYTE      SFRPRT5DR
      000000D8H   SFRSYM    DATA     BYTE      SFRPRT6DR
      00000089H   SFRSYM    DATA     BYTE      SFRPRT0PS
      00000091H   SFRSYM    DATA     BYTE      SFRPRT1PS
      00000099H   SFRSYM    DATA     BYTE      SFRPRT2PS
      000000B1H   SFRSYM    DATA     BYTE      SFRPRT3PS
      000000C1H   SFRSYM    DATA     BYTE      SFRPRT4PS
      000000C9H   SFRSYM    DATA     BYTE      SFRPRT5PS
      000000D9H   SFRSYM    DATA     BYTE      SFRPRT6PS
      000000EAH   SFRSYM    DATA     BYTE      MXAX
      000000F0H   SFRSYM    DATA     BYTE      B
      000000E0H   SFRSYM    DATA     BYTE      ACC
      000000D0H   SFRSYM    DATA     BIT       P
      000000D0H.3 SFRSYM    DATA     BIT       RS0
      000000D0H.4 SFRSYM    DATA     BIT       RS1
      00000083H   SFRSYM    DATA     BYTE      DPH
      000000E8H   SFRSYM    DATA     BYTE      SFRPRT12DR
      00000082H   SFRSYM    DATA     BYTE      DPL
      000000F8H   SFRSYM    DATA     BYTE      SFRPRT15DR
      00000086H   SFRSYM    DATA     BYTE      DPS
      000000E9H   SFRSYM    DATA     BYTE      SFRPRT12PS
      00000093H   SFRSYM    DATA     BYTE      DPX
      000000F9H   SFRSYM    DATA     BYTE      SFRPRT15PS
      000000D0H.5 SFRSYM    DATA     BIT       F0
      000000D0H.1 SFRSYM    DATA     BIT       F1
      0000008AH   SFRSYM    DATA     BYTE      SFRPRT0SEL
      000000D0H   SFRSYM    DATA     BYTE      PSW
      000000A2H   SFRSYM    DATA     BYTE      SFRPRT1SEL
      0000009AH   SFRSYM    DATA     BYTE      SFRPRT2SEL
      000000B2H   SFRSYM    DATA     BYTE      SFRPRT3SEL
      000000C2H   SFRSYM    DATA     BYTE      SFRPRT4SEL

      0100C699H   BLOCK     CODE     ---       LVL=0
      0100C699H   LINE      CODE     ---       #51
      0100C699H   LINE      CODE     ---       #81
      ---         BLOCKEND  ---      ---       LVL=0

      0100C69AH   BLOCK     CODE     ---       LVL=0
      0100C69AH   LINE      CODE     ---       #101
      0100C69AH   LINE      CODE     ---       #131
      ---         BLOCKEND  ---      ---       LVL=0

      0100C69BH   BLOCK     CODE     ---       LVL=0
      0100C69BH   LINE      CODE     ---       #151
      0100C69BH   LINE      CODE     ---       #181
LX51 LINKER/LOCATER V4.64.0.0                                                         02/16/2023  11:05:26  PAGE 116


      ---         BLOCKEND  ---      ---       LVL=0

      0100C69CH   BLOCK     CODE     ---       LVL=0
      0100C69CH   LINE      CODE     ---       #201
      0100C69CH   LINE      CODE     ---       #231
      ---         BLOCKEND  ---      ---       LVL=0

      ---         MODULE    ---      ---       ADC_AMUX
      0100C388H   PUBLIC    CODE     ---       _ADC_AMux_Select
      0100C29EH   PUBLIC    CODE     ---       ADC_AMux_Start
      0200107DH   SYMBOL    XDATA    BYTE      ADC_AMux_lastChannel

      0100C29EH   BLOCK     CODE     ---       LVL=0
      0100C29EH   BLOCK     CODE     NEAR LAB  LVL=1
      02000004H   SYMBOL    XDATA    BYTE      chan
      ---         BLOCKEND  ---      ---       LVL=1
      0100C29EH   LINE      CODE     ---       #36
      0100C29EH   LINE      CODE     ---       #37
      0100C29EH   LINE      CODE     ---       #40
      0100C2ADH   LINE      CODE     ---       #41
      0100C2ADH   LINE      CODE     ---       #43
      0100C2B0H   LINE      CODE     ---       #48
      0100C2B8H   LINE      CODE     ---       #50
      0100C2BEH   LINE      CODE     ---       #51
      ---         BLOCKEND  ---      ---       LVL=0

      0100C388H   BLOCK     CODE     ---       LVL=0
      02000003H   SYMBOL    XDATA    BYTE      channel
      0100C388H   LINE      CODE     ---       #69
      0100C38DH   LINE      CODE     ---       #70
      0100C38DH   LINE      CODE     ---       #71
      0100C390H   LINE      CODE     ---       #72
      0100C398H   LINE      CODE     ---       #73
      0100C3A0H   LINE      CODE     ---       #74
      ---         BLOCKEND  ---      ---       LVL=0

      ---         MODULE    ---      ---       ADC_EXT_CP_CLK
      0100C60FH   PUBLIC    CODE     ---       ADC_Ext_CP_Clk_GetSourceRegister
      0100C557H   PUBLIC    CODE     ---       _ADC_Ext_CP_Clk_SetModeRegister
      0100C5DBH   PUBLIC    CODE     ---       ADC_Ext_CP_Clk_GetDividerRegister
      0100A073H   PUBLIC    CODE     ---       _ADC_Ext_CP_Clk_SetDividerRegister
      00000007H   SYMBOL    DATA     BYTE      state

      0100A073H   BLOCK     CODE     ---       LVL=0
      02000003H   SYMBOL    XDATA    WORD      clkDivider
      02000005H   SYMBOL    XDATA    BYTE      restart
      0100A07EH   BLOCK     CODE     NEAR LAB  LVL=1
      02000006H   SYMBOL    XDATA    BYTE      enabled
      02000007H   SYMBOL    XDATA    BYTE      currSrc
      02000008H   SYMBOL    XDATA    WORD      oldDivider
      ---         BLOCKEND  ---      ---       LVL=1
      0100A073H   LINE      CODE     ---       #193
      0100A07EH   LINE      CODE     ---       #195
      0100A07EH   LINE      CODE     ---       #198
      0100A086H   LINE      CODE     ---       #199
      0100A091H   LINE      CODE     ---       #201
      0100A0A3H   LINE      CODE     ---       #202
      0100A0A3H   LINE      CODE     ---       #203
      0100A0ADH   LINE      CODE     ---       #205
      0100A0BEH   LINE      CODE     ---       #206
      0100A0BEH   LINE      CODE     ---       #208
      0100A0C2H   LINE      CODE     ---       #209
      0100A0C2H   LINE      CODE     ---       #213
      0100A0CBH   LINE      CODE     ---       #214
      0100A0D2H   LINE      CODE     ---       #215
LX51 LINKER/LOCATER V4.64.0.0                                                         02/16/2023  11:05:26  PAGE 117


      0100A0D3H   LINE      CODE     ---       #217
      0100A0D3H   LINE      CODE     ---       #220
      0100A0DAH   LINE      CODE     ---       #221
      0100A0EBH   LINE      CODE     ---       #222
      0100A0EBH   LINE      CODE     ---       #223
      0100A0ECH   LINE      CODE     ---       #225
      0100A0ECH   LINE      CODE     ---       #227
      0100A0F2H   LINE      CODE     ---       #228
      0100A0F2H   LINE      CODE     ---       #229
      0100A0F7H   LINE      CODE     ---       #236
      0100A0FDH   LINE      CODE     ---       #237
      0100A102H   LINE      CODE     ---       #240
      0100A109H   LINE      CODE     ---       #243
      0100A11BH   LINE      CODE     ---       #244
      0100A11BH   LINE      CODE     ---       #246
      0100A12CH   LINE      CODE     ---       #247
      0100A132H   LINE      CODE     ---       #250
      0100A13AH   LINE      CODE     ---       #253
      0100A141H   LINE      CODE     ---       #257
      0100A146H   LINE      CODE     ---       #259
      0100A146H   LINE      CODE     ---       #260
      0100A146H   LINE      CODE     ---       #263
      0100A14EH   LINE      CODE     ---       #264
      0100A14EH   LINE      CODE     ---       #266
      0100A15FH   LINE      CODE     ---       #268
      0100A172H   LINE      CODE     ---       #269
      0100A17CH   LINE      CODE     ---       #270
      0100A17DH   LINE      CODE     ---       #272
      0100A17DH   LINE      CODE     ---       #274
      0100A18EH   LINE      CODE     ---       #275
      0100A1A3H   LINE      CODE     ---       #276
      0100A1A3H   LINE      CODE     ---       #277
      0100A1A3H   LINE      CODE     ---       #278
      0100A1A3H   LINE      CODE     ---       #279
      ---         BLOCKEND  ---      ---       LVL=0

      0100C5DBH   BLOCK     CODE     ---       LVL=0
      0100C5DBH   LINE      CODE     ---       #297
      0100C5DBH   LINE      CODE     ---       #298
      0100C5DBH   LINE      CODE     ---       #299
      0100C5E4H   LINE      CODE     ---       #300
      ---         BLOCKEND  ---      ---       LVL=0

      0100C557H   BLOCK     CODE     ---       LVL=0
      00000007H   SYMBOL    DATA     BYTE      modeBitMask
      0100C557H   LINE      CODE     ---       #332
      0100C557H   LINE      CODE     ---       #333
      0100C557H   LINE      CODE     ---       #334
      0100C563H   LINE      CODE     ---       #335
      ---         BLOCKEND  ---      ---       LVL=0
      00000007H   SYMBOL    DATA     BYTE      modeBitMask
      00000007H   SYMBOL    DATA     BYTE      oldSrc

      0100C60FH   BLOCK     CODE     ---       LVL=0
      0100C60FH   LINE      CODE     ---       #464
      0100C60FH   LINE      CODE     ---       #465
      0100C60FH   LINE      CODE     ---       #466
      0100C616H   LINE      CODE     ---       #467
      ---         BLOCKEND  ---      ---       LVL=0

      ---         MODULE    ---      ---       ADC_THEACLK
      0100C617H   PUBLIC    CODE     ---       ADC_theACLK_GetSourceRegister
      0100C564H   PUBLIC    CODE     ---       _ADC_theACLK_SetModeRegister
      0100C5E5H   PUBLIC    CODE     ---       ADC_theACLK_GetDividerRegister
      0100A404H   PUBLIC    CODE     ---       _ADC_theACLK_SetDividerRegister
LX51 LINKER/LOCATER V4.64.0.0                                                         02/16/2023  11:05:26  PAGE 118


      00000007H   SYMBOL    DATA     BYTE      state

      0100A404H   BLOCK     CODE     ---       LVL=0
      02000003H   SYMBOL    XDATA    WORD      clkDivider
      02000005H   SYMBOL    XDATA    BYTE      restart
      0100A40FH   BLOCK     CODE     NEAR LAB  LVL=1
      02000006H   SYMBOL    XDATA    BYTE      enabled
      02000007H   SYMBOL    XDATA    BYTE      currSrc
      02000008H   SYMBOL    XDATA    WORD      oldDivider
      ---         BLOCKEND  ---      ---       LVL=1
      0100A404H   LINE      CODE     ---       #193
      0100A40FH   LINE      CODE     ---       #195
      0100A40FH   LINE      CODE     ---       #198
      0100A417H   LINE      CODE     ---       #199
      0100A422H   LINE      CODE     ---       #201
      0100A434H   LINE      CODE     ---       #202
      0100A434H   LINE      CODE     ---       #203
      0100A43EH   LINE      CODE     ---       #205
      0100A44FH   LINE      CODE     ---       #206
      0100A44FH   LINE      CODE     ---       #208
      0100A453H   LINE      CODE     ---       #209
      0100A453H   LINE      CODE     ---       #213
      0100A45BH   LINE      CODE     ---       #214
      0100A462H   LINE      CODE     ---       #215
      0100A463H   LINE      CODE     ---       #217
      0100A463H   LINE      CODE     ---       #220
      0100A46AH   LINE      CODE     ---       #221
      0100A47BH   LINE      CODE     ---       #222
      0100A47BH   LINE      CODE     ---       #223
      0100A47CH   LINE      CODE     ---       #225
      0100A47CH   LINE      CODE     ---       #227
      0100A482H   LINE      CODE     ---       #228
      0100A482H   LINE      CODE     ---       #229
      0100A487H   LINE      CODE     ---       #233
      0100A48CH   LINE      CODE     ---       #234
      0100A491H   LINE      CODE     ---       #240
      0100A498H   LINE      CODE     ---       #243
      0100A4AAH   LINE      CODE     ---       #244
      0100A4AAH   LINE      CODE     ---       #246
      0100A4BBH   LINE      CODE     ---       #247
      0100A4C1H   LINE      CODE     ---       #250
      0100A4C9H   LINE      CODE     ---       #253
      0100A4D0H   LINE      CODE     ---       #257
      0100A4D5H   LINE      CODE     ---       #259
      0100A4D5H   LINE      CODE     ---       #260
      0100A4D5H   LINE      CODE     ---       #263
      0100A4DDH   LINE      CODE     ---       #264
      0100A4DDH   LINE      CODE     ---       #266
      0100A4EEH   LINE      CODE     ---       #268
      0100A501H   LINE      CODE     ---       #269
      0100A50BH   LINE      CODE     ---       #270
      0100A50CH   LINE      CODE     ---       #272
      0100A50CH   LINE      CODE     ---       #274
      0100A51DH   LINE      CODE     ---       #275
      0100A532H   LINE      CODE     ---       #276
      0100A532H   LINE      CODE     ---       #277
      0100A532H   LINE      CODE     ---       #278
      0100A532H   LINE      CODE     ---       #279
      ---         BLOCKEND  ---      ---       LVL=0

      0100C5E5H   BLOCK     CODE     ---       LVL=0
      0100C5E5H   LINE      CODE     ---       #297
      0100C5E5H   LINE      CODE     ---       #298
      0100C5E5H   LINE      CODE     ---       #299
      0100C5EEH   LINE      CODE     ---       #300
LX51 LINKER/LOCATER V4.64.0.0                                                         02/16/2023  11:05:26  PAGE 119


      ---         BLOCKEND  ---      ---       LVL=0

      0100C564H   BLOCK     CODE     ---       LVL=0
      00000007H   SYMBOL    DATA     BYTE      modeBitMask
      0100C564H   LINE      CODE     ---       #332
      0100C564H   LINE      CODE     ---       #333
      0100C564H   LINE      CODE     ---       #334
      0100C570H   LINE      CODE     ---       #335
      ---         BLOCKEND  ---      ---       LVL=0
      00000007H   SYMBOL    DATA     BYTE      modeBitMask
      00000007H   SYMBOL    DATA     BYTE      oldSrc

      0100C617H   BLOCK     CODE     ---       LVL=0
      0100C617H   LINE      CODE     ---       #464
      0100C617H   LINE      CODE     ---       #465
      0100C617H   LINE      CODE     ---       #466
      0100C61EH   LINE      CODE     ---       #467
      ---         BLOCKEND  ---      ---       LVL=0
      00000007H   SYMBOL    DATA     BYTE      clkPhase

      ---         MODULE    ---      ---       CYPM
      000000CAH   SFRSYM    DATA     BYTE      SFRPRT5SEL
      000000DAH   SFRSYM    DATA     BYTE      SFRPRT6SEL
      000000D0H.6 SFRSYM    DATA     BIT       AC
      000000A8H.7 SFRSYM    DATA     BIT       EA
      000000A8H   SFRSYM    DATA     BYTE      IE
      00000085H   SFRSYM    DATA     BYTE      DPH1
      00000084H   SFRSYM    DATA     BYTE      DPL1
      000000D0H.7 SFRSYM    DATA     BIT       CY
      000000A0H   SFRSYM    DATA     BYTE      P2AX
      00000095H   SFRSYM    DATA     BYTE      DPX1
      00000081H   SFRSYM    DATA     BYTE      SP
      000000D0H.2 SFRSYM    DATA     BIT       OV
      00000080H   SFRSYM    DATA     BYTE      SFRPRT0DR
      00000090H   SFRSYM    DATA     BYTE      SFRPRT1DR
      000000F2H   SFRSYM    DATA     BYTE      SFRPRT12SEL
      00000098H   SFRSYM    DATA     BYTE      SFRPRT2DR
      000000B0H   SFRSYM    DATA     BYTE      SFRPRT3DR
      000000C0H   SFRSYM    DATA     BYTE      SFRPRT4DR
      000000FAH   SFRSYM    DATA     BYTE      SFRPRT15SEL
      000000C8H   SFRSYM    DATA     BYTE      SFRPRT5DR
      000000D8H   SFRSYM    DATA     BYTE      SFRPRT6DR
      00000089H   SFRSYM    DATA     BYTE      SFRPRT0PS
      00000091H   SFRSYM    DATA     BYTE      SFRPRT1PS
      00000099H   SFRSYM    DATA     BYTE      SFRPRT2PS
      000000B1H   SFRSYM    DATA     BYTE      SFRPRT3PS
      000000C1H   SFRSYM    DATA     BYTE      SFRPRT4PS
      000000C9H   SFRSYM    DATA     BYTE      SFRPRT5PS
      000000D9H   SFRSYM    DATA     BYTE      SFRPRT6PS
      000000EAH   SFRSYM    DATA     BYTE      MXAX
      000000F0H   SFRSYM    DATA     BYTE      B
      000000E0H   SFRSYM    DATA     BYTE      ACC
      000000D0H   SFRSYM    DATA     BIT       P
      000000D0H.3 SFRSYM    DATA     BIT       RS0
      000000D0H.4 SFRSYM    DATA     BIT       RS1
      00000083H   SFRSYM    DATA     BYTE      DPH
      000000E8H   SFRSYM    DATA     BYTE      SFRPRT12DR
      00000082H   SFRSYM    DATA     BYTE      DPL
      000000F8H   SFRSYM    DATA     BYTE      SFRPRT15DR
      00000086H   SFRSYM    DATA     BYTE      DPS
      000000E9H   SFRSYM    DATA     BYTE      SFRPRT12PS
      00000093H   SFRSYM    DATA     BYTE      DPX
      000000F9H   SFRSYM    DATA     BYTE      SFRPRT15PS
      000000D0H.5 SFRSYM    DATA     BIT       F0
      000000D0H.1 SFRSYM    DATA     BIT       F1
LX51 LINKER/LOCATER V4.64.0.0                                                         02/16/2023  11:05:26  PAGE 120


      0000008AH   SFRSYM    DATA     BYTE      SFRPRT0SEL
      000000D0H   SFRSYM    DATA     BYTE      PSW
      000000A2H   SFRSYM    DATA     BYTE      SFRPRT1SEL
      0000009AH   SFRSYM    DATA     BYTE      SFRPRT2SEL
      000000B2H   SFRSYM    DATA     BYTE      SFRPRT3SEL
      000000C2H   SFRSYM    DATA     BYTE      SFRPRT4SEL
      02000FE0H   SYMBOL    XDATA    ---       cyPmClockBackup
      02000FF0H   SYMBOL    XDATA    ---       cyPmBackup
      00000006H   SYMBOL    DATA     WORD      clkBusDivTmp
      02000FDFH   SYMBOL    XDATA    BYTE      interruptStatus
      00000005H   SYMBOL    DATA     BYTE      interruptState

      ---         MODULE    ---      ---       CYSPC
      0200107EH   PUBLIC    XDATA    BYTE      SpcLockState
      0100C33BH   PUBLIC    CODE     ---       CySpcGetAlgorithm
      0100C589H   PUBLIC    CODE     ---       CySpcUnlock
      0100C2FEH   PUBLIC    CODE     ---       CySpcLock
      0100C15FH   PUBLIC    CODE     ---       _CySpcGetTemp
      02000053H   PUBLIC    XDATA    BYTE      ?_CySpcWriteRow?BYTE
      0100BAD8H   PUBLIC    CODE     ---       _CySpcWriteRow
      02000053H   PUBLIC    XDATA    BYTE      ?_CySpcLoadRow?BYTE
      0100B770H   PUBLIC    CODE     ---       _CySpcLoadRow
      0100B91BH   PUBLIC    CODE     ---       _CySpcReadData
      0100C411H   PUBLIC    CODE     ---       CySpcStart
      000000CAH   SFRSYM    DATA     BYTE      SFRPRT5SEL
      000000DAH   SFRSYM    DATA     BYTE      SFRPRT6SEL
      000000D0H.6 SFRSYM    DATA     BIT       AC
      000000A8H.7 SFRSYM    DATA     BIT       EA
      000000A8H   SFRSYM    DATA     BYTE      IE
      00000085H   SFRSYM    DATA     BYTE      DPH1
      00000084H   SFRSYM    DATA     BYTE      DPL1
      000000D0H.7 SFRSYM    DATA     BIT       CY
      000000A0H   SFRSYM    DATA     BYTE      P2AX
      00000095H   SFRSYM    DATA     BYTE      DPX1
      00000081H   SFRSYM    DATA     BYTE      SP
      000000D0H.2 SFRSYM    DATA     BIT       OV
      00000080H   SFRSYM    DATA     BYTE      SFRPRT0DR
      00000090H   SFRSYM    DATA     BYTE      SFRPRT1DR
      000000F2H   SFRSYM    DATA     BYTE      SFRPRT12SEL
      00000098H   SFRSYM    DATA     BYTE      SFRPRT2DR
      000000B0H   SFRSYM    DATA     BYTE      SFRPRT3DR
      000000C0H   SFRSYM    DATA     BYTE      SFRPRT4DR
      000000FAH   SFRSYM    DATA     BYTE      SFRPRT15SEL
      000000C8H   SFRSYM    DATA     BYTE      SFRPRT5DR
      000000D8H   SFRSYM    DATA     BYTE      SFRPRT6DR
      00000089H   SFRSYM    DATA     BYTE      SFRPRT0PS
      00000091H   SFRSYM    DATA     BYTE      SFRPRT1PS
      00000099H   SFRSYM    DATA     BYTE      SFRPRT2PS
      000000B1H   SFRSYM    DATA     BYTE      SFRPRT3PS
      000000C1H   SFRSYM    DATA     BYTE      SFRPRT4PS
      000000C9H   SFRSYM    DATA     BYTE      SFRPRT5PS
      000000D9H   SFRSYM    DATA     BYTE      SFRPRT6PS
      000000EAH   SFRSYM    DATA     BYTE      MXAX
      000000F0H   SFRSYM    DATA     BYTE      B
      000000E0H   SFRSYM    DATA     BYTE      ACC
      000000D0H   SFRSYM    DATA     BIT       P
      000000D0H.3 SFRSYM    DATA     BIT       RS0
      000000D0H.4 SFRSYM    DATA     BIT       RS1
      00000083H   SFRSYM    DATA     BYTE      DPH
      000000E8H   SFRSYM    DATA     BYTE      SFRPRT12DR
      00000082H   SFRSYM    DATA     BYTE      DPL
      000000F8H   SFRSYM    DATA     BYTE      SFRPRT15DR
      00000086H   SFRSYM    DATA     BYTE      DPS
      000000E9H   SFRSYM    DATA     BYTE      SFRPRT12PS
      00000093H   SFRSYM    DATA     BYTE      DPX
LX51 LINKER/LOCATER V4.64.0.0                                                         02/16/2023  11:05:26  PAGE 121


      000000F9H   SFRSYM    DATA     BYTE      SFRPRT15PS
      000000D0H.5 SFRSYM    DATA     BIT       F0
      000000D0H.1 SFRSYM    DATA     BIT       F1
      0000008AH   SFRSYM    DATA     BYTE      SFRPRT0SEL
      000000D0H   SFRSYM    DATA     BYTE      PSW
      000000A2H   SFRSYM    DATA     BYTE      SFRPRT1SEL
      0000009AH   SFRSYM    DATA     BYTE      SFRPRT2SEL
      000000B2H   SFRSYM    DATA     BYTE      SFRPRT3SEL
      000000C2H   SFRSYM    DATA     BYTE      SFRPRT4SEL

      0100C411H   BLOCK     CODE     ---       LVL=0
      0100C411H   BLOCK     CODE     NEAR LAB  LVL=1
      00000007H   SYMBOL    DATA     BYTE      interruptState
      ---         BLOCKEND  ---      ---       LVL=1
      0100C411H   LINE      CODE     ---       #71
      0100C411H   LINE      CODE     ---       #72
      0100C411H   LINE      CODE     ---       #74
      0100C414H   LINE      CODE     ---       #76
      0100C41BH   LINE      CODE     ---       #77
      0100C422H   LINE      CODE     ---       #80
      0100C425H   LINE      CODE     ---       #81
      ---         BLOCKEND  ---      ---       LVL=0
      00000007H   SYMBOL    DATA     BYTE      interruptState

      0100B91BH   BLOCK     CODE     ---       LVL=0
      02000050H   SYMBOL    XDATA    ---       buffer
      02000053H   SYMBOL    XDATA    BYTE      size
      0100B929H   BLOCK     CODE     NEAR LAB  LVL=1
      02000054H   SYMBOL    XDATA    BYTE      i
      ---         BLOCKEND  ---      ---       LVL=1
      0100B91BH   LINE      CODE     ---       #119
      0100B929H   LINE      CODE     ---       #120
      0100B929H   LINE      CODE     ---       #123
      0100B937H   LINE      CODE     ---       #124
      0100B937H   LINE      CODE     ---       #125
      0100B945H   LINE      CODE     ---       #126
      0100B945H   LINE      CODE     ---       #127
      0100B94CH   LINE      CODE     ---       #128
      0100B94EH   LINE      CODE     ---       #129
      0100B96DH   LINE      CODE     ---       #130
      0100B975H   LINE      CODE     ---       #132
      0100B97AH   LINE      CODE     ---       #133
      ---         BLOCKEND  ---      ---       LVL=0
      00000005H   SYMBOL    DATA     BYTE      status
      00000007H   SYMBOL    DATA     BYTE      i

      0100B770H   BLOCK     CODE     ---       LVL=0
      00000007H   SYMBOL    DATA     BYTE      array
      02000054H   SYMBOL    XDATA    ---       buffer
      02000057H   SYMBOL    XDATA    WORD      size
      0100B77BH   BLOCK     CODE     NEAR LAB  LVL=1
      02000059H   SYMBOL    XDATA    BYTE      status
      00000006H   SYMBOL    DATA     WORD      i
      ---         BLOCKEND  ---      ---       LVL=1
      0100B770H   LINE      CODE     ---       #238
      0100B77BH   LINE      CODE     ---       #239
      0100B77BH   LINE      CODE     ---       #240
      0100B781H   LINE      CODE     ---       #244
      0100B789H   LINE      CODE     ---       #245
      0100B789H   LINE      CODE     ---       #246
      0100B78FH   LINE      CODE     ---       #247
      0100B792H   LINE      CODE     ---       #248
      0100B795H   LINE      CODE     ---       #251
      0100B79DH   LINE      CODE     ---       #252
      0100B79DH   LINE      CODE     ---       #253
LX51 LINKER/LOCATER V4.64.0.0                                                         02/16/2023  11:05:26  PAGE 122


      0100B7A2H   LINE      CODE     ---       #255
      0100B7B2H   LINE      CODE     ---       #256
      0100B7B2H   LINE      CODE     ---       #257
      0100B7C8H   LINE      CODE     ---       #258
      0100B7CFH   LINE      CODE     ---       #259
      0100B7CFH   LINE      CODE     ---       #261
      0100B7CFH   LINE      CODE     ---       #262
      0100B7D5H   LINE      CODE     ---       #263
      0100B7D5H   LINE      CODE     ---       #264
      0100B7D7H   LINE      CODE     ---       #266
      0100B7D7H   LINE      CODE     ---       #267
      0100B7DDH   LINE      CODE     ---       #268
      0100B7DDH   LINE      CODE     ---       #270
      0100B7E2H   LINE      CODE     ---       #271
      ---         BLOCKEND  ---      ---       LVL=0

      0100BAD8H   BLOCK     CODE     ---       LVL=0
      00000004H   SYMBOL    DATA     BYTE      array
      02000054H   SYMBOL    XDATA    WORD      address
      00000003H   SYMBOL    DATA     BYTE      tempPolarity
      02000057H   SYMBOL    XDATA    BYTE      tempMagnitude
      0100BAE2H   BLOCK     CODE     NEAR LAB  LVL=1
      00000005H   SYMBOL    DATA     BYTE      status
      ---         BLOCKEND  ---      ---       LVL=1
      0100BAD8H   LINE      CODE     ---       #440
      0100BAE2H   LINE      CODE     ---       #442
      0100BAE2H   LINE      CODE     ---       #443
      0100BAE4H   LINE      CODE     ---       #446
      0100BAECH   LINE      CODE     ---       #447
      0100BAECH   LINE      CODE     ---       #448
      0100BAF2H   LINE      CODE     ---       #449
      0100BAF5H   LINE      CODE     ---       #450
      0100BAF8H   LINE      CODE     ---       #453
      0100BB00H   LINE      CODE     ---       #454
      0100BB00H   LINE      CODE     ---       #455
      0100BB05H   LINE      CODE     ---       #456
      0100BB0DH   LINE      CODE     ---       #457
      0100BB17H   LINE      CODE     ---       #458
      0100BB19H   LINE      CODE     ---       #459
      0100BB21H   LINE      CODE     ---       #460
      0100BB23H   LINE      CODE     ---       #462
      0100BB23H   LINE      CODE     ---       #463
      0100BB25H   LINE      CODE     ---       #464
      0100BB25H   LINE      CODE     ---       #465
      0100BB27H   LINE      CODE     ---       #467
      0100BB27H   LINE      CODE     ---       #468
      0100BB29H   LINE      CODE     ---       #469
      0100BB29H   LINE      CODE     ---       #471
      0100BB2BH   LINE      CODE     ---       #472
      ---         BLOCKEND  ---      ---       LVL=0
      00000007H   SYMBOL    DATA     BYTE      array
      00000005H   SYMBOL    DATA     BYTE      sectorNumber
      00000006H   SYMBOL    DATA     BYTE      status
      00000004H   SYMBOL    DATA     BYTE      array
      00000003H   SYMBOL    DATA     BYTE      tempPolarity
      00000005H   SYMBOL    DATA     BYTE      status

      0100C15FH   BLOCK     CODE     ---       LVL=0
      00000007H   SYMBOL    DATA     BYTE      numSamples
      0100C15FH   BLOCK     CODE     NEAR LAB  LVL=1
      00000006H   SYMBOL    DATA     BYTE      status
      ---         BLOCKEND  ---      ---       LVL=1
      0100C15FH   LINE      CODE     ---       #605
      0100C15FH   LINE      CODE     ---       #606
      0100C15FH   LINE      CODE     ---       #607
LX51 LINKER/LOCATER V4.64.0.0                                                         02/16/2023  11:05:26  PAGE 123


      0100C161H   LINE      CODE     ---       #610
      0100C169H   LINE      CODE     ---       #611
      0100C169H   LINE      CODE     ---       #612
      0100C16FH   LINE      CODE     ---       #613
      0100C172H   LINE      CODE     ---       #614
      0100C175H   LINE      CODE     ---       #617
      0100C17DH   LINE      CODE     ---       #618
      0100C17DH   LINE      CODE     ---       #619
      0100C182H   LINE      CODE     ---       #620
      0100C184H   LINE      CODE     ---       #622
      0100C184H   LINE      CODE     ---       #623
      0100C186H   LINE      CODE     ---       #624
      0100C186H   LINE      CODE     ---       #625
      0100C188H   LINE      CODE     ---       #627
      0100C188H   LINE      CODE     ---       #628
      0100C18AH   LINE      CODE     ---       #629
      0100C18AH   LINE      CODE     ---       #631
      0100C18CH   LINE      CODE     ---       #632
      ---         BLOCKEND  ---      ---       LVL=0

      0100C2FEH   BLOCK     CODE     ---       LVL=0
      0100C2FEH   BLOCK     CODE     NEAR LAB  LVL=1
      02000053H   SYMBOL    XDATA    BYTE      status
      00000007H   SYMBOL    DATA     BYTE      interruptState
      ---         BLOCKEND  ---      ---       LVL=1
      0100C2FEH   LINE      CODE     ---       #646
      0100C2FEH   LINE      CODE     ---       #647
      0100C2FEH   LINE      CODE     ---       #648
      0100C304H   LINE      CODE     ---       #652
      0100C307H   LINE      CODE     ---       #654
      0100C30DH   LINE      CODE     ---       #655
      0100C30DH   LINE      CODE     ---       #656
      0100C30FH   LINE      CODE     ---       #657
      0100C314H   LINE      CODE     ---       #675
      0100C314H   LINE      CODE     ---       #678
      0100C317H   LINE      CODE     ---       #680
      0100C31CH   LINE      CODE     ---       #681
      ---         BLOCKEND  ---      ---       LVL=0

      0100C589H   BLOCK     CODE     ---       LVL=0
      0100C589H   BLOCK     CODE     NEAR LAB  LVL=1
      00000007H   SYMBOL    DATA     BYTE      interruptState
      ---         BLOCKEND  ---      ---       LVL=1
      0100C589H   LINE      CODE     ---       #691
      0100C589H   LINE      CODE     ---       #692
      0100C589H   LINE      CODE     ---       #696
      0100C58CH   LINE      CODE     ---       #699
      0100C591H   LINE      CODE     ---       #719
      0100C594H   LINE      CODE     ---       #720
      ---         BLOCKEND  ---      ---       LVL=0

      0100C33BH   BLOCK     CODE     ---       LVL=0
      0100C33BH   BLOCK     CODE     NEAR LAB  LVL=1
      00000007H   SYMBOL    DATA     BYTE      status
      ---         BLOCKEND  ---      ---       LVL=1
      0100C33BH   LINE      CODE     ---       #733
      0100C33BH   LINE      CODE     ---       #734
      0100C33BH   LINE      CODE     ---       #735
      0100C33DH   LINE      CODE     ---       #738
      0100C345H   LINE      CODE     ---       #739
      0100C345H   LINE      CODE     ---       #740
      0100C34BH   LINE      CODE     ---       #741
      0100C34EH   LINE      CODE     ---       #742
      0100C351H   LINE      CODE     ---       #743
      0100C353H   LINE      CODE     ---       #745
LX51 LINKER/LOCATER V4.64.0.0                                                         02/16/2023  11:05:26  PAGE 124


      0100C353H   LINE      CODE     ---       #746
      0100C355H   LINE      CODE     ---       #747
      0100C355H   LINE      CODE     ---       #749
      0100C355H   LINE      CODE     ---       #750
      ---         BLOCKEND  ---      ---       LVL=0

      ---         MODULE    ---      ---       ?C?FPADD
      010065F5H   PUBLIC    CODE     ---       ?C?FPADD
      010065F1H   PUBLIC    CODE     ---       ?C?FPSUB

      ---         MODULE    ---      ---       ?C?FPMUL
      010066E6H   PUBLIC    CODE     ---       ?C?FPMUL

      ---         MODULE    ---      ---       ?C?FPDIV
      010067EFH   PUBLIC    CODE     ---       ?C?FPDIV

      ---         MODULE    ---      ---       ?C?FPCMP
      0100688EH   PUBLIC    CODE     ---       ?C?FPCMP
      0100688CH   PUBLIC    CODE     ---       ?C?FPCMP3

      ---         MODULE    ---      ---       ?C?FCAST
      0100690FH   PUBLIC    CODE     ---       ?C?FCASTC
      0100690AH   PUBLIC    CODE     ---       ?C?FCASTI
      01006905H   PUBLIC    CODE     ---       ?C?FCASTL

      ---         MODULE    ---      ---       ?C?CASTF
      01006943H   PUBLIC    CODE     ---       ?C?CASTF

      ---         MODULE    ---      ---       PRINTF
      020007AAH   PUBLIC    XDATA    ---       ?_PRINTF?BYTE
      020007AAH   PUBLIC    XDATA    ---       ?_SPRINTF?BYTE
      0100872CH   PUBLIC    CODE     ---       _PRINTF
      01008726H   PUBLIC    CODE     ---       _SPRINTF

      ---         MODULE    ---      ---       ?C?FPGETOPN
      0100697AH   PUBLIC    CODE     ---       ?C?FPGETOPN2
      010069AFH   PUBLIC    CODE     ---       ?C?FPNANRESULT
      010069B9H   PUBLIC    CODE     ---       ?C?FPOVERFLOW
      01006991H   PUBLIC    CODE     ---       ?C?FPRESULT
      010069A5H   PUBLIC    CODE     ---       ?C?FPRESULT2
      010069B6H   PUBLIC    CODE     ---       ?C?FPUNDERFLOW

      ---         MODULE    ---      ---       ?C?FPROUND
      010069C4H   PUBLIC    CODE     ---       ?C?FPROUND

      ---         MODULE    ---      ---       ?C?FPCONVERT
      01006A01H   PUBLIC    CODE     ---       ?C?FPCONVERT

      ---         MODULE    ---      ---       ?C?FTNPWR
      01006B36H   PUBLIC    CODE     ---       ?C?FTNPWR

      ---         MODULE    ---      ---       ?C_INIT
      0100A60EH   PUBLIC    CODE     ---       ?C_START

      ---         MODULE    ---      ---       ?C?CLDPTR
      01006B76H   PUBLIC    CODE     ---       ?C?CLDPTR

      ---         MODULE    ---      ---       ?C?CLDOPTR
      01006B8FH   PUBLIC    CODE     ---       ?C?CLDOPTR

      ---         MODULE    ---      ---       ?C?CSTPTR
      01006BBCH   PUBLIC    CODE     ---       ?C?CSTPTR

      ---         MODULE    ---      ---       ?C?ISTPTR
      01006BCEH   PUBLIC    CODE     ---       ?C?ISTPTR
LX51 LINKER/LOCATER V4.64.0.0                                                         02/16/2023  11:05:26  PAGE 125



      ---         MODULE    ---      ---       ?C?LMUL
      01006BEDH   PUBLIC    CODE     ---       ?C?LMUL

      ---         MODULE    ---      ---       ?C?ULDIV
      01006C78H   PUBLIC    CODE     ---       ?C?ULDIV

      ---         MODULE    ---      ---       ?C?SLDIV
      0100BD3EH   PUBLIC    CODE     ---       ?C?SLDIV

      ---         MODULE    ---      ---       ?C?LNOT
      01006D0AH   PUBLIC    CODE     ---       ?C?LNOT

      ---         MODULE    ---      ---       ?C?LNEG
      01006D17H   PUBLIC    CODE     ---       ?C?LNEG

      ---         MODULE    ---      ---       ?C?SLCMP
      01006D25H   PUBLIC    CODE     ---       ?C?SLCMP

      ---         MODULE    ---      ---       ?C?ULCMP
      01006D3BH   PUBLIC    CODE     ---       ?C?ULCMP

      ---         MODULE    ---      ---       ?C?ULSHR
      01006D4CH   PUBLIC    CODE     ---       ?C?ULSHR

      ---         MODULE    ---      ---       ?C?SLSHR
      01006D5FH   PUBLIC    CODE     ---       ?C?SLSHR

      ---         MODULE    ---      ---       ?C?LSHL
      01006D73H   PUBLIC    CODE     ---       ?C?LSHL

      ---         MODULE    ---      ---       ?C?LLDPTR
      01006D86H   PUBLIC    CODE     ---       ?C?LLDPTR

      ---         MODULE    ---      ---       ?C?LSTPTR
      01006DA6H   PUBLIC    CODE     ---       ?C?LSTPTR

      ---         MODULE    ---      ---       ?C?LSTXDATA
      01006DC0H   PUBLIC    CODE     ---       ?C?LSTXDATA

      ---         MODULE    ---      ---       ?C?OFFXADD
      01006DCCH   PUBLIC    CODE     ---       ?C?OFFXADD

      ---         MODULE    ---      ---       ?C?PLDIXDATA
      01006DD8H   PUBLIC    CODE     ---       ?C?PLDIXDATA

      ---         MODULE    ---      ---       ?C?PSTXDATA
      01006DEFH   PUBLIC    CODE     ---       ?C?PSTXDATA

      ---         MODULE    ---      ---       ?C?CCASE
      01006DF8H   PUBLIC    CODE     ---       ?C?CCASE

      ---         MODULE    ---      ---       ?C_XBP
      00000049H   PUBLIC    DATA     ---       ?C_XBP

      ---         MODULE    ---      ---       ?C?ADDXBP
      01006E1EH   PUBLIC    CODE     ---       ?C?ADDXBP

      ---         MODULE    ---      ---       ?C?LIMUL
      01006E42H   PUBLIC    CODE     ---       ?C?LIMUL

      ---         MODULE    ---      ---       PUTCHAR
      0100C212H   PUBLIC    CODE     ---       _PUTCHAR

      ---         MODULE    ---      ---       STRCAT
LX51 LINKER/LOCATER V4.64.0.0                                                         02/16/2023  11:05:26  PAGE 126


      02000CA8H   PUBLIC    XDATA    ---       ?_STRCAT?BYTE
      0100B84FH   PUBLIC    CODE     ---       _STRCAT

      ---         MODULE    ---      ---       STRLEN
      0100C426H   PUBLIC    CODE     ---       _STRLEN

      ---         MODULE    ---      ---       ?C?COPYAMD
      01006F2BH   PUBLIC    CODE     ---       ?C?COPYAMD

      ---         MODULE    ---      ---       ?C?STRCPYAMD
      01007009H   PUBLIC    CODE     ---       ?C?STRCPYAMD

      ---         MODULE    ---      ---       ?C?IILDX
      01007026H   PUBLIC    CODE     ---       ?C?IILDX

      ---         MODULE    ---      ---       ?C?ILDIX
      0100703CH   PUBLIC    CODE     ---       ?C?ILDIX

      ---         MODULE    ---      ---       ?C?LLDIDATA
      01007052H   PUBLIC    CODE     ---       ?C?LLDIDATA

      ---         MODULE    ---      ---       ?C?LLDXDATA
      0100705EH   PUBLIC    CODE     ---       ?C?LLDXDATA

      ---         MODULE    ---      ---       ?C?LLDPDATA
      0100706AH   PUBLIC    CODE     ---       ?C?LLDPDATA

      ---         MODULE    ---      ---       ?C?LLDCODE
      01007076H   PUBLIC    CODE     ---       ?C?LLDCODE

      ---         MODULE    ---      ---       ?C?LSTIDATA
      01007086H   PUBLIC    CODE     ---       ?C?LSTIDATA

      ---         MODULE    ---      ---       ?C?LSTPDATA
      01007092H   PUBLIC    CODE     ---       ?C?LSTPDATA



INTER-MODULE CROSS-REFERENCE LISTING


NAME . . . . . . . . . . . . . . . . CLASS    MODULE NAMES
==========================================================

?_Bootloadable_SetFlashByte?BYTE . . XDATA    BOOTLOADABLE  
?_calc_turns_fcn?BYTE. . . . . . . . XDATA    UTILS  
?_commWrite_old_id?BYTE. . . . . . . XDATA    COMMAND_PROCESSING  
?_commWriteID?BYTE . . . . . . . . . XDATA    COMMAND_PROCESSING  
?_cyconfigcpy?BYTE . . . . . . . . . XDATA    CYMEM  CYFITTER_CFG  
?_CyDmaChSetConfiguration?BYTE . . . XDATA    CYDMAC  DMA_DMA  
?_CyDmaChStatus?BYTE . . . . . . . . XDATA    CYDMAC  
?_CyDmaTdGetAddress?BYTE . . . . . . XDATA    CYDMAC  
?_CyDmaTdGetConfiguration?BYTE . . . XDATA    CYDMAC  
?_CyDmaTdSetConfiguration?BYTE . . . XDATA    CYDMAC  MAIN  
?_CySpcEraseRow?BYTE . . . . . . . . XDATA    CYSPC  CYFLASH  
?_CySpcLoadMultiByte?BYTE. . . . . . XDATA    CYSPC  EEPROM  
?_CySpcLoadRow?BYTE. . . . . . . . . XDATA    CYSPC  EEPROM  
?_CySpcLoadRowFull?BYTE. . . . . . . XDATA    CYSPC  CYFLASH  
?_CySpcWriteRow?BYTE . . . . . . . . XDATA    CYSPC  CYFLASH  EEPROM  
?_CyWriteRowFull?BYTE. . . . . . . . XDATA    CYFLASH  
?_DMA_DmaInitialize?BYTE . . . . . . XDATA    DMA_DMA  MAIN  
?_my_mod?BYTE. . . . . . . . . . . . XDATA    UTILS  
?_PRINTF?BYTE. . . . . . . . . . . . XDATA    PRINTF  
?_SPRINTF?BYTE . . . . . . . . . . . XDATA    PRINTF  COMMAND_PROCESSING  
?_strcat?BYTE. . . . . . . . . . . . XDATA    STRCAT  COMMAND_PROCESSING  
LX51 LINKER/LOCATER V4.64.0.0                                                         02/16/2023  11:05:26  PAGE 127


?C?ADDXBP. . . . . . . . . . . . . . CODE     ?C?ADDXBP  CYLIB  
?C?CASTF . . . . . . . . . . . . . . CODE     ?C?CASTF  ADC  COMMAND_PROCESSING  INTERRUPTIONS  UTILS  
?C?CCASE . . . . . . . . . . . . . . CODE     ?C?CCASE  COMMAND_PROCESSING  PRINTF  
?C?CLDOPTR . . . . . . . . . . . . . CODE     ?C?CLDOPTR  PRINTF  
?C?CLDPTR. . . . . . . . . . . . . . CODE     ?C?CLDPTR  COMMAND_PROCESSING  CYSPC  PRINTF  STRCAT  STRLEN  UART_RS485  
                                              UTILS  
?C?CODESEG . . . . . . . . . . . . . NUMBER   ** LX51 GENERATED **  
?C?COPYAMD . . . . . . . . . . . . . CODE     ?C?COPYAMD  COMMAND_PROCESSING  INTERRUPTIONS  MAIN  
?C?CSTPTR. . . . . . . . . . . . . . CODE     ?C?CSTPTR  CYDMAC  CYSPC  PRINTF  STRCAT  
?C?FCASTC. . . . . . . . . . . . . . CODE     ?C?FCAST  
?C?FCASTI. . . . . . . . . . . . . . CODE     ?C?FCAST  ADC  COMMAND_PROCESSING  INTERRUPTIONS  
?C?FCASTL. . . . . . . . . . . . . . CODE     ?C?FCAST  ADC  COMMAND_PROCESSING  INTERRUPTIONS  UTILS  
?C?FPADD . . . . . . . . . . . . . . CODE     ?C?FPADD  ?C?FPCONVERT  INTERRUPTIONS  UTILS  
?C?FPCMP . . . . . . . . . . . . . . CODE     ?C?FPCMP  
?C?FPCMP3. . . . . . . . . . . . . . CODE     ?C?FPCMP  ADC  INTERRUPTIONS  UTILS  
?C?FPCONVERT . . . . . . . . . . . . CODE     ?C?FPCONVERT  PRINTF  
?C?FPDIV . . . . . . . . . . . . . . CODE     ?C?FPDIV  ?C?FPCONVERT  ADC  COMMAND_PROCESSING  INTERRUPTIONS  UTILS  
?C?FPGETOPN2 . . . . . . . . . . . . CODE     ?C?FPGETOPN  ?C?FPADD  ?C?FPDIV  ?C?FPMUL  
?C?FPMUL . . . . . . . . . . . . . . CODE     ?C?FPMUL  ?C?FPCONVERT  ?C?FTNPWR  ADC  COMMAND_PROCESSING  INTERRUPTIONS 
                                               UTILS  
?C?FPNANRESULT . . . . . . . . . . . CODE     ?C?FPGETOPN  ?C?FPADD  ?C?FPDIV  ?C?FPMUL  
?C?FPOVERFLOW. . . . . . . . . . . . CODE     ?C?FPGETOPN  ?C?FPADD  ?C?FPDIV  ?C?FPMUL  
?C?FPRESULT. . . . . . . . . . . . . CODE     ?C?FPGETOPN  ?C?FPADD  ?C?FPDIV  ?C?FPMUL  
?C?FPRESULT2 . . . . . . . . . . . . CODE     ?C?FPGETOPN  ?C?FPDIV  ?C?FPMUL  
?C?FPROUND . . . . . . . . . . . . . CODE     ?C?FPROUND  PRINTF  
?C?FPSUB . . . . . . . . . . . . . . CODE     ?C?FPADD  
?C?FPUNDERFLOW . . . . . . . . . . . CODE     ?C?FPGETOPN  ?C?FPADD  ?C?FPDIV  ?C?FPMUL  
?C?FTNPWR. . . . . . . . . . . . . . CODE     ?C?FTNPWR  ?C?FPCONVERT  
?C?IILDX . . . . . . . . . . . . . . CODE     ?C?IILDX  STRCAT  
?C?ILDIX . . . . . . . . . . . . . . CODE     ?C?ILDIX  STRCAT  
?C?ISTPTR. . . . . . . . . . . . . . CODE     ?C?ISTPTR  CYDMAC  
?C?LIMUL . . . . . . . . . . . . . . CODE     ?C?LIMUL  CYSPC  
?C?LLDCODE . . . . . . . . . . . . . CODE     ?C?LLDCODE  ?C?LLDPTR  
?C?LLDIDATA. . . . . . . . . . . . . CODE     ?C?LLDIDATA  ?C?LLDPTR  
?C?LLDPDATA. . . . . . . . . . . . . CODE     ?C?LLDPDATA  ?C?LLDPTR  
?C?LLDPTR. . . . . . . . . . . . . . CODE     ?C?LLDPTR  CYLIB  
?C?LLDXDATA. . . . . . . . . . . . . CODE     ?C?LLDXDATA  ?C?LLDPTR  
?C?LMUL. . . . . . . . . . . . . . . CODE     ?C?LMUL  ADC  COMMAND_PROCESSING  CYLIB  CYPM  INTERRUPTIONS  UTILS  
?C?LNEG. . . . . . . . . . . . . . . CODE     ?C?LNEG  ?C?CASTF  ?C?FCAST  COMMAND_PROCESSING  UTILS  
?C?LNOT. . . . . . . . . . . . . . . CODE     ?C?LNOT  CYDMAC  
?C?LSHL. . . . . . . . . . . . . . . CODE     ?C?LSHL  ADC  COMMAND_PROCESSING  CYDMAC  CYLIB  INTERRUPTIONS  UTILS  
?C?LSTIDATA. . . . . . . . . . . . . CODE     ?C?LSTIDATA  ?C?LSTPTR  
?C?LSTPDATA. . . . . . . . . . . . . CODE     ?C?LSTPDATA  ?C?LSTPTR  
?C?LSTPTR. . . . . . . . . . . . . . CODE     ?C?LSTPTR  CYLIB  
?C?LSTXDATA. . . . . . . . . . . . . CODE     ?C?LSTXDATA  ?C?LSTPTR  ADC  BOOTLOADABLE  COMMAND_PROCESSING  CYDMAC  CYF
                                              ITTER_CFG  CYLIB  CYSPC  INTERRUPTIONS  MAIN  UTILS  
?C?OFFXADD . . . . . . . . . . . . . CODE     ?C?OFFXADD  COMMAND_PROCESSING  
?C?PLDIXDATA . . . . . . . . . . . . CODE     ?C?PLDIXDATA  PRINTF  
?C?PSTXDATA. . . . . . . . . . . . . CODE     ?C?PSTXDATA  PRINTF  
?C?SLCMP . . . . . . . . . . . . . . CODE     ?C?SLCMP  COMMAND_PROCESSING  INTERRUPTIONS  UTILS  
?C?SLDIV . . . . . . . . . . . . . . CODE     ?C?SLDIV  ADC  COMMAND_PROCESSING  INTERRUPTIONS  UTILS  
?C?SLSHR . . . . . . . . . . . . . . CODE     ?C?SLSHR  COMMAND_PROCESSING  INTERRUPTIONS  UTILS  
?C?STRCPYAMD . . . . . . . . . . . . CODE     ?C?STRCPYAMD  COMMAND_PROCESSING  
?C?ULCMP . . . . . . . . . . . . . . CODE     ?C?ULCMP  COMMAND_PROCESSING  CYDMAC  CYFLASH  INTERRUPTIONS  UTILS  
?C?ULDIV . . . . . . . . . . . . . . CODE     ?C?ULDIV  ?C?SLDIV  ADC  BOOTLOADABLE  CYLIB  CYPM  INTERRUPTIONS  UTILS  
                                              
?C?ULSHR . . . . . . . . . . . . . . CODE     ?C?ULSHR  CYLIB  
?C?XDATASEG. . . . . . . . . . . . . NUMBER   ** LX51 GENERATED **  
?C?XPAGE1RST . . . . . . . . . . . . NUMBER   ?C_STARTUP  ADC_INT  CYLIB  INTERRUPTIONS  ISR_RS485_RX  UART_RS485_INT  
?C?XPAGE1SFR . . . . . . . . . . . . DATA     ?C_STARTUP  ADC_INT  CYLIB  INTERRUPTIONS  ISR_RS485_RX  UART_RS485_INT  
?C_START . . . . . . . . . . . . . . CODE     ?C_INIT  ?C_STARTUP  
?C_STARTUP . . . . . . . . . . . . . CODE     ?C_STARTUP  MAIN  
?C_XBP . . . . . . . . . . . . . . . DATA     ?C_XBP  ?C?ADDXBP  ?C_STARTUP  CYLIB  
_?CyDelay. . . . . . . . . . . . . . CODE     CYLIB  COMMAND_PROCESSING  CYBOOTASMKEIL  MAIN  
_?CyDelayFreq. . . . . . . . . . . . CODE     CYLIB  
LX51 LINKER/LOCATER V4.64.0.0                                                         02/16/2023  11:05:26  PAGE 128


_?CyHalt . . . . . . . . . . . . . . CODE     CYLIB  
_ADC_AMux_FastSelect . . . . . . . . CODE     ADC_AMUX  
_ADC_AMux_Select . . . . . . . . . . CODE     ADC_AMUX  ADC  
_ADC_AMux_Set. . . . . . . . . . . . CODE     CYFITTER_CFG  ADC_AMUX  
_ADC_AMux_Unset. . . . . . . . . . . CODE     CYFITTER_CFG  ADC_AMUX  
_ADC_CountsTo_mVolts . . . . . . . . CODE     ADC  
_ADC_CountsTo_uVolts . . . . . . . . CODE     ADC  
_ADC_CountsTo_Volts. . . . . . . . . CODE     ADC  
_ADC_Ext_CP_Clk_ClearModeRegister. . CODE     ADC_EXT_CP_CLK  
_ADC_Ext_CP_Clk_SetDividerRegister . CODE     ADC_EXT_CP_CLK  ADC  
_ADC_Ext_CP_Clk_SetModeRegister. . . CODE     ADC_EXT_CP_CLK  ADC  
_ADC_Ext_CP_Clk_SetSourceRegister. . CODE     ADC_EXT_CP_CLK  
_ADC_Ext_CP_Clk_StandbyPower . . . . CODE     ADC_EXT_CP_CLK  
_ADC_IsEndConversion . . . . . . . . CODE     ADC  
_ADC_SelectConfiguration . . . . . . CODE     ADC  
_ADC_SetBufferGain . . . . . . . . . CODE     ADC  
_ADC_SetCoherency. . . . . . . . . . CODE     ADC  
_ADC_SetGain . . . . . . . . . . . . CODE     ADC  
_ADC_SetGCOR . . . . . . . . . . . . CODE     ADC  
_ADC_SetOffset . . . . . . . . . . . CODE     ADC  
_ADC_SOC_Write . . . . . . . . . . . CODE     ADC_SOC  INTERRUPTIONS  MAIN  
_ADC_STATUS_WriteMask. . . . . . . . CODE     ADC_STATUS  
_ADC_theACLK_ClearModeRegister . . . CODE     ADC_THEACLK  
_ADC_theACLK_SetDividerRegister. . . CODE     ADC_THEACLK  ADC  
_ADC_theACLK_SetModeRegister . . . . CODE     ADC_THEACLK  ADC  
_ADC_theACLK_SetPhaseRegister. . . . CODE     ADC_THEACLK  
_ADC_theACLK_SetSourceRegister . . . CODE     ADC_THEACLK  
_ADC_theACLK_StandbyPower. . . . . . CODE     ADC_THEACLK  
_Bootloadable_SetFlashByte . . . . . CODE     BOOTLOADABLE  
_calc_turns_fcn. . . . . . . . . . . CODE     UTILS  
_cfg_write_bytes . . . . . . . . . . CODE     CYMEM  
_cfg_write_bytes_code. . . . . . . . CODE     CYMEM  
_check_enc_data. . . . . . . . . . . CODE     UTILS  
_CLOCK_UART_ClearModeRegister. . . . CODE     CLOCK_UART  
_CLOCK_UART_SetDividerRegister . . . CODE     CLOCK_UART  COMMAND_PROCESSING  
_CLOCK_UART_SetModeRegister. . . . . CODE     CLOCK_UART  
_CLOCK_UART_SetSourceRegister. . . . CODE     CLOCK_UART  
_CLOCK_UART_StandbyPower . . . . . . CODE     CLOCK_UART  
_commWrite . . . . . . . . . . . . . CODE     COMMAND_PROCESSING  
_commWrite_old_id. . . . . . . . . . CODE     COMMAND_PROCESSING  
_commWriteID . . . . . . . . . . . . CODE     COMMAND_PROCESSING  
_CyBusClk_SetDivider . . . . . . . . CODE     CYLIB  CYPM  
_cyconfigcpy . . . . . . . . . . . . CODE     CYMEM  CYFITTER_CFG  
_cyconfigcpycode . . . . . . . . . . CODE     CYMEM  
_CyCpuClk_SetDivider . . . . . . . . CODE     CYLIB  
_CyDelay . . . . . . . . . . . . . . CODE     CYBOOTASMKEIL  
_CyDelayCycles . . . . . . . . . . . CODE     CYBOOTASMKEIL  CYFITTER_CFG  CYLIB  CYPM  
_CyDelayUs . . . . . . . . . . . . . CODE     CYBOOTASMKEIL  ADC  CYFLASH  CYLIB  CYPM  CYSPC  
_CyDmacClearError. . . . . . . . . . CODE     CYDMAC  
_CyDmaChDisable. . . . . . . . . . . CODE     CYDMAC  DMA_DMA  
_CyDmaChEnable . . . . . . . . . . . CODE     CYDMAC  MAIN  
_CyDmaChFree . . . . . . . . . . . . CODE     CYDMAC  
_CyDmaChGetRequest . . . . . . . . . CODE     CYDMAC  
_CyDmaChPriority . . . . . . . . . . CODE     CYDMAC  DMA_DMA  
_CyDmaChRoundRobin . . . . . . . . . CODE     CYDMAC  
_CyDmaChSetConfiguration . . . . . . CODE     CYDMAC  DMA_DMA  
_CyDmaChSetExtendedAddress . . . . . CODE     CYDMAC  DMA_DMA  
_CyDmaChSetInitialTd . . . . . . . . CODE     CYDMAC  MAIN  
_CyDmaChSetRequest . . . . . . . . . CODE     CYDMAC  
_CyDmaChStatus . . . . . . . . . . . CODE     CYDMAC  
_CyDmaClearPendingDrq. . . . . . . . CODE     CYDMAC  
_CyDmaTdFree . . . . . . . . . . . . CODE     CYDMAC  
_CyDmaTdGetAddress . . . . . . . . . CODE     CYDMAC  
_CyDmaTdGetConfiguration . . . . . . CODE     CYDMAC  
_CyDmaTdSetAddress . . . . . . . . . CODE     CYDMAC  MAIN  
LX51 LINKER/LOCATER V4.64.0.0                                                         02/16/2023  11:05:26  PAGE 129


_CyDmaTdSetConfiguration . . . . . . CODE     CYDMAC  MAIN  
_CyEnableInts. . . . . . . . . . . . CODE     CYLIB  
_CyExitCriticalSection . . . . . . . CODE     CYBOOTASMKEIL  ADC  ADC_STATUS  CYDMAC  CYFLASH  CYLIB  CYPM  CYSPC  EEPRO
                                              M  FF_STATUS  MY_TIMER  UART_RS485  
_CyFlash_EraseRow. . . . . . . . . . CODE     CYFLASH  
_CyFlash_SetWaitCycles . . . . . . . CODE     CYFLASH  CYPM  
_CyGetUniqueId . . . . . . . . . . . CODE     CYLIB  
_CyILO_SetPowerMode. . . . . . . . . CODE     CYLIB  CYPM  
_CyILO_SetSource . . . . . . . . . . CODE     CYLIB  
_CyIMO_SetFreq . . . . . . . . . . . CODE     CYLIB  CYPM  
_CyIMO_SetSource . . . . . . . . . . CODE     CYLIB  CYPM  
_CyIMO_Start . . . . . . . . . . . . CODE     CYLIB  CYPM  
_CyIntGetPriority. . . . . . . . . . CODE     CYLIB  
_CyIntGetState . . . . . . . . . . . CODE     CYLIB  
_CyIntGetVector. . . . . . . . . . . CODE     CYLIB  
_CyIntSetPriority. . . . . . . . . . CODE     CYLIB  ADC  UART_RS485  
_CyIntSetVector. . . . . . . . . . . CODE     CYLIB  ADC  UART_RS485  
_CyMasterClk_SetDivider. . . . . . . CODE     CYLIB  CYPM  
_CyMasterClk_SetSource . . . . . . . CODE     CYLIB  CYPM  
_cymemzero . . . . . . . . . . . . . CODE     CYMEM  
_CyPLL_OUT_SetPQ . . . . . . . . . . CODE     CYLIB  
_CyPLL_OUT_SetSource . . . . . . . . CODE     CYLIB  
_CyPLL_OUT_Start . . . . . . . . . . CODE     CYLIB  CYPM  
_CyPmAltAct. . . . . . . . . . . . . CODE     CYPM  
_CyPmCtwSetInterval. . . . . . . . . CODE     CYPM  
_CyPmFtwSetInterval. . . . . . . . . CODE     CYPM  CYLIB  
_CyPmHibernateEx . . . . . . . . . . CODE     CYPM  
_CyPmReadStatus. . . . . . . . . . . CODE     CYPM  CYLIB  
_CyPmSleep . . . . . . . . . . . . . CODE     CYPM  
_cyread16. . . . . . . . . . . . . . CODE     CYMEM  
_cyread16_nodpx. . . . . . . . . . . CODE     CYMEM  ADC  ADC_EXT_CP_CLK  ADC_THEACLK  CLOCK_UART  CYDMAC  CYLIB  ISR_RS
                                              485_RX  PACER_TIMER  
_cyread24. . . . . . . . . . . . . . CODE     CYMEM  
_cyread24_nodpx. . . . . . . . . . . CODE     CYMEM  MY_TIMER  
_cyread32. . . . . . . . . . . . . . CODE     CYMEM  
_cyread32_nodpx. . . . . . . . . . . CODE     CYMEM  CYDMAC  
_cyread8 . . . . . . . . . . . . . . CODE     CYMEM  ADC  CYFITTER_CFG  CYLIB  CYSPC  
_cyread8_nodpx . . . . . . . . . . . CODE     CYMEM  
_CySetFlashEEBuffer. . . . . . . . . CODE     CYFLASH  
_CySpcEraseRow . . . . . . . . . . . CODE     CYSPC  CYFLASH  
_CySpcEraseSector. . . . . . . . . . CODE     CYSPC  EEPROM  
_CySpcGetTemp. . . . . . . . . . . . CODE     CYSPC  CYFLASH  
_CySpcLoadMultiByte. . . . . . . . . CODE     CYSPC  EEPROM  
_CySpcLoadRow. . . . . . . . . . . . CODE     CYSPC  EEPROM  
_CySpcLoadRowFull. . . . . . . . . . CODE     CYSPC  CYFLASH  
_CySpcReadData . . . . . . . . . . . CODE     CYSPC  CYFLASH  
_CySpcWriteRow . . . . . . . . . . . CODE     CYSPC  CYFLASH  EEPROM  
_CyUsbClk_SetSource. . . . . . . . . CODE     CYLIB  
_CyVdLvAnalogEnable. . . . . . . . . CODE     CYLIB  CYPM  
_CyVdLvDigitEnable . . . . . . . . . CODE     CYLIB  CYPM  
_CyVdStickyStatus. . . . . . . . . . CODE     CYLIB  
_CyWdtStart. . . . . . . . . . . . . CODE     CYLIB  
_cywrite16 . . . . . . . . . . . . . CODE     CYMEM  CYFITTER_CFG  
_cywrite16_nodpx . . . . . . . . . . CODE     CYMEM  ADC  ADC_EXT_CP_CLK  ADC_THEACLK  CLOCK_UART  CYDMAC  CYFITTER_CFG 
                                               CYLIB  ISR_RS485_RX  PACER_TIMER  
_cywrite24 . . . . . . . . . . . . . CODE     CYMEM  
_cywrite24_nodpx . . . . . . . . . . CODE     CYMEM  MY_TIMER  
_cywrite32 . . . . . . . . . . . . . CODE     CYMEM  
_cywrite32_nodpx . . . . . . . . . . CODE     CYMEM  
_cywrite8. . . . . . . . . . . . . . CODE     CYMEM  CYFITTER_CFG  
_cywrite8_nodpx. . . . . . . . . . . CODE     CYMEM  
_CyWriteRowData. . . . . . . . . . . CODE     CYFLASH  BOOTLOADABLE  
_CyWriteRowFull. . . . . . . . . . . CODE     CYFLASH  
_CyXTAL_32KHZ_SetPowerMode . . . . . CODE     CYLIB  
_CyXTAL_SetFbVoltage . . . . . . . . CODE     CYLIB  
LX51 LINKER/LOCATER V4.64.0.0                                                         02/16/2023  11:05:26  PAGE 130


_CyXTAL_SetStartup . . . . . . . . . CODE     CYLIB  
_CyXTAL_SetWdVoltage . . . . . . . . CODE     CYLIB  
_CyXTAL_Start. . . . . . . . . . . . CODE     CYLIB  CYPM  
_DMA_DmaInitialize . . . . . . . . . CODE     DMA_DMA  MAIN  
_dma_wait. . . . . . . . . . . . . . CODE     ?C_STARTUP  
_EEPROM_ByteWritePos . . . . . . . . CODE     EEPROM  
_EEPROM_EraseSector. . . . . . . . . CODE     EEPROM  
_EEPROM_ReadByte . . . . . . . . . . CODE     EEPROM  
_EEPROM_StartErase . . . . . . . . . CODE     EEPROM  
_EEPROM_StartWrite . . . . . . . . . CODE     EEPROM  
_EEPROM_Write. . . . . . . . . . . . CODE     EEPROM  COMMAND_PROCESSING  
_EEPROM_WriteByte. . . . . . . . . . CODE     EEPROM  
_FF_STATUS_WriteMask . . . . . . . . CODE     FF_STATUS  
_filter_acc_1. . . . . . . . . . . . CODE     UTILS  
_filter_acc_2. . . . . . . . . . . . CODE     UTILS  
_filter_acc_3. . . . . . . . . . . . CODE     UTILS  
_filter_ch1. . . . . . . . . . . . . CODE     UTILS  INTERRUPTIONS  
_filter_ch2. . . . . . . . . . . . . CODE     UTILS  INTERRUPTIONS  
_filter_i1 . . . . . . . . . . . . . CODE     UTILS  
_filter_v. . . . . . . . . . . . . . CODE     UTILS  
_filter_vel_1. . . . . . . . . . . . CODE     UTILS  
_filter_vel_2. . . . . . . . . . . . CODE     UTILS  
_filter_vel_3. . . . . . . . . . . . CODE     UTILS  
_filter_voltage. . . . . . . . . . . CODE     UTILS  INTERRUPTIONS  
_FTDI_ENABLE_REG_Write . . . . . . . CODE     FTDI_ENABLE_REG  COMMAND_PROCESSING  MAIN  
_get_param_list. . . . . . . . . . . CODE     COMMAND_PROCESSING  
_infoGet . . . . . . . . . . . . . . CODE     COMMAND_PROCESSING  INTERRUPTIONS  
_infoPrepare . . . . . . . . . . . . CODE     COMMAND_PROCESSING  
_ISR_RS485_RX_SetPriority. . . . . . CODE     ISR_RS485_RX  
_ISR_RS485_RX_SetVector. . . . . . . CODE     ISR_RS485_RX  
_ISR_RS485_RX_StartEx. . . . . . . . CODE     ISR_RS485_RX  MAIN  
_LCRChecksum . . . . . . . . . . . . CODE     COMMAND_PROCESSING  
_LED_BLINK_EN_Write. . . . . . . . . CODE     LED_BLINK_EN  INTERRUPTIONS  MAIN  
_LED_BLINK_WriteCompare. . . . . . . CODE     LED_BLINK  MAIN  
_LED_BLINK_WriteControlRegister. . . CODE     LED_BLINK  
_LED_BLINK_WriteCounter. . . . . . . CODE     LED_BLINK  
_LED_BLINK_WritePeriod . . . . . . . CODE     LED_BLINK  
_LED_CTRL_Write. . . . . . . . . . . CODE     LED_CTRL  INTERRUPTIONS  MAIN  
_memStore. . . . . . . . . . . . . . CODE     COMMAND_PROCESSING  
_my_mod. . . . . . . . . . . . . . . CODE     UTILS  
_my_round. . . . . . . . . . . . . . CODE     UTILS  
_MY_TIMER_SetInterruptMode . . . . . CODE     MY_TIMER  
_MY_TIMER_WriteControlRegister . . . CODE     MY_TIMER  
_MY_TIMER_WriteCounter . . . . . . . CODE     MY_TIMER  INTERRUPTIONS  
_MY_TIMER_WritePeriod. . . . . . . . CODE     MY_TIMER  
_PACER_TIMER_SetInterruptMode. . . . CODE     PACER_TIMER  
_PACER_TIMER_WriteControlRegister. . CODE     PACER_TIMER  
_PACER_TIMER_WriteCounter. . . . . . CODE     PACER_TIMER  
_PACER_TIMER_WritePeriod . . . . . . CODE     PACER_TIMER  
_PRINTF. . . . . . . . . . . . . . . CODE     PRINTF  
_PUTCHAR . . . . . . . . . . . . . . CODE     PUTCHAR  PRINTF  
_RESET_FF_Write. . . . . . . . . . . CODE     RESET_FF  MAIN  
_RS485_CTS_Write . . . . . . . . . . CODE     RS485_CTS  COMMAND_PROCESSING  INTERRUPTIONS  MAIN  
_sendAcknowledgment. . . . . . . . . CODE     COMMAND_PROCESSING  
_SetAnalogRoutingPumps . . . . . . . CODE     CYFITTER_CFG  
_SPRINTF . . . . . . . . . . . . . . CODE     PRINTF  COMMAND_PROCESSING  
_strcat. . . . . . . . . . . . . . . CODE     STRCAT  COMMAND_PROCESSING  
_STRLEN. . . . . . . . . . . . . . . CODE     STRLEN  COMMAND_PROCESSING  
_UART_RS485_PutArray . . . . . . . . CODE     UART_RS485  
_UART_RS485_PutChar. . . . . . . . . CODE     UART_RS485  COMMAND_PROCESSING  
_UART_RS485_PutCRLF. . . . . . . . . CODE     UART_RS485  
_UART_RS485_PutString. . . . . . . . CODE     UART_RS485  COMMAND_PROCESSING  
_UART_RS485_SendBreak. . . . . . . . CODE     UART_RS485  
_UART_RS485_SetRxAddress1. . . . . . CODE     UART_RS485  
_UART_RS485_SetRxAddress2. . . . . . CODE     UART_RS485  
LX51 LINKER/LOCATER V4.64.0.0                                                         02/16/2023  11:05:26  PAGE 131


_UART_RS485_SetRxAddressMode . . . . CODE     UART_RS485  
_UART_RS485_SetRxInterruptMode . . . CODE     UART_RS485  
_UART_RS485_SetTxAddressMode . . . . CODE     UART_RS485  
_UART_RS485_SetTxInterruptMode . . . CODE     UART_RS485  
_UART_RS485_WriteControlRegister . . CODE     UART_RS485  
_UART_RS485_WriteTxData. . . . . . . CODE     UART_RS485  
AC . . . . . . . . . . . . . . . . . DATA     COMMAND_PROCESSING  
ACC. . . . . . . . . . . . . . . . . DATA     COMMAND_PROCESSING  
ADC_AMux__addrTable. . . . . . . . . CONST    CYFITTER_CFG  
ADC_AMux__maskTable. . . . . . . . . CONST    CYFITTER_CFG  
ADC_AMux_Start . . . . . . . . . . . CODE     ADC_AMUX  
ADC_buf. . . . . . . . . . . . . . . XDATA    GLOBALS  INTERRUPTIONS  MAIN  
ADC_Config . . . . . . . . . . . . . XDATA    ADC  
ADC_convDone . . . . . . . . . . . . XDATA    ADC  
ADC_CountsPerVolt. . . . . . . . . . XDATA    ADC  
ADC_Enable . . . . . . . . . . . . . CODE     ADC  
ADC_Ext_CP_Clk_GetDividerRegister. . CODE     ADC_EXT_CP_CLK  
ADC_Ext_CP_Clk_GetModeRegister . . . CODE     ADC_EXT_CP_CLK  
ADC_Ext_CP_Clk_GetSourceRegister . . CODE     ADC_EXT_CP_CLK  
ADC_Ext_CP_Clk_Start . . . . . . . . CODE     ADC_EXT_CP_CLK  
ADC_Ext_CP_Clk_Stop. . . . . . . . . CODE     ADC_EXT_CP_CLK  
ADC_Ext_CP_Clk_StopBlock . . . . . . CODE     ADC_EXT_CP_CLK  
ADC_GetResult16. . . . . . . . . . . CODE     ADC  
ADC_GetResult32. . . . . . . . . . . CODE     ADC  
ADC_GetResult8 . . . . . . . . . . . CODE     ADC  
ADC_Init . . . . . . . . . . . . . . CODE     ADC  
ADC_initVar. . . . . . . . . . . . . XDATA    ADC  
ADC_ISR1 . . . . . . . . . . . . . . CODE     ADC_INT  ADC  
ADC_ISR2 . . . . . . . . . . . . . . CODE     ADC_INT  
ADC_ISR3 . . . . . . . . . . . . . . CODE     ADC_INT  
ADC_ISR4 . . . . . . . . . . . . . . CODE     ADC_INT  
ADC_Offset . . . . . . . . . . . . . XDATA    ADC  
ADC_Read16 . . . . . . . . . . . . . CODE     ADC  
ADC_Read32 . . . . . . . . . . . . . CODE     ADC  
ADC_Read8. . . . . . . . . . . . . . CODE     ADC  
ADC_ReadGCOR . . . . . . . . . . . . CODE     ADC  
ADC_SOC_Read . . . . . . . . . . . . CODE     ADC_SOC  
ADC_Start. . . . . . . . . . . . . . CODE     ADC  MAIN  
ADC_StartConvert . . . . . . . . . . CODE     ADC  
ADC_started. . . . . . . . . . . . . XDATA    ADC  
ADC_STATUS_InterruptDisable. . . . . CODE     ADC_STATUS  
ADC_STATUS_InterruptEnable . . . . . CODE     ADC_STATUS  
ADC_STATUS_Read. . . . . . . . . . . CODE     ADC_STATUS  INTERRUPTIONS  
ADC_STATUS_ReadMask. . . . . . . . . CODE     ADC_STATUS  
ADC_Stop . . . . . . . . . . . . . . CODE     ADC  
ADC_stopConversion . . . . . . . . . XDATA    ADC  
ADC_StopConvert. . . . . . . . . . . CODE     ADC  
ADC_theACLK_GetDividerRegister . . . CODE     ADC_THEACLK  
ADC_theACLK_GetModeRegister. . . . . CODE     ADC_THEACLK  
ADC_theACLK_GetPhaseRegister . . . . CODE     ADC_THEACLK  
ADC_theACLK_GetSourceRegister. . . . CODE     ADC_THEACLK  
ADC_theACLK_Start. . . . . . . . . . CODE     ADC_THEACLK  
ADC_theACLK_Stop . . . . . . . . . . CODE     ADC_THEACLK  
ADC_theACLK_StopBlock. . . . . . . . CODE     ADC_THEACLK  
analog_read_end. . . . . . . . . . . CODE     INTERRUPTIONS  
B. . . . . . . . . . . . . . . . . . DATA     COMMAND_PROCESSING  
Bootloadable_Load. . . . . . . . . . CODE     BOOTLOADABLE  COMMAND_PROCESSING  
c_mem. . . . . . . . . . . . . . . . XDATA    GLOBALS  COMMAND_PROCESSING  INTERRUPTIONS  UTILS  
calib. . . . . . . . . . . . . . . . XDATA    GLOBALS  COMMAND_PROCESSING  INTERRUPTIONS  UTILS  
calibration. . . . . . . . . . . . . CODE     UTILS  INTERRUPTIONS  
check_rest_position. . . . . . . . . CODE     UTILS  INTERRUPTIONS  
CLOCK_UART_GetDividerRegister. . . . CODE     CLOCK_UART  
CLOCK_UART_GetModeRegister . . . . . CODE     CLOCK_UART  
CLOCK_UART_GetSourceRegister . . . . CODE     CLOCK_UART  
CLOCK_UART_Start . . . . . . . . . . CODE     CLOCK_UART  
LX51 LINKER/LOCATER V4.64.0.0                                                         02/16/2023  11:05:26  PAGE 132


CLOCK_UART_Stop. . . . . . . . . . . CODE     CLOCK_UART  
CLOCK_UART_StopBlock . . . . . . . . CODE     CLOCK_UART  
cmd_activate . . . . . . . . . . . . CODE     COMMAND_PROCESSING  
cmd_get_emg. . . . . . . . . . . . . CODE     COMMAND_PROCESSING  
cmd_get_inputs . . . . . . . . . . . CODE     COMMAND_PROCESSING  
cmd_get_joystick . . . . . . . . . . CODE     COMMAND_PROCESSING  
cmd_get_measurements . . . . . . . . CODE     COMMAND_PROCESSING  
cmd_ping . . . . . . . . . . . . . . CODE     COMMAND_PROCESSING  
cmd_set_baudrate . . . . . . . . . . CODE     COMMAND_PROCESSING  
cmd_set_ext_imu_readings . . . . . . CODE     COMMAND_PROCESSING  COMMAND_PROCESSING  
cmd_set_inputs . . . . . . . . . . . CODE     COMMAND_PROCESSING  
cmd_store_params . . . . . . . . . . CODE     COMMAND_PROCESSING  
commProcess. . . . . . . . . . . . . CODE     COMMAND_PROCESSING  INTERRUPTIONS  
commReadIMUsFromSH . . . . . . . . . CODE     COMMAND_PROCESSING  
commReadMeasFromSH . . . . . . . . . CODE     COMMAND_PROCESSING  INTERRUPTIONS  
commReadResCurrFromSH. . . . . . . . CODE     COMMAND_PROCESSING  
count_tension_valid. . . . . . . . . XDATA    GLOBALS  MAIN  
curr_pos_res . . . . . . . . . . . . XDATA    GLOBALS  INTERRUPTIONS  UTILS  
CY . . . . . . . . . . . . . . . . . DATA     COMMAND_PROCESSING  
cydelay_32k_ms . . . . . . . . . . . XDATA    CYLIB  
cydelay_freq_hz. . . . . . . . . . . XDATA    CYLIB  
cydelay_freq_khz . . . . . . . . . . XDATA    CYLIB  
cydelay_freq_mhz . . . . . . . . . . XDATA    CYLIB  CYBOOTASMKEIL  
CyDisableInts. . . . . . . . . . . . CODE     CYLIB  
CyDmacConfigure. . . . . . . . . . . CODE     CYDMAC  ?C_STARTUP  
CyDmacError. . . . . . . . . . . . . CODE     CYDMAC  
CyDmacErrorAddress . . . . . . . . . CODE     CYDMAC  
CyDmaChAlloc . . . . . . . . . . . . CODE     CYDMAC  
CyDmaTdAllocate. . . . . . . . . . . CODE     CYDMAC  MAIN  
CyDmaTdFreeCount . . . . . . . . . . CODE     CYDMAC  
CyEEPROM_ReadRelease . . . . . . . . CODE     CYFLASH  EEPROM  
CyEEPROM_ReadReserve . . . . . . . . CODE     CYFLASH  EEPROM  
CyEEPROM_Start . . . . . . . . . . . CODE     CYFLASH  EEPROM  
CyEEPROM_Stop. . . . . . . . . . . . CODE     CYFLASH  EEPROM  
CyEnterCriticalSection . . . . . . . CODE     CYBOOTASMKEIL  ADC  ADC_STATUS  CYDMAC  CYFLASH  CYLIB  CYPM  CYSPC  EEPRO
                                              M  FF_STATUS  MY_TIMER  UART_RS485  
cyfitter_cfg . . . . . . . . . . . . CODE     CYFITTER_CFG  ?C_STARTUP  
CyFlash_Start. . . . . . . . . . . . CODE     CYFLASH  
CyFlash_Stop . . . . . . . . . . . . CODE     CYFLASH  
CyFlashGetSpcAlgorithm . . . . . . . CODE     CYFLASH  
CyILO_Disable33K . . . . . . . . . . CODE     CYLIB  
CyILO_Enable33K. . . . . . . . . . . CODE     CYLIB  
CyILO_Start100K. . . . . . . . . . . CODE     CYLIB  CYPM  
CyILO_Start1K. . . . . . . . . . . . CODE     CYLIB  CYPM  
CyILO_Stop100K . . . . . . . . . . . CODE     CYLIB  
CyILO_Stop1K . . . . . . . . . . . . CODE     CYLIB  
CyIMO_DisableDoubler . . . . . . . . CODE     CYLIB  CYPM  
CyIMO_EnableDoubler. . . . . . . . . CODE     CYLIB  CYPM  
CyIMO_Stop . . . . . . . . . . . . . CODE     CYLIB  CYPM  
CyIntInitVectors . . . . . . . . . . CODE     CYLIB  ?C_STARTUP  
CyPLL_OUT_Stop . . . . . . . . . . . CODE     CYLIB  CYPM  
CyPmHibernate. . . . . . . . . . . . CODE     CYPM  
CyPmOppsSet. . . . . . . . . . . . . CODE     CYPM  
CyPmRestoreClocks. . . . . . . . . . CODE     CYPM  
CyPmSaveClocks . . . . . . . . . . . CODE     CYPM  
CyResetStatus. . . . . . . . . . . . XDATA    CYLIB  ?C_STARTUP  
CySetTemp. . . . . . . . . . . . . . CODE     CYFLASH  COMMAND_PROCESSING  EEPROM  
CySoftwareReset. . . . . . . . . . . CODE     CYLIB  BOOTLOADABLE  
CySpcGetAlgorithm. . . . . . . . . . CODE     CYSPC  CYFLASH  
CySpcLock. . . . . . . . . . . . . . CODE     CYSPC  CYFLASH  EEPROM  
CySpcStart . . . . . . . . . . . . . CODE     CYSPC  CYFLASH  EEPROM  
CySpcStop. . . . . . . . . . . . . . CODE     CYSPC  
CySpcUnlock. . . . . . . . . . . . . CODE     CYSPC  CYFLASH  EEPROM  
CyVdHvAnalogDisable. . . . . . . . . CODE     CYLIB  CYPM  
CyVdHvAnalogEnable . . . . . . . . . CODE     CYLIB  CYPM  
LX51 LINKER/LOCATER V4.64.0.0                                                         02/16/2023  11:05:26  PAGE 133


CyVdLvAnalogDisable. . . . . . . . . CODE     CYLIB  CYPM  
CyVdLvDigitDisable . . . . . . . . . CODE     CYLIB  CYPM  
CyVdRealTimeStatus . . . . . . . . . CODE     CYLIB  
CyWdtClear . . . . . . . . . . . . . CODE     CYLIB  
CyXTAL_32KHZ_ReadStatus. . . . . . . CODE     CYLIB  
CyXTAL_32KHZ_Start . . . . . . . . . CODE     CYLIB  CYPM  
CyXTAL_32KHZ_Stop. . . . . . . . . . CODE     CYLIB  
CyXTAL_DisableErrStatus. . . . . . . CODE     CYLIB  
CyXTAL_DisableFaultRecovery. . . . . CODE     CYLIB  
CyXTAL_EnableErrStatus . . . . . . . CODE     CYLIB  
CyXTAL_EnableFaultRecovery . . . . . CODE     CYLIB  
CyXTAL_ReadStatus. . . . . . . . . . CODE     CYLIB  
CyXTAL_Stop. . . . . . . . . . . . . CODE     CYLIB  CYPM  
deactivate_slaves. . . . . . . . . . CODE     COMMAND_PROCESSING  INTERRUPTIONS  
dev_tension. . . . . . . . . . . . . XDATA    GLOBALS  COMMAND_PROCESSING  INTERRUPTIONS  
dev_tension_f. . . . . . . . . . . . XDATA    GLOBALS  INTERRUPTIONS  
dieTemperature . . . . . . . . . . . XDATA    CYFLASH  EEPROM  
DMA_DmaHandle. . . . . . . . . . . . XDATA    DMA_DMA  
DMA_DmaRelease . . . . . . . . . . . CODE     DMA_DMA  
DPH. . . . . . . . . . . . . . . . . DATA     COMMAND_PROCESSING  
DPH1 . . . . . . . . . . . . . . . . DATA     COMMAND_PROCESSING  
DPL. . . . . . . . . . . . . . . . . DATA     COMMAND_PROCESSING  
DPL1 . . . . . . . . . . . . . . . . DATA     COMMAND_PROCESSING  
DPS. . . . . . . . . . . . . . . . . DATA     COMMAND_PROCESSING  
DPX. . . . . . . . . . . . . . . . . DATA     COMMAND_PROCESSING  
DPX1 . . . . . . . . . . . . . . . . DATA     COMMAND_PROCESSING  
drive_force_fb . . . . . . . . . . . CODE     COMMAND_PROCESSING  INTERRUPTIONS  
drive_force_proprio_fb . . . . . . . CODE     COMMAND_PROCESSING  INTERRUPTIONS  
drive_proprio_fb . . . . . . . . . . CODE     COMMAND_PROCESSING  INTERRUPTIONS  
drive_SH . . . . . . . . . . . . . . CODE     COMMAND_PROCESSING  INTERRUPTIONS  
drive_vibrotactile_fb. . . . . . . . CODE     COMMAND_PROCESSING  INTERRUPTIONS  
EA . . . . . . . . . . . . . . . . . DATA     COMMAND_PROCESSING  
EEPROM_ADDR. . . . . . . . . . . . . XDATA    COMMAND_PROCESSING  
EEPROM_Enable. . . . . . . . . . . . CODE     EEPROM  
EEPROM_Query . . . . . . . . . . . . CODE     EEPROM  
EEPROM_Start . . . . . . . . . . . . CODE     EEPROM  MAIN  
EEPROM_Stop. . . . . . . . . . . . . CODE     EEPROM  
EEPROM_UpdateTemperature . . . . . . CODE     EEPROM  
F0 . . . . . . . . . . . . . . . . . DATA     COMMAND_PROCESSING  
F1 . . . . . . . . . . . . . . . . . DATA     COMMAND_PROCESSING  
FF_STATUS_InterruptDisable . . . . . CODE     FF_STATUS  
FF_STATUS_InterruptEnable. . . . . . CODE     FF_STATUS  
FF_STATUS_Read . . . . . . . . . . . CODE     FF_STATUS  MAIN  
FF_STATUS_ReadMask . . . . . . . . . CODE     FF_STATUS  
first_tension_valid. . . . . . . . . XDATA    GLOBALS  INTERRUPTIONS  MAIN  
forced_open. . . . . . . . . . . . . XDATA    GLOBALS  INTERRUPTIONS  UTILS  
FTDI_ENABLE_REG_Read . . . . . . . . CODE     FTDI_ENABLE_REG  
function_scheduler . . . . . . . . . CODE     INTERRUPTIONS  MAIN  
g_meas . . . . . . . . . . . . . . . XDATA    GLOBALS  COMMAND_PROCESSING  INTERRUPTIONS  MAIN  UTILS  
g_measOld. . . . . . . . . . . . . . XDATA    GLOBALS  COMMAND_PROCESSING  INTERRUPTIONS  
g_mem. . . . . . . . . . . . . . . . XDATA    GLOBALS  COMMAND_PROCESSING  INTERRUPTIONS  UTILS  
g_ref. . . . . . . . . . . . . . . . XDATA    GLOBALS  COMMAND_PROCESSING  INTERRUPTIONS  MAIN  UTILS  
g_refNew . . . . . . . . . . . . . . XDATA    GLOBALS  COMMAND_PROCESSING  INTERRUPTIONS  MAIN  
g_refOld . . . . . . . . . . . . . . XDATA    GLOBALS  COMMAND_PROCESSING  INTERRUPTIONS  
g_rx . . . . . . . . . . . . . . . . XDATA    GLOBALS  COMMAND_PROCESSING  INTERRUPTIONS  MAIN  
IE . . . . . . . . . . . . . . . . . DATA     COMMAND_PROCESSING  
imu_values . . . . . . . . . . . . . XDATA    GLOBALS  COMMAND_PROCESSING  MAIN  
infoSend . . . . . . . . . . . . . . CODE     COMMAND_PROCESSING  
IntDefaultHandler. . . . . . . . . . CODE     CYLIB  
interrupt_flag . . . . . . . . . . . BIT      GLOBALS  COMMAND_PROCESSING  INTERRUPTIONS  MAIN  
interrupt_manager. . . . . . . . . . CODE     INTERRUPTIONS  COMMAND_PROCESSING  MAIN  
ISR_RS485_RX_ClearPending. . . . . . CODE     ISR_RS485_RX  
ISR_RS485_RX_Disable . . . . . . . . CODE     ISR_RS485_RX  COMMAND_PROCESSING  
ISR_RS485_RX_Enable. . . . . . . . . CODE     ISR_RS485_RX  COMMAND_PROCESSING  
ISR_RS485_RX_ExInterrupt . . . . . . CODE     INTERRUPTIONS  MAIN  
LX51 LINKER/LOCATER V4.64.0.0                                                         02/16/2023  11:05:26  PAGE 134


ISR_RS485_RX_GetPriority . . . . . . CODE     ISR_RS485_RX  
ISR_RS485_RX_GetState. . . . . . . . CODE     ISR_RS485_RX  
ISR_RS485_RX_GetVector . . . . . . . CODE     ISR_RS485_RX  
ISR_RS485_RX_Interrupt . . . . . . . CODE     ISR_RS485_RX  
ISR_RS485_RX_SetPending. . . . . . . CODE     ISR_RS485_RX  
ISR_RS485_RX_Start . . . . . . . . . CODE     ISR_RS485_RX  
ISR_RS485_RX_Stop. . . . . . . . . . CODE     ISR_RS485_RX  
LED_BLINK_EN_Read. . . . . . . . . . CODE     LED_BLINK_EN  
LED_BLINK_Enable . . . . . . . . . . CODE     LED_BLINK  
LED_BLINK_Init . . . . . . . . . . . CODE     LED_BLINK  
LED_BLINK_initVar. . . . . . . . . . XDATA    LED_BLINK  
LED_BLINK_ReadCapture. . . . . . . . CODE     LED_BLINK  
LED_BLINK_ReadCompare. . . . . . . . CODE     LED_BLINK  
LED_BLINK_ReadControlRegister. . . . CODE     LED_BLINK  
LED_BLINK_ReadCounter. . . . . . . . CODE     LED_BLINK  
LED_BLINK_ReadPeriod . . . . . . . . CODE     LED_BLINK  
LED_BLINK_Start. . . . . . . . . . . CODE     LED_BLINK  MAIN  
LED_BLINK_Stop . . . . . . . . . . . CODE     LED_BLINK  
LED_CTRL_Read. . . . . . . . . . . . CODE     LED_CTRL  
main . . . . . . . . . . . . . . . . CODE     MAIN  ?C_INIT  
master_mode. . . . . . . . . . . . . XDATA    GLOBALS  COMMAND_PROCESSING  INTERRUPTIONS  MAIN  
memInit. . . . . . . . . . . . . . . CODE     COMMAND_PROCESSING  
memRecall. . . . . . . . . . . . . . CODE     COMMAND_PROCESSING  MAIN  
memRestore . . . . . . . . . . . . . CODE     COMMAND_PROCESSING  
motor_control. . . . . . . . . . . . CODE     INTERRUPTIONS  
MXAX . . . . . . . . . . . . . . . . DATA     COMMAND_PROCESSING  
MY_TIMER_ClearFIFO . . . . . . . . . CODE     MY_TIMER  
MY_TIMER_Enable. . . . . . . . . . . CODE     MY_TIMER  
MY_TIMER_Init. . . . . . . . . . . . CODE     MY_TIMER  
MY_TIMER_initVar . . . . . . . . . . XDATA    MY_TIMER  
MY_TIMER_ReadCapture . . . . . . . . CODE     MY_TIMER  
MY_TIMER_ReadControlRegister . . . . CODE     MY_TIMER  
MY_TIMER_ReadCounter . . . . . . . . CODE     MY_TIMER  COMMAND_PROCESSING  INTERRUPTIONS  
MY_TIMER_ReadPeriod. . . . . . . . . CODE     MY_TIMER  
MY_TIMER_ReadStatusRegister. . . . . CODE     MY_TIMER  
MY_TIMER_SoftwareCapture . . . . . . CODE     MY_TIMER  
MY_TIMER_Start . . . . . . . . . . . CODE     MY_TIMER  MAIN  
MY_TIMER_Stop. . . . . . . . . . . . CODE     MY_TIMER  
OV . . . . . . . . . . . . . . . . . DATA     COMMAND_PROCESSING  
P. . . . . . . . . . . . . . . . . . DATA     COMMAND_PROCESSING  
P2AX . . . . . . . . . . . . . . . . DATA     COMMAND_PROCESSING  
PACER_TIMER_Enable . . . . . . . . . CODE     PACER_TIMER  
PACER_TIMER_Init . . . . . . . . . . CODE     PACER_TIMER  
PACER_TIMER_initVar. . . . . . . . . XDATA    PACER_TIMER  
PACER_TIMER_ReadCapture. . . . . . . CODE     PACER_TIMER  
PACER_TIMER_ReadControlRegister. . . CODE     PACER_TIMER  
PACER_TIMER_ReadCounter. . . . . . . CODE     PACER_TIMER  
PACER_TIMER_ReadPeriod . . . . . . . CODE     PACER_TIMER  
PACER_TIMER_ReadStatusRegister . . . CODE     PACER_TIMER  
PACER_TIMER_SoftwareCapture. . . . . CODE     PACER_TIMER  
PACER_TIMER_Start. . . . . . . . . . CODE     PACER_TIMER  MAIN  
PACER_TIMER_Stop . . . . . . . . . . CODE     PACER_TIMER  
pow_tension. . . . . . . . . . . . . XDATA    GLOBALS  COMMAND_PROCESSING  INTERRUPTIONS  MAIN  
PSW. . . . . . . . . . . . . . . . . DATA     COMMAND_PROCESSING  
RESET_FF_Read. . . . . . . . . . . . CODE     RESET_FF  
reset_last_value_flag. . . . . . . . BIT      GLOBALS  COMMAND_PROCESSING  MAIN  
rest_enabled . . . . . . . . . . . . XDATA    GLOBALS  INTERRUPTIONS  UTILS  
rest_pos_curr_ref. . . . . . . . . . XDATA    GLOBALS  INTERRUPTIONS  UTILS  
RS0. . . . . . . . . . . . . . . . . DATA     COMMAND_PROCESSING  
RS1. . . . . . . . . . . . . . . . . DATA     COMMAND_PROCESSING  
RS485_CTS_Read . . . . . . . . . . . CODE     RS485_CTS  
setZeros . . . . . . . . . . . . . . CODE     COMMAND_PROCESSING  
SFRPRT0DR. . . . . . . . . . . . . . DATA     COMMAND_PROCESSING  
SFRPRT0PS. . . . . . . . . . . . . . DATA     COMMAND_PROCESSING  
SFRPRT0SEL . . . . . . . . . . . . . DATA     COMMAND_PROCESSING  
LX51 LINKER/LOCATER V4.64.0.0                                                         02/16/2023  11:05:26  PAGE 135


SFRPRT12DR . . . . . . . . . . . . . DATA     COMMAND_PROCESSING  
SFRPRT12PS . . . . . . . . . . . . . DATA     COMMAND_PROCESSING  
SFRPRT12SEL. . . . . . . . . . . . . DATA     COMMAND_PROCESSING  
SFRPRT15DR . . . . . . . . . . . . . DATA     COMMAND_PROCESSING  
SFRPRT15PS . . . . . . . . . . . . . DATA     COMMAND_PROCESSING  
SFRPRT15SEL. . . . . . . . . . . . . DATA     COMMAND_PROCESSING  
SFRPRT1DR. . . . . . . . . . . . . . DATA     COMMAND_PROCESSING  
SFRPRT1PS. . . . . . . . . . . . . . DATA     COMMAND_PROCESSING  
SFRPRT1SEL . . . . . . . . . . . . . DATA     COMMAND_PROCESSING  
SFRPRT2DR. . . . . . . . . . . . . . DATA     COMMAND_PROCESSING  
SFRPRT2PS. . . . . . . . . . . . . . DATA     COMMAND_PROCESSING  
SFRPRT2SEL . . . . . . . . . . . . . DATA     COMMAND_PROCESSING  
SFRPRT3DR. . . . . . . . . . . . . . DATA     COMMAND_PROCESSING  
SFRPRT3PS. . . . . . . . . . . . . . DATA     COMMAND_PROCESSING  
SFRPRT3SEL . . . . . . . . . . . . . DATA     COMMAND_PROCESSING  
SFRPRT4DR. . . . . . . . . . . . . . DATA     COMMAND_PROCESSING  
SFRPRT4PS. . . . . . . . . . . . . . DATA     COMMAND_PROCESSING  
SFRPRT4SEL . . . . . . . . . . . . . DATA     COMMAND_PROCESSING  
SFRPRT5DR. . . . . . . . . . . . . . DATA     COMMAND_PROCESSING  
SFRPRT5PS. . . . . . . . . . . . . . DATA     COMMAND_PROCESSING  
SFRPRT5SEL . . . . . . . . . . . . . DATA     COMMAND_PROCESSING  
SFRPRT6DR. . . . . . . . . . . . . . DATA     COMMAND_PROCESSING  
SFRPRT6PS. . . . . . . . . . . . . . DATA     COMMAND_PROCESSING  
SFRPRT6SEL . . . . . . . . . . . . . DATA     COMMAND_PROCESSING  
SH_current_position. . . . . . . . . XDATA    GLOBALS  COMMAND_PROCESSING  INTERRUPTIONS  
SP . . . . . . . . . . . . . . . . . DATA     COMMAND_PROCESSING  
SpcLockState . . . . . . . . . . . . XDATA    CYSPC  
STARTUP1 . . . . . . . . . . . . . . CODE     ?C_STARTUP  
tension_valid. . . . . . . . . . . . BIT      GLOBALS  INTERRUPTIONS  MAIN  
timer_value. . . . . . . . . . . . . XDATA    GLOBALS  COMMAND_PROCESSING  INTERRUPTIONS  
timer_value0 . . . . . . . . . . . . XDATA    GLOBALS  COMMAND_PROCESSING  INTERRUPTIONS  
UART_RS485_ClearRxBuffer . . . . . . CODE     UART_RS485  MAIN  
UART_RS485_ClearTxBuffer . . . . . . CODE     UART_RS485  MAIN  
UART_RS485_Enable. . . . . . . . . . CODE     UART_RS485  
UART_RS485_errorStatus . . . . . . . XDATA    UART_RS485  UART_RS485_INT  
UART_RS485_GetByte . . . . . . . . . CODE     UART_RS485  
UART_RS485_GetChar . . . . . . . . . CODE     UART_RS485  INTERRUPTIONS  
UART_RS485_GetRxBufferSize . . . . . CODE     UART_RS485  INTERRUPTIONS  
UART_RS485_GetTxBufferSize . . . . . CODE     UART_RS485  
UART_RS485_Init. . . . . . . . . . . CODE     UART_RS485  MAIN  
UART_RS485_initVar . . . . . . . . . XDATA    UART_RS485  
UART_RS485_ReadControlRegister . . . CODE     UART_RS485  
UART_RS485_ReadRxData. . . . . . . . CODE     UART_RS485  
UART_RS485_ReadRxStatus. . . . . . . CODE     UART_RS485  MAIN  
UART_RS485_ReadTxStatus. . . . . . . CODE     UART_RS485  COMMAND_PROCESSING  
UART_RS485_rxBuffer. . . . . . . . . XDATA    UART_RS485  UART_RS485_INT  
UART_RS485_rxBufferLoopDetect. . . . XDATA    UART_RS485  UART_RS485_INT  
UART_RS485_rxBufferOverflow. . . . . XDATA    UART_RS485  UART_RS485_INT  
UART_RS485_rxBufferRead. . . . . . . XDATA    UART_RS485  UART_RS485_INT  
UART_RS485_rxBufferWrite . . . . . . XDATA    UART_RS485  UART_RS485_INT  
UART_RS485_RXISR . . . . . . . . . . CODE     UART_RS485_INT  UART_RS485  
UART_RS485_Start . . . . . . . . . . CODE     UART_RS485  MAIN  
UART_RS485_Stop. . . . . . . . . . . CODE     UART_RS485  MAIN  
watchdog_flag. . . . . . . . . . . . BIT      GLOBALS  

Program Size: data=75.6 xdata=4223 const=635 code=41117
LX51 RUN COMPLETE.  0 WARNING(S),  0 ERROR(S)
